(lp0
ccopy_reg
_reconstructor
p1
(cdataset.Country
Country
p2
c__builtin__
object
p3
Ntp4
Rp5
(dp6
S'movies'
p7
(lp8
sS'authors'
p9
(lp10
I1
aI7
aI10
aI11
aI33
aI54
aI57
aI75
aI76
aI77
aI106
aI160
aI246
asS'books'
p11
(lp12
I950
aI1
aI2
aI8
aI9
aI17
aI18
aI20
aI31
aI32
aI46
aI47
aI48
aI49
aI51
aI63
aI69
aI79
aI86
aI87
aI135
aI153
aI164
aI201
aI229
aI233
aI234
aI321
aI349
aI380
aI392
aI478
aI483
aI623
aI649
aI710
aI725
aI749
aI763
aI798
aI836
aI926
aI928
asS'id'
p13
I1
sS'name'
p14
VUnited Kingdom
p15
sbag1
(g2
g3
Ntp16
Rp17
(dp18
g7
(lp19
sg9
(lp20
I2
aI3
aI4
aI5
aI8
aI9
aI12
aI14
aI16
aI18
aI19
aI20
aI21
aI22
aI23
aI25
aI26
aI27
aI28
aI30
aI31
aI32
aI34
aI35
aI36
aI38
aI39
aI40
aI41
aI42
aI43
aI44
aI45
aI46
aI47
aI48
aI49
aI50
aI51
aI52
aI55
aI56
aI58
aI59
aI60
aI61
aI62
aI63
aI64
aI65
aI66
aI68
aI69
aI70
aI71
aI72
aI73
aI74
aI78
aI79
aI81
aI82
aI83
aI84
aI85
aI86
aI88
aI89
aI90
aI91
aI92
aI93
aI94
aI95
aI97
aI98
aI99
aI101
aI102
aI103
aI104
aI105
aI108
aI109
aI110
aI111
aI112
aI113
aI116
aI118
aI120
aI121
aI122
aI123
aI124
aI125
aI126
aI127
aI129
aI130
aI131
aI132
aI135
aI136
aI137
aI138
aI139
aI142
aI144
aI145
aI146
aI147
aI148
aI149
aI150
aI151
aI153
aI154
aI156
aI157
aI158
aI161
aI162
aI163
aI164
aI165
aI166
aI168
aI169
aI170
aI171
aI172
aI173
aI174
aI176
aI177
aI178
aI179
aI180
aI182
aI185
aI186
aI189
aI190
aI191
aI194
aI195
aI197
aI199
aI201
aI204
aI205
aI207
aI208
aI209
aI214
aI215
aI216
aI217
aI218
aI220
aI221
aI222
aI224
aI225
aI226
aI227
aI231
aI233
aI234
aI235
aI236
aI238
aI239
aI242
aI243
aI244
aI245
aI247
aI248
aI253
aI256
aI259
aI261
aI262
aI265
aI266
aI269
aI271
aI272
aI275
aI281
aI286
aI287
aI288
aI289
aI292
aI294
aI296
aI298
aI299
asg11
(lp21
I970
aI3
aI4
aI5
aI6
aI11
aI13
aI14
aI15
aI16
aI19
aI21
aI22
aI23
aI24
aI25
aI27
aI29
aI30
aI34
aI35
aI36
aI37
aI38
aI39
aI41
aI42
aI43
aI44
aI45
aI50
aI52
aI53
aI54
aI56
aI57
aI58
aI59
aI60
aI61
aI64
aI65
aI66
aI67
aI68
aI70
aI72
aI74
aI76
aI77
aI78
aI80
aI82
aI83
aI85
aI88
aI89
aI90
aI91
aI92
aI93
aI94
aI95
aI96
aI102
aI103
aI106
aI107
aI108
aI109
aI110
aI111
aI113
aI116
aI117
aI118
aI119
aI120
aI121
aI122
aI123
aI124
aI125
aI126
aI127
aI128
aI129
aI130
aI132
aI136
aI137
aI138
aI140
aI141
aI142
aI143
aI144
aI145
aI146
aI147
aI149
aI150
aI151
aI152
aI154
aI155
aI156
aI157
aI159
aI160
aI161
aI162
aI165
aI166
aI167
aI169
aI170
aI171
aI172
aI173
aI174
aI175
aI176
aI177
aI178
aI179
aI180
aI181
aI182
aI183
aI184
aI186
aI187
aI188
aI189
aI190
aI191
aI192
aI193
aI194
aI195
aI196
aI197
aI198
aI199
aI200
aI202
aI203
aI204
aI205
aI206
aI208
aI209
aI210
aI211
aI212
aI213
aI214
aI215
aI216
aI217
aI218
aI219
aI220
aI221
aI223
aI224
aI225
aI226
aI227
aI228
aI230
aI231
aI232
aI235
aI236
aI237
aI238
aI239
aI240
aI241
aI242
aI245
aI246
aI247
aI248
aI249
aI251
aI252
aI253
aI254
aI255
aI256
aI257
aI259
aI260
aI262
aI263
aI264
aI266
aI267
aI268
aI269
aI270
aI271
aI272
aI273
aI274
aI275
aI276
aI277
aI279
aI280
aI281
aI282
aI283
aI284
aI285
aI286
aI287
aI288
aI289
aI290
aI291
aI292
aI293
aI294
aI295
aI296
aI298
aI299
aI300
aI301
aI302
aI303
aI304
aI305
aI306
aI307
aI309
aI310
aI311
aI312
aI313
aI314
aI315
aI316
aI317
aI318
aI319
aI320
aI322
aI323
aI324
aI325
aI326
aI327
aI329
aI330
aI331
aI332
aI333
aI334
aI335
aI336
aI337
aI338
aI339
aI341
aI342
aI343
aI344
aI345
aI346
aI347
aI348
aI350
aI351
aI352
aI353
aI356
aI357
aI358
aI359
aI361
aI362
aI363
aI366
aI367
aI368
aI369
aI370
aI371
aI372
aI373
aI374
aI375
aI376
aI377
aI378
aI379
aI381
aI382
aI383
aI384
aI385
aI386
aI387
aI388
aI389
aI390
aI391
aI393
aI394
aI395
aI396
aI397
aI399
aI400
aI401
aI402
aI403
aI404
aI405
aI406
aI407
aI408
aI409
aI411
aI414
aI415
aI416
aI417
aI418
aI419
aI420
aI421
aI422
aI423
aI424
aI425
aI427
aI428
aI430
aI431
aI432
aI433
aI434
aI435
aI436
aI437
aI438
aI439
aI440
aI441
aI442
aI443
aI444
aI445
aI446
aI447
aI448
aI450
aI451
aI452
aI453
aI454
aI456
aI457
aI458
aI459
aI460
aI462
aI463
aI464
aI465
aI466
aI467
aI468
aI469
aI470
aI471
aI472
aI473
aI474
aI477
aI479
aI480
aI481
aI482
aI484
aI485
aI486
aI487
aI488
aI489
aI490
aI491
aI492
aI493
aI494
aI495
aI496
aI497
aI498
aI500
aI501
aI502
aI503
aI504
aI505
aI506
aI507
aI508
aI509
aI510
aI511
aI512
aI513
aI514
aI515
aI516
aI517
aI519
aI520
aI521
aI523
aI524
aI525
aI526
aI527
aI528
aI529
aI530
aI531
aI532
aI533
aI535
aI536
aI537
aI538
aI539
aI540
aI541
aI542
aI543
aI545
aI546
aI547
aI549
aI550
aI552
aI553
aI554
aI555
aI556
aI557
aI558
aI559
aI560
aI562
aI563
aI565
aI566
aI567
aI568
aI569
aI570
aI571
aI572
aI573
aI575
aI576
aI577
aI579
aI580
aI581
aI582
aI583
aI584
aI585
aI586
aI587
aI588
aI590
aI591
aI592
aI593
aI595
aI596
aI597
aI598
aI600
aI601
aI602
aI603
aI605
aI606
aI607
aI608
aI610
aI611
aI612
aI613
aI614
aI615
aI617
aI618
aI619
aI620
aI621
aI622
aI624
aI625
aI626
aI627
aI628
aI630
aI631
aI632
aI633
aI634
aI635
aI637
aI638
aI639
aI640
aI641
aI643
aI646
aI647
aI648
aI650
aI651
aI652
aI653
aI655
aI656
aI657
aI658
aI660
aI661
aI662
aI663
aI664
aI665
aI666
aI668
aI669
aI670
aI672
aI673
aI674
aI675
aI676
aI677
aI678
aI679
aI680
aI681
aI682
aI683
aI684
aI685
aI686
aI687
aI688
aI689
aI690
aI691
aI692
aI693
aI694
aI695
aI698
aI699
aI700
aI702
aI703
aI704
aI706
aI707
aI708
aI709
aI711
aI712
aI713
aI714
aI715
aI716
aI717
aI718
aI719
aI720
aI721
aI722
aI723
aI724
aI726
aI727
aI728
aI729
aI730
aI731
aI733
aI734
aI735
aI736
aI737
aI738
aI740
aI744
aI745
aI746
aI747
aI748
aI750
aI751
aI752
aI753
aI754
aI755
aI756
aI757
aI758
aI759
aI760
aI761
aI762
aI764
aI765
aI766
aI767
aI768
aI769
aI770
aI771
aI772
aI773
aI774
aI775
aI776
aI777
aI778
aI779
aI780
aI782
aI783
aI785
aI786
aI787
aI788
aI790
aI791
aI792
aI793
aI794
aI796
aI797
aI799
aI802
aI803
aI804
aI806
aI807
aI808
aI809
aI811
aI815
aI816
aI818
aI819
aI820
aI823
aI824
aI825
aI826
aI827
aI828
aI829
aI830
aI831
aI833
aI834
aI835
aI837
aI838
aI839
aI841
aI842
aI843
aI846
aI848
aI849
aI850
aI852
aI853
aI854
aI855
aI856
aI857
aI858
aI859
aI860
aI861
aI862
aI865
aI866
aI868
aI869
aI870
aI871
aI872
aI873
aI874
aI875
aI877
aI878
aI879
aI880
aI881
aI882
aI885
aI886
aI887
aI888
aI889
aI891
aI892
aI893
aI897
aI898
aI899
aI900
aI902
aI903
aI904
aI905
aI908
aI911
aI912
aI913
aI914
aI916
aI917
aI919
aI920
aI923
aI924
aI925
aI927
aI931
aI934
aI937
aI938
aI939
aI940
aI941
aI942
aI943
aI944
aI945
aI946
aI947
aI948
aI949
aI952
aI953
aI955
aI956
aI958
aI959
aI962
aI963
aI964
aI965
aI967
aI968
aI969
asg13
I2
sg14
VUnited States
p22
sbag1
(g2
g3
Ntp23
Rp24
(dp25
g7
(lp26
sg9
(lp27
I17
aI24
aI53
aI80
aI87
aI96
aI100
aI114
aI115
aI117
aI119
aI133
aI134
aI140
aI141
aI143
aI152
aI155
aI159
aI167
aI175
aI181
aI183
aI184
aI187
aI188
aI192
aI193
aI196
aI198
aI200
aI202
aI203
aI206
aI210
aI211
aI212
aI213
aI219
aI223
aI228
aI229
aI230
aI232
aI237
aI240
aI241
aI249
aI250
aI251
aI252
aI254
aI255
aI257
aI258
aI260
aI263
aI264
aI267
aI268
aI270
aI273
aI274
aI276
aI277
aI278
aI279
aI280
aI282
aI283
aI284
aI285
aI290
aI291
aI293
aI295
aI297
asg11
(lp28
I966
aI40
aI62
aI71
aI73
aI81
aI84
aI97
aI98
aI100
aI101
aI104
aI105
aI114
aI131
aI133
aI148
aI158
aI163
aI168
aI185
aI222
aI243
aI258
aI297
aI308
aI354
aI355
aI360
aI364
aI410
aI412
aI426
aI429
aI449
aI455
aI475
aI499
aI518
aI534
aI544
aI548
aI551
aI561
aI564
aI574
aI578
aI589
aI594
aI599
aI604
aI609
aI616
aI629
aI636
aI642
aI644
aI645
aI654
aI667
aI671
aI696
aI697
aI701
aI705
aI732
aI739
aI741
aI742
aI743
aI781
aI784
aI789
aI795
aI800
aI801
aI805
aI810
aI812
aI813
aI814
aI817
aI821
aI822
aI832
aI840
aI844
aI845
aI847
aI851
aI863
aI864
aI867
aI876
aI883
aI884
aI890
aI894
aI895
aI896
aI901
aI906
aI907
aI909
aI910
aI915
aI918
aI921
aI922
aI929
aI930
aI932
aI933
aI935
aI936
aI951
aI954
aI957
aI961
asg13
I3
sg14
VUnknown
p29
sbag1
(g2
g3
Ntp30
Rp31
(dp32
g7
(lp33
sg9
(lp34
I6
aI13
aI15
aI107
aI128
asg11
(lp35
I960
aI7
aI10
aI12
aI26
aI28
aI33
aI55
aI112
aI115
aI134
aI139
aI328
aI340
aI365
aI398
aI413
aI659
asg13
I4
sg14
VFrance
p36
sbag1
(g2
g3
Ntp37
Rp38
(dp39
g7
(lp40
sg9
(lp41
I29
asg11
(lp42
I75
asg13
I7
sg14
VScotland
p43
sbag1
(g2
g3
Ntp44
Rp45
(dp46
g7
(lp47
sg9
(lp48
I33
aI75
asg11
(lp49
I836
aI87
aI229
aI349
aI380
aI392
aI483
aI623
aI725
aI749
aI798
asg13
I8
sg14
VCanada
p50
sbag1
(g2
g3
Ntp51
Rp52
(dp53
g7
(lp54
sg9
(lp55
I3
aI5
asg11
(lp56
I6
aI4
asg13
I16
sg14
VRussia
p57
sbag1
(g2
g3
Ntp58
Rp59
(dp60
g7
(lp61
sg9
(lp62
I102
asg11
(lp63
I310
asg13
I17
sg14
VIreland
p64
sbag1
(g2
g3
Ntp65
Rp66
(dp67
g7
(lp68
sg9
(lp69
I104
asg11
(lp70
I804
aI315
aI717
asg13
I18
sg14
VAustralia
p71
sbag1
(g2
g3
Ntp72
Rp73
(dp74
g7
(lp75
sg9
(lp76
I54
asg11
(lp77
I153
asg13
I20
sg14
VIndia
p78
sbag1
(g2
g3
Ntp79
Rp80
(dp81
g7
(lp82
sg11
(lp83
I99
asg13
I23
sg14
VCzech Republic
p84
sg9
(lp85
I37
asbag1
(g2
g3
Ntp86
Rp87
(dp88
g7
(lp89
sg11
(lp90
I164
asg13
I24
sg14
V England
p91
sg9
(lp92
I57
asbag1
(g2
g3
Ntp93
Rp94
(dp95
g7
(lp96
sg11
(lp97
I522
aI207
aI244
aI250
aI261
aI265
aI278
aI461
aI476
asg13
I25
sg14
VKeith Laumer
p98
sg9
(lp99
I67
asbag1
(g2
g3
Ntp100
Rp101
(dp102
g7
(lp103
sg11
(lp104
I804
aI315
aI717
asg13
I26
sg14
V New Zealand
p105
sg9
(lp106
I104
asbag1
(g2
g3
Ntp107
Rp108
(dp109
g7
(lp110
sg11
(lp111
I949
aI505
asg13
I27
sg14
V Philippines
p112
sg9
(lp113
I169
asba.