(lp0
ccopy_reg
_reconstructor
p1
(cdataset.Country
Country
p2
c__builtin__
object
p3
Ntp4
Rp5
(dp6
S'movies'
p7
(lp8
sS'authors'
p9
(lp10
I1
aI7
aI10
aI11
aI33
aI54
aI57
aI75
aI76
aI77
aI106
aI160
aI246
asS'id'
p11
I1
sS'name'
p12
VUnited Kingdom
p13
sbag1
(g2
g3
Ntp14
Rp15
(dp16
g7
(lp17
sg9
(lp18
I2
aI3
aI4
aI5
aI8
aI9
aI12
aI14
aI16
aI18
aI19
aI20
aI21
aI22
aI23
aI25
aI26
aI27
aI28
aI30
aI31
aI32
aI34
aI35
aI36
aI38
aI39
aI40
aI41
aI42
aI43
aI44
aI45
aI46
aI47
aI48
aI49
aI50
aI51
aI52
aI55
aI56
aI58
aI59
aI60
aI61
aI62
aI63
aI64
aI65
aI66
aI68
aI69
aI70
aI71
aI72
aI73
aI74
aI78
aI79
aI81
aI82
aI83
aI84
aI85
aI86
aI88
aI89
aI90
aI91
aI92
aI93
aI94
aI95
aI97
aI98
aI99
aI101
aI102
aI103
aI104
aI105
aI108
aI109
aI110
aI111
aI112
aI113
aI116
aI118
aI120
aI121
aI122
aI123
aI124
aI125
aI126
aI127
aI129
aI130
aI131
aI132
aI135
aI136
aI137
aI138
aI139
aI142
aI144
aI145
aI146
aI147
aI148
aI149
aI150
aI151
aI153
aI154
aI156
aI157
aI158
aI161
aI162
aI163
aI164
aI165
aI166
aI168
aI169
aI170
aI171
aI172
aI173
aI174
aI176
aI177
aI178
aI179
aI180
aI182
aI185
aI186
aI189
aI190
aI191
aI194
aI195
aI197
aI199
aI201
aI204
aI205
aI207
aI208
aI209
aI214
aI215
aI216
aI217
aI218
aI220
aI221
aI222
aI224
aI225
aI226
aI227
aI231
aI233
aI234
aI235
aI236
aI238
aI239
aI242
aI243
aI244
aI245
aI247
aI248
aI253
aI256
aI259
aI261
aI262
aI265
aI266
aI269
aI271
aI272
aI275
aI281
aI286
aI287
aI288
aI289
aI292
aI294
aI296
aI298
aI299
asg11
I2
sg12
VUnited States
p19
sbag1
(g2
g3
Ntp20
Rp21
(dp22
g7
(lp23
sg9
(lp24
I17
aI24
aI53
aI80
aI87
aI96
aI100
aI114
aI115
aI117
aI119
aI133
aI134
aI140
aI141
aI143
aI152
aI155
aI159
aI167
aI175
aI181
aI183
aI184
aI187
aI188
aI192
aI193
aI196
aI198
aI200
aI202
aI203
aI206
aI210
aI211
aI212
aI213
aI219
aI223
aI228
aI229
aI230
aI232
aI237
aI240
aI241
aI249
aI250
aI251
aI252
aI254
aI255
aI257
aI258
aI260
aI263
aI264
aI267
aI268
aI270
aI273
aI274
aI276
aI277
aI278
aI279
aI280
aI282
aI283
aI284
aI285
aI290
aI291
aI293
aI295
aI297
asg11
I3
sg12
VUnknown
p25
sbag1
(g2
g3
Ntp26
Rp27
(dp28
g7
(lp29
sg9
(lp30
I6
aI13
aI15
aI107
aI128
asg11
I4
sg12
VFrance
p31
sbag1
(g2
g3
Ntp32
Rp33
(dp34
g7
(lp35
sg9
(lp36
I29
asg11
I7
sg12
VScotland
p37
sbag1
(g2
g3
Ntp38
Rp39
(dp40
g7
(lp41
sg9
(lp42
I33
aI75
asg11
I8
sg12
VCanada
p43
sbag1
(g2
g3
Ntp44
Rp45
(dp46
g7
(lp47
sg9
(lp48
I3
aI5
asg11
I16
sg12
VRussia
p49
sbag1
(g2
g3
Ntp50
Rp51
(dp52
g7
(lp53
sg9
(lp54
I102
asg11
I17
sg12
VIreland
p55
sbag1
(g2
g3
Ntp56
Rp57
(dp58
g7
(lp59
sg9
(lp60
I104
asg11
I18
sg12
VAustralia
p61
sbag1
(g2
g3
Ntp62
Rp63
(dp64
g7
(lp65
sg9
(lp66
I54
asg11
I20
sg12
VIndia
p67
sbag1
(g2
g3
Ntp68
Rp69
(dp70
g7
(lp71
sg11
I23
sg12
VCzech Republic
p72
sg9
(lp73
I37
asbag1
(g2
g3
Ntp74
Rp75
(dp76
g7
(lp77
sg11
I24
sg12
V England
p78
sg9
(lp79
I57
asbag1
(g2
g3
Ntp80
Rp81
(dp82
g7
(lp83
sg11
I25
sg12
VKeith Laumer
p84
sg9
(lp85
I67
asbag1
(g2
g3
Ntp86
Rp87
(dp88
g7
(lp89
sg11
I26
sg12
V New Zealand
p90
sg9
(lp91
I104
asbag1
(g2
g3
Ntp92
Rp93
(dp94
g7
(lp95
sg11
I27
sg12
V Philippines
p96
sg9
(lp97
I169
asba.