(lp0
ccopy_reg
_reconstructor
p1
(cdataset.Country
Country
p2
c__builtin__
object
p3
Ntp4
Rp5
(dp6
S'name'
p7
VUnited Kingdom
p8
sS'n_books'
p9
I69
sS'movies'
p10
(lp11
sS'books'
p12
(lp13
I1
aI2
aI8
aI9
aI17
aI18
aI20
aI31
aI32
aI35
aI46
aI47
aI48
aI49
aI50
aI51
aI63
aI69
aI79
aI86
aI102
aI135
aI156
aI164
aI201
aI201
aI234
aI338
aI346
aI351
aI366
aI423
aI426
aI449
aI458
aI458
aI478
aI501
aI1
aI632
aI652
aI686
aI687
aI705
aI726
aI768
aI826
aI828
aI848
aI873
aI889
aI891
aI899
aI900
aI902
aI907
aI950
aI153
aI229
aI233
aI321
aI364
aI444
aI607
aI629
aI763
aI766
aI140
aI821
asS'authors'
p14
(lp15
sS'id'
p16
I1
sbag1
(g2
g3
Ntp17
Rp18
(dp19
g7
VUnited States
p20
sg9
I790
sg10
(lp21
sg12
(lp22
I3
aI4
aI5
aI11
aI13
aI14
aI15
aI16
aI19
aI21
aI22
aI23
aI25
aI29
aI36
aI38
aI39
aI41
aI42
aI43
aI44
aI52
aI54
aI56
aI59
aI60
aI61
aI64
aI66
aI68
aI71
aI72
aI73
aI74
aI76
aI77
aI80
aI81
aI82
aI83
aI84
aI85
aI89
aI91
aI93
aI95
aI97
aI98
aI99
aI100
aI101
aI103
aI104
aI106
aI108
aI109
aI110
aI111
aI29
aI114
aI116
aI117
aI118
aI119
aI120
aI122
aI123
aI125
aI126
aI127
aI129
aI130
aI131
aI132
aI133
aI136
aI138
aI143
aI144
aI146
aI147
aI149
aI150
aI152
aI154
aI157
aI158
aI162
aI167
aI168
aI169
aI170
aI171
aI174
aI171
aI175
aI177
aI178
aI179
aI180
aI181
aI182
aI184
aI185
aI186
aI188
aI190
aI195
aI198
aI199
aI200
aI202
aI204
aI52
aI206
aI208
aI209
aI198
aI199
aI200
aI202
aI204
aI52
aI206
aI208
aI209
aI220
aI223
aI226
aI228
aI231
aI243
aI245
aI246
aI257
aI267
aI271
aI272
aI284
aI290
aI293
aI295
aI296
aI302
aI305
aI306
aI309
aI323
aI325
aI328
aI332
aI333
aI336
aI339
aI342
aI345
aI347
aI350
aI356
aI358
aI361
aI363
aI367
aI371
aI374
aI389
aI400
aI405
aI411
aI417
aI419
aI424
aI425
aI428
aI430
aI433
aI439
aI441
aI443
aI447
aI454
aI447
aI463
aI467
aI472
aI475
aI477
aI477
aI483
aI484
aI475
aI485
aI486
aI489
aI491
aI492
aI495
aI499
aI502
aI503
aI509
aI512
aI514
aI516
aI521
aI3
aI531
aI534
aI537
aI540
aI542
aI547
aI549
aI549
aI555
aI556
aI547
aI567
aI572
aI573
aI576
aI585
aI589
aI591
aI594
aI595
aI596
aI597
aI613
aI615
aI616
aI623
aI630
aI635
aI640
aI641
aI643
aI649
aI653
aI656
aI661
aI673
aI682
aI696
aI702
aI706
aI710
aI711
aI712
aI713
aI715
aI719
aI723
aI730
aI733
aI742
aI744
aI746
aI751
aI755
aI761
aI765
aI767
aI770
aI771
aI774
aI781
aI789
aI799
aI801
aI803
aI805
aI807
aI808
aI811
aI814
aI820
aI829
aI831
aI842
aI849
aI850
aI854
aI860
aI875
aI877
aI882
aI893
aI898
aI904
aI905
aI906
aI910
aI911
aI339
aI917
aI926
aI928
aI929
aI956
aI52
aI6
aI27
aI30
aI34
aI37
aI40
aI45
aI53
aI57
aI58
aI67
aI70
aI88
aI90
aI94
aI96
aI105
aI107
aI121
aI124
aI128
aI137
aI141
aI142
aI148
aI151
aI155
aI159
aI160
aI161
aI163
aI165
aI172
aI173
aI183
aI187
aI189
aI191
aI192
aI193
aI194
aI196
aI197
aI203
aI205
aI207
aI210
aI211
aI212
aI213
aI214
aI215
aI216
aI217
aI218
aI219
aI221
aI222
aI224
aI227
aI230
aI232
aI235
aI236
aI237
aI238
aI239
aI240
aI242
aI244
aI247
aI248
aI250
aI251
aI253
aI254
aI255
aI256
aI259
aI260
aI261
aI262
aI264
aI265
aI266
aI268
aI269
aI270
aI273
aI274
aI275
aI276
aI277
aI278
aI279
aI280
aI281
aI282
aI283
aI285
aI287
aI288
aI291
aI292
aI294
aI298
aI299
aI300
aI303
aI304
aI307
aI310
aI311
aI314
aI315
aI316
aI317
aI318
aI319
aI322
aI324
aI326
aI327
aI329
aI330
aI335
aI337
aI341
aI343
aI344
aI348
aI352
aI353
aI354
aI362
aI368
aI369
aI370
aI372
aI373
aI375
aI376
aI377
aI378
aI379
aI381
aI382
aI383
aI384
aI385
aI386
aI387
aI388
aI390
aI391
aI393
aI394
aI396
aI397
aI399
aI401
aI402
aI403
aI404
aI406
aI407
aI408
aI409
aI414
aI415
aI418
aI420
aI421
aI427
aI431
aI432
aI435
aI436
aI437
aI438
aI440
aI445
aI446
aI448
aI450
aI451
aI452
aI453
aI455
aI456
aI457
aI459
aI460
aI461
aI464
aI466
aI468
aI469
aI470
aI471
aI473
aI476
aI479
aI480
aI481
aI482
aI487
aI488
aI490
aI493
aI494
aI496
aI497
aI498
aI500
aI504
aI505
aI506
aI507
aI508
aI510
aI511
aI513
aI515
aI517
aI518
aI519
aI520
aI522
aI523
aI524
aI525
aI526
aI527
aI529
aI530
aI532
aI533
aI536
aI538
aI541
aI543
aI545
aI546
aI550
aI551
aI552
aI553
aI557
aI558
aI559
aI560
aI562
aI563
aI565
aI566
aI568
aI569
aI570
aI571
aI575
aI577
aI579
aI580
aI581
aI582
aI583
aI584
aI587
aI590
aI592
aI593
aI598
aI600
aI601
aI603
aI605
aI606
aI608
aI610
aI611
aI612
aI618
aI619
aI620
aI621
aI624
aI625
aI626
aI627
aI628
aI631
aI633
aI634
aI637
aI638
aI639
aI646
aI647
aI648
aI650
aI651
aI655
aI657
aI658
aI660
aI662
aI663
aI665
aI666
aI668
aI669
aI672
aI674
aI675
aI676
aI679
aI680
aI681
aI683
aI684
aI685
aI688
aI689
aI691
aI692
aI693
aI695
aI697
aI700
aI704
aI707
aI708
aI709
aI714
aI716
aI717
aI718
aI720
aI724
aI728
aI729
aI731
aI734
aI735
aI736
aI737
aI738
aI739
aI740
aI741
aI745
aI747
aI748
aI750
aI752
aI753
aI754
aI756
aI757
aI758
aI759
aI760
aI764
aI769
aI772
aI775
aI778
aI779
aI782
aI783
aI785
aI786
aI787
aI788
aI790
aI791
aI792
aI793
aI794
aI796
aI797
aI802
aI804
aI806
aI809
aI810
aI815
aI816
aI819
aI823
aI824
aI825
aI830
aI833
aI834
aI835
aI837
aI838
aI839
aI841
aI843
aI846
aI851
aI852
aI855
aI856
aI857
aI858
aI859
aI861
aI862
aI865
aI866
aI867
aI868
aI870
aI871
aI872
aI874
aI878
aI879
aI880
aI881
aI883
aI885
aI886
aI896
aI897
aI903
aI908
aI912
aI913
aI914
aI916
aI919
aI920
aI921
aI923
aI925
aI927
aI930
aI934
aI936
aI937
aI938
aI939
aI941
aI942
aI944
aI945
aI946
aI948
aI949
aI953
aI954
aI955
aI958
aI959
aI962
aI963
aI964
aI965
aI967
aI969
aI24
aI113
aI355
aI380
aI65
aI241
aI249
aI263
aI313
aI320
aI331
aI357
aI422
aI462
aI474
aI535
aI602
aI670
aI853
aI901
aI465
aI664
aI176
aI301
asg14
(lp23
sg16
I2
sbag1
(g2
g3
Ntp24
Rp25
(dp26
g7
VUnknown
p27
sg9
I113
sg10
(lp28
sg12
(lp29
I203
aI205
aI207
aI210
aI211
aI212
aI213
aI214
aI215
aI221
aI219
aI244
aI268
aI286
aI292
aI316
aI362
aI384
aI383
aI385
aI407
aI409
aI476
aI527
aI524
aI622
aI636
aI678
aI694
aI698
aI699
aI703
aI721
aI722
aI777
aI812
aI822
aI827
aI845
aI847
aI869
aI876
aI888
aI890
aI915
aI918
aI924
aI943
aI947
aI952
aI62
aI78
aI92
aI252
aI258
aI297
aI308
aI360
aI410
aI412
aI429
aI434
aI442
aI528
aI539
aI544
aI548
aI554
aI561
aI574
aI578
aI588
aI599
aI604
aI614
aI617
aI642
aI644
aI654
aI667
aI671
aI690
aI701
aI727
aI732
aI743
aI762
aI773
aI776
aI784
aI795
aI800
aI813
aI817
aI832
aI840
aI863
aI864
aI884
aI887
aI895
aI909
aI922
aI931
aI932
aI933
aI935
aI951
aI957
aI961
aI966
aI968
aI970
asg14
(lp30
sg16
I3
sbag1
(g2
g3
Ntp31
Rp32
(dp33
g7
VFrance
p34
sg9
I25
sg10
(lp35
sg12
(lp36
I7
aI10
aI12
aI26
aI28
aI33
aI55
aI12
aI115
aI134
aI139
aI312
aI340
aI340
aI395
aI413
aI564
aI586
aI659
aI940
aI112
aI365
aI398
aI780
aI960
asg14
(lp37
sg16
I4
sbag1
(g2
g3
Ntp38
Rp39
(dp40
g7
VScotland
p41
sg9
I1
sg10
(lp42
sg12
(lp43
I75
asg14
(lp44
sg16
I7
sbag1
(g2
g3
Ntp45
Rp46
(dp47
g7
VCanada
p48
sg9
I8
sg10
(lp49
sg12
(lp50
I87
aI225
aI725
aI349
aI392
aI749
aI798
aI836
asg14
(lp51
sg16
I8
sbag1
(g2
g3
Ntp52
Rp53
(dp54
g7
VGermany
p55
sg9
I1
sg10
(lp56
sg12
(lp57
I145
asg14
(lp58
sg16
I10
sbag1
(g2
g3
Ntp59
Rp60
(dp61
g7
VArgentina
p62
sg9
I2
sg10
(lp63
sg12
(lp64
I166
aI334
asg14
(lp65
sg16
I11
sbag1
(g2
g3
Ntp66
Rp67
(dp68
g7
VBangladesh
p69
sg9
I1
sg10
(lp70
sg12
(lp71
I289
asg14
(lp72
sg16
I13
sbag1
(g2
g3
Ntp73
Rp74
(dp75
g7
VPhilippines (first printing in Berlin)
p76
sg9
I1
sg10
(lp77
sg12
(lp78
I359
asg14
(lp79
sg16
I15
sbag1
(g2
g3
Ntp80
Rp81
(dp82
g7
VRussia
p83
sg9
I1
sg10
(lp84
sg12
(lp85
I416
asg14
(lp86
sg16
I16
sbag1
(g2
g3
Ntp87
Rp88
(dp89
g7
VIreland
p90
sg9
I2
sg10
(lp91
sg12
(lp92
I609
aI844
asg14
(lp93
sg16
I17
sbag1
(g2
g3
Ntp94
Rp95
(dp96
g7
VAustralia
p97
sg9
I2
sg10
(lp98
sg12
(lp99
I645
aI894
asg14
(lp100
sg16
I18
sbag1
(g2
g3
Ntp101
Rp102
(dp103
g7
VSouth Africa
p104
sg9
I1
sg10
(lp105
sg12
(lp106
I677
asg14
(lp107
sg16
I19
sbag1
(g2
g3
Ntp108
Rp109
(dp110
g7
VIndia
p111
sg9
I1
sg10
(lp112
sg12
(lp113
I818
asg14
(lp114
sg16
I20
sbag1
(g2
g3
Ntp115
Rp116
(dp117
g7
VJapan
p118
sg9
I1
sg10
(lp119
sg12
(lp120
I892
asg14
(lp121
sg16
I22
sba.