(lp0
ccopy_reg
_reconstructor
p1
(cdataset.Year
Year
p2
c__builtin__
object
p3
Ntp4
Rp5
(dp6
S'movies'
p7
(lp8
sS'books'
p9
(lp10
sS'n_books'
p11
I5
sS'year'
p12
I2017
sbag1
(g2
g3
Ntp13
Rp14
(dp15
g7
(lp16
sg9
(lp17
sg11
I12
sg12
I2016
sbag1
(g2
g3
Ntp18
Rp19
(dp20
g7
(lp21
sg9
(lp22
sg11
I28
sg12
I2015
sbag1
(g2
g3
Ntp23
Rp24
(dp25
g7
(lp26
sg9
(lp27
sg11
I20
sg12
I2014
sbag1
(g2
g3
Ntp28
Rp29
(dp30
g7
(lp31
sg9
(lp32
sg11
I30
sg12
I2013
sbag1
(g2
g3
Ntp33
Rp34
(dp35
g7
(lp36
sg9
(lp37
sg11
I22
sg12
I2012
sbag1
(g2
g3
Ntp38
Rp39
(dp40
g7
(lp41
sg9
(lp42
sg11
I62
sg12
I2011
sbag1
(g2
g3
Ntp43
Rp44
(dp45
g7
(lp46
sg9
(lp47
sg11
I92
sg12
I2010
sbag1
(g2
g3
Ntp48
Rp49
(dp50
g7
(lp51
sg9
(lp52
sg11
I41
sg12
I2009
sbag1
(g2
g3
Ntp53
Rp54
(dp55
g7
(lp56
sg9
(lp57
sg11
I32
sg12
I2008
sbag1
(g2
g3
Ntp58
Rp59
(dp60
g7
(lp61
sg9
(lp62
sg11
I13
sg12
I2007
sbag1
(g2
g3
Ntp63
Rp64
(dp65
g7
(lp66
sg9
(lp67
I623
asg11
I16
sg12
I2006
sbag1
(g2
g3
Ntp68
Rp69
(dp70
g7
(lp71
sg9
(lp72
I483
asg11
I12
sg12
I2005
sbag1
(g2
g3
Ntp73
Rp74
(dp75
g7
(lp76
sg9
(lp77
I725
aI528
asg11
I9
sg12
I2004
sbag1
(g2
g3
Ntp78
Rp79
(dp80
g7
(lp81
sg9
(lp82
I87
asg11
I10
sg12
I2003
sbag1
(g2
g3
Ntp83
Rp84
(dp85
g7
(lp86
sg9
(lp87
I672
asg11
I4
sg12
I2002
sbag1
(g2
g3
Ntp88
Rp89
(dp90
g7
(lp91
sg9
(lp92
sg11
I5
sg12
I2001
sbag1
(g2
g3
Ntp93
Rp94
(dp95
g7
(lp96
sg9
(lp97
I349
aI836
asg11
I12
sg12
I2000
sbag1
(g2
g3
Ntp98
Rp99
(dp100
g7
(lp101
sg9
(lp102
I749
aI798
asg11
I7
sg12
I1999
sbag1
(g2
g3
Ntp103
Rp104
(dp105
g7
(lp106
sg9
(lp107
I380
aI392
asg11
I5
sg12
I1998
sbag1
(g2
g3
Ntp108
Rp109
(dp110
g7
(lp111
sg9
(lp112
sg11
I6
sg12
I1997
sbag1
(g2
g3
Ntp113
Rp114
(dp115
g7
(lp116
sg9
(lp117
sg11
I3
sg12
I1996
sbag1
(g2
g3
Ntp118
Rp119
(dp120
g7
(lp121
sg9
(lp122
sg11
I4
sg12
I1995
sbag1
(g2
g3
Ntp123
Rp124
(dp125
g7
(lp126
sg9
(lp127
sg11
I2
sg12
I1994
sbag1
(g2
g3
Ntp128
Rp129
(dp130
g7
(lp131
sg9
(lp132
sg11
I3
sg12
I1993
sbag1
(g2
g3
Ntp133
Rp134
(dp135
g7
(lp136
sg9
(lp137
sg11
I6
sg12
I1992
sbag1
(g2
g3
Ntp138
Rp139
(dp140
g7
(lp141
sg9
(lp142
I454
asg11
I2
sg12
I1991
sbag1
(g2
g3
Ntp143
Rp144
(dp145
g7
(lp146
sg9
(lp147
sg11
I4
sg12
I1990
sbag1
(g2
g3
Ntp148
Rp149
(dp150
g7
(lp151
sg9
(lp152
I547
aI715
asg11
I6
sg12
I1989
sbag1
(g2
g3
Ntp153
Rp154
(dp155
g7
(lp156
sg9
(lp157
sg11
I5
sg12
I1988
sbag1
(g2
g3
Ntp158
Rp159
(dp160
g7
(lp161
sg9
(lp162
sg11
I4
sg12
I1987
sbag1
(g2
g3
Ntp163
Rp164
(dp165
g7
(lp166
sg9
(lp167
sg11
I1
sg12
I1986
sbag1
(g2
g3
Ntp168
Rp169
(dp170
g7
(lp171
sg9
(lp172
I250
asg11
I4
sg12
I1985
sbag1
(g2
g3
Ntp173
Rp174
(dp175
g7
(lp176
sg9
(lp177
sg11
I3
sg12
I1984
sbag1
(g2
g3
Ntp178
Rp179
(dp180
g7
(lp181
sg9
(lp182
sg11
I5
sg12
I1983
sbag1
(g2
g3
Ntp183
Rp184
(dp185
g7
(lp186
sg9
(lp187
sg11
I1
sg12
I1982
sbag1
(g2
g3
Ntp188
Rp189
(dp190
g7
(lp191
sg9
(lp192
sg11
I1
sg12
I1981
sbag1
(g2
g3
Ntp193
Rp194
(dp195
g7
(lp196
sg9
(lp197
sg11
I3
sg12
I1980
sbag1
(g2
g3
Ntp198
Rp199
(dp200
g7
(lp201
sg9
(lp202
sg11
I5
sg12
I1979
sbag1
(g2
g3
Ntp203
Rp204
(dp205
g7
(lp206
sg9
(lp207
sg11
I3
sg12
I1978
sbag1
(g2
g3
Ntp208
Rp209
(dp210
g7
(lp211
sg9
(lp212
sg11
I3
sg12
I1977
sbag1
(g2
g3
Ntp213
Rp214
(dp215
g7
(lp216
sg9
(lp217
I587
asg11
I4
sg12
I1976
sbag1
(g2
g3
Ntp218
Rp219
(dp220
g7
(lp221
sg9
(lp222
sg11
I1
sg12
I1975
sbag1
(g2
g3
Ntp223
Rp224
(dp225
g7
(lp226
sg9
(lp227
sg11
I2
sg12
I1974
sbag1
(g2
g3
Ntp228
Rp229
(dp230
g7
(lp231
sg9
(lp232
sg11
I3
sg12
I1971
sbag1
(g2
g3
Ntp233
Rp234
(dp235
g7
(lp236
sg9
(lp237
sg11
I3
sg12
I1970
sbag1
(g2
g3
Ntp238
Rp239
(dp240
g7
(lp241
sg9
(lp242
sg11
I1
sg12
I1969
sbag1
(g2
g3
Ntp243
Rp244
(dp245
g7
(lp246
sg9
(lp247
I588
asg11
I3
sg12
I1968
sbag1
(g2
g3
Ntp248
Rp249
(dp250
g7
(lp251
sg9
(lp252
I456
asg11
I1
sg12
I1967
sbag1
(g2
g3
Ntp253
Rp254
(dp255
g7
(lp256
sg9
(lp257
I152
asg11
I2
sg12
I1966
sbag1
(g2
g3
Ntp258
Rp259
(dp260
g7
(lp261
sg9
(lp262
I211
asg11
I3
sg12
I1965
sbag1
(g2
g3
Ntp263
Rp264
(dp265
g7
(lp266
sg9
(lp267
I207
aI342
aI839
aI943
asg12
I1964
sbag1
(g2
g3
Ntp268
Rp269
(dp270
g7
(lp271
sg9
(lp272
I44
aI65
aI74
aI77
aI148
aI150
aI180
aI220
aI281
aI299
aI300
aI324
aI334
aI346
aI348
aI357
aI371
aI399
aI406
aI421
aI429
aI449
aI522
aI529
aI536
aI591
aI669
aI674
aI682
aI806
aI854
aI863
aI887
aI902
aI909
aI941
asg11
I12
sg12
I1963
sbag1
(g2
g3
Ntp273
Rp274
(dp275
g7
(lp276
sg9
(lp277
I5
aI24
aI36
aI67
aI68
aI83
aI110
aI130
aI137
aI210
aI253
aI265
aI283
aI286
aI294
aI307
aI317
aI318
aI325
aI330
aI336
aI343
aI356
aI360
aI417
aI427
aI430
aI432
aI438
aI451
aI452
aI458
aI461
aI465
aI468
aI471
aI481
aI490
aI492
aI517
aI530
aI545
aI604
aI631
aI648
aI651
aI657
aI676
aI684
aI697
aI721
aI723
aI739
aI762
aI769
aI775
aI777
aI785
aI828
aI834
aI856
aI860
aI897
aI918
aI920
aI932
aI939
aI952
asg11
I25
sg12
I1962
sbag1
(g2
g3
Ntp278
Rp279
(dp280
g7
(lp281
sg9
(lp282
I80
aI102
aI117
aI193
aI204
aI228
aI235
aI239
aI244
aI261
aI269
aI278
aI344
aI352
aI385
aI386
aI391
aI394
aI401
aI418
aI431
aI433
aI437
aI440
aI460
aI477
aI500
aI501
aI515
aI516
aI531
aI533
aI549
aI557
aI558
aI560
aI567
aI574
aI583
aI598
aI607
aI614
aI617
aI635
aI650
aI665
aI704
aI719
aI720
aI726
aI733
aI737
aI767
aI776
aI787
aI793
aI795
aI805
aI822
aI823
aI824
aI830
aI845
aI892
aI966
asg11
I14
sg12
I1961
sbag1
(g2
g3
Ntp283
Rp284
(dp285
g7
(lp286
sg9
(lp287
I37
aI109
aI143
aI144
aI166
aI176
aI218
aI226
aI259
aI264
aI313
aI316
aI321
aI354
aI387
aI450
aI453
aI470
aI479
aI480
aI503
aI510
aI520
aI539
aI543
aI575
aI579
aI581
aI594
aI597
aI602
aI603
aI630
aI639
aI642
aI644
aI646
aI658
aI686
aI708
aI722
aI734
aI735
aI760
aI784
aI789
aI794
aI803
aI813
aI817
aI827
aI833
aI847
aI869
aI872
aI879
aI894
aI904
aI907
aI919
aI922
aI926
aI930
aI955
asg11
I19
sg12
I1960
sbag1
(g2
g3
Ntp288
Rp289
(dp290
g7
(lp291
sg9
(lp292
I60
aI145
aI161
aI174
aI179
aI188
aI194
aI195
aI216
aI247
aI257
aI298
aI301
aI308
aI335
aI361
aI370
aI396
aI397
aI402
aI409
aI475
aI476
aI494
aI507
aI532
aI535
aI555
aI561
aI562
aI569
aI586
aI589
aI593
aI628
aI663
aI667
aI699
aI700
aI705
aI743
aI755
aI771
aI807
aI812
aI819
aI825
aI837
aI838
aI843
aI853
aI855
aI917
aI927
aI954
aI959
aI970
asg11
I15
sg12
I1959
sbag1
(g2
g3
Ntp293
Rp294
(dp295
g7
(lp296
sg9
(lp297
I72
aI92
aI103
aI128
aI151
aI154
aI192
aI200
aI209
aI213
aI223
aI237
aI243
aI256
aI274
aI279
aI326
aI341
aI359
aI422
aI435
aI445
aI489
aI491
aI497
aI499
aI546
aI576
aI619
aI654
aI655
aI670
aI690
aI714
aI753
aI790
aI796
aI809
aI810
aI866
aI880
aI883
aI899
aI934
asg11
I19
sg12
I1958
sbag1
(g2
g3
Ntp298
Rp299
(dp300
g7
(lp301
sg9
(lp302
I61
aI121
aI127
aI138
aI165
aI169
aI171
aI172
aI183
aI208
aI217
aI236
aI242
aI245
aI260
aI268
aI323
aI345
aI368
aI383
aI474
aI504
aI513
aI518
aI524
aI526
aI550
aI554
aI568
aI612
aI647
aI656
aI668
aI685
aI691
aI693
aI730
aI742
aI756
aI799
aI820
aI840
aI844
aI857
aI876
aI882
aI913
aI914
aI931
aI936
aI944
asg11
I25
sg12
I1957
sbag1
(g2
g3
Ntp303
Rp304
(dp305
g7
(lp306
sg9
(lp307
I91
aI132
aI141
aI231
aI238
aI240
aI270
aI282
aI285
aI337
aI388
aI412
aI415
aI416
aI436
aI443
aI486
aI496
aI509
aI514
aI537
aI571
aI572
aI608
aI625
aI661
aI664
aI678
aI698
aI703
aI710
aI744
aI746
aI754
aI858
aI886
aI888
aI912
aI921
aI924
aI967
asg11
I12
sg12
I1956
sbag1
(g2
g3
Ntp308
Rp309
(dp310
g7
(lp311
sg9
(lp312
I94
aI106
aI198
aI215
aI248
aI314
aI373
aI420
aI424
aI485
aI488
aI502
aI506
aI544
aI577
aI578
aI615
aI618
aI626
aI636
aI640
aI649
aI653
aI683
aI689
aI707
aI747
aI770
aI772
aI782
aI832
aI870
aI871
aI874
aI875
aI898
aI900
aI903
aI908
aI940
aI942
aI949
aI950
aI951
aI964
asg11
I12
sg12
I1955
sbag1
(g2
g3
Ntp313
Rp314
(dp315
g7
(lp316
sg9
(lp317
I14
aI34
aI57
aI62
aI93
aI142
aI156
aI159
aI167
aI177
aI196
aI219
aI225
aI230
aI246
aI254
aI271
aI287
aI303
aI304
aI311
aI339
aI358
aI369
aI428
aI439
aI464
aI487
aI505
aI512
aI521
aI606
aI613
aI632
aI643
aI696
aI702
aI713
aI741
aI757
aI768
aI802
aI814
aI821
aI826
aI831
aI842
aI867
aI868
aI901
aI910
asg11
I17
sg12
I1954
sbag1
(g2
g3
Ntp318
Rp319
(dp320
g7
(lp321
sg9
(lp322
I11
aI16
aI22
aI27
aI30
aI39
aI50
aI58
aI76
aI108
aI116
aI123
aI155
aI173
aI181
aI187
aI241
aI266
aI273
aI275
aI290
aI295
aI302
aI320
aI329
aI331
aI347
aI353
aI362
aI363
aI367
aI372
aI375
aI407
aI442
aI469
aI472
aI478
aI511
aI525
aI548
aI551
aI553
aI563
aI566
aI580
aI585
aI596
aI599
aI610
aI621
aI637
aI638
aI673
aI688
aI709
aI712
aI716
aI718
aI729
aI736
aI751
aI758
aI792
aI797
aI801
aI816
aI841
aI849
aI851
aI861
aI864
aI881
aI889
aI893
aI895
aI923
aI928
aI947
asg11
I23
sg12
I1953
sbag1
(g2
g3
Ntp323
Rp324
(dp325
g7
(lp326
sg9
(lp327
I4
aI25
aI35
aI189
aI263
aI267
aI280
aI288
aI322
aI338
aI355
aI376
aI419
aI434
aI447
aI457
aI498
aI541
aI542
aI570
aI601
aI609
aI611
aI620
aI627
aI634
aI652
aI660
aI675
aI679
aI692
aI694
aI728
aI732
aI748
aI750
aI779
aI788
aI829
aI877
aI878
aI911
aI915
aI925
aI929
aI933
aI937
aI953
aI957
asg11
I11
sg12
I1952
sbag1
(g2
g3
Ntp328
Rp329
(dp330
g7
(lp331
sg9
(lp332
I41
aI85
aI96
aI107
aI125
aI147
aI162
aI232
aI258
aI262
aI284
aI289
aI319
aI327
aI350
aI393
aI400
aI408
aI423
aI467
aI559
aI573
aI666
aI671
aI677
aI695
aI724
aI731
aI745
aI752
aI773
aI781
aI783
aI800
aI811
aI835
aI848
aI890
aI916
aI945
aI968
asg11
I9
sg12
I1951
sbag1
(g2
g3
Ntp333
Rp334
(dp335
g7
(lp336
sg9
(lp337
I42
aI56
aI157
aI214
aI292
aI296
aI374
aI377
aI389
aI390
aI519
aI540
aI556
aI595
aI680
aI963
asg11
I3
sg12
I1950
sbag1
(g2
g3
Ntp338
Rp339
(dp340
g7
(lp341
sg9
(lp342
I291
aI859
asg12
I1949
sbag1
(g2
g3
Ntp343
Rp344
(dp345
g7
(lp346
sg9
(lp347
I202
aI206
aI252
aI276
asg11
I6
sg12
I1948
sbag1
(g2
g3
Ntp348
Rp349
(dp350
g7
(lp351
sg9
(lp352
I178
aI446
aI706
asg11
I4
sg12
I1947
sbag1
(g2
g3
Ntp353
Rp354
(dp355
g7
(lp356
sg9
(lp357
I312
aI441
asg12
I1946
sbag1
(g2
g3
Ntp358
Rp359
(dp360
g7
(lp361
sg9
(lp362
sg11
I1
sg12
I1945
sbag1
(g2
g3
Ntp363
Rp364
(dp365
g7
(lp366
sg9
(lp367
I414
aI622
asg12
I1943
sbag1
(g2
g3
Ntp368
Rp369
(dp370
g7
(lp371
sg9
(lp372
I411
aI584
aI681
asg11
I3
sg12
I1942
sbag1
(g2
g3
Ntp373
Rp374
(dp375
g7
(lp376
sg9
(lp377
I205
aI224
aI403
aI701
aI808
aI906
asg11
I6
sg12
I1941
sbag1
(g2
g3
Ntp378
Rp379
(dp380
g7
(lp381
sg9
(lp382
I222
aI272
aI351
aI448
asg11
I5
sg12
I1940
sbag1
(g2
g3
Ntp383
Rp384
(dp385
g7
(lp386
sg9
(lp387
I118
aI186
asg11
I2
sg12
I1939
sbag1
(g2
g3
Ntp388
Rp389
(dp390
g7
(lp391
sg9
(lp392
I6
aI90
aI227
aI765
asg11
I2
sg12
I1938
sbag1
(g2
g3
Ntp393
Rp394
(dp395
g7
(lp396
sg9
(lp397
I15
asg11
I7
sg12
I1937
sbag1
(g2
g3
Ntp398
Rp399
(dp400
g7
(lp401
sg9
(lp402
I113
aI251
aI379
asg11
I4
sg12
I1936
sbag1
(g2
g3
Ntp403
Rp404
(dp405
g7
(lp406
sg9
(lp407
I120
aI146
aI170
aI184
aI791
asg11
I3
sg12
I1935
sbag1
(g2
g3
Ntp408
Rp409
(dp410
g7
(lp411
sg9
(lp412
I29
aI119
aI122
aI126
aI140
aI149
aI182
aI305
asg11
I8
sg12
I1934
sbag1
(g2
g3
Ntp413
Rp414
(dp415
g7
(lp416
sg9
(lp417
I255
aI332
aI366
aI378
aI459
aI473
aI482
aI766
aI885
aI896
asg11
I5
sg12
I1933
sbag1
(g2
g3
Ntp418
Rp419
(dp420
g7
(lp421
sg9
(lp422
I124
aI191
aI203
aI309
aI315
aI381
aI382
aI395
aI404
aI425
aI426
aI444
aI495
aI508
aI582
aI592
aI605
aI687
aI717
aI738
aI759
aI761
aI786
aI818
aI850
aI862
aI891
asg11
I12
sg12
I1932
sbag1
(g2
g3
Ntp423
Rp424
(dp425
g7
(lp426
sg9
(lp427
I98
aI101
aI129
aI131
aI133
aI158
aI163
aI168
aI185
aI293
aI466
aI493
aI527
aI534
aI538
aI565
aI600
aI624
aI641
aI662
aI774
aI778
aI804
aI865
aI938
aI956
asg11
I8
sg12
I1931
sbag1
(g2
g3
Ntp428
Rp429
(dp430
g7
(lp431
sg9
(lp432
I19
aI40
aI70
aI71
aI73
aI81
aI84
aI89
aI97
aI100
aI104
aI105
aI114
aI197
aI249
aI384
aI764
asg11
I12
sg12
I1930
sbag1
(g2
g3
Ntp433
Rp434
(dp435
g7
(lp436
sg9
(lp437
I13
aI95
aI160
aI905
asg12
I1929
sbag1
(g2
g3
Ntp438
Rp439
(dp440
g7
(lp441
sg9
(lp442
I53
aI66
asg11
I2
sg12
I1928
sbag1
(g2
g3
Ntp443
Rp444
(dp445
g7
(lp446
sg9
(lp447
I297
asg11
I1
sg12
I1927
sbag1
(g2
g3
Ntp448
Rp449
(dp450
g7
(lp451
sg9
(lp452
I333
aI815
asg11
I2
sg12
I1926
sbag1
(g2
g3
Ntp453
Rp454
(dp455
g7
(lp456
sg9
(lp457
sg11
I2
sg12
I1925
sbag1
(g2
g3
Ntp458
Rp459
(dp460
g7
(lp461
sg9
(lp462
I306
asg12
I1924
sbag1
(g2
g3
Ntp463
Rp464
(dp465
g7
(lp466
sg9
(lp467
I38
aI221
aI711
asg11
I3
sg12
I1922
sbag1
(g2
g3
Ntp468
Rp469
(dp470
g7
(lp471
sg9
(lp472
I463
asg12
I1921
sbag1
(g2
g3
Ntp473
Rp474
(dp475
g7
(lp476
sg9
(lp477
I43
aI75
aI99
aI190
aI633
asg11
I5
sg12
I1920
sbag1
(g2
g3
Ntp478
Rp479
(dp480
g7
(lp481
sg9
(lp482
I212
aI328
aI462
aI552
aI590
aI852
asg11
I3
sg12
I1919
sbag1
(g2
g3
Ntp483
Rp484
(dp485
g7
(lp486
sg9
(lp487
I45
aI59
aI82
aI111
aI175
asg11
I3
sg12
I1918
sbag1
(g2
g3
Ntp488
Rp489
(dp490
g7
(lp491
sg9
(lp492
I88
asg12
I1916
sbag1
(g2
g3
Ntp493
Rp494
(dp495
g7
(lp496
sg9
(lp497
I64
asg11
I2
sg12
I1915
sbag1
(g2
g3
Ntp498
Rp499
(dp500
g7
(lp501
sg9
(lp502
I23
aI31
aI52
aI136
aI965
asg11
I7
sg12
I1914
sbag1
(g2
g3
Ntp503
Rp504
(dp505
g7
(lp506
sg9
(lp507
I21
aI47
asg11
I2
sg12
I1913
sbag1
(g2
g3
Ntp508
Rp509
(dp510
g7
(lp511
sg9
(lp512
I3
aI8
aI20
asg11
I3
sg12
I1912
sbag1
(g2
g3
Ntp513
Rp514
(dp515
g7
(lp516
sg9
(lp517
I46
aI49
asg11
I2
sg12
I1911
sbag1
(g2
g3
Ntp518
Rp519
(dp520
g7
(lp521
sg9
(lp522
I79
aI277
aI948
asg11
I2
sg12
I1909
sbag1
(g2
g3
Ntp523
Rp524
(dp525
g7
(lp526
sg9
(lp527
I18
aI455
asg11
I1
sg12
I1908
sbag1
(g2
g3
Ntp528
Rp529
(dp530
g7
(lp531
sg9
(lp532
I364
asg11
I2
sg12
I1906
sbag1
(g2
g3
Ntp533
Rp534
(dp535
g7
(lp536
sg9
(lp537
I164
aI153
asg11
I1
sg12
I1905
sbag1
(g2
g3
Ntp538
Rp539
(dp540
g7
(lp541
sg9
(lp542
I78
aI86
asg11
I1
sg12
I1904
sbag1
(g2
g3
Ntp543
Rp544
(dp545
g7
(lp546
sg9
(lp547
I69
asg11
I1
sg12
I1903
sbag1
(g2
g3
Ntp548
Rp549
(dp550
g7
(lp551
sg9
(lp552
sg11
I1
sg12
I1902
sbag1
(g2
g3
Ntp553
Rp554
(dp555
g7
(lp556
sg9
(lp557
I48
aI763
aI969
asg11
I2
sg12
I1901
sbag1
(g2
g3
Ntp558
Rp559
(dp560
g7
(lp561
sg9
(lp562
I233
asg11
I1
sg12
I1900
sbag1
(g2
g3
Ntp563
Rp564
(dp565
g7
(lp566
sg9
(lp567
I63
aI958
aI51
aI135
asg11
I4
sg12
I1899
sbag1
(g2
g3
Ntp568
Rp569
(dp570
g7
(lp571
sg9
(lp572
I405
aI2
asg12
I1898
sbag1
(g2
g3
Ntp573
Rp574
(dp575
g7
(lp576
sg9
(lp577
I484
aI234
asg11
I1
sg12
I1897
sbag1
(g2
g3
Ntp578
Rp579
(dp580
g7
(lp581
sg9
(lp582
I846
aI9
asg11
I2
sg12
I1896
sbag1
(g2
g3
Ntp583
Rp584
(dp585
g7
(lp586
sg9
(lp587
I1
aI201
asg11
I3
sg12
I1895
sbag1
(g2
g3
Ntp588
Rp589
(dp590
g7
(lp591
sg9
(lp592
I199
aI229
asg11
I3
sg12
I1894
sbag1
(g2
g3
Ntp593
Rp594
(dp595
g7
(lp596
sg9
(lp597
I629
asg12
I1893
sbag1
(g2
g3
Ntp598
Rp599
(dp600
g7
(lp601
sg9
(lp602
I310
asg12
I1892
sbag1
(g2
g3
Ntp603
Rp604
(dp605
g7
(lp606
sg9
(lp607
I523
aI398
asg12
I1890
sbag1
(g2
g3
Ntp608
Rp609
(dp610
g7
(lp611
sg9
(lp612
I33
asg11
I1
sg12
I1889
sbag1
(g2
g3
Ntp613
Rp614
(dp615
g7
(lp616
sg9
(lp617
I54
asg11
I1
sg12
I1888
sbag1
(g2
g3
Ntp618
Rp619
(dp620
g7
(lp621
sg9
(lp622
I32
aI17
asg11
I1
sg12
I1884
sbag1
(g2
g3
Ntp623
Rp624
(dp625
g7
(lp626
sg9
(lp627
I112
aI340
asg12
I1877
sbag1
(g2
g3
Ntp628
Rp629
(dp630
g7
(lp631
sg9
(lp632
sg12
I1875
sbag1
(g2
g3
Ntp633
Rp634
(dp635
g7
(lp636
sg9
(lp637
I12
aI134
asg11
I2
sg12
I1874
sbag1
(g2
g3
Ntp638
Rp639
(dp640
g7
(lp641
sg9
(lp642
sg12
I1870
sbag1
(g2
g3
Ntp643
Rp644
(dp645
g7
(lp646
sg9
(lp647
I960
aI7
aI365
aI26
aI139
aI413
asg11
I4
sg12
I1869
sbag1
(g2
g3
Ntp648
Rp649
(dp650
g7
(lp651
sg9
(lp652
sg11
I2
sg12
I1866
sbag1
(g2
g3
Ntp653
Rp654
(dp655
g7
(lp656
sg9
(lp657
I659
aI28
asg11
I1
sg12
I1865
sbag1
(g2
g3
Ntp658
Rp659
(dp660
g7
(lp661
sg9
(lp662
I55
aI10
aI115
asg11
I2
sg12
I1864
sbag1
(g2
g3
Ntp663
Rp664
(dp665
g7
(lp666
sg9
(lp667
sg11
I1
sg12
I1860
sbag1
(g2
g3
Ntp668
Rp669
(dp670
g7
(lp671
sg9
(lp672
sg11
I1
sg12
I1853
sbag1
(g2
g3
Ntp673
Rp674
(dp675
g7
(lp676
sg9
(lp677
sg11
I1
sg12
I1818
sbag1
(g2
g3
Ntp678
Rp679
(dp680
g7
(lp681
sg9
(lp682
sg11
I1
sg12
I1787
sbag1
(g2
g3
Ntp683
Rp684
(dp685
g7
(lp686
sg9
(lp687
sg12
I1659
sbag1
(g2
g3
Ntp688
Rp689
(dp690
g7
(lp691
sg9
(lp692
sg11
I1
sg12
I1612
sbag1
(g2
g3
Ntp693
Rp694
(dp695
g7
(lp696
sg9
(lp697
sg11
I1
sg12
I1595
sbag1
(g2
g3
Ntp698
Rp699
(dp700
g7
(lp701
sg9
(lp702
sg11
I1
sg12
I9
sbag1
(g2
g3
Ntp703
Rp704
(dp705
g7
(lp706
sg9
(lp707
I410
aI564
aI616
aI645
aI727
aI740
aI780
aI873
aI884
aI935
aI946
aI961
aI962
asg11
I98
sg12
I-1
sba.