(lp0
ccopy_reg
_reconstructor
p1
(cdataset.Year
Year
p2
c__builtin__
object
p3
Ntp4
Rp5
(dp6
S'movies'
p7
(lp8
sS'books'
p9
(lp10
sS'n_books'
p11
I5
sS'year'
p12
I2017
sbag1
(g2
g3
Ntp13
Rp14
(dp15
g7
(lp16
sg9
(lp17
sg11
I12
sg12
I2016
sbag1
(g2
g3
Ntp18
Rp19
(dp20
g7
(lp21
sg9
(lp22
sg11
I28
sg12
I2015
sbag1
(g2
g3
Ntp23
Rp24
(dp25
g7
(lp26
sg9
(lp27
sg11
I20
sg12
I2014
sbag1
(g2
g3
Ntp28
Rp29
(dp30
g7
(lp31
sg9
(lp32
sg11
I30
sg12
I2013
sbag1
(g2
g3
Ntp33
Rp34
(dp35
g7
(lp36
sg9
(lp37
sg11
I22
sg12
I2012
sbag1
(g2
g3
Ntp38
Rp39
(dp40
g7
(lp41
sg9
(lp42
sg11
I62
sg12
I2011
sbag1
(g2
g3
Ntp43
Rp44
(dp45
g7
(lp46
sg9
(lp47
sg11
I92
sg12
I2010
sbag1
(g2
g3
Ntp48
Rp49
(dp50
g7
(lp51
sg9
(lp52
sg11
I41
sg12
I2009
sbag1
(g2
g3
Ntp53
Rp54
(dp55
g7
(lp56
sg9
(lp57
sg11
I32
sg12
I2008
sbag1
(g2
g3
Ntp58
Rp59
(dp60
g7
(lp61
sg9
(lp62
sg11
I13
sg12
I2007
sbag1
(g2
g3
Ntp63
Rp64
(dp65
g7
(lp66
sg9
(lp67
I623
asg11
I16
sg12
I2006
sbag1
(g2
g3
Ntp68
Rp69
(dp70
g7
(lp71
sg9
(lp72
I483
asg11
I12
sg12
I2005
sbag1
(g2
g3
Ntp73
Rp74
(dp75
g7
(lp76
sg9
(lp77
I725
aI528
asg11
I9
sg12
I2004
sbag1
(g2
g3
Ntp78
Rp79
(dp80
g7
(lp81
sg9
(lp82
I87
asg11
I10
sg12
I2003
sbag1
(g2
g3
Ntp83
Rp84
(dp85
g7
(lp86
sg9
(lp87
I672
asg11
I4
sg12
I2002
sbag1
(g2
g3
Ntp88
Rp89
(dp90
g7
(lp91
sg9
(lp92
sg11
I5
sg12
I2001
sbag1
(g2
g3
Ntp93
Rp94
(dp95
g7
(lp96
sg9
(lp97
I349
aI836
asg11
I12
sg12
I2000
sbag1
(g2
g3
Ntp98
Rp99
(dp100
g7
(lp101
sg9
(lp102
I749
aI798
asg11
I7
sg12
I1999
sbag1
(g2
g3
Ntp103
Rp104
(dp105
g7
(lp106
sg9
(lp107
I380
aI392
asg11
I5
sg12
I1998
sbag1
(g2
g3
Ntp108
Rp109
(dp110
g7
(lp111
sg9
(lp112
sg11
I6
sg12
I1997
sbag1
(g2
g3
Ntp113
Rp114
(dp115
g7
(lp116
sg9
(lp117
sg11
I3
sg12
I1996
sbag1
(g2
g3
Ntp118
Rp119
(dp120
g7
(lp121
sg9
(lp122
sg11
I4
sg12
I1995
sbag1
(g2
g3
Ntp123
Rp124
(dp125
g7
(lp126
sg9
(lp127
sg11
I2
sg12
I1994
sbag1
(g2
g3
Ntp128
Rp129
(dp130
g7
(lp131
sg9
(lp132
sg11
I3
sg12
I1993
sbag1
(g2
g3
Ntp133
Rp134
(dp135
g7
(lp136
sg9
(lp137
sg11
I6
sg12
I1992
sbag1
(g2
g3
Ntp138
Rp139
(dp140
g7
(lp141
sg9
(lp142
I454
asg11
I2
sg12
I1991
sbag1
(g2
g3
Ntp143
Rp144
(dp145
g7
(lp146
sg9
(lp147
sg11
I4
sg12
I1990
sbag1
(g2
g3
Ntp148
Rp149
(dp150
g7
(lp151
sg9
(lp152
I547
aI715
asg11
I6
sg12
I1989
sbag1
(g2
g3
Ntp153
Rp154
(dp155
g7
(lp156
sg9
(lp157
sg11
I5
sg12
I1988
sbag1
(g2
g3
Ntp158
Rp159
(dp160
g7
(lp161
sg9
(lp162
sg11
I4
sg12
I1987
sbag1
(g2
g3
Ntp163
Rp164
(dp165
g7
(lp166
sg9
(lp167
sg11
I1
sg12
I1986
sbag1
(g2
g3
Ntp168
Rp169
(dp170
g7
(lp171
sg9
(lp172
I250
asg11
I4
sg12
I1985
sbag1
(g2
g3
Ntp173
Rp174
(dp175
g7
(lp176
sg9
(lp177
sg11
I3
sg12
I1984
sbag1
(g2
g3
Ntp178
Rp179
(dp180
g7
(lp181
sg9
(lp182
sg11
I5
sg12
I1983
sbag1
(g2
g3
Ntp183
Rp184
(dp185
g7
(lp186
sg9
(lp187
sg11
I1
sg12
I1982
sbag1
(g2
g3
Ntp188
Rp189
(dp190
g7
(lp191
sg9
(lp192
sg11
I1
sg12
I1981
sbag1
(g2
g3
Ntp193
Rp194
(dp195
g7
(lp196
sg9
(lp197
sg11
I3
sg12
I1980
sbag1
(g2
g3
Ntp198
Rp199
(dp200
g7
(lp201
sg9
(lp202
sg11
I5
sg12
I1979
sbag1
(g2
g3
Ntp203
Rp204
(dp205
g7
(lp206
sg9
(lp207
sg11
I3
sg12
I1978
sbag1
(g2
g3
Ntp208
Rp209
(dp210
g7
(lp211
sg9
(lp212
sg11
I3
sg12
I1977
sbag1
(g2
g3
Ntp213
Rp214
(dp215
g7
(lp216
sg9
(lp217
I587
asg11
I4
sg12
I1976
sbag1
(g2
g3
Ntp218
Rp219
(dp220
g7
(lp221
sg9
(lp222
sg11
I1
sg12
I1975
sbag1
(g2
g3
Ntp223
Rp224
(dp225
g7
(lp226
sg9
(lp227
sg11
I2
sg12
I1974
sbag1
(g2
g3
Ntp228
Rp229
(dp230
g7
(lp231
sg9
(lp232
sg11
I3
sg12
I1971
sbag1
(g2
g3
Ntp233
Rp234
(dp235
g7
(lp236
sg9
(lp237
sg11
I3
sg12
I1970
sbag1
(g2
g3
Ntp238
Rp239
(dp240
g7
(lp241
sg9
(lp242
sg11
I1
sg12
I1969
sbag1
(g2
g3
Ntp243
Rp244
(dp245
g7
(lp246
sg9
(lp247
I588
asg11
I3
sg12
I1968
sbag1
(g2
g3
Ntp248
Rp249
(dp250
g7
(lp251
sg9
(lp252
I456
asg11
I1
sg12
I1967
sbag1
(g2
g3
Ntp253
Rp254
(dp255
g7
(lp256
sg9
(lp257
I152
asg11
I2
sg12
I1966
sbag1
(g2
g3
Ntp258
Rp259
(dp260
g7
(lp261
sg9
(lp262
I211
asg11
I3
sg12
I1965
sbag1
(g2
g3
Ntp263
Rp264
(dp265
g7
(lp266
sg9
(lp267
I207
aI839
aI943
asg12
I1964
sbag1
(g2
g3
Ntp268
Rp269
(dp270
g7
(lp271
sg9
(lp272
I65
aI148
aI346
aI536
aI863
aI902
aI941
aI406
aI674
aI348
aI887
aI854
aI334
aI324
aI806
aI591
aI421
aI682
aI300
aI74
aI429
aI357
aI522
aI399
aI529
aI281
aI77
aI150
aI220
aI371
aI180
aI669
aI909
aI299
aI44
asg11
I12
sg12
I1963
sbag1
(g2
g3
Ntp273
Rp274
(dp275
g7
(lp276
sg9
(lp277
I24
aI36
aI67
aI68
aI83
aI110
aI130
aI137
aI253
aI265
aI286
aI330
aI343
aI356
aI451
aI461
aI465
aI530
aI648
aI651
aI657
aI769
aI785
aI834
aI932
aI5
aI360
aI427
aI481
aI777
aI920
aI939
aI307
aI432
aI684
aI317
aI918
aI828
aI860
aI721
aI856
aI631
aI775
aI452
aI897
aI492
aI417
aI723
aI604
aI762
aI210
aI739
aI545
aI283
aI697
aI438
aI430
aI468
aI676
aI952
aI517
aI336
asg11
I25
sg12
I1962
sbag1
(g2
g3
Ntp278
Rp279
(dp280
g7
(lp281
sg9
(lp282
I80
aI102
aI117
aI193
aI204
aI204
aI278
aI352
aI394
aI431
aI440
aI515
aI619
aI793
aI228
aI460
aI560
aI845
aI516
aI614
aI719
aI533
aI549
aI583
aI726
aI477
aI567
aI787
aI795
aI635
aI892
aI720
aI767
aI557
aI822
aI704
aI386
aI437
aI650
aI805
aI830
aI401
aI598
aI617
aI385
aI558
aI391
aI607
aI500
aI244
aI418
aI737
aI501
aI531
aI239
aI776
aI433
aI665
aI733
aI824
aI235
aI344
asg11
I14
sg12
I1961
sbag1
(g2
g3
Ntp283
Rp284
(dp285
g7
(lp286
sg9
(lp287
I37
aI109
aI144
aI166
aI176
aI218
aI226
aI313
aI450
aI479
aI520
aI543
aI579
aI734
aI735
aI803
aI919
aI930
aI955
aI644
aI143
aI642
aI847
aI760
aI817
aI470
aI833
aI103
aI316
aI321
aI708
aI686
aI597
aI904
aI784
aI602
aI616
aI639
aI907
aI789
aI827
aI603
aI510
aI575
aI630
aI480
aI722
aI869
aI594
aI794
aI539
aI926
aI354
aI453
aI264
aI259
aI387
aI581
aI922
aI658
aI813
aI872
aI879
aI894
aI503
asg11
I19
sg12
I1960
sbag1
(g2
g3
Ntp288
Rp289
(dp290
g7
(lp291
sg9
(lp292
I60
aI179
aI188
aI194
aI298
aI301
aI335
aI361
aI499
aI586
aI593
aI812
aI819
aI927
aI954
aI409
aI825
aI663
aI959
aI838
aI807
aI145
aI257
aI507
aI532
aI705
aI855
aI837
aI195
aI562
aI700
aI247
aI402
aI555
aI396
aI161
aI743
aI917
aI970
aI561
aI843
aI589
aI569
aI475
aI699
aI397
aI535
aI853
aI494
aI628
aI370
aI308
asg11
I15
sg12
I1959
sbag1
(g2
g3
Ntp293
Rp294
(dp295
g7
(lp296
sg9
(lp297
I72
aI128
aI192
aI200
aI209
aI200
aI209
aI223
aI243
aI274
aI326
aI359
aI471
aI489
aI546
aI576
aI753
aI796
aI899
aI445
aI690
aI92
aI655
aI810
aI809
aI866
aI880
aI279
aI491
aI714
aI883
aI497
aI422
aI934
aI654
aI667
aI256
aI213
aI151
aI790
aI341
aI435
aI154
aI670
asg11
I19
sg12
I1958
sbag1
(g2
g3
Ntp298
Rp299
(dp300
g7
(lp301
sg9
(lp302
I61
aI121
aI127
aI138
aI169
aI171
aI172
aI171
aI208
aI208
aI268
aI268
aI269
aI383
aI383
aI467
aI474
aI526
aI550
aI612
aI656
aI685
aI820
aI844
aI936
aI260
aI504
aI518
aI876
aI245
aI730
aI693
aI368
aI756
aI524
aI183
aI554
aI799
aI882
aI165
aI217
aI914
aI944
aI568
aI840
aI647
aI242
aI323
aI898
aI345
aI742
aI236
aI931
aI900
aI913
aI691
aI541
aI668
aI513
aI857
asg11
I25
sg12
I1957
sbag1
(g2
g3
Ntp303
Rp304
(dp305
g7
(lp306
sg9
(lp307
I85
aI132
aI216
aI270
aI282
aI388
aI412
aI416
aI496
aI572
aI744
aI752
aI408
aI746
aI886
aI888
aI486
aI337
aI664
aI240
aI514
aI698
aI141
aI754
aI537
aI608
aI571
aI585
aI415
aI858
aI661
aI912
aI924
aI509
aI436
aI443
aI611
aI678
aI91
aI625
aI967
aI703
aI285
aI231
aI921
aI238
aI710
asg11
I12
sg12
I1956
sbag1
(g2
g3
Ntp308
Rp309
(dp310
g7
(lp311
sg9
(lp312
I94
aI106
aI174
aI248
aI293
aI339
aI373
aI424
aI640
aI689
aI339
aI949
aI618
aI626
aI653
aI577
aI636
aI832
aI488
aI506
aI908
aI770
aI615
aI707
aI875
aI950
aI544
aI964
aI683
aI951
aI940
aI772
aI942
aI198
aI903
aI502
aI649
aI420
aI578
aI874
aI485
aI871
aI870
aI215
asg11
I12
sg12
I1955
sbag1
(g2
g3
Ntp313
Rp314
(dp315
g7
(lp316
sg9
(lp317
I14
aI34
aI57
aI142
aI156
aI196
aI219
aI219
aI246
aI254
aI287
aI303
aI428
aI439
aI464
aI487
aI490
aI62
aI606
aI713
aI868
aI814
aI802
aI93
aI230
aI369
aI632
aI271
aI768
aI521
aI643
aI358
aI696
aI741
aI826
aI304
aI910
aI505
aI702
aI831
aI613
aI867
aI901
aI740
aI842
aI821
aI159
aI167
aI177
aI225
aI512
aI757
asg11
I17
sg12
I1954
sbag1
(g2
g3
Ntp318
Rp319
(dp320
g7
(lp321
sg9
(lp322
I11
aI16
aI22
aI27
aI30
aI50
aI76
aI116
aI273
aI275
aI295
aI318
aI342
aI347
aI362
aI362
aI375
aI548
aI596
aI688
aI729
aI751
aI782
aI758
aI823
aI864
aI947
aI469
aI599
aI881
aI797
aI39
aI525
aI621
aI329
aI478
aI564
aI566
aI792
aI816
aI895
aI849
aI58
aI923
aI372
aI472
aI637
aI181
aI367
aI563
aI155
aI331
aI553
aI266
aI353
aI580
aI716
aI736
aI861
aI442
aI241
aI709
aI841
aI889
aI320
aI638
aI893
aI718
aI712
aI363
aI123
aI511
aI851
aI302
aI187
aI610
aI173
aI290
asg11
I23
sg12
I1953
sbag1
(g2
g3
Ntp323
Rp324
(dp325
g7
(lp326
sg9
(lp327
I189
aI267
aI419
aI434
aI447
aI447
aI634
aI675
aI779
aI937
aI957
aI280
aI376
aI627
aI660
aI829
aI925
aI35
aI878
aI788
aI915
aI750
aI929
aI694
aI732
aI601
aI692
aI609
aI652
aI355
aI679
aI570
aI953
aI877
aI322
aI542
aI288
aI263
aI620
aI407
aI519
aI911
aI728
aI933
aI498
aI457
aI748
asg11
I11
sg12
I1952
sbag1
(g2
g3
Ntp328
Rp329
(dp330
g7
(lp331
sg9
(lp332
I25
aI107
aI237
aI289
aI327
aI476
aI476
aI731
aI968
aI96
aI800
aI890
aI232
aI783
aI262
aI671
aI573
aI559
aI724
aI773
aI319
aI695
aI423
aI945
aI835
aI393
aI400
aI916
aI147
aI677
aI781
aI848
aI745
aI811
aI258
aI284
aI162
aI350
aI125
aI666
aI41
asg11
I9
sg12
I1951
sbag1
(g2
g3
Ntp333
Rp334
(dp335
g7
(lp336
sg9
(lp337
I42
aI296
aI884
aI680
aI963
aI374
aI377
aI56
aI540
aI389
aI292
aI157
aI214
aI595
aI556
asg11
I3
sg12
I1950
sbag1
(g2
g3
Ntp338
Rp339
(dp340
g7
(lp341
sg9
(lp342
I291
aI859
asg12
I1949
sbag1
(g2
g3
Ntp343
Rp344
(dp345
g7
(lp346
sg9
(lp347
I202
aI206
aI202
aI206
aI276
aI338
aI252
asg11
I6
sg12
I1948
sbag1
(g2
g3
Ntp348
Rp349
(dp350
g7
(lp351
sg9
(lp352
I390
aI446
aI706
aI966
aI178
aI804
asg11
I4
sg12
I1947
sbag1
(g2
g3
Ntp353
Rp354
(dp355
g7
(lp356
sg9
(lp357
I441
aI312
asg12
I1946
sbag1
(g2
g3
Ntp358
Rp359
(dp360
g7
(lp361
sg9
(lp362
I13
asg11
I1
sg12
I1945
sbag1
(g2
g3
Ntp363
Rp364
(dp365
g7
(lp366
sg9
(lp367
I622
aI414
asg12
I1943
sbag1
(g2
g3
Ntp368
Rp369
(dp370
g7
(lp371
sg9
(lp372
I411
aI681
aI727
aI584
asg11
I3
sg12
I1942
sbag1
(g2
g3
Ntp373
Rp374
(dp375
g7
(lp376
sg9
(lp377
I205
aI205
aI224
aI311
aI701
aI906
aI403
aI808
asg11
I6
sg12
I1941
sbag1
(g2
g3
Ntp378
Rp379
(dp380
g7
(lp381
sg9
(lp382
I222
aI351
aI448
aI551
aI801
aI272
asg11
I5
sg12
I1940
sbag1
(g2
g3
Ntp383
Rp384
(dp385
g7
(lp386
sg9
(lp387
I118
aI186
asg11
I2
sg12
I1939
sbag1
(g2
g3
Ntp388
Rp389
(dp390
g7
(lp391
sg9
(lp392
I6
aI227
aI765
aI90
asg11
I2
sg12
I1938
sbag1
(g2
g3
Ntp393
Rp394
(dp395
g7
(lp396
sg9
(lp397
I15
aI261
aI294
aI314
aI747
aI771
aI928
asg11
I7
sg12
I1937
sbag1
(g2
g3
Ntp398
Rp399
(dp400
g7
(lp401
sg9
(lp402
I113
aI458
aI458
aI755
aI251
aI379
asg11
I4
sg12
I1936
sbag1
(g2
g3
Ntp403
Rp404
(dp405
g7
(lp406
sg9
(lp407
I120
aI146
aI184
aI170
asg11
I3
sg12
I1935
sbag1
(g2
g3
Ntp408
Rp409
(dp410
g7
(lp411
sg9
(lp412
I29
aI29
aI122
aI126
aI140
aI149
aI182
aI305
aI315
aI119
asg11
I8
sg12
I1934
sbag1
(g2
g3
Ntp413
Rp414
(dp415
g7
(lp416
sg9
(lp417
I4
aI255
aI378
aI459
aI482
aI332
aI766
aI473
aI885
aI896
aI366
asg11
I5
sg12
I1933
sbag1
(g2
g3
Ntp418
Rp419
(dp420
g7
(lp421
sg9
(lp422
I191
aI203
aI203
aI249
aI306
aI382
aI404
aI449
aI582
aI605
aI791
aI850
aI395
aI761
aI818
aI425
aI508
aI426
aI592
aI381
aI124
aI495
aI717
aI444
aI759
aI786
aI862
aI738
aI687
asg11
I12
sg12
I1932
sbag1
(g2
g3
Ntp423
Rp424
(dp425
g7
(lp426
sg9
(lp427
I129
aI185
aI466
aI493
aI600
aI641
aI774
aI778
aI891
aI168
aI133
aI865
aI938
aI98
aI527
aI538
aI131
aI158
aI956
aI101
aI534
aI565
aI309
aI163
aI624
asg11
I8
sg12
I1931
sbag1
(g2
g3
Ntp428
Rp429
(dp430
g7
(lp431
sg9
(lp432
I19
aI40
aI73
aI89
aI97
aI104
aI105
aI108
aI384
aI384
aI673
aI764
aI71
aI100
aI81
aI197
aI70
aI114
aI84
asg11
I12
sg12
I1930
sbag1
(g2
g3
Ntp433
Rp434
(dp435
g7
(lp436
sg9
(lp437
I95
aI905
aI160
asg12
I1929
sbag1
(g2
g3
Ntp438
Rp439
(dp440
g7
(lp441
sg9
(lp442
I53
aI66
asg11
I2
sg12
I1928
sbag1
(g2
g3
Ntp443
Rp444
(dp445
g7
(lp446
sg9
(lp447
I574
aI297
asg11
I1
sg12
I1927
sbag1
(g2
g3
Ntp448
Rp449
(dp450
g7
(lp451
sg9
(lp452
I333
aI815
asg11
I2
sg12
I1926
sbag1
(g2
g3
Ntp453
Rp454
(dp455
g7
(lp456
sg9
(lp457
I325
aI662
asg11
I2
sg12
I1925
sbag1
(g2
g3
Ntp458
Rp459
(dp460
g7
(lp461
sg9
(lp462
I38
aI221
aI221
aI711
asg11
I3
sg12
I1922
sbag1
(g2
g3
Ntp463
Rp464
(dp465
g7
(lp466
sg9
(lp467
I463
asg12
I1921
sbag1
(g2
g3
Ntp468
Rp469
(dp470
g7
(lp471
sg9
(lp472
I43
aI75
aI99
aI190
aI633
asg11
I5
sg12
I1920
sbag1
(g2
g3
Ntp473
Rp474
(dp475
g7
(lp476
sg9
(lp477
I175
aI462
aI852
aI212
aI552
aI590
aI328
asg11
I3
sg12
I1919
sbag1
(g2
g3
Ntp478
Rp479
(dp480
g7
(lp481
sg9
(lp482
I59
aI82
aI111
aI45
asg11
I3
sg12
I1918
sbag1
(g2
g3
Ntp483
Rp484
(dp485
g7
(lp486
sg9
(lp487
I88
asg12
I1916
sbag1
(g2
g3
Ntp488
Rp489
(dp490
g7
(lp491
sg9
(lp492
I64
aI646
asg11
I2
sg12
I1915
sbag1
(g2
g3
Ntp493
Rp494
(dp495
g7
(lp496
sg9
(lp497
I23
aI31
aI52
aI136
aI52
aI52
aI52
aI965
asg11
I7
sg12
I1914
sbag1
(g2
g3
Ntp498
Rp499
(dp500
g7
(lp501
sg9
(lp502
I21
aI47
asg11
I2
sg12
I1913
sbag1
(g2
g3
Ntp503
Rp504
(dp505
g7
(lp506
sg9
(lp507
I3
aI20
aI3
aI8
asg11
I3
sg12
I1912
sbag1
(g2
g3
Ntp508
Rp509
(dp510
g7
(lp511
sg9
(lp512
I46
aI49
asg11
I2
sg12
I1911
sbag1
(g2
g3
Ntp513
Rp514
(dp515
g7
(lp516
sg9
(lp517
I79
aI277
aI948
asg11
I2
sg12
I1909
sbag1
(g2
g3
Ntp518
Rp519
(dp520
g7
(lp521
sg9
(lp522
I18
aI455
asg11
I1
sg12
I1908
sbag1
(g2
g3
Ntp523
Rp524
(dp525
g7
(lp526
sg9
(lp527
I364
asg11
I2
sg12
I1906
sbag1
(g2
g3
Ntp528
Rp529
(dp530
g7
(lp531
sg9
(lp532
I164
aI153
asg11
I1
sg12
I1905
sbag1
(g2
g3
Ntp533
Rp534
(dp535
g7
(lp536
sg9
(lp537
I78
aI86
asg11
I1
sg12
I1904
sbag1
(g2
g3
Ntp538
Rp539
(dp540
g7
(lp541
sg9
(lp542
I69
asg11
I1
sg12
I1903
sbag1
(g2
g3
Ntp543
Rp544
(dp545
g7
(lp546
sg9
(lp547
sg11
I1
sg12
I1902
sbag1
(g2
g3
Ntp548
Rp549
(dp550
g7
(lp551
sg9
(lp552
I48
aI763
aI969
asg11
I2
sg12
I1901
sbag1
(g2
g3
Ntp553
Rp554
(dp555
g7
(lp556
sg9
(lp557
I233
asg11
I1
sg12
I1900
sbag1
(g2
g3
Ntp558
Rp559
(dp560
g7
(lp561
sg9
(lp562
I63
aI958
aI51
aI135
asg11
I4
sg12
I1899
sbag1
(g2
g3
Ntp563
Rp564
(dp565
g7
(lp566
sg9
(lp567
I405
aI2
asg12
I1898
sbag1
(g2
g3
Ntp568
Rp569
(dp570
g7
(lp571
sg9
(lp572
I484
aI234
asg11
I1
sg12
I1897
sbag1
(g2
g3
Ntp573
Rp574
(dp575
g7
(lp576
sg9
(lp577
I846
aI9
asg11
I2
sg12
I1896
sbag1
(g2
g3
Ntp578
Rp579
(dp580
g7
(lp581
sg9
(lp582
I1
aI201
asg11
I3
sg12
I1895
sbag1
(g2
g3
Ntp583
Rp584
(dp585
g7
(lp586
sg9
(lp587
I199
aI229
asg11
I3
sg12
I1894
sbag1
(g2
g3
Ntp588
Rp589
(dp590
g7
(lp591
sg9
(lp592
I629
asg12
I1893
sbag1
(g2
g3
Ntp593
Rp594
(dp595
g7
(lp596
sg9
(lp597
I310
asg12
I1892
sbag1
(g2
g3
Ntp598
Rp599
(dp600
g7
(lp601
sg9
(lp602
I523
aI398
asg12
I1890
sbag1
(g2
g3
Ntp603
Rp604
(dp605
g7
(lp606
sg9
(lp607
I33
asg11
I1
sg12
I1889
sbag1
(g2
g3
Ntp608
Rp609
(dp610
g7
(lp611
sg9
(lp612
I54
asg11
I1
sg12
I1888
sbag1
(g2
g3
Ntp613
Rp614
(dp615
g7
(lp616
sg9
(lp617
I32
aI17
asg11
I1
sg12
I1884
sbag1
(g2
g3
Ntp618
Rp619
(dp620
g7
(lp621
sg9
(lp622
I112
aI340
asg12
I1877
sbag1
(g2
g3
Ntp623
Rp624
(dp625
g7
(lp626
sg9
(lp627
sg12
I1875
sbag1
(g2
g3
Ntp628
Rp629
(dp630
g7
(lp631
sg9
(lp632
I12
aI134
asg11
I2
sg12
I1874
sbag1
(g2
g3
Ntp633
Rp634
(dp635
g7
(lp636
sg9
(lp637
sg12
I1870
sbag1
(g2
g3
Ntp638
Rp639
(dp640
g7
(lp641
sg9
(lp642
I960
aI7
aI365
aI26
aI139
aI413
asg11
I4
sg12
I1869
sbag1
(g2
g3
Ntp643
Rp644
(dp645
g7
(lp646
sg9
(lp647
sg11
I2
sg12
I1866
sbag1
(g2
g3
Ntp648
Rp649
(dp650
g7
(lp651
sg9
(lp652
I659
aI28
asg11
I1
sg12
I1865
sbag1
(g2
g3
Ntp653
Rp654
(dp655
g7
(lp656
sg9
(lp657
I55
aI10
aI115
asg11
I2
sg12
I1864
sbag1
(g2
g3
Ntp658
Rp659
(dp660
g7
(lp661
sg9
(lp662
sg11
I1
sg12
I1860
sbag1
(g2
g3
Ntp663
Rp664
(dp665
g7
(lp666
sg9
(lp667
sg11
I1
sg12
I1853
sbag1
(g2
g3
Ntp668
Rp669
(dp670
g7
(lp671
sg9
(lp672
sg11
I1
sg12
I1818
sbag1
(g2
g3
Ntp673
Rp674
(dp675
g7
(lp676
sg9
(lp677
sg11
I1
sg12
I1787
sbag1
(g2
g3
Ntp678
Rp679
(dp680
g7
(lp681
sg9
(lp682
sg12
I1659
sbag1
(g2
g3
Ntp683
Rp684
(dp685
g7
(lp686
sg9
(lp687
sg11
I1
sg12
I1612
sbag1
(g2
g3
Ntp688
Rp689
(dp690
g7
(lp691
sg9
(lp692
sg11
I1
sg12
I1595
sbag1
(g2
g3
Ntp693
Rp694
(dp695
g7
(lp696
sg9
(lp697
sg11
I1
sg12
I9
sbag1
(g2
g3
Ntp698
Rp699
(dp700
g7
(lp701
sg9
(lp702
I962
aI935
aI780
aI946
aI645
aI873
aI961
aI410
asg11
I98
sg12
I-1
sba.