(lp0
ccopy_reg
_reconstructor
p1
(cdataset.Year
Year
p2
c__builtin__
object
p3
Ntp4
Rp5
(dp6
S'movies'
p7
(lp8
sS'books'
p9
(lp10
I1
aI512
aI1
asS'n_books'
p11
I3
sS'year'
p12
I1895
sbag1
(g2
g3
Ntp13
Rp14
(dp15
g7
(lp16
sg9
(lp17
I2
aI234
asg11
I1
sg12
I1897
sbag1
(g2
g3
Ntp18
Rp19
(dp20
g7
(lp21
sg9
(lp22
I3
aI20
aI3
asg11
I3
sg12
I1912
sbag1
(g2
g3
Ntp23
Rp24
(dp25
g7
(lp26
sg9
(lp27
I4
aI255
aI378
aI459
aI482
aI332
asg11
I5
sg12
I1933
sbag1
(g2
g3
Ntp28
Rp29
(dp30
g7
(lp31
sg9
(lp32
sg11
I98
sg12
I-1
sbag1
(g2
g3
Ntp33
Rp34
(dp35
g7
(lp36
sg9
(lp37
I6
aI227
aI765
asg11
I2
sg12
I1938
sbag1
(g2
g3
Ntp38
Rp39
(dp40
g7
(lp41
sg9
(lp42
I7
aI26
aI365
aI960
asg11
I4
sg12
I1869
sbag1
(g2
g3
Ntp43
Rp44
(dp45
g7
(lp46
sg9
(lp47
I8
aI231
aI387
aI578
asg11
I4
sg12
I1995
sbag1
(g2
g3
Ntp48
Rp49
(dp50
g7
(lp51
sg9
(lp52
I9
aI77
aI187
aI494
asg11
I4
sg12
I1990
sbag1
(g2
g3
Ntp53
Rp54
(dp55
g7
(lp56
sg9
(lp57
I10
aI125
aI733
aI874
asg11
I4
sg12
I1987
sbag1
(g2
g3
Ntp58
Rp59
(dp60
g7
(lp61
sg9
(lp62
I11
aI16
aI22
aI27
aI30
aI50
aI76
aI116
aI273
aI275
aI295
aI318
aI342
aI347
aI362
aI362
aI375
aI548
aI596
aI688
aI729
aI751
aI782
aI758
aI823
aI864
aI947
aI469
aI599
aI881
aI797
asg11
I23
sg12
I1953
sbag1
(g2
g3
Ntp63
Rp64
(dp65
g7
(lp66
sg9
(lp67
I12
aI12
asg11
I2
sg12
I1874
sbag1
(g2
g3
Ntp68
Rp69
(dp70
g7
(lp71
sg9
(lp72
I13
asg11
I1
sg12
I1945
sbag1
(g2
g3
Ntp73
Rp74
(dp75
g7
(lp76
sg9
(lp77
I14
aI34
aI57
aI142
aI156
aI196
aI219
aI219
aI246
aI254
aI287
aI303
aI428
aI439
aI464
aI487
aI490
aI62
aI606
aI713
aI868
aI814
asg11
I17
sg12
I1954
sbag1
(g2
g3
Ntp78
Rp79
(dp80
g7
(lp81
sg9
(lp82
I15
aI261
aI294
aI314
aI747
aI771
aI928
asg11
I7
sg12
I1937
sbag1
(g2
g3
Ntp83
Rp84
(dp85
g7
(lp86
sg9
(lp87
I18
aI455
asg11
I1
sg12
I1908
sbag1
(g2
g3
Ntp88
Rp89
(dp90
g7
(lp91
sg9
(lp92
I19
aI40
aI73
aI89
aI97
aI104
aI105
aI108
aI384
aI384
aI673
aI764
aI71
aI100
asg11
I12
sg12
I1930
sbag1
(g2
g3
Ntp93
Rp94
(dp95
g7
(lp96
sg9
(lp97
I21
aI47
asg11
I2
sg12
I1913
sbag1
(g2
g3
Ntp98
Rp99
(dp100
g7
(lp101
sg9
(lp102
I23
aI31
aI52
aI136
aI52
aI52
aI52
asg11
I7
sg12
I1914
sbag1
(g2
g3
Ntp103
Rp104
(dp105
g7
(lp106
sg9
(lp107
I24
aI36
aI67
aI68
aI83
aI110
aI130
aI137
aI253
aI265
aI286
aI330
aI343
aI356
aI451
aI461
aI465
aI530
aI648
aI651
aI657
aI769
aI785
aI834
aI932
aI5
aI360
aI427
aI481
aI777
aI920
aI939
aI307
aI432
aI684
aI317
aI918
aI828
asg11
I25
sg12
I1962
sbag1
(g2
g3
Ntp108
Rp109
(dp110
g7
(lp111
sg9
(lp112
I25
aI107
aI237
aI289
aI327
aI476
aI476
aI731
aI968
aI96
aI800
aI890
aI232
aI783
aI262
aI671
asg11
I9
sg12
I1951
sbag1
(g2
g3
Ntp113
Rp114
(dp115
g7
(lp116
sg9
(lp117
I29
aI29
aI122
aI126
aI140
aI149
aI182
aI305
asg11
I8
sg12
I1934
sbag1
(g2
g3
Ntp118
Rp119
(dp120
g7
(lp121
sg9
(lp122
I32
aI17
asg11
I1
sg12
I1884
sbag1
(g2
g3
Ntp123
Rp124
(dp125
g7
(lp126
sg9
(lp127
I33
asg11
I1
sg12
I1889
sbag1
(g2
g3
Ntp128
Rp129
(dp130
g7
(lp131
sg9
(lp132
I134
aI240
aI337
aI514
aI577
aI636
aI664
aI698
aI760
aI788
aI802
aI817
aI860
aI915
asg11
I28
sg12
I2015
sbag1
(g2
g3
Ntp133
Rp134
(dp135
g7
(lp136
sg9
(lp137
I37
aI109
aI144
aI166
aI176
aI218
aI226
aI313
aI450
aI479
aI520
aI543
aI579
aI734
aI735
aI803
aI919
aI930
aI955
aI644
aI143
aI642
aI847
asg11
I19
sg12
I1960
sbag1
(g2
g3
Ntp138
Rp139
(dp140
g7
(lp141
sg9
(lp142
I38
aI221
aI221
asg11
I3
sg12
I1922
sbag1
(g2
g3
Ntp143
Rp144
(dp145
g7
(lp146
sg9
(lp147
I39
aI93
aI272
aI426
aI470
aI508
aI522
aI524
aI525
aI524
aI573
aI621
aI674
aI719
aI750
aI754
aI832
aI833
aI891
aI929
aI959
aI962
asg11
I22
sg12
I2012
sbag1
(g2
g3
Ntp148
Rp149
(dp150
g7
(lp151
sg9
(lp152
I41
aI55
aI115
asg11
I2
sg12
I1864
sbag1
(g2
g3
Ntp153
Rp154
(dp155
g7
(lp156
sg9
(lp157
I42
aI296
aI884
aI680
aI963
asg11
I3
sg12
I1950
sbag1
(g2
g3
Ntp158
Rp159
(dp160
g7
(lp161
sg9
(lp162
I43
aI75
aI99
aI190
aI633
asg11
I5
sg12
I1920
sbag1
(g2
g3
Ntp163
Rp164
(dp165
g7
(lp166
sg9
(lp167
I44
aI65
aI74
aI148
aI150
aI346
aI429
aI536
aI669
aI863
aI871
aI902
aI357
aI941
aI220
aI406
asg11
I12
sg12
I1963
sbag1
(g2
g3
Ntp168
Rp169
(dp170
g7
(lp171
sg9
(lp172
I45
aI81
aI95
aI101
aI103
aI133
aI141
aI147
aI168
aI183
aI230
aI241
aI299
aI316
aI316
aI320
aI321
aI329
aI348
aI349
aI369
aI374
aI379
aI399
aI417
aI478
aI480
aI488
aI491
aI506
aI510
aI533
aI534
aI537
aI544
aI549
aI549
aI554
aI557
aI559
aI562
aI564
aI565
aI566
aI568
aI570
aI575
aI583
aI584
aI592
aI604
aI608
aI613
aI622
aI630
aI632
aI679
aI694
aI700
aI708
aI709
aI711
aI714
aI721
aI723
aI724
aI762
aI766
aI767
aI792
aI798
aI799
aI806
aI816
aI822
aI838
aI841
aI856
aI862
aI865
aI867
aI882
aI883
aI887
aI889
aI895
aI896
aI908
aI916
aI935
aI953
aI958
asg11
I92
sg12
I2010
sbag1
(g2
g3
Ntp173
Rp174
(dp175
g7
(lp176
sg9
(lp177
I46
aI948
aI49
asg11
I2
sg12
I1911
sbag1
(g2
g3
Ntp178
Rp179
(dp180
g7
(lp181
sg9
(lp182
I48
aI763
asg11
I2
sg12
I1901
sbag1
(g2
g3
Ntp183
Rp184
(dp185
g7
(lp186
sg9
(lp187
I51
aI63
aI857
aI943
asg11
I4
sg12
I1899
sbag1
(g2
g3
Ntp188
Rp189
(dp190
g7
(lp191
sg9
(lp192
I53
aI66
asg11
I2
sg12
I1928
sbag1
(g2
g3
Ntp193
Rp194
(dp195
g7
(lp196
sg9
(lp197
I54
asg11
I1
sg12
I1888
sbag1
(g2
g3
Ntp198
Rp199
(dp200
g7
(lp201
sg9
(lp202
I56
aI145
aI178
aI271
aI319
aI372
aI415
aI477
aI477
aI528
aI695
aI768
aI775
aI784
aI807
aI809
aI810
aI879
aI923
aI938
asg11
I20
sg12
I2014
sbag1
(g2
g3
Ntp203
Rp204
(dp205
g7
(lp206
sg9
(lp207
I58
aI197
aI377
aI381
aI571
aI585
aI597
aI631
aI732
aI770
aI773
aI904
asg11
I12
sg12
I2016
sbag1
(g2
g3
Ntp208
Rp209
(dp210
g7
(lp211
sg9
(lp212
I59
aI82
aI111
asg11
I3
sg12
I1918
sbag1
(g2
g3
Ntp213
Rp214
(dp215
g7
(lp216
sg9
(lp217
I60
aI179
aI188
aI194
aI298
aI301
aI335
aI361
aI499
aI586
aI593
aI812
aI819
aI927
aI954
aI409
aI825
aI663
asg11
I15
sg12
I1959
sbag1
(g2
g3
Ntp218
Rp219
(dp220
g7
(lp221
sg9
(lp222
I61
aI121
aI127
aI138
aI169
aI171
aI172
aI171
aI208
aI208
aI268
aI268
aI269
aI383
aI383
aI467
aI474
aI526
aI550
aI612
aI656
aI685
aI820
aI844
aI936
aI260
aI504
aI518
aI876
aI245
aI730
aI693
aI368
aI756
asg11
I25
sg12
I1957
sbag1
(g2
g3
Ntp223
Rp224
(dp225
g7
(lp226
sg9
(lp227
I64
aI646
asg11
I2
sg12
I1915
sbag1
(g2
g3
Ntp228
Rp229
(dp230
g7
(lp231
sg9
(lp232
I69
aI364
asg11
I2
sg12
I1906
sbag1
(g2
g3
Ntp233
Rp234
(dp235
g7
(lp236
sg9
(lp237
I70
aI84
aI114
aI163
aI210
aI210
aI247
aI297
aI309
aI315
aI340
aI340
aI366
aI386
aI389
aI396
aI402
aI414
aI436
aI437
aI443
aI463
aI497
aI545
aI555
aI611
aI638
aI647
aI677
aI678
aI704
aI738
aI739
aI781
aI840
aI848
aI877
aI893
aI901
aI964
aI965
asg11
I41
sg12
I2009
sbag1
(g2
g3
Ntp238
Rp239
(dp240
g7
(lp241
sg9
(lp242
I72
aI128
aI192
aI200
aI209
aI200
aI209
aI223
aI243
aI274
aI326
aI359
aI471
aI489
aI546
aI576
aI753
aI796
aI899
aI445
aI690
aI92
aI655
asg11
I19
sg12
I1958
sbag1
(g2
g3
Ntp243
Rp244
(dp245
g7
(lp246
sg9
(lp247
I78
aI86
asg11
I1
sg12
I1904
sbag1
(g2
g3
Ntp248
Rp249
(dp250
g7
(lp251
sg9
(lp252
I79
aI277
asg11
I2
sg12
I1909
sbag1
(g2
g3
Ntp253
Rp254
(dp255
g7
(lp256
sg9
(lp257
I80
aI102
aI117
aI193
aI204
aI204
aI278
aI352
aI394
aI431
aI440
aI515
aI619
aI793
aI228
aI460
aI560
aI845
aI516
aI614
asg11
I14
sg12
I1961
sbag1
(g2
g3
Ntp258
Rp259
(dp260
g7
(lp261
sg9
(lp262
I85
aI132
aI216
aI270
aI282
aI388
aI412
aI416
aI496
aI572
aI744
aI752
aI408
aI746
aI886
aI888
aI486
asg11
I12
sg12
I1956
sbag1
(g2
g3
Ntp263
Rp264
(dp265
g7
(lp266
sg9
(lp267
I87
aI123
aI180
aI288
aI354
aI475
aI475
aI607
aI649
aI699
asg11
I10
sg12
I2003
sbag1
(g2
g3
Ntp268
Rp269
(dp270
g7
(lp271
sg9
(lp272
I88
aI233
aI433
aI547
aI547
aI715
asg11
I6
sg12
I1989
sbag1
(g2
g3
Ntp273
Rp274
(dp275
g7
(lp276
sg9
(lp277
I90
aI790
asg11
I2
sg12
I1994
sbag1
(g2
g3
Ntp278
Rp279
(dp280
g7
(lp281
sg9
(lp282
I91
aI161
aI242
aI258
aI281
aI283
aI323
aI401
aI403
aI410
aI422
aI539
aI591
aI594
aI650
aI654
aI683
aI697
aI722
aI743
aI745
aI794
aI805
aI808
aI811
aI830
aI869
aI917
aI934
aI951
aI961
aI970
asg11
I32
sg12
I2008
sbag1
(g2
g3
Ntp283
Rp284
(dp285
g7
(lp286
sg9
(lp287
I94
aI106
aI174
aI248
aI293
aI339
aI373
aI424
aI640
aI689
aI339
aI949
aI618
aI626
aI653
asg11
I12
sg12
I1955
sbag1
(g2
g3
Ntp288
Rp289
(dp290
g7
(lp291
sg9
(lp292
I98
aI131
aI155
aI158
aI217
aI266
aI291
aI304
aI331
aI353
aI358
aI393
aI413
aI444
aI495
aI505
aI507
aI509
aI527
aI529
aI532
aI527
aI538
aI540
aI553
aI580
aI616
aI635
aI639
aI645
aI696
aI702
aI705
aI716
aI717
aI736
aI741
aI759
aI780
aI786
aI787
aI789
aI795
aI804
aI826
aI827
aI855
aI861
aI872
aI873
aI875
aI885
aI897
aI905
aI907
aI910
aI912
aI914
aI924
aI944
aI946
aI950
asg11
I62
sg12
I2011
sbag1
(g2
g3
Ntp293
Rp294
(dp295
g7
(lp296
sg9
(lp297
I113
aI458
aI458
aI755
asg11
I4
sg12
I1936
sbag1
(g2
g3
Ntp298
Rp299
(dp300
g7
(lp301
sg9
(lp302
I118
aI186
asg11
I2
sg12
I1939
sbag1
(g2
g3
Ntp303
Rp304
(dp305
g7
(lp306
sg9
(lp307
I119
aI154
aI666
aI913
aI587
asg11
I4
sg12
I1976
sbag1
(g2
g3
Ntp308
Rp309
(dp310
g7
(lp311
sg9
(lp312
I120
aI146
aI184
asg11
I3
sg12
I1935
sbag1
(g2
g3
Ntp313
Rp314
(dp315
g7
(lp316
sg9
(lp317
I124
aI135
aI165
aI181
aI251
aI257
aI334
aI367
aI423
aI452
aI454
aI456
aI472
aI473
aI521
aI563
aI567
aI590
aI601
aI602
aI615
aI637
aI643
aI661
aI707
aI835
aI858
aI866
aI945
aI969
asg11
I30
sg12
I2013
sbag1
(g2
g3
Ntp318
Rp319
(dp320
g7
(lp321
sg9
(lp322
I129
aI185
aI466
aI493
aI600
aI641
aI774
aI778
asg11
I8
sg12
I1931
sbag1
(g2
g3
Ntp323
Rp324
(dp325
g7
(lp326
sg9
(lp327
I151
aI285
aI380
aI392
aI682
asg11
I5
sg12
I1998
sbag1
(g2
g3
Ntp328
Rp329
(dp330
g7
(lp331
sg9
(lp332
I152
aI162
aI284
aI292
aI292
aI322
aI385
aI391
aI385
aI542
aI558
aI623
aI659
aI667
aI942
aI967
asg11
I16
sg12
I2006
sbag1
(g2
g3
Ntp333
Rp334
(dp335
g7
(lp336
sg9
(lp337
I153
aI160
aI397
aI511
aI676
asg11
I5
sg12
I2001
sbag1
(g2
g3
Ntp338
Rp339
(dp340
g7
(lp341
sg9
(lp342
I157
aI198
aI198
aI312
aI430
aI468
aI483
aI502
aI687
aI712
aI842
aI903
asg11
I12
sg12
I2005
sbag1
(g2
g3
Ntp343
Rp344
(dp345
g7
(lp346
sg9
(lp347
I159
aI173
aI355
asg11
I3
sg12
I1978
sbag1
(g2
g3
Ntp348
Rp349
(dp350
g7
(lp351
sg9
(lp352
I164
asg11
I1
sg12
I1905
sbag1
(g2
g3
Ntp353
Rp354
(dp355
g7
(lp356
sg9
(lp357
I167
aI588
aI691
asg11
I3
sg12
I1968
sbag1
(g2
g3
Ntp358
Rp359
(dp360
g7
(lp361
sg9
(lp362
I170
aI259
aI501
aI531
aI535
aI821
asg11
I6
sg12
I1997
sbag1
(g2
g3
Ntp363
Rp364
(dp365
g7
(lp366
sg9
(lp367
I175
aI462
aI852
aI212
aI552
asg11
I3
sg12
I1919
sbag1
(g2
g3
Ntp368
Rp369
(dp370
g7
(lp371
sg9
(lp372
I177
aI485
asg11
I2
sg12
I1966
sbag1
(g2
g3
Ntp373
Rp374
(dp375
g7
(lp376
sg9
(lp377
I189
aI267
aI419
aI434
aI447
aI447
aI634
aI675
aI779
aI937
aI957
aI280
aI376
aI627
aI660
aI829
aI925
aI35
aI878
asg11
I11
sg12
I1952
sbag1
(g2
g3
Ntp378
Rp379
(dp380
g7
(lp381
sg9
(lp382
I191
aI203
aI203
aI249
aI306
aI382
aI404
aI449
aI582
aI605
aI791
aI850
aI395
aI761
aI818
aI425
asg11
I12
sg12
I1932
sbag1
(g2
g3
Ntp383
Rp384
(dp385
g7
(lp386
sg9
(lp387
I195
aI252
aI400
aI652
aI720
asg11
I5
sg12
I1979
sbag1
(g2
g3
Ntp388
Rp389
(dp390
g7
(lp391
sg9
(lp392
I199
aI199
aI629
asg11
I3
sg12
I1894
sbag1
(g2
g3
Ntp393
Rp394
(dp395
g7
(lp396
sg9
(lp397
I201
aI201
asg11
I2
sg12
I1896
sbag1
(g2
g3
Ntp398
Rp399
(dp400
g7
(lp401
sg9
(lp402
I202
aI206
aI202
aI206
aI276
aI338
asg11
I6
sg12
I1948
sbag1
(g2
g3
Ntp403
Rp404
(dp405
g7
(lp406
sg9
(lp407
I205
aI205
aI224
aI311
aI701
aI906
asg11
I6
sg12
I1941
sbag1
(g2
g3
Ntp408
Rp409
(dp410
g7
(lp411
sg9
(lp412
I211
aI211
aI541
asg11
I3
sg12
I1965
sbag1
(g2
g3
Ntp413
Rp414
(dp415
g7
(lp416
sg9
(lp417
I213
aI213
aI225
aI244
aI244
aI350
aI418
aI420
aI453
aI836
aI851
aI931
asg11
I12
sg12
I2000
sbag1
(g2
g3
Ntp418
Rp419
(dp420
g7
(lp421
sg9
(lp422
I214
aI214
aI264
aI302
aI703
aI737
aI749
asg11
I7
sg12
I1999
sbag1
(g2
g3
Ntp423
Rp424
(dp425
g7
(lp426
sg9
(lp427
I215
aI215
asg11
I2
sg12
I1866
sbag1
(g2
g3
Ntp428
Rp429
(dp430
g7
(lp431
sg9
(lp432
I222
aI351
aI448
aI551
aI801
asg11
I5
sg12
I1940
sbag1
(g2
g3
Ntp433
Rp434
(dp435
g7
(lp436
sg9
(lp437
I229
aI498
aI628
asg11
I3
sg12
I1984
sbag1
(g2
g3
Ntp438
Rp439
(dp440
g7
(lp441
sg9
(lp442
I235
aI457
asg11
I2
sg12
I1974
sbag1
(g2
g3
Ntp443
Rp444
(dp445
g7
(lp446
sg9
(lp447
I236
aI421
aI500
aI672
asg11
I4
sg12
I2002
sbag1
(g2
g3
Ntp448
Rp449
(dp450
g7
(lp451
sg9
(lp452
I238
aI300
aI922
asg11
I3
sg12
I1977
sbag1
(g2
g3
Ntp453
Rp454
(dp455
g7
(lp456
sg9
(lp457
I239
aI407
aI407
aI435
aI519
aI921
asg11
I6
sg12
I1992
sbag1
(g2
g3
Ntp458
Rp459
(dp460
g7
(lp461
sg9
(lp462
I250
aI610
aI824
aI900
asg11
I4
sg12
I1985
sbag1
(g2
g3
Ntp463
Rp464
(dp465
g7
(lp466
sg9
(lp467
I256
aI345
aI363
aI569
aI725
aI742
aI846
aI859
aI898
asg11
I9
sg12
I2004
sbag1
(g2
g3
Ntp468
Rp469
(dp470
g7
(lp471
sg9
(lp472
I263
aI341
aI620
asg11
I3
sg12
I1993
sbag1
(g2
g3
Ntp473
Rp474
(dp475
g7
(lp476
sg9
(lp477
I279
aI892
aI956
asg11
I3
sg12
I1980
sbag1
(g2
g3
Ntp478
Rp479
(dp480
g7
(lp481
sg9
(lp482
I290
asg11
I1
sg12
I1967
sbag1
(g2
g3
Ntp483
Rp484
(dp485
g7
(lp486
sg9
(lp487
I308
aI595
aI710
asg11
I3
sg12
I1970
sbag1
(g2
g3
Ntp488
Rp489
(dp490
g7
(lp491
sg9
(lp492
I325
aI662
asg11
I2
sg12
I1925
sbag1
(g2
g3
Ntp493
Rp494
(dp495
g7
(lp496
sg9
(lp497
I328
aI581
aI665
aI728
aI911
asg11
I5
sg12
I1988
sbag1
(g2
g3
Ntp498
Rp499
(dp500
g7
(lp501
sg9
(lp502
I333
aI815
asg11
I2
sg12
I1926
sbag1
(g2
g3
Ntp503
Rp504
(dp505
g7
(lp506
sg9
(lp507
I336
asg11
I1
sg12
I1853
sbag1
(g2
g3
Ntp508
Rp509
(dp510
g7
(lp511
sg9
(lp512
I344
aI28
asg11
I1
sg12
I1865
sbag1
(g2
g3
Ntp513
Rp514
(dp515
g7
(lp516
sg9
(lp517
I370
aI813
aI952
asg11
I3
sg12
I1971
sbag1
(g2
g3
Ntp518
Rp519
(dp520
g7
(lp521
sg9
(lp522
I371
aI686
aI726
aI849
aI854
asg11
I5
sg12
I2017
sbag1
(g2
g3
Ntp523
Rp524
(dp525
g7
(lp526
sg9
(lp527
I390
aI446
aI706
aI966
asg11
I4
sg12
I1947
sbag1
(g2
g3
Ntp528
Rp529
(dp530
g7
(lp531
sg9
(lp532
I411
aI681
aI727
asg11
I3
sg12
I1942
sbag1
(g2
g3
Ntp533
Rp534
(dp535
g7
(lp536
sg9
(lp537
I438
aI441
aI561
aI589
aI598
aI617
aI625
aI718
aI740
aI772
aI843
aI926
aI940
asg11
I13
sg12
I2007
sbag1
(g2
g3
Ntp538
Rp539
(dp540
g7
(lp541
sg9
(lp542
I442
aI692
aI837
asg11
I3
sg12
I1996
sbag1
(g2
g3
Ntp543
Rp544
(dp545
g7
(lp546
sg9
(lp547
I484
aI492
aI603
aI831
aI880
aI324
asg11
I5
sg12
I1983
sbag1
(g2
g3
Ntp548
Rp549
(dp550
g7
(lp551
sg9
(lp552
I503
asg11
I1
sg12
I1900
sbag1
(g2
g3
Ntp553
Rp554
(dp555
g7
(lp556
sg9
(lp557
I513
asg11
I1
sg12
I1860
sbag1
(g2
g3
Ntp558
Rp559
(dp560
g7
(lp561
sg9
(lp562
I517
asg11
I1
sg12
I1787
sbag1
(g2
g3
Ntp563
Rp564
(dp565
g7
(lp566
sg9
(lp567
I556
asg11
I1
sg12
I1902
sbag1
(g2
g3
Ntp568
Rp569
(dp570
g7
(lp571
sg9
(lp572
I574
asg11
I1
sg12
I1927
sbag1
(g2
g3
Ntp573
Rp574
(dp575
g7
(lp576
sg9
(lp577
I609
asg11
I1
sg12
I1982
sbag1
(g2
g3
Ntp578
Rp579
(dp580
g7
(lp581
sg9
(lp582
I624
asg11
I1
sg12
I9
sbag1
(g2
g3
Ntp583
Rp584
(dp585
g7
(lp586
sg9
(lp587
I658
asg11
I1
sg12
I1975
sbag1
(g2
g3
Ntp588
Rp589
(dp590
g7
(lp591
sg9
(lp592
I668
asg11
I1
sg12
I1818
sbag1
(g2
g3
Ntp593
Rp594
(dp595
g7
(lp596
sg9
(lp597
I670
asg11
I1
sg12
I1969
sbag1
(g2
g3
Ntp598
Rp599
(dp600
g7
(lp601
sg9
(lp602
I757
asg11
I1
sg12
I1903
sbag1
(g2
g3
Ntp603
Rp604
(dp605
g7
(lp606
sg9
(lp607
I776
aI853
asg11
I2
sg12
I1991
sbag1
(g2
g3
Ntp608
Rp609
(dp610
g7
(lp611
sg9
(lp612
I870
asg11
I1
sg12
I1595
sbag1
(g2
g3
Ntp613
Rp614
(dp615
g7
(lp616
sg9
(lp617
I894
asg11
I1
sg12
I1612
sbag1
(g2
g3
Ntp618
Rp619
(dp620
g7
(lp621
sg9
(lp622
I909
asg11
I1
sg12
I1981
sbag1
(g2
g3
Ntp623
Rp624
(dp625
g7
(lp626
sg9
(lp627
I933
asg11
I1
sg12
I1986
sbag1
(g2
g3
Ntp628
Rp629
(dp630
g7
(lp631
sg9
(lp632
I112
asg12
I1877
sbag1
(g2
g3
Ntp633
Rp634
(dp635
g7
(lp636
sg9
(lp637
I139
asg12
I1870
sbag1
(g2
g3
Ntp638
Rp639
(dp640
g7
(lp641
sg9
(lp642
I207
aI839
asg12
I1964
sbag1
(g2
g3
Ntp643
Rp644
(dp645
g7
(lp646
sg9
(lp647
I310
asg12
I1892
sbag1
(g2
g3
Ntp648
Rp649
(dp650
g7
(lp651
sg9
(lp652
I398
aI523
asg12
I1890
sbag1
(g2
g3
Ntp653
Rp654
(dp655
g7
(lp656
sg9
(lp657
I405
asg12
I1898
sbag1
(g2
g3
Ntp658
Rp659
(dp660
g7
(lp661
sg9
(lp662
I748
asg12
I1659
sba.