ccopy_reg
_reconstructor
p0
(cdataset.Book
Book
p1
c__builtin__
object
p2
Ntp3
Rp4
(dp5
S'similar_books'
p6
(lp7
sS'genres'
p8
(lp9
sS'author'
p10
I302
sS'countries'
p11
(lp12
I2
asS'year'
p13
I1973
sS'title'
p14
VGalaxy Magazine September 1973
p15
sS'cover'
p16
Vhttps://ia601307.us.archive.org/BookReader/BookReaderImages.php?zip=/32/items/Galaxy_v33n08_1973-09/Galaxy_v33n08_1973-09_jp2.zip&file=Galaxy_v33n08_1973-09_jp2/Galaxy_v33n08_1973-09_0000.jp2&scale=0&rotate=0
p17
sS'cover_art'
p18
S'http://www.isfdb.org/wiki/images/1/1e/GALSEP73.jpg'
p19
sS'author_name'
p20
VGalaxy Magazine
p21
sS'images_urls'
p22
(lp23
sS'authors'
p24
(lp25
I326
aI499
aI719
aI341
aI720
aI667
aI386
aI635
aI542
aI721
aI722
aI723
aI302
asS'images'
p26
(lp27
sS'id'
p28
I1165
sS'contents'
p29
(lp30
(dp31
g10
I326
sg14
VRendezvous with Rama (Part 1 of 2)
p32
sa(dp33
g10
I499
sg14
VTriggerman
p34
sa(dp35
g10
I499
sg14
VQuickening
p36
sa(dp37
g10
I326
sg14
VQuarantine
p38
sa(dp39
g10
I326
sg14
VCircle of Flies
p40
sa(dp41
g10
I719
sg14
VAnd Ba
p42
sa(dp43
g10
I499
sg14
VThe Old King's Answers
p44
sa(dp45
g10
I341
sg14
VGalaxy Bookshelf (Galaxy, September 1973)
p46
sa(dp47
g10
I720
sg14
VReview of the Nonfiction Work "Crash Go the Chariots"
p48
sa(dp49
g10
I667
sg14
VRe: October, 1973
p50
sa(dp51
g10
I326
sg14
VGalaxy Stars (Galaxy, September 1973)
p52
sa(dp53
g10
I386
sg14
VQuickening
p54
sa(dp55
g10
I635
sg14
VThe Old King's Answers
p56
sa(dp57
g10
I542
sg14
VRendezvous with Rama (Part 1 of 2)
p58
sa(dp59
g10
I721
sg14
VTriggerman
p60
sa(dp61
g10
I722
sg14
VQuarantine
p62
sa(dp63
g10
I723
sg14
VCircle of Flies
p64
sasb.