ccopy_reg
_reconstructor
p0
(cdataset.Book
Book
p1
c__builtin__
object
p2
Ntp3
Rp4
(dp5
S'isbn'
p6
V0300083173
p7
sS'year'
p8
I2000
sS'author_name'
p9
VMack Reynolds
p10
sS'images_urls'
p11
(lp12
Vhttp://www.gutenberg.org/files/30334/30334-h/images/front.png
p13
aVhttp://www.gutenberg.org/files/30334/30334-h/images/p18.png
p14
aVhttp://www.gutenberg.org/files/30334/30334-h/images/p27.png
p15
aVhttp://www.gutenberg.org/files/30334/30334-h/images/p37.png
p16
aVhttp://www.gutenberg.org/files/30334/30334-h/images/p46.png
p17
aVhttp://www.gutenberg.org/files/30334/30334-h/images/p57.png
p18
aVhttp://www.gutenberg.org/files/30334/30334-tei/images/front.png
p19
aVhttp://www.gutenberg.org/files/30334/30334-tei/images/p18.png
p20
aVhttp://www.gutenberg.org/files/30334/30334-tei/images/p27.png
p21
aVhttp://www.gutenberg.org/files/30334/30334-tei/images/p37.png
p22
aVhttp://www.gutenberg.org/files/30334/30334-tei/images/p46.png
p23
aVhttp://www.gutenberg.org/files/30334/30334-tei/images/p57.png
p24
asS'language_code'
p25
NsS'images'
p26
(lp27
sS'id'
p28
I418
sS'category'
p29
VText
p30
sS'genres'
p31
(lp32
sS'copyright'
p33
VPublic domain in the USA.
p34
sS'title'
p35
VUltima Thule
p36
sS'wikipedia'
p37
(dp38
S'found'
p39
I00
ssS'average_rating'
p40
F4.01
sS'rating_count'
p41
I101
sS'content_available'
p42
I00
sS'goodreads'
p43
(dp44
S'url'
p45
Vhttps://www.goodreads.com/book/show/667526.Ultima_Thule
p46
sg39
I01
sS'year'
p47
I2000
ssS'similar_books'
p48
(lp49
sS'description'
p50
VThis year\u2019s winner of the Yale Series of Younger Poets competition is Davis McCombs\u2019s <i>Ultima Thule, </i>which was acclaimed as \u201ca book of exploration, of searching regard.... a grave, attentive holding of a light\u201d by the contest judge, the distinguished poet W. S. Merwin. The poems are set above and below the Cave Country of south central Kentucky, where McCombs lives and which is home to thousands of caves. The book is framed by two sonnet sequences, the first about a slave guide and explorer at Mammoth Cave in the mid-1800s and the second about McCombs\u2019s experiences as a guide and park ranger there in the 1990s. Other poems deal with Mammoth Cave\u2019s four- thousand-year human history and the thrills of crawling into tight, rarely visited passageways to see what lies beyond. Often the poems search for oblique angles into personal experience, and the caves and the landscape they create form a personal geology.
p51
sS'format'
p52
VPaperback
p53
sS'gutenberg'
p54
(dp55
g45
Vhttp://www.gutenberg.org/ebooks/30334
p56
sS'num'
p57
I30334
ssS'authors'
p58
(lp59
I69
asS'pages'
p60
I72
sS'isbn13'
p61
V9780300083170
p62
sS'language'
p63
VEnglish
p64
sS'country'
p65
I3
sS'release_date'
p66
S'2009-10-25T00:00:00'
p67
sS'author'
p68
I69
sS'classes'
p69
(lp70
Vto-read
p71
aVpoetry
p72
aV20th-21st-c-poetry
p73
aVpoetry-read
p74
aV2017-reading-list
p75
aVgeneral
p76
aVpoetry-collections
p77
aVown-unread
p78
aVbooks-i-used-to-own
p79
aVmy-library
p80
aVsummer-2014
p81
aVread2014
p82
aVaround-the-usa
p83
aVyale-younger
p84
aVlocation-usa-kentucky
p85
aVarya
p86
aVaward-winners
p87
aVpoetry-new
p88
aVyale-series-of-younger-poets
p89
aVunindexed
p90
aVpoetry-poetics
p91
aVfrom-the-stacks
p92
aVyale-younger-series
p93
aVliterary-read
p94
aVliterary
p95
aVpoultry
p96
aVin-my-collection
p97
aVwant-to-read
p98
aVkentucky
p99
aVfriends-books
p100
asS'loc_class'
p101
VPS: Language and Literatures: American and Canadian literature
p102
sS'n_authors'
p103
I1
sb.