ccopy_reg
_reconstructor
p0
(cdataset.Book
Book
p1
c__builtin__
object
p2
Ntp3
Rp4
(dp5
S'similar_books'
p6
(lp7
sS'genres'
p8
(lp9
sS'author'
p10
I302
sS'countries'
p11
(lp12
I2
asS'year'
p13
I1961
sS'title'
p14
VGalaxy Magazine June 1961
p15
sS'cover'
p16
Vhttps://ia600208.us.archive.org/BookReader/BookReaderImages.php?zip=/14/items/Galaxy_v19n05_1961-06_modified/Galaxy_v19n05_1961-06_modified_jp2.zip&file=Galaxy_v19n05_1961-06_modified_jp2/Galaxy_v19n05_1961-06_modified_0000.jp2&scale=0&rotate=0
p17
sS'cover_art'
p18
S'http://www.isfdb.org/wiki/images/f/fa/GALJUN1961.jpg'
p19
sS'author_name'
p20
VGalaxy Magazine
p21
sS'images_urls'
p22
(lp23
sS'authors'
p24
(lp25
I560
aI504
aI519
aI497
aI563
aI499
aI419
aI564
aI565
aI339
aI326
aI483
aI69
aI479
aI63
aI558
aI40
aI74
aI234
aI30
aI561
aI302
asS'images'
p26
(lp27
sS'id'
p28
I1085
sS'contents'
p29
(lp30
(dp31
g10
I560
sg14
VFarmer
p32
sa(dp33
g10
I560
sg14
VFarmer [2]
p34
sa(dp35
g10
I504
sg14
VThe Graybes of Wrath
p36
sa(dp37
g10
I560
sg14
VA Gentle Dying
p38
sa(dp39
g10
I519
sg14
VThe Weirdest World
p40
sa(dp41
g10
I519
sg14
VThe Weirdest World [2]
p42
sa(dp43
g10
I519
sg14
VThe Weirdest World [3]
p44
sa(dp45
g10
I497
sg14
VMother Hitton's Littul Kittons
p46
sa(dp47
g10
I497
sg14
VMother Hitton's Littul Kittons [2]
p48
sa(dp49
g10
I563
sg14
VBreakdown
p50
sa(dp51
g10
I563
sg14
VBreakdown [2]
p52
sa(dp53
g10
I499
sg14
VA-W-F Unlimited
p54
sa(dp55
g10
I499
sg14
VA-W-F Unlimited [2]
p56
sa(dp57
g10
I419
sg14
VMy Object All Sublime
p58
sa(dp59
g10
I419
sg14
VMy Object All Sublime [2]
p60
sa(dp61
g10
I564
sg14
VThe Long Way Home
p62
sa(dp63
g10
I564
sg14
VThe Long Way Home [2]
p64
sa(dp65
g10
I565
sg14
VA Life in the Day of an Editor
p66
sa(dp67
g10
I339
sg14
VFor Your Information: The Strait Named After Vitus Bering
p68
sa(dp69
g10
I326
sg14
VForecast (Galaxy, June 1961)
p70
sa(dp71
g10
I483
sg14
VGalaxy's 5 Star Shelf (Galaxy, June 1961)
p72
sa(dp73
g10
I69
sg14
VFarmer
p74
sa(dp75
g10
I479
sg14
VMother Hitton's Littul Kittons
p76
sa(dp77
g10
I63
sg14
VA-W-F Unlimited
p78
sa(dp79
g10
I558
sg14
VThe Graybes of Wrath
p80
sa(dp81
g10
I40
sg14
VA Gentle Dying
p82
sa(dp83
g10
I74
sg14
VThe Weirdest World
p84
sa(dp85
g10
I234
sg14
VBreakdown
p86
sa(dp87
g10
I30
sg14
VMy Object All Sublime
p88
sa(dp89
g10
I561
sg14
VThe Long Way Home
p90
sasb.