ccopy_reg
_reconstructor
p0
(cdataset.Book
Book
p1
c__builtin__
object
p2
Ntp3
Rp4
(dp5
S'content_name'
p6
V21873.txt.utf-8
p7
sS'isbn'
p8
NsS'year'
p9
I1962
sS'author_name'
p10
VHarry Harrison
p11
sS'images_urls'
p12
(lp13
Vhttp://www.gutenberg.org/files/21873/21873-h/images/bantam_logo.jpg
p14
asS'language_code'
p15
NsS'images'
p16
(lp17
sS'id'
p18
I67
sS'category'
p19
VText
p20
sS'genres'
p21
(lp22
sS'copyright'
p23
VPublic domain in the USA.
p24
sS'title'
p25
VPlanet of the Damned
p26
sS'wikipedia'
p27
(dp28
S'found'
p29
I00
ssS'average_rating'
p30
F3.57
sS'rating_count'
p31
I990
sS'content_available'
p32
I01
sS'goodreads'
p33
(dp34
S'url'
p35
Vhttps://www.goodreads.com/book/show/710829.Planet_of_the_Damned
p36
sg29
I01
sS'year'
p37
I1962
ssS'similar_books'
p38
(lp39
VBrain Twister
p40
aVThe Pirates of Ersatz
p41
aVThe Whole Man
p42
aVWho?
p43
aVThe Planet Buyer
p44
aVDavy
p45
aVDay of the Minotaur
p46
aVA Plague of Demons & Other Stories
p47
aVImmortality, Inc.
p48
aVFootrot Flats 1 (Footrot Flats, #1)
p49
aVThe Butterfly Kid
p50
aVThe Enemy Stars
p51
aVHere Comes Garfield
p52
aVInvaders from the Infinite
p53
aVToo Many Magicians (Lord Darcy, #2)
p54
aVThe Oxford Book of Fantasy Stories
p55
aVThe Dueling Machine
p56
aVStar Born (Pax/Astra, #2)
p57
asS'description'
p58
VOnce in a generation, a man is born with a heightened sense of empathy. Brion Brandd used this gift to win the Twenties, an annual physical and mental competition among the best and smartest people on Anvhar. But scarcely able to enjoy his victory, Brandd is swept off to the hellish planet Dis where he must use his heightened sense of empathy to help avert a global nuclear holocaust by negotiating with the blockading fleet, traversing the Disan underworld, and cracking the mystery of the savagely ruthless magter.<br /><br />Approx. 6 hours
p59
sS'format'
p60
VAudiobook
p61
sS'gutenberg'
p62
(dp63
g35
Vhttp://www.gutenberg.org/ebooks/21873
p64
sS'num'
p65
I21873
ssS'authors'
p66
(lp67
I16
asS'pages'
p68
I224
sS'isbn13'
p69
NsS'language'
p70
VEnglish
p71
sS'countries'
p72
(lp73
I2
asS'release_date'
p74
S'2007-06-20T00:00:00'
p75
sS'author'
p76
I16
sS'content_cleaned'
p77
I01
sS'classes'
p78
(lp79
Vto-read
p80
aVscience-fiction
p81
aVcurrently-reading
p82
aVsci-fi
p83
aVdefault
p84
aVfiction
p85
aVscifi
p86
aVsf
p87
aVowned
p88
aVebook
p89
aVebooks
p90
aVsci-fi-fantasy
p91
aVe-book
p92
aVhugo-nominees
p93
aVharry-harrison
p94
aVnot-read
p95
aVadventure
p96
aVpulp
p97
aVkindle
p98
aVfantascienza
p99
aVbooks
p100
aVpaperback
p101
aVbooks-i-own
p102
aVfree
p103
aVaudiobooks
p104
aVowned-books
p105
aVsci-fi-and-fantasy
p106
aVto-read-sf
p107
aVunread
p108
aVscience-fiction-fantasy
p109
aVscifi-fantasy
p110
aVvintage-sci-fi
p111
aVenglish
p112
aVowned-to-read
p113
aV1
p114
aVsold
p115
aVhugo
p116
aVproject-gutenberg
p117
aVmy-ebooks
p118
aVpublic-domain-science-fiction
p119
aVpublic-domain
p120
aVhugo-nominee
p121
aVaudiobook
p122
aVhugo-award-nominee
p123
aVkindlecollection
p124
aVmy-books
p125
aVshelf-h-authors
p126
aVgenre-syfi-fan-horr
p127
aVvoice
p128
aVon-calibre-to-read
p129
aVto-read-science-fiction
p130
aVscience-fiction-shelf
p131
aVunsorted
p132
aVpaperback-pl
p133
aVbooks-below-300-pages
p134
aVhugo-award
p135
aVfiction-5
p136
aVchris-akers-collection
p137
aVgeof-s-books
p138
aV200-250pgs
p139
aVbookshelves
p140
aV31
p141
aVbooks-read-2012
p142
aVlibrary
p143
aVread-and-owned
p144
aVnot-yet-owned
p145
aVdid-not-finish
p146
aVrequest-overdrive
p147
aVp4
p148
aVhugo-award-winners-and-nominees
p149
aVwhite-bookscase-mid
p150
aVcasa
p151
aVtrillion-year-spree-recs
p152
aVpublic-domain-scifi
p153
aVbooks-that-kcls-does-not-have-as-au
p154
aVunsorted-read
p155
aVno-longer-own
p156
aVbefore-goodreads
p157
aVon-shelf
p158
aVkindle-bookshelf
p159
aV1-cloud
p160
aVowned-scifi
p161
aVhugo-nebula-plus-nominations
p162
aV_audiobooks
p163
aVscif-fi
p164
aVown-audiobook
p165
aVpantry-shelf-3
p166
aVdbox2
p167
aV\u0435\u0434\u0432\u0430-\u043b\u0438
p168
aVwish-list
p169
aVtub06
p170
aVto-read-20th-sf
p171
aVto-listen-to
p172
aVspace-alien
p173
aVshelved
p174
aVscifi-fantasy-mystic-horror
p175
aVread-kevin
p176
aVread-during-peace-corps
p177
aVplanetary-romance
p178
aVpaper_nl
p179
asS'loc_class'
p180
VPS: Language and Literatures: American and Canadian literature
p181
sS'n_authors'
p182
I1
sb.