ccopy_reg
_reconstructor
p0
(cdataset.Book
Book
p1
c__builtin__
object
p2
Ntp3
Rp4
(dp5
S'content_name'
p6
V51609.txt.utf-8
p7
sS'isbn'
p8
V1441769684
p9
sS'year'
p10
I1960
sS'author_name'
p11
VStanley R. Lee
p12
sS'images_urls'
p13
(lp14
Vhttp://www.gutenberg.org/files/51609/51609-h/images/cover.jpg
p15
aVhttp://www.gutenberg.org/files/51609/51609-h/images/illus.jpg
p16
asS'language_code'
p17
NsS'id'
p18
I789
sS'category'
p19
VText
p20
sS'genres'
p21
(lp22
sS'copyright'
p23
VPublic domain in the USA.
p24
sS'title'
p25
VA Fall of Glass
p26
sS'wikipedia'
p27
(dp28
S'found'
p29
I00
ssS'average_rating'
p30
F3.83
sS'rating_count'
p31
I930
sS'content_available'
p32
I01
sS'cover_art_url'
p33
S'http://www.gutenberg.org/cache/epub/51609/pg51609.cover.medium.jpg'
p34
sS'goodreads'
p35
(dp36
S'url'
p37
Vhttps://www.goodreads.com/book/show/10474504-falling-glass
p38
sS'found'
p39
I01
sS'year'
p40
I2011
ssS'similar_books'
p41
(lp42
VCollusion (Jack Lennon Investigations #2)
p43
aVBleed a River Deep (Inspector Devlin, #3)
p44
aVThe Color of Blood (Ed Loy, #2)
p45
aVHeadstone (Jack Taylor, #9)
p46
aVDark Times in the City
p47
aVWinterland
p48
aVThe Damned Season
p49
aVBlack Wattle Creek (Charlie Berlin, #2)
p50
aVAsh & Bone (Frank Elder, #2)
p51
aVEmpty Ever After (Moe Prager, #5)
p52
aVBeams Falling
p53
asS'description'
p54
VRichard Coulter is a man who has everything. His beautiful new wife is pregnant, his upstart airline is undercutting the competition and moving from strength to strength, his diversification into the casino business in Macau has been successful, and his fabulous Art Deco house on an Irish cliff top has just been featured in Architectural Digest. But then, for some reason, his ex-wife Rachel doesn't keep her side of the custody agreement and vanishes off the face of the earth with Richard's two daughters. Richard hires Killian, a formidable ex-enforcer for the IRA, to track her down before Rachel, a recovering drug addict, harms herself or the girls. As Killian follows Rachel's trail, he begins to see that there is a lot more to this case than first meets the eye and that a thirty-year-old secret is going to put all of them in terrible danger. McKinty is at his continent-hopping, well-paced, evocative best in this thriller, moving between his native Ireland and distant cities within a skin-of-his-teeth timeframe.
p55
sS'format'
p56
VAudio CD
p57
sS'gutenberg'
p58
(dp59
g37
Vhttp://www.gutenberg.org/ebooks/51609
p60
sS'num'
p61
I51609
ssS'authors'
p62
(lp63
I251
asS'pages'
p64
I10
sS'isbn13'
p65
V9781441769688
p66
sS'language'
p67
VEnglish
p68
sS'countries'
p69
(lp70
I3
asS'release_date'
p71
S'2016-03-31T00:00:00'
p72
sS'author'
p73
I251
sS'content_cleaned'
p74
I01
sS'classes'
p75
(lp76
Vto-read
p77
aVmystery
p78
aVaudiobooks
p79
aVaudible
p80
aVcrime
p81
aVaudio
p82
aVaudiobook
p83
aVcurrently-reading
p84
aVthriller
p85
aVireland
p86
aVfiction
p87
aVaudio-book
p88
aVmystery-thriller
p89
aVmysteries
p90
aVirish
p91
aVcrime-fiction
p92
aVfavorites
p93
aVnorthern-ireland
p94
aVaudio-books
p95
aVmystery-crime
p96
aVbooks
p97
aVmystery-suspense
p98
aVthrillers
p99
aVsuspense
p100
aVlibrary
p101
aVnoir
p102
aVadult
p103
aVdetective
p104
aVto-buy
p105
aVaudible-books
p106
aVmckinty
p107
aVowned
p108
aVaustralian
p109
aVread-in-2014-audiobook
p110
aVread-2014
p111
aVhoopla
p112
aVaudible-com
p113
aVunited-kingdom
p114
aVaction
p115
aVaudible-to-read
p116
aVread-2012
p117
aVcrime-thriller
p118
aVkindle
p119
aVcrime-noir
p120
aVitunes-to-read
p121
aVbpl
p122
aV0
p123
aV_owned-to-read
p124
aVmystery-detective-series
p125
aVchpl-audiobook
p126
aVprosa
p127
aV6-star-reads
p128
aVrevenge
p129
aVmade-me-think
p130
aVmade-me-laugh
p131
aVhistorical-fiction
p132
aVfavourite-author
p133
aVerin-go-bragh
p134
aVnon-romance
p135
aVthriller-suspense
p136
aVrecommended
p137
aVnot-a-romance
p138
aVlisten-next
p139
aVcriminal-mc
p140
aVcontemporary
p141
aVbritain
p142
aVassassin-mc
p143
aV300-to-400-pgs
p144
aVread-2017
p145
aVmy-books-to-read
p146
aVowl-s-audible-audio-book-own-new
p147
aVstand-alone
p148
aVmystery-suspense-thriller
p149
aVirish-author-setting
p150
aVdrama-suspense-family-life
p151
aVaward-winning-book-series-author
p152
aVaussie-author-setting
p153
aVlibraryloan
p154
aVown-it
p155
aVdomestic-fiction
p156
aVbpl-to-read
p157
aVdeckare
p158
aVverified
p159
aVbook-club
p160
aV2017-new-achive
p161
aVepub
p162
aVirish-author
p163
aVh
p164
aVavailable-at-sunnyvale-library
p165
aV1-get-book
p166
aV2016-read
p167
aVwant-to-listen
p168
aVdecent-crime
p169
aVholding
p170
aVtbr-thriller
p171
aVpolice-procedural
p172
aVjust-couldnt-finish
p173
aVlibrarylink
p174
aVaudible-library
p175
aV1-mckinty-adrian
p176
asS'loc_class'
p177
S''
p178
sS'n_authors'
p179
I1
sb.