ccopy_reg
_reconstructor
p0
(cdataset.Book
Book
p1
c__builtin__
object
p2
Ntp3
Rp4
(dp5
S'content_name'
p6
V50884.txt.utf-8
p7
sS'isbn'
p8
V1576739767
p9
sS'year'
p10
I2002
sS'author_name'
p11
VRoger D. Aycock
p12
sS'images_urls'
p13
(lp14
Vhttp://www.gutenberg.org/files/50884/50884-h/images/cover.jpg
p15
aVhttp://www.gutenberg.org/files/50884/50884-h/images/illus.jpg
p16
asS'language_code'
p17
NsS'images'
p18
(lp19
sS'id'
p20
I672
sS'category'
p21
VText
p22
sS'plot'
p23
V
p24
sS'genres'
p25
(lp26
sS'copyright'
p27
VPublic domain in the USA.
p28
sS'title'
p29
VToday is Forever
p30
sS'wikipedia'
p31
(dp32
S'url'
p33
Vhttps://en.wikipedia.org/wiki/Forever_Evil
p34
sS'found'
p35
I01
sS'year'
p36
I-1
ssS'published_in'
p37
NsS'average_rating'
p38
F4.05
sS'rating_count'
p39
I822
sS'content_available'
p40
I01
sS'cover_art_url'
p41
S'http://www.gutenberg.org/cache/epub/50884/pg50884.cover.medium.jpg'
p42
sS'goodreads'
p43
(dp44
g33
Vhttps://www.goodreads.com/book/show/798938.A_Life_God_Rewards
p45
sg35
I01
sg36
I2002
ssS'similar_books'
p46
(lp47
VLiving Beyond the Limits: A Life in Sync with God
p48
aVThe Life God Blesses: The Secret of Enjoying God's Favor
p49
aVMy Heart's Cry
p50
aVSafe in the Shepherd's Arms
p51
aVPeace with God: The Secret of Happiness
p52
aVFlying Closer to the Flame
p53
aVLoving God
p54
aVWhere To Find It In The Bible The Ultimate A To Z Resource Series
p55
aVPraying God's Will For Your Life: A Prayerful Walk To Spiritual Well Being
p56
aVFor Better or for Best: A Valuable Guide to Knowing, Understanding, and Loving Your Husband
p57
aVLiving the Extraordinary Life: Nine Principles to Discover It
p58
aVWith Christ in the School of Prayer
p59
aVLeap Over a Wall: Earthy Spirituality for Everyday Christians
p60
aVWhen, God, When?: Learning to Trust in God's Timing
p61
aVMind Siege: The Battle for the Truth
p62
aVThe Handbook for Spiritual Warfare
p63
asS'description'
p64
NsS'format'
p65
NsS'gutenberg'
p66
(dp67
g33
Vhttp://www.gutenberg.org/ebooks/50884
p68
sS'num'
p69
I50884
ssS'authors'
p70
(lp71
I162
asS'isbn13'
p72
V9781576739761
p73
sS'language'
p74
VEnglish
p75
sS'country'
p76
I2
sS'release_date'
p77
S'2016-01-09T00:00:00'
p78
sS'author'
p79
I162
sS'original_title'
p80
VForever Evil
p81
sS'summary'
p82
V"Forever Evil" is a 2013\u20132014 crossover comic book storyline published by DC Comics that began in September 2013 and ended in May 2014, consisting of an eponymous, central miniseries written by Geoff Johns and art by David Finch. It is the first line wide crossover since The New 52 reboot of the DC Universe, and focuses on all the villains of the DC Universe. The miniseries spins out of the events in "Trinity War". Johns revealed in August 2013, that the Crime Syndicate, an evil version of the Justice League from Earth-3 in the Multiverse, are the true villains of the event and not the previously thought Secret Society. The event was originally scheduled to end in March with Forever Evil #7, yet ended in May 2014, after the final issue got delayed to April, and eventually again to May. The final issue's delay was due to Johns realizing he needed more pages to conclude the story than originally intended.
p83
sS'content_cleaned'
p84
I01
sS'classes'
p85
(lp86
Vto-read
p87
aVchristian
p88
aVcurrently-reading
p89
aVdefault
p90
aVreligion
p91
aVchristianity
p92
aVfaith
p93
aVowned
p94
aVnon-fiction
p95
aVinspirational
p96
aVnonfiction
p97
aVchristian-living
p98
aVlibrary
p99
aVbruce-wilkinson
p100
aVspiritual
p101
aVfavorites
p102
aVspirituality
p103
aVhome
p104
aVchristian-nonfiction
p105
aVself-help
p106
aVbooks-i-own
p107
aVreligious
p108
aVchristian-non-fiction
p109
aVmy-library
p110
aVaudio-cd-s-cassettes
p111
aVtheology
p112
aVdevotional
p113
aVchristian-books
p114
aVchristian-life
p115
aVunread
p116
aVi-own
p117
aVnot-read
p118
aVliving
p119
aVchurch
p120
aVreligion-spirituality
p121
aVadult-non-fiction
p122
aV2006
p123
aVkindle
p124
aVbible-study
p125
aVgainesville-books
p126
aVkaci
p127
aVessays
p128
aVsearch-for-meaning
p129
aVperspective
p130
aVpersonal-growth
p131
aVmaybe-read
p132
aVchristen-books
p133
aVnls
p134
aVbookshare
p135
aVgave-away
p136
aVmy-books
p137
aVread-own
p138
aV2011-and-earlier
p139
aVchristian-praxis
p140
aVpurchased-books-but-not-read
p141
aVpersonaldevelop-psych
p142
aVinspirational-spiritual
p143
aVnonfiction-christianity
p144
aVread-in-2017
p145
aVlibrary-office
p146
aVbookcase-9-shelf-5
p147
aVbookshelf
p148
aVread-in-2016
p149
aV2016-non-fiction
p150
aV2016-five-star
p151
aVgoogle-play-books
p152
aVlife
p153
aVchristian-living-owned
p154
aVchristian-resources
p155
aV2-b-filed
p156
aVchristian-community
p157
aVbible-character-present-days
p158
aV2016a-library-itunes
p159
aVitunes
p160
aVdud
p161
aVfinancial-stewardship
p162
aV_library-professional
p163
aV_collection-at-office
p164
aVshelfari-christian
p165
aVchurch-living
p166
aVhardcover-leather
p167
aVhardback
p168
aV011
p169
aVpurchased
p170
aVfor-sale
p171
aVread-in-2002
p172
aVreligion-cults-spiritual
p173
aVw
p174
aVshelf-to-read
p175
aVlife-rhythm
p176
aVdisciplines-formation-warfare
p177
aVchristian-character
p178
aVdevelopment
p179
aVdad
p180
aVcfot
p181
aV410-spiritual-growth
p182
aVlight-reading
p183
aVshelved
p184
aVzz-guest-room
p185
aVowned-and-read
p186
asS'loc_class'
p187
S''
p188
sS'n_authors'
p189
I1
sb.