ccopy_reg
_reconstructor
p0
(cdataset.Book
Book
p1
c__builtin__
object
p2
Ntp3
Rp4
(dp5
S'content_name'
p6
V26867.txt.utf-8
p7
sS'isbn'
p8
NsS'year'
p9
I2009
sS'author_name'
p10
VHarry Stephen Keeler
p11
sS'images_urls'
p12
(lp13
Vhttp://www.gutenberg.org/files/26867/26867-h/images/001.png
p14
aVhttp://www.gutenberg.org/files/26867/26867-page-images/p0050-image1.png
p15
aVhttp://www.gutenberg.org/files/26867/26867-page-images/p0050.png
p16
aVhttp://www.gutenberg.org/files/26867/26867-page-images/p0051.png
p17
aVhttp://www.gutenberg.org/files/26867/26867-page-images/p0052.png
p18
aVhttp://www.gutenberg.org/files/26867/26867-page-images/p0053.png
p19
aVhttp://www.gutenberg.org/files/26867/26867-page-images/p0054.png
p20
aVhttp://www.gutenberg.org/files/26867/26867-page-images/p0055.png
p21
aVhttp://www.gutenberg.org/files/26867/26867-page-images/p0056.png
p22
aVhttp://www.gutenberg.org/files/26867/26867-page-images/p0057.png
p23
aVhttp://www.gutenberg.org/files/26867/26867-page-images/p0058.png
p24
aVhttp://www.gutenberg.org/files/26867/26867-page-images/p0059.png
p25
asS'language_code'
p26
Veng
p27
sS'images'
p28
(lp29
sS'id'
p30
I965
sS'category'
p31
VText
p32
sS'genres'
p33
(lp34
sS'copyright'
p35
VPublic domain in the USA.
p36
sS'title'
p37
VJohn Jones's Dollar
p38
sS'wikipedia'
p39
(dp40
S'found'
p41
I00
ssS'average_rating'
p42
F3.24
sS'rating_count'
p43
I22
sS'content_available'
p44
I01
sS'goodreads'
p45
(dp46
S'url'
p47
Vhttps://www.goodreads.com/book/show/8208257-john-jones-s-dollar
p48
sg41
I01
sS'year'
p49
I2009
ssS'similar_books'
p50
(lp51
sS'description'
p52
NsS'format'
p53
NsS'gutenberg'
p54
(dp55
g47
Vhttp://www.gutenberg.org/ebooks/26867
p56
sS'num'
p57
I26867
ssS'authors'
p58
(lp59
I296
asS'pages'
p60
I22
sS'isbn13'
p61
NsS'language'
p62
VEnglish
p63
sS'countries'
p64
(lp65
I2
asS'release_date'
p66
S'2008-10-10T00:00:00'
p67
sS'author'
p68
I296
sS'content_cleaned'
p69
I01
sS'classes'
p70
(lp71
Vto-read
p72
aVscience-fiction
p73
aVshort-stories
p74
aVsci-fi
p75
aVon-kindle
p76
aVhall-of-fame
p77
aV13
p78
aVcurrently-reading
p79
aVmystery
p80
aVkindle
p81
aVclassics
p82
aVsci-fi-fantasy
p83
aV6-stars
p84
aVcrime-mystery
p85
asS'loc_class'
p86
VPS: Language and Literatures: American and Canadian literature
p87
sS'n_authors'
p88
I1
sb.