ccopy_reg
_reconstructor
p0
(cdataset.Book
Book
p1
c__builtin__
object
p2
Ntp3
Rp4
(dp5
S'content_name'
p6
V40992.txt.utf-8
p7
sS'isbn'
p8
V1480113360
p9
sS'year'
p10
I1932
sS'author_name'
p11
VAllen Glasser
p12
sS'images_urls'
p13
(lp14
Vhttp://www.gutenberg.org/files/40992/40992-h/images/cover.jpg
p15
aVhttp://www.gutenberg.org/files/40992/40992-h/images/glasser.jpg
p16
aVhttp://www.gutenberg.org/files/40992/40992-h/images/hilliard.jpg
p17
aVhttp://www.gutenberg.org/files/40992/40992-h/images/illus.jpg
p18
asS'language_code'
p19
NsS'id'
p20
I426
sS'category'
p21
VText
p22
sS'genres'
p23
(lp24
sS'copyright'
p25
VPublic domain in the USA.
p26
sS'title'
p27
VThe Martian
p28
sS'wikipedia'
p29
(dp30
S'found'
p31
I00
ssS'average_rating'
p32
F4.39
sS'rating_count'
p33
I1
sS'content_available'
p34
I01
sS'cover_art_url'
p35
S'http://www.gutenberg.org/cache/epub/40992/pg40992.cover.medium.jpg'
p36
sS'goodreads'
p37
(dp38
S'url'
p39
S'https://www.goodreads.com/book/show/26197213-the-martian'
p40
sS'found'
p41
I01
ssS'similar_books'
p42
(lp43
sS'description'
p44
NsS'gutenberg'
p45
(dp46
S'url'
p47
Vhttp://www.gutenberg.org/ebooks/40992
p48
sS'num'
p49
I40992
ssS'authors'
p50
(lp51
I140
aI141
asS'isbn13'
p52
NsS'language'
p53
VEnglish
p54
sS'countries'
p55
(lp56
I3
asS'release_date'
p57
S'2012-10-09T00:00:00'
p58
sS'author'
p59
I140
sS'content_cleaned'
p60
I01
sS'classes'
p61
(lp62
V16
p63
aVcalibre
p64
asS'loc_class'
p65
VPS: Language and Literatures: American and Canadian literature
p66
sS'n_authors'
p67
I2
sb.