ccopy_reg
_reconstructor
p0
(cdataset.Book
Book
p1
c__builtin__
object
p2
Ntp3
Rp4
(dp5
S'content_name'
p6
V43048.txt.utf-8
p7
sS'isbn'
p8
NsS'year'
p9
I1962
sS'author_name'
p10
VKaren Anderson
p11
sS'images_urls'
p12
(lp13
Vhttp://www.gutenberg.org/files/43048/43048-h/images/cover.jpg
p14
aVhttp://www.gutenberg.org/files/43048/43048-h/images/illus.jpg
p15
asS'language_code'
p16
Veng
p17
sS'images'
p18
(lp19
sS'id'
p20
I286
sS'category'
p21
VText
p22
sS'genres'
p23
(lp24
sS'copyright'
p25
VPublic domain in the USA.
p26
sS'title'
p27
VThe Piebald Hippogriff
p28
sS'wikipedia'
p29
(dp30
S'found'
p31
I00
ssS'average_rating'
p32
F2.62
sS'rating_count'
p33
I11
sS'content_available'
p34
I01
sS'cover_art_url'
p35
S'http://www.gutenberg.org/cache/epub/43048/pg43048.cover.medium.jpg'
p36
sS'goodreads'
p37
(dp38
S'url'
p39
Vhttps://www.goodreads.com/book/show/18297247-the-piebald-hippogriff
p40
sg31
I01
sS'year'
p41
I1962
ssS'similar_books'
p42
(lp43
sS'description'
p44
NsS'format'
p45
Vebook
p46
sS'gutenberg'
p47
(dp48
g39
Vhttp://www.gutenberg.org/ebooks/43048
p49
sS'num'
p50
I43048
ssS'authors'
p51
(lp52
I34
asS'pages'
p53
I6
sS'isbn13'
p54
NsS'language'
p55
VEnglish
p56
sS'release_date'
p57
S'2013-06-27T00:00:00'
p58
sS'author'
p59
I34
sS'content_cleaned'
p60
I01
sS'classes'
p61
(lp62
Vto-read
p63
aVfantasy
p64
aVfiction
p65
aVsfbywomen
p66
aVshort-stories
p67
aVscience-fiction
p68
aV1960s
p69
aVchildren-s-literature
p70
aVtype-short-story
p71
aVaudio-obtained-ss
p72
asS'loc_class'
p73
VPS: Language and Literatures: American and Canadian literature
p74
sS'n_authors'
p75
I1
sb.