ccopy_reg
_reconstructor
p0
(cdataset.Book
Book
p1
c__builtin__
object
p2
Ntp3
Rp4
(dp5
S'similar_books'
p6
(lp7
sS'genres'
p8
(lp9
sS'author'
p10
I302
sS'countries'
p11
(lp12
I2
asS'year'
p13
I1958
sS'title'
p14
VGalaxy Magazine December 1958
p15
sS'cover'
p16
Vhttps://ia601300.us.archive.org/BookReader/BookReaderImages.php?zip=/16/items/Galaxy_v17n02_1958-12/Galaxy_v17n02_1958-12_jp2.zip&file=Galaxy_v17n02_1958-12_jp2/Galaxy_v17n02_1958-12_0000.jp2&scale=0&rotate=0
p17
sS'cover_art'
p18
S'http://www.isfdb.org/wiki/images/9/9f/GALDEC1958.jpg'
p19
sS'author_name'
p20
VGalaxy Magazine
p21
sS'images_urls'
p22
(lp23
sS'authors'
p24
(lp25
I543
aI419
aI519
aI523
aI305
aI326
aI339
aI483
aI23
aI89
aI40
aI32
aI302
asS'images'
p26
(lp27
sS'id'
p28
I1070
sS'contents'
p29
(lp30
(dp31
S'title'
p32
VJoin Now
p33
sS'author'
p34
I543
sa(dp35
g32
VJoin Now [2]
p36
sg34
I543
sa(dp37
g32
VNightmare with Zeppelins
p38
sg34
I419
sa(dp39
g32
VUllward's Retreat
p40
sg34
I519
sa(dp41
g32
VUllward's Retreat [2]
p42
sg34
I519
sa(dp43
g32
VUllward's Retreat [3]
p44
sg34
I519
sa(dp45
g32
VThe Number of the Beast
p46
sg34
I523
sa(dp47
g32
VTime Killer (Part 3 of 4)
p48
sg34
I519
sa(dp49
g32
VTime Killer (Part 3 of 4) [2]
p50
sg34
I519
sa(dp51
g32
VTime Killer (Part 3 of 4) [3]
p52
sg34
I519
sa(dp53
g32
VIt's All Yours
p54
sg34
I305
sa(dp55
g32
VForecast (Galaxy, December 1958)
p56
sg34
I326
sa(dp57
g32
VFor Your Information: The Strange Planet Next Door
p58
sg34
I339
sa(dp59
g32
VGalaxy's 5 Star Shelf (Galaxy, December 1958)
p60
sg34
I483
sa(dp61
g32
VJoin Now
p62
sg34
I23
sa(dp63
g32
VUllward's Retreat
p64
sg34
I89
sa(dp65
g32
VTime Killer (Part 3 of 4)
p66
sg34
I23
sa(dp67
g32
VNightmare with Zeppelins
p68
sg34
I40
sa(dp69
g32
VThe Number of the Beast
p70
sg34
I32
sasb.