ccopy_reg
_reconstructor
p0
(cdataset.Book
Book
p1
c__builtin__
object
p2
Ntp3
Rp4
(dp5
S'content_name'
p6
V30399.txt.utf-8
p7
sS'isbn'
p8
NsS'year'
p9
I2010
sS'author_name'
p10
VFrederik Pohl
p11
sS'images_urls'
p12
(lp13
Vhttp://www.gutenberg.org/files/30399/30399-h/images/001.png
p14
aVhttp://www.gutenberg.org/files/30399/30399-h/images/002-1.jpg
p15
aVhttp://www.gutenberg.org/files/30399/30399-h/images/002-2.jpg
p16
asS'language_code'
p17
NsS'images'
p18
(lp19
sS'id'
p20
I488
sS'category'
p21
VText
p22
sS'genres'
p23
(lp24
sS'copyright'
p25
VPublic domain in the USA.
p26
sS'title'
p27
VPythias
p28
sS'wikipedia'
p29
(dp30
S'found'
p31
I00
ssS'average_rating'
p32
F3.18
sS'rating_count'
p33
I40
sS'content_available'
p34
I01
sS'goodreads'
p35
(dp36
S'url'
p37
Vhttps://www.goodreads.com/book/show/8377209-pythias
p38
sg31
I01
sS'year'
p39
I2010
ssS'similar_books'
p40
(lp41
sS'description'
p42
NsS'format'
p43
NsS'gutenberg'
p44
(dp45
g37
Vhttp://www.gutenberg.org/ebooks/30399
p46
sS'num'
p47
I30399
ssS'authors'
p48
(lp49
I40
asS'isbn13'
p50
NsS'language'
p51
VEnglish
p52
sS'release_date'
p53
S'2009-11-03T00:00:00'
p54
sS'author'
p55
I40
sS'content_cleaned'
p56
I01
sS'classes'
p57
(lp58
Vto-read
p59
aVscience-fiction
p60
aVsci-fi
p61
aVcurrently-reading
p62
aVowned
p63
aVkindle
p64
aVshort-story
p65
aVpulp
p66
aVfiction
p67
aV20th-century
p68
aVowned-pending-kindle-free-ebook
p69
aVneed-to-acquire
p70
aVdark-themes
p71
aVfree-or-borrowed
p72
aVz_fiction
p73
aVx_shortstory
p74
aVwo_scifi
p75
aVw_us_modern
p76
aVaudio-obtained-lvss
p77
aVbought_amazon_bek
p78
aVunread
p79
aV15
p80
aVebook-kindle-own
p81
aVebooks
p82
aVamazon
p83
aVsf
p84
aVshortstories
p85
aVe-reader
p86
aVe-books
p87
aVfrederik-pohl
p88
aVstory
p89
aVshort
p90
aVmind
p91
aVcapacity
p92
aVtype-short-story
p93
aVaudio-obtained-ss
p94
asS'loc_class'
p95
VPS: Language and Literatures: American and Canadian literature
p96
sS'n_authors'
p97
I1
sb.