ccopy_reg
_reconstructor
p0
(cdataset.Book
Book
p1
c__builtin__
object
p2
Ntp3
Rp4
(dp5
S'content_name'
p6
V27756.txt.utf-8
p7
sS'isbn'
p8
V159990070X
p9
sS'year'
p10
I1985
sS'author_name'
p11
VArthur Porges
p12
sS'images_urls'
p13
(lp14
sS'language_code'
p15
Veng
p16
sS'images'
p17
(lp18
sS'id'
p19
I824
sS'category'
p20
VText
p21
sS'genres'
p22
(lp23
sS'copyright'
p24
VPublic domain in the USA.
p25
sS'title'
p26
VRevenge
p27
sS'wikipedia'
p28
(dp29
S'found'
p30
I00
ssS'average_rating'
p31
F3.85
sS'rating_count'
p32
I12643
sS'content_available'
p33
I01
sS'goodreads'
p34
(dp35
S'url'
p36
Vhttps://www.goodreads.com/book/show/2626492-rapunzel-s-revenge
p37
sg30
I01
sS'year'
p38
I1985
ssS'similar_books'
p39
(lp40
VThe Storm in the Barn
p41
aVHow Mirka Got Her Sword (Hereville #1)
p42
aVNathan Hale's Hazardous Tales: One Dead Spy (Nathan Hale's Hazardous Tales, #1)
p43
aVThe Secret Science Alliance and the Copycat Crook
p44
aVThe Secret of the Stone Frog: A TOON Graphic
p45
aVFoiled (Foiled, #1)
p46
aVSalt Water Taffy, vol. 1: The Legend of Old Salty
p47
aVThe Return of Zita the Spacegirl (Zita the Spacegirl, #3)
p48
aVJanes in Love (Janes, #2)
p49
aVThe Courageous Princess
p50
aVCastle Waiting, Vol. 2 (Castle Waiting Omnibus Collection #2)
p51
aVPrinceless #1
p52
aVSidekicks
p53
aVThe Fairy's Return and Other Princess Tales
p54
aVHilda and the Black Hound
p55
aVTower of Treasure (Three Thieves, #1)
p56
aVCopper
p57
aVOut of the Wild (Into the Wild, #2)
p58
asS'description'
p59
VOnce upon a time, in a land you only think you know, lived a little girl and her mother . . . or the woman she <i>thought</i> was her mother.<br /><br />Every day, when the little girl played in her pretty garden, she grew more curious about what lay on the other side of the garden wall . . . a rather enormous garden wall.<br /><br />And every year, as she grew older, things seemed weirder and weirder, until the day she finally climbed to the top of the wall and looked over into the mines and desert beyond.<br /><br />Newbery Honor-winning author Shannon Hale teams up with husband Dean Hale and brilliant artist Nathan Hale (no relation) to bring readers a swashbuckling and hilarious twist on the classic story as you've never seen it before. Watch as Rapunzel and her amazing hair team up with Jack (of beanstalk fame) to gallop around the wild and western landscape, changing lives, righting wrongs, and bringing joy to every soul they encounter.
p60
sS'format'
p61
VHardcover
p62
sS'gutenberg'
p63
(dp64
g36
Vhttp://www.gutenberg.org/ebooks/27756
p65
sS'num'
p66
I27756
ssS'authors'
p67
(lp68
I262
asS'pages'
p69
I144
sS'isbn13'
p70
V9781599900704
p71
sS'language'
p72
VEnglish
p73
sS'release_date'
p74
S'2009-01-09T00:00:00'
p75
sS'author'
p76
I262
sS'content_cleaned'
p77
I01
sS'classes'
p78
(lp79
Vto-read
p80
aVgraphic-novels
p81
aVgraphic-novel
p82
aVfantasy
p83
aVyoung-adult
p84
aVfairy-tales
p85
aVadventure
p86
aVcomics
p87
aVya
p88
aVfavorites
p89
aVfairy-tale
p90
aVfiction
p91
aVchildrens
p92
aVmiddle-grade
p93
aVcurrently-reading
p94
aVchildren
p95
aVseries
p96
aVgraphic
p97
aVromance
p98
aVkids
p99
aVchildren-s
p100
aVretellings
p101
aVfairytale
p102
aVfairytales
p103
aVlibrary
p104
aVjuvenile
p105
aVchildren-s-books
p106
aVteen
p107
aVwestern
p108
aVgraphic-novels-comics
p109
aVmagic
p110
aVfairy-tale-retellings
p111
aVshannon-hale
p112
aVhumor
p113
aVcomics-graphic-novels
p114
aVretelling
p115
aVcomic
p116
aVjuvenile-fiction
p117
aVbooks-i-own
p118
aVpicture-books
p119
aVrapunzel
p120
aVchildrens-books
p121
aVmiddle-school
p122
aVgraphicnovels
p123
aVmanga
p124
aVsteampunk
p125
aVfairy-tale-retelling
p126
aVgraphicnovel
p127
aVya-fiction
p128
aVfunny
p129
aVyoungadult
p130
aVcomic-books
p131
aVkids-books
p132
aVyouth
p133
aVgraphic-novels-and-comics
p134
aVfractured-fairy-tales
p135
aVtween
p136
aVread-in-2012
p137
aVnovel
p138
aVcomics-and-graphic-novels
p139
aVchildrens-lit
p140
aVaction-adventure
p141
aVfriendship
p142
aVya-fantasy
p143
aVaction
p144
aVread-in-2009
p145
aVfairytale-retellings
p146
aVchildren-s-lit
p147
aVkid-lit
p148
aVwish-list
p149
aVowned
p150
aV5360-summer-12
p151
aVcomic-graphic-novel
p152
aV5th-grade
p153
aVfolklore
p154
aVto-buy
p155
aVcomedy
p156
aVfantasy-sci-fi
p157
aVchildrens-literature
p158
aVlds-authors
p159
aVyoung-adult-fiction
p160
aVlibrary-book
p161
aVgirl-power
p162
aVfairy
p163
aVchildren-s-literature
p164
aVgraphic-novel-comics
p165
aVgraphic-novels-manga
p166
aVread-2014
p167
aVmiddle-grades
p168
aVya-graphic-novel
p169
aVreviewed
p170
aVlibrary-books
p171
aVread-in-2010
p172
aVfairy-tales-retold
p173
aVlds-author
p174
aVre-read
p175
aVretold-fairy-tale
p176
aVya-lit
p177
aVhumorous
p178
aVread-in-2011
p179
asS'loc_class'
p180
VPS: Language and Literatures: American and Canadian literature
p181
sS'n_authors'
p182
I1
sb.