ccopy_reg
_reconstructor
p0
(cdataset.Book
Book
p1
c__builtin__
object
p2
Ntp3
Rp4
(dp5
S'similar_books'
p6
(lp7
sS'genres'
p8
(lp9
sS'author'
p10
I302
sS'countries'
p11
(lp12
I2
asS'year'
p13
I1956
sS'title'
p14
VGalaxy Magazine July 1956
p15
sS'cover'
p16
Vhttps://ia601309.us.archive.org/BookReader/BookReaderImages.php?zip=/35/items/Galaxy_v12n03_1956-07/Galaxy_v12n03_1956-07_jp2.zip&file=Galaxy_v12n03_1956-07_jp2/Galaxy_v12n03_1956-07_0000.jp2&scale=0&rotate=0
p17
sS'cover_art'
p18
S'http://www.isfdb.org/wiki/images/0/05/MLO4427.jpg'
p19
sS'author_name'
p20
VGalaxy Magazine
p21
sS'images_urls'
p22
(lp23
sS'authors'
p24
(lp25
I363
aI486
aI490
aI471
aI476
aI497
aI305
aI326
aI339
aI483
aI56
aI341
aI498
aI55
aI23
aI423
aI302
asS'images'
p26
(lp27
sS'id'
p28
I1041
sS'contents'
p29
(lp30
(dp31
g10
I363
sg14
VDrop Dead
p32
sa(dp33
g10
I363
sg14
VDrop Dead [2]
p34
sa(dp35
g10
I363
sg14
VDrop Dead [3]
p36
sa(dp37
g10
I486
sg14
VGypped
p38
sa(dp39
g10
I490
sg14
VWriting of the Rat
p40
sa(dp41
g10
I471
sg14
VBad Medicine
p42
sa(dp43
g10
I471
sg14
VBad Medicine [2]
p44
sa(dp45
g10
I471
sg14
VBad Medicine [3]
p46
sa(dp47
g10
I476
sg14
VAll the Things You Are
p48
sa(dp49
g10
I476
sg14
VHorrer Howce
p50
sa(dp51
g10
I497
sg14
VThe Skills of Xanadu
p52
sa(dp53
g10
I497
sg14
VThe Skills of Xanadu [2]
p54
sa(dp55
g10
I497
sg14
VThe Skills of Xanadu [3]
p56
sa(dp57
g10
I305
sg14
VNow Look!
p58
sa(dp59
g10
I326
sg14
VForecast (Galaxy, July 1956)
p60
sa(dp61
g10
I339
sg14
VFor Your Information: Welcome to Reality C-Ti
p62
sa(dp63
g10
I483
sg14
VGalaxy's 5 Star Shelf (Galaxy, July 1956)
p64
sa(dp65
g10
I56
sg14
VDrop Dead
p66
sa(dp67
g10
I341
sg14
VThe Skills of Xanadu
p68
sa(dp69
g10
I498
sg14
VGypped
p70
sa(dp71
g10
I55
sg14
VWriting of the Rat
p72
sa(dp73
g10
I23
sg14
VBad Medicine
p74
sa(dp75
g10
I23
sg14
VAll the Things You Are
p76
sa(dp77
g10
I423
sg14
VHorrer Howce
p78
sasb.