ccopy_reg
_reconstructor
p0
(cdataset.Book
Book
p1
c__builtin__
object
p2
Ntp3
Rp4
(dp5
S'content_name'
p6
V51519.txt.utf-8
p7
sS'isbn'
p8
V0743236017
p9
sS'year'
p10
I2003
sS'author_name'
p11
VC. C. MacApp
p12
sS'images_urls'
p13
(lp14
Vhttp://www.gutenberg.org/files/51519/51519-h/images/cover.jpg
p15
aVhttp://www.gutenberg.org/files/51519/51519-h/images/illus1.jpg
p16
aVhttp://www.gutenberg.org/files/51519/51519-h/images/illus2.jpg
p17
asS'language_code'
p18
Ven-US
p19
sS'images'
p20
(lp21
sS'id'
p22
I607
sS'category'
p23
VText
p24
sS'genres'
p25
(lp26
sS'copyright'
p27
VPublic domain in the USA.
p28
sS'title'
p29
VThe Drug
p30
sS'wikipedia'
p31
(dp32
S'found'
p33
I00
ssS'average_rating'
p34
F3.75
sS'rating_count'
p35
I56582
sS'content_available'
p36
I01
sS'cover_art_url'
p37
S'http://www.gutenberg.org/cache/epub/51519/pg51519.cover.medium.jpg'
p38
sS'goodreads'
p39
(dp40
S'url'
p41
Vhttps://www.goodreads.com/book/show/599.Sex_Drugs_and_Cocoa_Puffs
p42
sg33
I01
sS'year'
p43
I2003
ssS'similar_books'
p44
(lp45
VInventory: 16 Films Featuring Manic Pixie Dream Girls, 10 Great Songs Nearly Ruined by Saxophone, and 100 More Obsessively Specific Pop-Culture Lists
p46
aVHip: The History
p47
aVNothing Feels Good: Punk Rock, Teenagers, and EMO
p48
aVBack to Our Future: How the 1980s Explain the World We Live in Now--Our Culture, Our Politics, Our Everything
p49
aVLove Is a Mix Tape
p50
aVThe Disappointment Artist
p51
aVWilco: Learning How to Die
p52
aVConsider the Lobster and Other Essays
p53
aVPlanet Simpson: How a Cartoon Masterpiece Defined a Generation
p54
aVIn the Aeroplane Over the Sea
p55
aVThings I've Learned from Women Who've Dumped Me
p56
aV(Not that You Asked): Rants, Exploits, and Obsessions
p57
aVThe Dead Travel Fast: Stalking Vampires from Nosferatu to Count Chocula
p58
aVCan't Stop Won't Stop: A History of the Hip-Hop Generation
p59
aVThe Advanced Genius Theory: Are They Out of Their Minds or Ahead of Their Time?
p60
aVRock On: An Office Power Ballad
p61
aVLet It Blurt: The Life and Times of Lester Bangs, America's Greatest Rock Critic
p62
aVLet's Talk About Love: A Journey to the End of Taste
p63
asS'description'
p64
VCountless writers and artists have spoken for a generation, but no one has done it quite like Chuck Klosterman. With an exhaustive knowledge of popular culture and an almost effortless ability to spin brilliant prose out of unlikely subject matter, Klosterman attacks the entire spectrum of postmodern America: reality TV, Internet porn, Pamela Anderson, literary Jesus freaks, and the real difference between apples and oranges (of which there is none). And don't even get him started on his love life and the whole Harry-Met-Sally situation. <br /><br />Whether deconstructing <i>Saved by the Bell</i> episodes or the artistic legacy of Billy Joel, the symbolic importance of <i>The Empire Strikes Back</i> or the Celtics/Lakers rivalry, Chuck will make you think, he'll make you laugh, and he'll drive you insane -- usually all at once. <i>Sex, Drugs, and Cocoa Puffs</i> is ostensibly about art, entertainment, infotainment, sports, politics, and kittens, but -- really -- it's about us. All of us. As Klosterman realizes late at night, in the moment before he falls asleep, "In and of itself, nothing really matters. What matters is that nothing is ever 'in and of itself.'" Read to believe.
p65
sS'format'
p66
NsS'gutenberg'
p67
(dp68
g41
Vhttp://www.gutenberg.org/ebooks/51519
p69
sS'num'
p70
I51519
ssS'authors'
p71
(lp72
I111
asS'pages'
p73
I253
sS'isbn13'
p74
V9780743236010
p75
sS'language'
p76
VEnglish
p77
sS'release_date'
p78
S'2016-03-21T00:00:00'
p79
sS'author'
p80
I111
sS'content_cleaned'
p81
I01
sS'classes'
p82
(lp83
Vto-read
p84
aVcurrently-reading
p85
aVnon-fiction
p86
aVnonfiction
p87
aVessays
p88
aVfavorites
p89
aVhumor
p90
aVpop-culture
p91
aVmusic
p92
aVowned
p93
aVbooks-i-own
p94
aVculture
p95
aVmemoir
p96
aVsociology
p97
aVcomedy
p98
aVto-buy
p99
aVfunny
p100
aVfiction
p101
aVhumour
p102
aVcontemporary
p103
aVlibrary
p104
aVadult
p105
aVbook-club
p106
aVmemoirs
p107
aVabandoned
p108
aVowned-books
p109
aVphilosophy
p110
aVessay
p111
aVmy-library
p112
aVcultural-studies
p113
aVsocial-commentary
p114
aVdefault
p115
aVkindle
p116
aVunfinished
p117
aVpop
p118
aVjournalism
p119
aVchuck-klosterman
p120
aVshort-stories
p121
aVhistory
p122
aVaudiobook
p123
aVown-it
p124
aV2006
p125
aVpopculture
p126
aVamerican
p127
aVklosterman
p128
aVbookclub
p129
aVbiography
p130
aVsports
p131
aVborrowed
p132
aVi-own
p133
aVbooks
p134
aVread-in-2010
p135
aVfavourites
p136
aVnon-fic
p137
aVaudiobooks
p138
aVdidn-t-finish
p139
aVcouldn-t-finish
p140
aVhumorous
p141
aVcriticism
p142
aVnonfic
p143
aVshelfari-wishlist
p144
aVdid-not-finish
p145
aVsocial
p146
aVnon-fiction-to-read
p147
aVneed-to-buy
p148
aVentertainment
p149
aVaudio
p150
aVpsychology
p151
aVpopular-culture
p152
aVmy-books
p153
aVread-in-2011
p154
aVnon-fiction-humor
p155
aVcollection
p156
aVsociety
p157
aVmy-bookshelf
p158
aVnever-finished
p159
aVshelfari-favorites
p160
aVhome-library
p161
aVebook
p162
aVto-read-non-fiction
p163
aVsex
p164
aVsocial-science
p165
aV2000s
p166
aVother
p167
aVtelevision
p168
aVread-in-2009
p169
aV2005
p170
aVread-in-2008
p171
aVhigh-school
p172
aVpartially-read
p173
aVnf
p174
aVleisure
p175
aVfavorite
p176
aVamerica
p177
aVwish-list
p178
aVread-in-2014
p179
aVread-in-2013
p180
aVto-read-nonfiction
p181
aVbookshelf
p182
aVscience
p183
asS'loc_class'
p184
S''
p185
sS'n_authors'
p186
I1
sb.