ccopy_reg
_reconstructor
p0
(cdataset.Book
Book
p1
c__builtin__
object
p2
Ntp3
Rp4
(dp5
S'content_name'
p6
V23197.txt.utf-8
p7
sS'isbn'
p8
NsS'year'
p9
I1962
sS'author_name'
p10
VMack Reynolds
p11
sS'images_urls'
p12
(lp13
Vhttp://www.gutenberg.org/files/23197/23197-h/images/001-1.png
p14
aVhttp://www.gutenberg.org/files/23197/23197-h/images/001-2.png
p15
aVhttp://www.gutenberg.org/files/23197/23197-h/images/002.png
p16
aVhttp://www.gutenberg.org/files/23197/23197-page-images/p035.png
p17
aVhttp://www.gutenberg.org/files/23197/23197-page-images/p036-image.png
p18
aVhttp://www.gutenberg.org/files/23197/23197-page-images/p036.png
p19
aVhttp://www.gutenberg.org/files/23197/23197-page-images/p037.png
p20
aVhttp://www.gutenberg.org/files/23197/23197-page-images/p038.png
p21
aVhttp://www.gutenberg.org/files/23197/23197-page-images/p039.png
p22
aVhttp://www.gutenberg.org/files/23197/23197-page-images/p040.png
p23
aVhttp://www.gutenberg.org/files/23197/23197-page-images/p041.png
p24
aVhttp://www.gutenberg.org/files/23197/23197-page-images/p042.png
p25
aVhttp://www.gutenberg.org/files/23197/23197-page-images/p043.png
p26
aVhttp://www.gutenberg.org/files/23197/23197-page-images/p044.png
p27
aVhttp://www.gutenberg.org/files/23197/23197-page-images/p045.png
p28
aVhttp://www.gutenberg.org/files/23197/23197-page-images/p046.png
p29
aVhttp://www.gutenberg.org/files/23197/23197-page-images/p047.png
p30
aVhttp://www.gutenberg.org/files/23197/23197-page-images/p048.png
p31
aVhttp://www.gutenberg.org/files/23197/23197-page-images/p049.png
p32
aVhttp://www.gutenberg.org/files/23197/23197-page-images/p050.png
p33
aVhttp://www.gutenberg.org/files/23197/23197-page-images/p051.png
p34
aVhttp://www.gutenberg.org/files/23197/23197-page-images/p052.png
p35
asS'language_code'
p36
Veng
p37
sS'id'
p38
I723
sS'category'
p39
VText
p40
sS'genres'
p41
(lp42
sS'copyright'
p43
VPublic domain in the USA.
p44
sS'title'
p45
VSubversive
p46
sS'wikipedia'
p47
(dp48
S'found'
p49
I00
ssS'average_rating'
p50
F3.39
sS'rating_count'
p51
I6
sS'content_available'
p52
I01
sS'goodreads'
p53
(dp54
S'url'
p55
S'https://www.goodreads.com/book/show/5973082-subversive'
p56
sS'found'
p57
I01
ssS'similar_books'
p58
(lp59
sS'description'
p60
NsS'gutenberg'
p61
(dp62
S'url'
p63
Vhttp://www.gutenberg.org/ebooks/23197
p64
sS'num'
p65
I23197
ssS'authors'
p66
(lp67
I69
asS'isbn13'
p68
NsS'language'
p69
VEnglish
p70
sS'countries'
p71
(lp72
I2
asS'release_date'
p73
S'2007-10-26T00:00:00'
p74
sS'author'
p75
I69
sS'content_cleaned'
p76
I01
sS'classes'
p77
(lp78
Vto-read
p79
aVscience-fiction
p80
aVroundtuit
p81
aVunread
p82
aVtbr-owned
p83
aVowned-pending-kindle-free-ebook
p84
aVno-time-soon
p85
aVunknown-genre
p86
aVpaperwhite-active
p87
aVmaybe-someday
p88
aVfeedbooks-com
p89
aVsci-fi
p90
aVkindle
p91
aVbacklog
p92
aVhigh-priority-tbr
p93
aVround-tuit
p94
aVdawn-of-the-unread
p95
aVowned-and-unread
p96
aVbacklogue
p97
asS'loc_class'
p98
VPS: Language and Literatures: American and Canadian literature
p99
sS'n_authors'
p100
I1
sb.