ccopy_reg
_reconstructor
p0
(cdataset.Book
Book
p1
c__builtin__
object
p2
Ntp3
Rp4
(dp5
S'content_name'
p6
V50935.txt.utf-8
p7
sS'isbn'
p8
NsS'year'
p9
I1952
sS'author_name'
p10
VMark Clifton
p11
sS'images_urls'
p12
(lp13
Vhttp://www.gutenberg.org/files/50935/50935-h/images/cover.jpg
p14
aVhttp://www.gutenberg.org/files/50935/50935-h/images/illus1.jpg
p15
aVhttp://www.gutenberg.org/files/50935/50935-h/images/illus2.jpg
p16
aVhttp://www.gutenberg.org/files/50935/50935-h/images/illus3.jpg
p17
aVhttp://www.gutenberg.org/files/50935/50935-h/images/illus4.jpg
p18
aVhttp://www.gutenberg.org/files/50935/50935-h/images/illus5.jpg
p19
aVhttp://www.gutenberg.org/files/50935/50935-h/images/illus6.jpg
p20
aVhttp://www.gutenberg.org/files/50935/50935-h/images/illus7.jpg
p21
asS'language_code'
p22
Veng
p23
sS'images'
p24
(lp25
sS'id'
p26
I728
sS'category'
p27
VText
p28
sS'genres'
p29
(lp30
sS'copyright'
p31
VPublic domain in the USA.
p32
sS'title'
p33
VStar, Bright
p34
sS'wikipedia'
p35
(dp36
S'found'
p37
I00
ssS'average_rating'
p38
F3.66
sS'rating_count'
p39
I3
sS'content_available'
p40
I01
sS'cover_art_url'
p41
S'http://www.gutenberg.org/cache/epub/50935/pg50935.cover.medium.jpg'
p42
sS'goodreads'
p43
(dp44
S'url'
p45
S'https://www.goodreads.com/book/show/29440792-star-bright'
p46
sS'found'
p47
I01
ssS'similar_books'
p48
(lp49
sS'description'
p50
NsS'gutenberg'
p51
(dp52
S'url'
p53
Vhttp://www.gutenberg.org/ebooks/50935
p54
sS'num'
p55
I50935
ssS'authors'
p56
(lp57
I236
asS'isbn13'
p58
NsS'language'
p59
VEnglish
p60
sS'countries'
p61
(lp62
I2
asS'release_date'
p63
S'2016-01-15T00:00:00'
p64
sS'author'
p65
I236
sS'content_cleaned'
p66
I01
sS'classes'
p67
(lp68
Vscience-fiction
p69
aVz_fiction
p70
aVx_shortstory
p71
aVwo_scifi
p72
aVw_us_federal
p73
aVsci-fi
p74
asS'loc_class'
p75
S''
p76
sS'n_authors'
p77
I1
sb.