ccopy_reg
_reconstructor
p0
(cdataset.Book
Book
p1
c__builtin__
object
p2
Ntp3
Rp4
(dp5
S'similar_books'
p6
(lp7
sS'genres'
p8
(lp9
sS'author'
p10
I302
sS'countries'
p11
(lp12
I2
asS'year'
p13
I1976
sS'title'
p14
VGalaxy Magazine October 1976
p15
sS'cover'
p16
Vhttps://ia600205.us.archive.org/BookReader/BookReaderImages.php?zip=/18/items/Galaxy_v37n07_1976-10/Galaxy_v37n07_1976-10_jp2.zip&file=Galaxy_v37n07_1976-10_jp2/Galaxy_v37n07_1976-10_0000.jp2&scale=0&rotate=0
p17
sS'cover_art'
p18
S'http://www.isfdb.org/wiki/images/b/b1/GALOCT76.jpg'
p19
sS'author_name'
p20
VGalaxy Magazine
p21
sS'images_urls'
p22
(lp23
sS'authors'
p24
(lp25
I742
aI806
aI499
aI807
aI734
aI770
aI767
aI326
aI797
aI809
aI604
aI810
aI741
aI811
aI302
asS'images'
p26
(lp27
sS'id'
p28
I1195
sS'contents'
p29
(lp30
(dp31
S'title'
p32
VShowcase (Galaxy, October 1976)
p33
sS'author'
p34
I742
sa(dp35
g32
VBagatelle
p36
sg34
I806
sa(dp37
g32
VBagatelle [2]
p38
sg34
I806
sa(dp39
g32
VYou'll Be a Real Sensation!
p40
sg34
I806
sa(dp41
g32
VThe Children of the State (Part 2 of 3)
p42
sg34
I742
sa(dp43
g32
VThe Children of the State (Part 2 of 3) [2]
p44
sg34
I742
sa(dp45
g32
VThe Children of the State (Part 2 of 3) [3]
p46
sg34
I742
sa(dp47
g32
VSeeker of the Way
p48
sg34
I499
sa(dp49
g32
VThe Man at the Bottom of the Sea
p50
sg34
I807
sa(dp51
g32
VThe Man at the Bottom of the Sea [2]
p52
sg34
I807
sa(dp53
g32
VAct of Faith
p54
sg34
I742
sa(dp55
g32
VFusion Without Exlax
p56
sg34
I734
sa(dp57
g32
VBookshelf (Galaxy, October 1976)
p58
sg34
I770
sa(dp59
g32
VThe Alien Viewpoint (Galaxy, October 1976)
p60
sg34
I767
sa(dp61
g32
VDirections (Galaxy, October 1976)
p62
sg34
I326
sa(dp63
g32
VBagatelle
p64
sg34
I797
sa(dp65
g32
VSeeker of the Way
p66
sg34
I809
sa(dp67
g32
VThe Children of the State (Part 2 of 3)
p68
sg34
I604
sa(dp69
g32
VYou'll Be a Real Sensation!
p70
sg34
I810
sa(dp71
g32
VThe Man at the Bottom of the Sea
p72
sg34
I741
sa(dp73
g32
VAct of Faith
p74
sg34
I811
sasb.