ccopy_reg
_reconstructor
p0
(cdataset.Book
Book
p1
c__builtin__
object
p2
Ntp3
Rp4
(dp5
S'content_name'
p6
V32587.txt.utf-8
p7
sS'isbn'
p8
V0140432337
p9
sS'year'
p10
I1903
sS'author_name'
p11
VSam Merwin
p12
sS'images_urls'
p13
(lp14
Vhttp://www.gutenberg.org/files/32587/32587-h/images/cover.jpg
p15
aVhttp://www.gutenberg.org/files/32587/32587-h/images/illus1.jpg
p16
aVhttp://www.gutenberg.org/files/32587/32587-h/images/illus2.jpg
p17
asS'language_code'
p18
Veng
p19
sS'images'
p20
(lp21
sS'id'
p22
I757
sS'category'
p23
VText
p24
sS'genres'
p25
(lp26
sS'copyright'
p27
VPublic domain in the USA.
p28
sS'title'
p29
VThe Ambassador
p30
sS'wikipedia'
p31
(dp32
S'found'
p33
I00
ssS'average_rating'
p34
F3.65
sS'rating_count'
p35
I9048
sS'content_available'
p36
I01
sS'cover_art_url'
p37
S'http://www.gutenberg.org/cache/epub/32587/pg32587.cover.medium.jpg'
p38
sS'goodreads'
p39
(dp40
S'url'
p41
Vhttps://www.goodreads.com/book/show/775366.The_Ambassadors
p42
sg33
I01
sS'year'
p43
I1903
ssS'similar_books'
p44
(lp45
VStuds Lonigan
p46
aVThe Old Wives' Tale
p47
aVThe Way of All Flesh
p48
aVA Dance to the Music of Time: 4th Movement (A Dance to the Music of Time, #10-12)
p49
aVZuleika Dobson
p50
aVThe Wapshot Chronicle
p51
aVParade's End
p52
aVUSA: The 42nd Parallel / 1919 / The Big Money
p53
aVThe Magnificent Ambersons (The Growth Trilogy, #2)
p54
aVLoving
p55
aVA High Wind in Jamaica
p56
aVThe Death of the Heart
p57
aVNostromo
p58
aVHenderson the Rain King
p59
aVThe Alexandria Quartet  (The Alexandria Quartet #1-4)
p60
aVPoint Counter Point
p61
aVThe Ginger Man
p62
aVAppointment in Samarra
p63
asS'description'
p64
VGraham Greene and E.M. Forster marvelled at it, but F.R. Leavis considered it to be 'not only not one of his great books, but to be a bad one.' As for the author, he held <i>The Ambassadors</i> as the favorite among all his novels.<br /><br />Sent from Massachusetts by the formidable Mrs. Newsome to recall her son, Chad, from what she assumes to be a corrupt life in Paris, Strether finds his intentions subtly and profoundly transformed as he falls under the spell of the city and of his charge. He is quick to perceive that Chad has been not so much corrupted as refined, and over the course of the hot summer months in Paris he gradually realizes that this discovery and acceptance of Chad's unconventional new lifestyle alter his own ideals and ambitions.<br /><br />One of Henry James's three final novels, all of which have sharply divided modern critics, <i>The Ambassadors</i> is the finely drawn portrait of a man's late awakening to the importance of morality that is founded not on the dictates of convention but on its value per se.
p65
sS'format'
p66
VPaperback
p67
sS'gutenberg'
p68
(dp69
g41
Vhttp://www.gutenberg.org/ebooks/32587
p70
sS'num'
p71
I32587
ssS'authors'
p72
(lp73
I147
asS'pages'
p74
I528
sS'isbn13'
p75
V9780140432336
p76
sS'language'
p77
VEnglish
p78
sS'release_date'
p79
S'2010-05-29T00:00:00'
p80
sS'author'
p81
I147
sS'content_cleaned'
p82
I01
sS'classes'
p83
(lp84
Vto-read
p85
aVclassics
p86
aVfiction
p87
aVcurrently-reading
p88
aV1001-books
p89
aVliterature
p90
aVowned
p91
aV1001
p92
aVclassic
p93
aVamerican
p94
aVfavorites
p95
aVamerican-literature
p96
aVnovels
p97
aVmodern-library-100
p98
aVhenry-james
p99
aVmodern-library-top-100
p100
aVbooks-i-own
p101
aV1001-books-to-read-before-you-die
p102
aVkindle
p103
aVamerican-lit
p104
aVmodern-library-100-best-novels
p105
aV1001-import
p106
aV20th-century
p107
aVliterary-fiction
p108
aV1001-books-to-read
p109
aVowned-books
p110
aVhistorical-fiction
p111
aV1900s
p112
aVnovel
p113
aVto-buy
p114
aV1001-to-read
p115
aVfrance
p116
aVto-read-classics
p117
aVlibrary
p118
aVclassic-literature
p119
aVmodern-library
p120
aVdefault
p121
aVtop-100
p122
aVebooks
p123
aV1001-books-you-must-read-before-you
p124
aVclassics-to-read
p125
aVabandoned
p126
aVclassic-fiction
p127
aVpenguin-classics
p128
aVebook
p129
aV19th-century
p130
aVe-book
p131
aVwish-list
p132
aVjames
p133
aVthe-novel-100
p134
aVparis
p135
aVunfinished
p136
aVusa
p137
aVbook-list-challenge
p138
aV100-best-novels
p139
aVgeneral-fiction
p140
aVliterary
p141
aVguardian-1000
p142
aVmy-library
p143
aVenglish
p144
aVadult-fiction
p145
aVfiction-literature
p146
aVmy-books
p147
aVliterature-american
p148
aVown-it
p149
aVclassic-lit
p150
aVdid-not-finish
p151
aV1001-before-you-die
p152
aVbritish
p153
aV19th-century-literature
p154
aVgreat-books
p155
aVmodernism
p156
aVto-read-fiction
p157
aVmodern-library-100-best
p158
aVhome-library
p159
aVread-in-2013
p160
aVfiction-to-read
p161
aVto-read-own
p162
aVnook
p163
aVpublic-domain
p164
aVlit
p165
aVlifetime-reading-plan
p166
aV100-greatest-novels
p167
aVrecommended
p168
aV20th-century-fiction
p169
aVschool
p170
aVunread
p171
aV2018
p172
aV20th-century-lit
p173
aVon-kindle
p174
aVcollection
p175
aV20th-century-literature
p176
aV100
p177
aVaudio
p178
aVgreatest-books
p179
aVin-english
p180
aVamerican-fiction
p181
aVmaybe
p182
aV1001-books-to-read-before-i-die
p183
aVamerica
p184
asS'loc_class'
p185
VPS: Language and Literatures: American and Canadian literature
p186
sS'n_authors'
p187
I1
sb.