ccopy_reg
_reconstructor
p0
(cdataset.Book
Book
p1
c__builtin__
object
p2
Ntp3
Rp4
(dp5
S'content_name'
p6
V29503.txt.utf-8
p7
sS'isbn'
p8
V0316041440
p9
sS'year'
p10
I1958
sS'author_name'
p11
VFrederik Pohl
p12
sS'images_urls'
p13
(lp14
Vhttp://www.gutenberg.org/files/29503/29503-h/images/001.png
p15
aVhttp://www.gutenberg.org/files/29503/29503-h/images/002-1.jpg
p16
aVhttp://www.gutenberg.org/files/29503/29503-h/images/002-2.jpg
p17
asS'language_code'
p18
Veng
p19
sS'id'
p20
I497
sS'category'
p21
VText
p22
sS'genres'
p23
(lp24
sS'copyright'
p25
VPublic domain in the USA.
p26
sS'title'
p27
VThe Hated
p28
sS'wikipedia'
p29
(dp30
S'found'
p31
I00
ssS'average_rating'
p32
F4.03
sS'rating_count'
p33
I39714
sS'content_available'
p34
I01
sS'goodreads'
p35
(dp36
S'url'
p37
Vhttps://www.goodreads.com/book/show/6316171-hate-list
p38
sS'found'
p39
I01
sS'year'
p40
I2009
ssS'similar_books'
p41
(lp42
VRight Behind You
p43
aVHold Still
p44
aVAfter
p45
aVFlash Burnout
p46
aVBy the Time You Read This, I'll Be Dead
p47
aVPurple Heart
p48
aVQuad
p49
aVThe Mockingbirds (The Mockingbirds, #1)
p50
aVDirty Little Secrets
p51
aVWillow
p52
aVButter
p53
aVFreaks and Revelations
p54
aVBallads of Suburbia
p55
aVBecause I Am Furniture
p56
aVFall for Anything
p57
aVScrawl
p58
aVGoth Girl Rising (The Astonishing Adventures of Fanboy and Goth Girl, #2)
p59
aVLeftovers
p60
asS'description'
p61
VFive months ago, Valerie Leftman's boyfriend, Nick, opened fire on their school cafeteria. Shot trying to stop him, Valerie inadvertently saved the life of a classmate, but was implicated in the shootings because of the list she helped create. A list of people and things she and Nick hated. The list he used to pick his targets.<br /><br />Now, after a summer of seclusion, Val is forced to confront her guilt as she returns to school to complete her senior year. Haunted by the memory of the boyfriend she still loves and navigating rocky relationships with her family, former friends and the girl whose life she saved, Val must come to grips with the tragedy that took place and her role in it, in order to make amends and move on with her life.<br />
p62
sS'format'
p63
NsS'gutenberg'
p64
(dp65
g37
Vhttp://www.gutenberg.org/ebooks/29503
p66
sS'num'
p67
I29503
ssS'authors'
p68
(lp69
I40
asS'pages'
p70
I405
sS'isbn13'
p71
V9780316041447
p72
sS'language'
p73
VEnglish
p74
sS'countries'
p75
(lp76
I2
asS'release_date'
p77
S'2009-07-24T00:00:00'
p78
sS'author'
p79
I40
sS'content_cleaned'
p80
I01
sS'classes'
p81
(lp82
Vto-read
p83
aVyoung-adult
p84
aVya
p85
aVcontemporary
p86
aVrealistic-fiction
p87
aVfiction
p88
aVbooks-i-own
p89
aVowned
p90
aVteen
p91
aVto-buy
p92
aVlibrary
p93
aVbullying
p94
aVcurrently-reading
p95
aVdeath
p96
aVrealistic
p97
aVhigh-school
p98
aVromance
p99
aVya-fiction
p100
aVwish-list
p101
aVdrama
p102
aVstand-alone
p103
aVkindle
p104
aVmental-health
p105
aVya-books
p106
aVmaybe
p107
aVfavourites
p108
aVebooks
p109
aVowned-books
p110
aVread-in-2014
p111
aVread-in-2013
p112
aVya-lit
p113
aVsuicide
p114
aVya-contemporary
p115
aVread-in-2012
p116
aVbook-club
p117
aVschool-shooting
p118
aVi-own
p119
aVyoung-adult-fiction
p120
aVcoming-of-age
p121
aVfavorites
p122
aVmade-me-cry
p123
aVsad
p124
aVcontemporary-fiction
p125
aVread-in-2015
p126
aVdepression
p127
aVschool
p128
aVstand-alones
p129
aVe-book
p130
aVfriendship
p131
aVmental-illness
p132
aV4-stars
p133
aVcrime
p134
aV5-stars
p135
aVread-in-2011
p136
aVneed-to-buy
p137
aVteen-fiction
p138
aVnovels
p139
aVlibrary-books
p140
aVstandalone
p141
aVhave
p142
aVmy-books
p143
aVwant
p144
aVto-read-ya
p145
aVfavorite-books
p146
aVread-in-2010
p147
aVdark
p148
aVwant-to-read
p149
aVread-2013
p150
aVdnf
p151
aVbooks
p152
aVfamily
p153
aVe-books
p154
aVall-time-favorites
p155
aVfavorite
p156
aVreviewed
p157
aVown-it
p158
aVsocial-issues
p159
aVmust-read
p160
aVya-to-read
p161
aVviolence
p162
aVtbr
p163
aVread-2012
p164
aVbooks-to-buy
p165
aVy-a
p166
aVread-2015
p167
aVborrowed
p168
aVrecommended
p169
aVschool-shootings
p170
aVread-2014
p171
aVteens
p172
aVissues
p173
aVdid-not-finish
p174
aVshelfari-favorites
p175
aVon-my-shelf
p176
aVcontemporary-ya
p177
aVyoungadult
p178
aV2013-reads
p179
aVadult
p180
aVkindle-books
p181
aVschool-violence
p182
asS'loc_class'
p183
VPS: Language and Literatures: American and Canadian literature
p184
sS'n_authors'
p185
I1
sb.