ccopy_reg
_reconstructor
p0
(cdataset.Book
Book
p1
c__builtin__
object
p2
Ntp3
Rp4
(dp5
S'content_name'
p6
V8673.txt.utf-8
p7
sS'isbn'
p8
V1598185152
p9
sS'year'
p10
I1909
sS'author_name'
p11
S'Garrett P Serviss'
p12
sS'images_urls'
p13
(lp14
sS'language_code'
p15
Veng
p16
sS'images'
p17
(lp18
sS'id'
p19
I948
sS'category'
p20
VText
p21
sS'genres'
p22
(lp23
sS'copyright'
p24
VPublic domain in the USA.
p25
sS'title'
p26
VA Columbus of Space
p27
sS'wikipedia'
p28
(dp29
S'found'
p30
I00
ssS'average_rating'
p31
F3.3
sS'rating_count'
p32
I15
sS'content_available'
p33
I01
sS'goodreads'
p34
(dp35
S'url'
p36
Vhttps://www.goodreads.com/book/show/2124691.A_Columbus_of_Space
p37
sg30
I01
sS'year'
p38
I1911
ssS'similar_books'
p39
(lp40
sS'description'
p41
VWe simply listened in silence; for what could we say? The facts were more eloquent than any words, and called for no commentary. Here we "were, " out in the middle of space; and "there" was the earth, hanging on nothing, like a summer cloud. At least we knew where we were if we didn't quite understand how we had got there. . . .
p42
sS'gutenberg'
p43
(dp44
g36
Vhttp://www.gutenberg.org/ebooks/8673
p45
sS'num'
p46
I8673
ssS'authors'
p47
(lp48
I90
asS'pages'
p49
I212
sS'isbn13'
p50
V9781598185157
p51
sS'language'
p52
VEnglish
p53
sS'countries'
p54
(lp55
I2
asS'release_date'
p56
S'2005-08-01T00:00:00'
p57
sS'author'
p58
I90
sS'cover'
p59
Vhttps://s.gr-assets.com/assets/nophoto/book/111x148-bcc042a9c91a29c1d680899eff700a03.png
p60
sS'content_cleaned'
p61
I01
sS'classes'
p62
(lp63
Vto-read
p64
aVscience-fiction
p65
aVsci-fi-fantasy
p66
aVebook
p67
aVfiction
p68
aVcurrently-reading
p69
aVaudiobook
p70
aVmaybe
p71
aV1900-1950
p72
aV20th-century-lit
p73
aVdnf
p74
aV2017-read-hard
p75
aVrh17-7
p76
aVread-in-2010
p77
aVebooks
p78
aVi-own
p79
aVaudio-books-to-read
p80
aVowned-on-hold
p81
aVgenre-syfi-fan-horr
p82
aVshelf-s-authors
p83
aVspace
p84
aVfantasy
p85
aVbook-shelf-08
p86
aVsci-fi
p87
aVfeedbooks-com
p88
aVsi-fi-fantasy
p89
aVmulling-it-over
p90
aVto-read-6-3-26
p91
aVto-read--one-day-
p92
aVread09
p93
aVscifi-fantasy
p94
aVaudiobooks-to-read
p95
aVto-read-6
p96
asS'loc_class'
p97
VPS: Language and Literatures: American and Canadian literature
p98
sS'n_authors'
p99
I1
sb.