ccopy_reg
_reconstructor
p0
(cdataset.Book
Book
p1
c__builtin__
object
p2
Ntp3
Rp4
(dp5
S'content_name'
p6
V24977.txt.utf-8
p7
sS'isbn'
p8
V0062074695
p9
sS'year'
p10
I2014
sS'author_name'
p11
VArnold Castle
p12
sS'images_urls'
p13
(lp14
Vhttp://www.gutenberg.org/files/24977/24977-h/images/001.png
p15
aVhttp://www.gutenberg.org/files/24977/24977-page-images/p048-image.png
p16
aVhttp://www.gutenberg.org/files/24977/24977-page-images/p048.png
p17
aVhttp://www.gutenberg.org/files/24977/24977-page-images/p049.png
p18
aVhttp://www.gutenberg.org/files/24977/24977-page-images/p050.png
p19
aVhttp://www.gutenberg.org/files/24977/24977-page-images/p051.png
p20
aVhttp://www.gutenberg.org/files/24977/24977-page-images/p052.png
p21
aVhttp://www.gutenberg.org/files/24977/24977-page-images/p053.png
p22
aVhttp://www.gutenberg.org/files/24977/24977-page-images/p054.png
p23
aVhttp://www.gutenberg.org/files/24977/24977-page-images/p055.png
p24
aVhttp://www.gutenberg.org/files/24977/24977-page-images/p056.png
p25
aVhttp://www.gutenberg.org/files/24977/24977-page-images/p057.png
p26
aVhttp://www.gutenberg.org/files/24977/24977-page-images/p058.png
p27
aVhttp://www.gutenberg.org/files/24977/24977-page-images/p059.png
p28
asS'language_code'
p29
Veng
p30
sS'images'
p31
(lp32
sS'id'
p33
I784
sS'category'
p34
VText
p35
sS'genres'
p36
(lp37
sS'copyright'
p38
VPublic domain in the USA.
p39
sS'title'
p40
VThe Perfectionists
p41
sS'wikipedia'
p42
(dp43
S'found'
p44
I00
ssS'average_rating'
p45
F3.85
sS'rating_count'
p46
I5488
sS'content_available'
p47
I01
sS'goodreads'
p48
(dp49
S'url'
p50
Vhttps://www.goodreads.com/book/show/20549288-the-perfectionists
p51
sg44
I01
sS'year'
p52
I2014
ssS'similar_books'
p53
(lp54
VGet Dirty (Don't Get Mad, #2)
p55
aVRemember Me (Find Me, #2)
p56
aVThey All Fall Down
p57
aVThe Dolls (The Dolls, #1)
p58
aVThe Detour
p59
aVGirl Last Seen
p60
aVDancing with Molly
p61
aVKiss Kill Vanish
p62
aVBlackbird (Blackbird, #1)
p63
aVVivian Divine Is Dead
p64
aVThe Ronin's Mistress (Sano Ichiro, #15)
p65
aVHigh and Dry
p66
aVWicked Games (Wicked Games, #1)
p67
aVHow to Convince a Boy to Kiss You (Aurora Skye #2)
p68
aVOblivion
p69
aVThe Secrets of Lily Graves
p70
aVMade for You
p71
aVMore Than a Love Song (Heartside Bay, #3)
p72
asS'description'
p73
V<b>From the author of the #1 New York Times bestselling series Pretty Little Liars comes a thrilling new novel about five perfect girls who are framed for a murder they didn\u2019t commit. </b><br /><br />In Beacon Heights, Washington, five Girls \u2014 Ava, Caitlin, Mackenzie, Julie, and Parker \u2014 know that you don\u2019t have to be good to be perfect. At first the girls think they have nothing in common, until they realize that they all hate Nolan Hotchkiss, who\u2019s done terrible things to each of them. They come up with the perfect way to kill him\u2014a hypothetical murder, of course. It\u2019s just a joke... until Nolan turns up dead, in exactly the way they planned. Only, they didn\u2019t do it. And unless they find the real killer, their perfect lives will come crashing down around them. <br /><br />From Sara Shepard, author of the #1 New York Times bestselling Pretty Little Liars series, comes another story of dark secrets, shocking twists, and what happens when five beautiful girls will do anything to hide the ugly truth.
p74
sS'format'
p75
VHardcover
p76
sS'gutenberg'
p77
(dp78
g50
Vhttp://www.gutenberg.org/ebooks/24977
p79
sS'num'
p80
I24977
ssS'authors'
p81
(lp82
I250
asS'pages'
p83
I336
sS'isbn13'
p84
V9780062074690
p85
sS'language'
p86
VEnglish
p87
sS'country'
p88
I3
sS'release_date'
p89
S'2008-04-02T00:00:00'
p90
sS'author'
p91
I250
sS'content_cleaned'
p92
I01
sS'classes'
p93
(lp94
Vto-read
p95
aVyoung-adult
p96
aVmystery
p97
aVya
p98
aVcontemporary
p99
aVcurrently-reading
p100
aVfavorites
p101
aVseries
p102
aVbooks-i-own
p103
aVthriller
p104
aVfiction
p105
aVromance
p106
aVowned
p107
aVto-buy
p108
aVchick-lit
p109
aVread-in-2015
p110
aVarc
p111
aVkindle
p112
aVebook
p113
aVlibrary
p114
aVsara-shepard
p115
aVsuspense
p116
aVmystery-thriller
p117
aVread-in-2016
p118
aVedelweiss
p119
aVread-2015
p120
aVmaybe
p121
aVcrime
p122
aVteen
p123
aV2014-releases
p124
aVebooks
p125
aVhigh-school
p126
aVmy-books
p127
aVread-in-2014
p128
aVrealistic-fiction
p129
aVdnf
p130
aVaudiobooks
p131
aVwish-list
p132
aVfor-review
p133
aVowned-books
p134
aVya-lit
p135
aVe-books
p136
aVcompleted-series
p137
aV2015-reads
p138
aV2015-read
p139
aVya-contemporary
p140
aVdrama
p141
aVread-in-2017
p142
aVyoung-adult-fiction
p143
aVtbr
p144
aVread-in-english
p145
aVrevenge
p146
aVaudiobook
p147
aVthe-perfectionists
p148
aVya-mystery
p149
aVread-2014
p150
aVon-my-shelf
p151
aVmystery-suspense
p152
aVread-2016
p153
aV2015-books
p154
aVmurder-mystery
p155
aVmysteries
p156
aV4-stars
p157
aVoverdrive
p158
aVreviewed
p159
aVmust-read
p160
aV2014-reads
p161
aVmurder
p162
aVguilty-pleasure
p163
aVdeath
p164
aVfriendship
p165
aV2014-release
p166
aVlibrary-books
p167
aV2015-reading-challenge
p168
aVon-my-bookshelf
p169
aVdefault
p170
aVfirst-in-series
p171
aVdid-not-finish
p172
aVya-fiction
p173
aVbooks
p174
aVteen-fiction
p175
aVbooks-to-buy
p176
aVkindle-books
p177
aVebooks-i-own
p178
aVoctober-2014
p179
aV2017-reads
p180
aVthrillers
p181
aVsub
p182
aVhave
p183
aVfavorite-series
p184
aVbooks-read-in-2015
p185
aVseries-to-start
p186
aVaudio
p187
aVmaybe-read
p188
aVaudio-books
p189
aVthriller-mystery
p190
aVguilty-pleasures
p191
aVi-own
p192
aVbooks-i-want
p193
aVmeh
p194
asS'loc_class'
p195
VPS: Language and Literatures: American and Canadian literature
p196
sS'n_authors'
p197
I1
sb.