ccopy_reg
_reconstructor
p0
(cdataset.Book
Book
p1
c__builtin__
object
p2
Ntp3
Rp4
(dp5
S'similar_books'
p6
(lp7
sS'genres'
p8
(lp9
sS'author'
p10
I302
sS'countries'
p11
(lp12
I2
asS'year'
p13
I1957
sS'title'
p14
VGalaxy Magazine February 1957
p15
sS'cover'
p16
Vhttps://ia601309.us.archive.org/BookReader/BookReaderImages.php?zip=/25/items/Galaxy_v13n04_1957-02/Galaxy_v13n04_1957-02_jp2.zip&file=Galaxy_v13n04_1957-02_jp2/Galaxy_v13n04_1957-02_0000.jp2&scale=0&rotate=0
p17
sS'cover_art'
p18
S'http://www.isfdb.org/wiki/images/7/77/MLO4434.jpg'
p19
sS'author_name'
p20
VGalaxy Magazine
p21
sS'images_urls'
p22
(lp23
sS'authors'
p24
(lp25
I499
aI490
aI497
aI504
aI305
aI483
aI326
aI339
aI40
aI81
aI167
aI23
aI505
aI302
asS'images'
p26
(lp27
sS'id'
p28
I1048
sS'contents'
p29
(lp30
(dp31
g10
I499
sg14
VMy Lady Greensleeves
p32
sa(dp33
g10
I499
sg14
VMy Lady Greensleeves [2]
p34
sa(dp35
g10
I499
sg14
VMy Lady Greensleeves [3]
p36
sa(dp37
g10
I490
sg14
VThe Martyr
p38
sa(dp39
g10
I497
sg14
VAdvance Agent
p40
sa(dp41
g10
I497
sg14
VAdvance Agent [2]
p42
sa(dp43
g10
I497
sg14
VAdvance Agent [3]
p44
sa(dp45
g10
I504
sg14
VThe Bomb in the Bathtub
p46
sa(dp47
g10
I499
sg14
VI Am a Nucleus
p48
sa(dp49
g10
I499
sg14
VI Am a Nucleus [2]
p50
sa(dp51
g10
I499
sg14
VI Am a Nucleus [3]
p52
sa(dp53
g10
I305
sg14
VA Load Off the Mind
p54
sa(dp55
g10
I483
sg14
VGalaxy's 5 Star Shelf (Galaxy, February 1957)
p56
sa(dp57
g10
I326
sg14
VForecast (Galaxy, February 1957)
p58
sa(dp59
g10
I339
sg14
VFor Your Information: Between Us and Space Travel
p60
sa(dp61
g10
I40
sg14
VMy Lady Greensleeves
p62
sa(dp63
g10
I81
sg14
VAdvance Agent
p64
sa(dp65
g10
I167
sg14
VI Am a Nucleus
p66
sa(dp67
g10
I23
sg14
VThe Martyr
p68
sa(dp69
g10
I505
sg14
VThe Bomb in the Bathtub
p70
sasb.