ccopy_reg
_reconstructor
p0
(cdataset.Book
Book
p1
c__builtin__
object
p2
Ntp3
Rp4
(dp5
S'content_name'
p6
V24196.txt.utf-8
p7
sS'isbn'
p8
V1603124608
p9
sS'year'
p10
I1955
sS'author_name'
p11
VLester Del Rey
p12
sS'images_urls'
p13
(lp14
Vhttp://www.gutenberg.org/files/24196/24196-h/images/001.jpg
p15
aVhttp://www.gutenberg.org/files/24196/24196-h/images/002.jpg
p16
aVhttp://www.gutenberg.org/files/24196/24196-h/images/003.jpg
p17
aVhttp://www.gutenberg.org/files/24196/24196-h/images/004.jpg
p18
aVhttp://www.gutenberg.org/files/24196/24196-h/images/005.jpg
p19
aVhttp://www.gutenberg.org/files/24196/24196-h/images/006.jpg
p20
asS'language_code'
p21
NsS'images'
p22
(lp23
sS'id'
p24
I420
sS'category'
p25
VText
p26
sS'genres'
p27
(lp28
sS'copyright'
p29
VPublic domain in the USA.
p30
sS'title'
p31
VVictory
p32
sS'wikipedia'
p33
(dp34
S'found'
p35
I00
ssS'average_rating'
p36
F4.11
sS'rating_count'
p37
I42
sS'content_available'
p38
I01
sS'goodreads'
p39
(dp40
S'url'
p41
S'https://www.goodreads.com/book/show/3185550-victory'
p42
sS'found'
p43
I01
ssS'similar_books'
p44
(lp45
sS'description'
p46
V"It seemed Earth was a rich, and undefended planet in a warring, hating galaxy. Things can be deceptive though; children playing can be quite rough -- but that ain't war, friend!"<br /><br />-- JOHN W. CAMPBELL's "original blurb for this tale"<br /><br />*<br /><br />When we first read Campbell's blurb for this novella, we wondered what the devil he (and, after a page or two, del Rey, too) were on about. We were still wondering, halfway through the tale -- until it fell on us, just the way you'd expect it to in a work out of JWC's "Astounding"/"Analog." The earth men may "seem" to be pathetic numbskulls collecting what they deserve -- but watch them closely. They're on to something.
p47
sS'gutenberg'
p48
(dp49
S'url'
p50
Vhttp://www.gutenberg.org/ebooks/24196
p51
sS'num'
p52
I24196
ssS'authors'
p53
(lp54
I73
asS'pages'
p55
I104
sS'isbn13'
p56
V9781603124607
p57
sS'language'
p58
VEnglish
p59
sS'countries'
p60
(lp61
I2
asS'release_date'
p62
S'2008-01-07T00:00:00'
p63
sS'author'
p64
I73
sS'content_cleaned'
p65
I01
sS'classes'
p66
(lp67
Vto-read
p68
aVfiction
p69
aVscience-fiction
p70
aVclassics
p71
aVshort-stories
p72
aVsci-fi
p73
aVaudiobooks
p74
aVwar
p75
aVsci-fi-or-speculative
p76
aVkindle
p77
aV21st-century-lit
p78
aVsci-fi-fantasy
p79
aVcurrently-reading
p80
aVsf
p81
aVpulp
p82
aVcold-war
p83
aV20th-century
p84
aVlibrary-book-arcpls-headquarters
p85
aVaudio-book-cd-set
p86
aVown-audiobook
p87
aVread-short-story
p88
aValiens
p89
aVowned-pending-kindle-free-ebook
p90
aVkindle-free-ebook
p91
aVto-read-1
p92
aV01-audiobooks
p93
aVaudible-com
p94
aVscifi
p95
aVsff
p96
aV1950s
p97
aVscifi-fantasy-suspense
p98
aVaudio-books
p99
aVnull
p100
aVstories
p101
aVscience
p102
aV0-audiobooks
p103
aVtime-tested
p104
aVto-read-temp
p105
asS'loc_class'
p106
VPS: Language and Literatures: American and Canadian literature
p107
sS'n_authors'
p108
I1
sb.