ccopy_reg
_reconstructor
p0
(cdataset.Book
Book
p1
c__builtin__
object
p2
Ntp3
Rp4
(dp5
S'content_name'
p6
V29138.txt.utf-8
p7
sS'isbn'
p8
V0765385503
p9
sS'year'
p10
I2016
sS'author_name'
p11
VEvelyn E. Smith
p12
sS'images_urls'
p13
(lp14
sS'language_code'
p15
Veng
p16
sS'images'
p17
(lp18
sS'id'
p19
I770
sS'category'
p20
VText
p21
sS'plot'
p22
VConundrum follows a boat of gnomes, named the Indestructable, to sail around the world of Krynn. However, when they reach the doorway to the bottom of Krynn, things change.
p23
sS'genres'
p24
(lp25
sS'copyright'
p26
VPublic domain in the USA.
p27
sS'title'
p28
VThe Doorway
p29
sS'wikipedia'
p30
(dp31
S'url'
p32
Vhttps://en.wikipedia.org/wiki/Conundrum_(Dragonlance_novel)
p33
sS'found'
p34
I01
sS'year'
p35
I-1
ssS'published_in'
p36
NsS'average_rating'
p37
F3.87
sS'rating_count'
p38
I14528
sS'content_available'
p39
I01
sS'goodreads'
p40
(dp41
g32
Vhttps://www.goodreads.com/book/show/25526296-every-heart-a-doorway
p42
sg34
I01
sg35
I2016
ssS'similar_books'
p43
(lp44
VSpeak Easy
p45
aVThe Raven and the Reindeer
p46
aVBorderline (The Arcadia Project, #1)
p47
aVThe Terracotta Bride
p48
aVGhost Talkers
p49
aVThe Drowning Eyes
p50
aVOf Sorrow and Such
p51
aVThe Jewel and Her Lapidary
p52
aVRed as Blood and White as Bone
p53
aVWake of Vultures (The Shadow, #1)
p54
aVPenric's Demon (Penric and Desdemona, #1)
p55
aVIn the Labyrinth of Drakes (The Memoirs of Lady Trent #4)
p56
aVAriah (Ariah, #1)
p57
aVWylding Hall
p58
aVHeroine Complex (Heroine Complex, #1)
p59
aVThe Turn of the Story
p60
aVThe Sorcerer of the Wildeeps (The Sorcerer of the Wildeeps, #1)
p61
aVLustlocked (Sin du Jour, #2)
p62
asS'description'
p63
V<b>Eleanor West\u2019s Home for Wayward Children</b><br />No Solicitations<br />No Visitors<br />No Quests<br /><br />Children have always disappeared under the right conditions; slipping through the shadows under a bed or at the back of a wardrobe, tumbling down rabbit holes and into old wells, and emerging somewhere... else.<br /><br />But magical lands have little need for used-up miracle children.<br /><br />Nancy tumbled once, but now she\u2019s back. The things she\u2019s experienced... they change a person. The children under Miss West\u2019s care understand all too well. And each of them is seeking a way back to their own fantasy world.<br /><br />But Nancy\u2019s arrival marks a change at the Home. There\u2019s a darkness just around each corner, and when tragedy strikes, it\u2019s up to Nancy and her new-found schoolmates to get to the heart of the matter.<br /><br />No matter the cost.
p64
sS'format'
p65
VHardcover
p66
sS'gutenberg'
p67
(dp68
g32
Vhttp://www.gutenberg.org/ebooks/29138
p69
sS'num'
p70
I29138
ssS'authors'
p71
(lp72
I172
asS'pages'
p73
I169
sS'isbn13'
p74
V9780765385505
p75
sS'language'
p76
VEnglish
p77
sS'release_date'
p78
S'2009-06-17T00:00:00'
p79
sS'author'
p80
I172
sS'original_title'
p81
VConundrum (Dragonlance novel)
p82
sS'summary'
p83
VConundrum is a fantasy novel by Jeff Crook, published in 2001. The story takes place in the Dragonlance setting, based on the Dungeons & Dragons fantasy role-playing game.
p84
sS'content_cleaned'
p85
I01
sS'classes'
p86
(lp87
Vto-read
p88
aVfantasy
p89
aVyoung-adult
p90
aVfavorites
p91
aVurban-fantasy
p92
aVlgbt
p93
aVcurrently-reading
p94
aVnovella
p95
aVseries
p96
aVread-in-2017
p97
aVlgbtq
p98
aVlgbtqia
p99
aVread-in-2016
p100
aVto-buy
p101
aVlibrary
p102
aVebook
p103
aV2016-releases
p104
aVparanormal
p105
aVadult
p106
aVhorror
p107
aVkindle
p108
aVya
p109
aVmagical-realism
p110
aVfiction
p111
aVbooks-i-own
p112
aVread-2016
p113
aVwish-list
p114
aVowned
p115
aVaudiobooks
p116
aVmagic
p117
aVsci-fi-fantasy
p118
aV2017-reads
p119
aVebooks
p120
aV2016-reads
p121
aVqueer
p122
aVnovellas
p123
aVfavourites
p124
aVya-fantasy
p125
aVfairy-tales
p126
aVmaybe
p127
aV2016-release
p128
aVadult-fiction
p129
aVfantasy-sci-fi
p130
aVcontemporary
p131
aVsff
p132
aVaudio
p133
aVaudiobook
p134
aVmystery
p135
aVread-2017
p136
aVe-books
p137
aVe-book
p138
aVfairy-tale
p139
aVdark
p140
aVdiverse-reads
p141
aVshort-stories
p142
aVscience-fiction
p143
aVmystery-thriller
p144
aVgenre-fantasy
p145
aVspeculative-fiction
p146
aVto-read-fantasy
p147
aVdnf
p148
aVdiverse
p149
aVscifi-fantasy
p150
aVbooks-to-buy
p151
aVnetgalley
p152
aVbook-club
p153
aVboarding-school
p154
aVfemale-author
p155
aVneed-to-buy
p156
aV2016-books
p157
aVcover-love
p158
aV2016-read
p159
aVlgbtqa
p160
aVlibrary-books
p161
aVsupernatural
p162
aVenglish
p163
aVdiversity
p164
aVreviewed
p165
aVarc
p166
aVglbt
p167
aVadventure
p168
aVtbr
p169
aVcoming-of-age
p170
aVread-in-english
p171
aVaudio-books
p172
aV4-stars
p173
aVowned-books
p174
aVborrowed
p175
aVwant-to-buy
p176
aVace
p177
aV2017-read
p178
aVfirst-in-series
p179
aVdark-fantasy
p180
aVmust-read
p181
aVdiverse-books
p182
aVsci-fi
p183
aVlibrary-book
p184
aV2016-reading-challenge
p185
aV5-stars
p186
aVfantasy-scifi
p187
asS'loc_class'
p188
VPS: Language and Literatures: American and Canadian literature
p189
sS'n_authors'
p190
I1
sb.