ccopy_reg
_reconstructor
p0
(cdataset.Book
Book
p1
c__builtin__
object
p2
Ntp3
Rp4
(dp5
S'content_name'
p6
V32360.txt.utf-8
p7
sS'isbn'
p8
NsS'year'
p9
I1954
sS'author_name'
p10
VJerome Bixby
p11
sS'images_urls'
p12
(lp13
Vhttp://www.gutenberg.org/files/32360/32360-h/images/img_0000.jpg
p14
aVhttp://www.gutenberg.org/files/32360/32360-h/images/img_0114i.jpg
p15
aVhttp://www.gutenberg.org/files/32360/32360-h/images/img_0115i.jpg
p16
asS'language_code'
p17
NsS'images'
p18
(lp19
sS'id'
p20
I254
sS'category'
p21
VText
p22
sS'genres'
p23
(lp24
sS'copyright'
p25
VPublic domain in the USA.
p26
sS'title'
p27
VThe Holes Around Mars
p28
sS'wikipedia'
p29
(dp30
S'found'
p31
I00
ssS'average_rating'
p32
F3.55
sS'rating_count'
p33
I21
sS'content_available'
p34
I01
sS'goodreads'
p35
(dp36
S'url'
p37
Vhttps://www.goodreads.com/book/show/10349036-the-holes-around-mars
p38
sg31
I01
sS'year'
p39
I1954
ssS'similar_books'
p40
(lp41
sS'description'
p42
NsS'format'
p43
Vebook
p44
sS'gutenberg'
p45
(dp46
g37
Vhttp://www.gutenberg.org/ebooks/32360
p47
sS'num'
p48
I32360
ssS'authors'
p49
(lp50
I85
asS'pages'
p51
I23
sS'isbn13'
p52
NsS'language'
p53
VEnglish
p54
sS'country'
p55
I3
sS'release_date'
p56
S'2010-05-13T00:00:00'
p57
sS'author'
p58
I85
sS'content_cleaned'
p59
I01
sS'classes'
p60
(lp61
Vto-read
p62
aVscience-fiction
p63
aVcurrently-reading
p64
aVebook
p65
aV20th-century-lit
p66
aVscifi
p67
aVowned-pending-kindle-free-ebook
p68
aVshort-fiction
p69
aV20th-century
p70
aVaudio-obtained-lvss
p71
aVebook-kindle-own
p72
aVshort-stories
p73
aV1950s
p74
aVclassic-books-usb
p75
aVbooks-i-read-in-2012
p76
aVaudio-obtained-ss
p77
asS'loc_class'
p78
VPS: Language and Literatures: American and Canadian literature
p79
sS'n_authors'
p80
I1
sb.