ccopy_reg
_reconstructor
p0
(cdataset.Book
Book
p1
c__builtin__
object
p2
Ntp3
Rp4
(dp5
S'content_name'
p6
V27631.txt.utf-8
p7
sS'isbn'
p8
V0786017813
p9
sS'year'
p10
I2006
sS'author_name'
p11
VJack Douglas
p12
sS'images_urls'
p13
(lp14
Vhttp://www.gutenberg.org/files/27631/27631-h/images/001.png
p15
aVhttp://www.gutenberg.org/files/27631/27631-h/images/002.png
p16
aVhttp://www.gutenberg.org/files/27631/27631-page-images/f0084-image1.png
p17
aVhttp://www.gutenberg.org/files/27631/27631-page-images/p0085.png
p18
aVhttp://www.gutenberg.org/files/27631/27631-page-images/p0086.png
p19
aVhttp://www.gutenberg.org/files/27631/27631-page-images/p0087.png
p20
aVhttp://www.gutenberg.org/files/27631/27631-page-images/p0088.png
p21
aVhttp://www.gutenberg.org/files/27631/27631-page-images/p0089.png
p22
aVhttp://www.gutenberg.org/files/27631/27631-page-images/p0090.png
p23
aVhttp://www.gutenberg.org/files/27631/27631-page-images/p0091.png
p24
aVhttp://www.gutenberg.org/files/27631/27631-page-images/p0092.png
p25
aVhttp://www.gutenberg.org/files/27631/27631-page-images/p0093.png
p26
aVhttp://www.gutenberg.org/files/27631/27631-page-images/p0094.png
p27
aVhttp://www.gutenberg.org/files/27631/27631-page-images/p0095.png
p28
aVhttp://www.gutenberg.org/files/27631/27631-page-images/p0096.png
p29
aVhttp://www.gutenberg.org/files/27631/27631-page-images/p0097-image1.png
p30
aVhttp://www.gutenberg.org/files/27631/27631-page-images/p0097.png
p31
asS'language_code'
p32
Veng
p33
sS'images'
p34
(lp35
sS'id'
p36
I391
sS'category'
p37
VText
p38
sS'genres'
p39
(lp40
sS'copyright'
p41
VPublic domain in the USA.
p42
sS'title'
p43
VDead World
p44
sS'wikipedia'
p45
(dp46
S'found'
p47
I00
ssS'average_rating'
p48
F3.77
sS'rating_count'
p49
I4950
sS'content_available'
p50
I01
sS'goodreads'
p51
(dp52
S'url'
p53
Vhttps://www.goodreads.com/book/show/90574.Dead_City
p54
sg47
I01
sS'year'
p55
I2006
ssS'similar_books'
p56
(lp57
VDying to Live (Dying to Live, #1)
p58
aVEden
p59
aVDomain of the Dead (Domain of the Dead #1)
p60
aVDead Sea
p61
aVThunder and Ashes (Morningstar Strain #2)
p62
aVDown the Road
p63
aVThe Infection
p64
aVRise Again (Rise Again #1)
p65
aVTwilight of the Dead
p66
aVEmpire: A Zombie Novel
p67
aVSiege  (As The World Dies, #3)
p68
aVKings of the Dead
p69
aVThe City (Autumn, #2)
p70
aVNew Zed Order: Survive
p71
aVEvery Sigh, the End
p72
aVZombie CSU
p73
aVFlu (Flu, #1)
p74
asS'description'
p75
VAfter the Gulf Coast is battered by three tremendous hurricanes, a deadly virus breaks out, turning the infected into mindless, blood-thirsty zombies. <br /><br />Within hours, the plague has spread throughout most of Texas and shows no signs of slowing down.<br /><br />San Antonio police officer Eddie Hudson finds himself in the middle of the outbreak, along with a few other survivors. <br /><br />Eddie does his best to fight off the zombie horde and locate his wife and son, who he believes still are safe and haven\u2019t been infected by the virus.
p76
sS'format'
p77
VPaperback
p78
sS'gutenberg'
p79
(dp80
g53
Vhttp://www.gutenberg.org/ebooks/27631
p81
sS'num'
p82
I27631
ssS'authors'
p83
(lp84
I126
asS'pages'
p85
I288
sS'isbn13'
p86
V9780786017812
p87
sS'language'
p88
VEnglish
p89
sS'release_date'
p90
S'2008-12-26T00:00:00'
p91
sS'author'
p92
I126
sS'content_cleaned'
p93
I01
sS'classes'
p94
(lp95
Vto-read
p96
aVzombies
p97
aVhorror
p98
aVzombie
p99
aVcurrently-reading
p100
aVfiction
p101
aVpost-apocalyptic
p102
aVseries
p103
aVapocalyptic
p104
aVfavorites
p105
aVapocalypse
p106
aVbooks-i-own
p107
aVsci-fi
p108
aVzombie-books
p109
aVdefault
p110
aVowned
p111
aVscience-fiction
p112
aVto-buy
p113
aVebooks
p114
aVsurvival
p115
aVfantasy
p116
aVaudiobooks
p117
aVzombie-fiction
p118
aVlibrary
p119
aVjoe-mckinney
p120
aVdystopian
p121
aVurban-fantasy
p122
aVfirst-in-series
p123
aVadult
p124
aVaudiobook
p125
aVzombie-apocalypse
p126
aVthriller
p127
aVread-in-2013
p128
aVmy-library
p129
aVebook
p130
aVto-read-horror
p131
aVm
p132
aVaudio
p133
aVz
p134
aVaudio-book
p135
aVundead
p136
aVe-book
p137
aVowned-books
p138
aVnovels
p139
aVtexas
p140
aVkindle
p141
aVpost-apocalypse
p142
aVvirus
p143
aVzombie-to-read
p144
aVend-of-world
p145
aVhave
p146
aVsuspense
p147
aVmy-books
p148
aVdystopia
p149
aVpost-apocolyptic
p150
aVnot-interested
p151
aVhorror-zombies
p152
aVzombie-horror
p153
aVrecommended
p154
aVread-in-2011
p155
aVwant-to-read
p156
aV02-words-sb
p157
aVhorror-thriller
p158
aVbooks-read-in-2016
p159
aVscifi
p160
aVto-check-out
p161
aVbooks
p162
aVto-be-read
p163
aVmaybe
p164
aVsci-fi-fantasy
p165
aVpart-of-series
p166
aVread-2015
p167
aVhave-it
p168
aVread-in-2015
p169
aVseries-read
p170
aVmckinney-joe
p171
aValready-owned
p172
aVpaperback
p173
aVdark-fiction
p174
aVon-hold
p175
aVhard-copy
p176
aVread-in-2014
p177
aVbooks-to-buy
p178
aVzombie-books-to-read
p179
aVapocalyptic-post-apocalyptic
p180
aVe-books
p181
aVthe-horror
p182
aVdead-world-series
p183
aVseries-1
p184
aVadult-novels
p185
aVlibrary-book
p186
aVnook
p187
aVmight-read
p188
aVunread
p189
aVscience-fiction-fantasy
p190
aV2012-read
p191
aVapocalypse-to-read
p192
aVparanormal-fiction
p193
aVpart-of-a-series
p194
aVapocolypse
p195
asS'loc_class'
p196
VPS: Language and Literatures: American and Canadian literature
p197
sS'n_authors'
p198
I1
sb.