ccopy_reg
_reconstructor
p0
(cdataset.Book
Book
p1
c__builtin__
object
p2
Ntp3
Rp4
(dp5
S'content_name'
p6
V51170.txt.utf-8
p7
sS'isbn'
p8
V1400312167
p9
sS'year'
p10
I1951
sS'author_name'
p11
VFrank M. Robinson
p12
sS'images_urls'
p13
(lp14
Vhttp://www.gutenberg.org/files/51170/51170-h/images/cover.jpg
p15
aVhttp://www.gutenberg.org/files/51170/51170-h/images/illus1.jpg
p16
aVhttp://www.gutenberg.org/files/51170/51170-h/images/illus2.jpg
p17
aVhttp://www.gutenberg.org/files/51170/51170-h/images/illus3.jpg
p18
asS'language_code'
p19
Ven-US
p20
sS'id'
p21
I811
sS'category'
p22
VText
p23
sS'genres'
p24
(lp25
sS'copyright'
p26
VPublic domain in the USA.
p27
sS'title'
p28
VThe Fire and the Sword
p29
sS'wikipedia'
p30
(dp31
S'found'
p32
I00
ssS'average_rating'
p33
F4.28
sS'rating_count'
p34
I1247
sS'content_available'
p35
I01
sS'cover_art_url'
p36
S'http://www.gutenberg.org/cache/epub/51170/pg51170.cover.medium.jpg'
p37
sS'goodreads'
p38
(dp39
S'url'
p40
Vhttps://www.goodreads.com/book/show/3066582-isle-of-fire
p41
sS'found'
p42
I01
sS'year'
p43
I2008
ssS'similar_books'
p44
(lp45
VEnoch's Ghost (Oracles of Fire, #2)
p46
aVAll My Holy Mountain (Binding of the Blade, #5)
p47
aVThe Way of the Wilderking (The Wilderking Trilogy, #3)
p48
aVKingdom's Reign (Kingdom, #6)
p49
aVThe Lion Vrie
p50
aVTo Darkness Fled (Blood of Kings, #2)
p51
asS'description'
p52
NsS'format'
p53
NsS'gutenberg'
p54
(dp55
g40
Vhttp://www.gutenberg.org/ebooks/51170
p56
sS'num'
p57
I51170
ssS'authors'
p58
(lp59
I180
asS'pages'
p60
I338
sS'isbn13'
p61
V9781400312160
p62
sS'language'
p63
VEnglish
p64
sS'countries'
p65
(lp66
I2
asS'release_date'
p67
S'2016-02-10T00:00:00'
p68
sS'author'
p69
I180
sS'content_cleaned'
p70
I01
sS'classes'
p71
(lp72
Vto-read
p73
aVfavorites
p74
aVfantasy
p75
aVyoung-adult
p76
aVadventure
p77
aVhistorical-fiction
p78
aVfiction
p79
aVchristian
p80
aVpirates
p81
aVchristian-fiction
p82
aVcurrently-reading
p83
aVchristian-fantasy
p84
aVya
p85
aVbooks-i-own
p86
aVseries
p87
aVowned
p88
aVisle-of-swords
p89
aVhistorical
p90
aVpirate
p91
aVhistory
p92
aVromance
p93
aVmystery
p94
aVmy-books
p95
aVmiddle-grade
p96
aVaction-adventure
p97
aVread-in-2010
p98
aVfavorite
p99
aVteen
p100
aVbatson
p101
aVthomas
p102
aVwayne
p103
aVi-own
p104
aVaction
p105
aVdefault
p106
aVto-buy
p107
aVoysterbooks
p108
aVya-fiction
p109
aVregular
p110
aVawesome
p111
aVre-reads
p112
aVnovels
p113
aVhistorical-fantasy
p114
aVchildren-s
p115
aVwayne-batson
p116
aVkindle
p117
aVswords
p118
aVchristian-historical
p119
aVchildrens
p120
aVyear-2011
p121
aVgave-up-on
p122
aVtbr-kids
p123
aVreading-list
p124
aVtoby-2017
p125
aVepic-fantasy-series
p126
aVmy-favorites
p127
aVkids
p128
aVtbr-4-5
p129
aVown-in-print
p130
aVcheck-age
p131
aVread-tower-2017
p132
aVpretty-covers
p133
aVinto-a-fantasy
p134
aVbooks-to-make-william-read
p135
aVaye-aye-capn-aka-pirates
p136
aVneed
p137
aVchildhood
p138
aV11-s\u0131n\u0131f
p139
aVe-audio-library
p140
aVfinished
p141
aVto-read-have
p142
aVbn
p143
aVpurchased
p144
aVyouth
p145
aVfor-zach
p146
aVfinished-in-2017
p147
aVread-more-than-once
p148
aVto-be-read-shelf
p149
aVbooks-on-my-shelf-i-havent-read
p150
aVread_in_2016
p151
aVchristian_fiction
p152
aVdigital-available
p153
aV2000s
p154
aValivia
p155
aVpopular
p156
aVyou-ve-got-to-read-these
p157
aVto-be-cataloged
p158
aVswept-by-the-romance
p159
aVfive-star
p160
aVfavorite-fantasy
p161
aVbooks-read
p162
aVunliked
p163
aVold
p164
aVpirate-nautical-fiction
p165
aVepic-high-low-fantasy
p166
aVhis-fic
p167
aVdystopian-fantasy-sci-fi
p168
aVhigh-fantasy
p169
aVbought
p170
aVa-want-to-read
p171
aVdigital
p172
asS'loc_class'
p173
S''
p174
sS'n_authors'
p175
I1
sb.