ccopy_reg
_reconstructor
p0
(cdataset.Book
Book
p1
c__builtin__
object
p2
Ntp3
Rp4
(dp5
S'content_name'
p6
V24966.txt.utf-8
p7
sS'isbn'
p8
NsS'year'
p9
I1958
sS'author_name'
p10
VAl Sevcik
p11
sS'images_urls'
p12
(lp13
Vhttp://www.gutenberg.org/files/24966/24966-h/images/001.png
p14
asS'language_code'
p15
NsS'id'
p16
I243
sS'category'
p17
VText
p18
sS'genres'
p19
(lp20
sS'copyright'
p21
VPublic domain in the USA.
p22
sS'title'
p23
VSurvival Tactics
p24
sS'wikipedia'
p25
(dp26
S'found'
p27
I00
ssS'average_rating'
p28
F3.41
sS'rating_count'
p29
I121
sS'content_available'
p30
I01
sS'goodreads'
p31
(dp32
S'url'
p33
Vhttps://www.goodreads.com/book/show/11555416-survival-tactics
p34
sS'found'
p35
I01
sS'year'
p36
I1958
ssS'similar_books'
p37
(lp38
VInvaders from the Infinite
p39
aV50 Ways to Protect Your Identity in a Digital Age: New Financial Threats You Need to Know and How to Avoid Them
p40
aVDuct Tape Bags
p41
aVHow to Speed Read: A Very Easy Guide
p42
aVAge Smart: Discovering the Fountain of Youth at Midlife and Beyond
p43
aVThe Busy Mom's Guide To Speed Cleaning And Organizing: How To Organize, Clean, And Keep Your Home Spotless
p44
aVClean It! A to Z Guide of How to Clean Your Home
p45
aVUrban Preppers with Kids, Pets &Parents
p46
aVBarcode Booty: How I Found and Sold $2 Million of 'Junk' on Ebay and Amazon, and You Can, Too, Using Your Phone
p47
aVWoodcraft and Camping
p48
aVThe New Guide to Knitting & Crochet
p49
aVSurvival Guide for Beginners
p50
aVBeyond the Door
p51
aVHow to Sew: Basics
p52
aVThe Golden Sayings of Epictetus
p53
aVDisruptive Possibilities: How Big Data Changes Everything
p54
aVThe Ladies' Work-Book Containing Instructions In Knitting, Crochet, Point-Lace, etc.
p55
aVAnatomy & Physiology
p56
asS'description'
p57
VGreat Sci Fi short story by Al Sevcik!<br /><br />The robots were built to serve Man; to do his work, see to his comforts, make smooth his way. Then the robots figured out an additional service...
p58
sS'format'
p59
NsS'gutenberg'
p60
(dp61
g33
Vhttp://www.gutenberg.org/ebooks/24966
p62
sS'num'
p63
I24966
ssS'authors'
p64
(lp65
I80
asS'isbn13'
p66
NsS'language'
p67
VEnglish
p68
sS'countries'
p69
(lp70
I3
asS'release_date'
p71
S'2008-03-30T00:00:00'
p72
sS'author'
p73
I80
sS'content_cleaned'
p74
I01
sS'classes'
p75
(lp76
Vto-read
p77
aVcurrently-reading
p78
aVkindle
p79
aVscience-fiction
p80
aVsci-fi
p81
aVsurvival
p82
aVebook
p83
aVself-help
p84
aVfiction
p85
aVclassic-sci-fi
p86
aVamazon-library
p87
aVactually-own
p88
aVto-read-second
p89
aV20th-century-lit
p90
aVnonfiction
p91
aVamazon
p92
aVvietnam-modern-warfare
p93
aVhistory-usa
p94
aVhistorical-war
p95
aVcrafting-publishing-books
p96
aVmy-stuff
p97
aVshelf-s-authors
p98
aVgenre-nonfiction-ref
p99
aVeducational
p100
aVnoob
p101
aVscifi-fantasy
p102
aVshort-story
p103
aVprep
p104
aVhelp-and-how-to
p105
aVread-in-21st-century
p106
aVamazon-kindle-books
p107
aVsurvival-non-fiction
p108
aVbooks-i-own
p109
aVself-improvement
p110
aVkindle-book
p111
aVunder-hyped
p112
aVphilosophy
p113
aVpreppers
p114
aVe-books
p115
aVamazon-books
p116
aVfinished-books
p117
aVe-book
p118
aV13
p119
aVunderhyped
p120
asS'loc_class'
p121
VPS: Language and Literatures: American and Canadian literature
p122
sS'n_authors'
p123
I1
sb.