ccopy_reg
_reconstructor
p0
(cdataset.Book
Book
p1
c__builtin__
object
p2
Ntp3
Rp4
(dp5
S'content_name'
p6
V42254.txt.utf-8
p7
sS'isbn'
p8
V0843959207
p9
sS'year'
p10
I1935
sS'author_name'
p11
VRobert E. Howard
p12
sS'images_urls'
p13
(lp14
Vhttp://www.gutenberg.org/files/42254/42254-h/images/cover1.jpg
p15
aVhttp://www.gutenberg.org/files/42254/42254-h/images/cover2.jpg
p16
asS'language_code'
p17
NsS'images'
p18
(lp19
sS'id'
p20
I120
sS'category'
p21
VText
p22
sS'genres'
p23
(lp24
sS'copyright'
p25
VPublic domain in the USA.
p26
sS'title'
p27
VBeyond the Black River
p28
sS'wikipedia'
p29
(dp30
S'url'
p31
Vhttps://en.wikipedia.org/wiki/Beyond_the_Black_River
p32
sS'found'
p33
I01
sS'year'
p34
I-1
ssS'published_in'
p35
NsS'average_rating'
p36
F4.05
sS'rating_count'
p37
I213
sS'content_available'
p38
I01
sS'cover_art_url'
p39
S'http://www.gutenberg.org/cache/epub/42254/pg42254.cover.medium.jpg'
p40
sS'goodreads'
p41
(dp42
g31
Vhttps://www.goodreads.com/book/show/2857327-beyond-the-black-river
p43
sg33
I01
sg34
I1935
ssS'similar_books'
p44
(lp45
VThe Savage Sword of Conan, Volume 3
p46
aVWho Fears The Devil
p47
aVThe Darkness: Origins, Volume 2
p48
aVThe Best of Leigh Brackett
p49
aVBlood and Thunder: The Life and Art of Robert E. Howard
p50
aVDark Crusade
p51
aVSeven Footprints to Satan
p52
aVAllan Quatermain and the Ice Gods
p53
aVMirror Kingdoms: The Best of Peter S. Beagle
p54
aVFAUST 1
p55
aVThe Nine Unknown
p56
aVLes ailes du destin (Les 12 Royaumes, #5)
p57
aVDaredevil by Ed Brubaker & Michael Lark Ultimate Collection, Book 2
p58
aVThe Colour Out of Space: Tales of Cosmic Horror by Lovecraft, Blackwood, Machen, Poe, and Other Masters of the Weird
p59
aVCascade Point and Other Stories
p60
aVVoluntary
p61
aVA Coldness in the Blood (Dracula Series, #10)
p62
asS'description'
p63
VConan the Barbarian is employed by one of the civilized countries to help in it's push to claim lands from the primitive Picts. The Picts are not excited about the idea however. Old gods and mythical creatures are called up by the Pict witches to contest the invading army and Conan finds himself battling for his life amid the blood thirsty hordes that include saber-toothed tigers, 40 foot long venomous snakes and a demon from another dimension who is intent on crushing him. The huge dog Slasher makes an appearance here and distinguishes himself so well in a doomed battle to delay their forces that Conan openly praises his courage and pledges that 7 Pict heads will roll in his honor.
p64
sS'format'
p65
NsS'gutenberg'
p66
(dp67
g31
Vhttp://www.gutenberg.org/ebooks/42254
p68
sS'num'
p69
I42254
ssS'authors'
p70
(lp71
I22
asS'isbn13'
p72
V9780843959208
p73
sS'language'
p74
VEnglish
p75
sS'country'
p76
I2
sS'release_date'
p77
S'2013-03-03T00:00:00'
p78
sS'author'
p79
I22
sS'original_title'
p80
VBeyond the Black River
p81
sS'summary'
p82
V"Beyond the Black River" is one of the original short stories about Conan the Cimmerian, written by American author Robert E. Howard and first published in Weird Tales magazine, v. 25, nos. 5-6, May-June 1935. The story was republished in the collections King Conan (Gnome Press, 1953) and Conan the Warrior (Lancer Books, 1967). It has more recently been published in the anthology The Mighty Swordsmen (Lancer Books, 1970), and the collections The Conan Chronicles Volume 2: The Hour of the Dragon (Gollancz, 2001) and Conan of Cimmeria: Volume Three (1935-1936) (Del Rey, 2005). It is set in the pseudo-historical Hyborian Age and concerns Conan fighting the savage Hyborian Picts in the unsettled lands beyond the infamous Black River.
p83
sS'content_cleaned'
p84
I01
sS'classes'
p85
(lp86
Vto-read
p87
aVfantasy
p88
aVcurrently-reading
p89
aVpulp
p90
aVfiction
p91
aVconan
p92
aVclassics
p93
aVdefault
p94
aVshort-stories
p95
aVadventure
p96
aVsword-and-sorcery
p97
aVmystery
p98
aVkindle
p99
aVpublic-domain
p100
aVebooks
p101
aVaudiobooks
p102
aVebook
p103
aVfavorites
p104
aVto-read-ebook
p105
aV01-classic-fantasy
p106
aVtest
p107
aVr-e-howard
p108
aVgutenberg
p109
aVdigital
p110
aVamerican
p111
aVseries
p112
aVgenero-fantasia
p113
aVfree-ebooks
p114
aVlibrary
p115
aVpart-of-an-onmibus
p116
aVowned
p117
aVsupernatural-horror
p118
aVnovellas
p119
aVread-2016
p120
aVswords-and-socery
p121
aV20th-century
p122
aVpulps
p123
aVpathfinder-recommendations
p124
aVhp-lovecraft-literary-society
p125
aVhoward-robert-e
p126
aVlit-anglosajona
p127
aVon-calibre
p128
aVsword-amp-sorcery
p129
aVrobert-e-howard
p130
aVpulp-fiction
p131
aVmythic-warrior
p132
aVmagic
p133
aVfantasy-masterworks
p134
aVshelfari-favorites
p135
aVmaybe-reads
p136
aVbooks
p137
aVreh
p138
aVz_fiction
p139
aVx_shortstory
p140
aVw_us_federal
p141
aVs-s-conan
p142
aVowned-not-read-yet
p143
aVthriller
p144
aVdark-fantasy
p145
aVdrama
p146
aVaction
p147
aVaudio
p148
aVto-read-fiction-on-dropbox
p149
aVhyborean-age
p150
aVmissing-shelf
p151
aVenglish-edition
p152
aVcuentos
p153
aVshorts
p154
aVbarbarian-lore
p155
aVgreatest-sffh-novellas
p156
aVgave-as-a-gift
p157
aVi-own
p158
aVmunseys
p159
aVfeedbooks-com
p160
aVsf-fan-horror
p161
aVscience-fiction
p162
aVto-read-fantasy
p163
aVauthor-robert-e-howard
p164
aVawesome-and-dark
p165
aVall-time-favorites
p166
aVfantasy-epic
p167
aVshort-story
p168
aVreh-collection
p169
aVpersonal-library
p170
aVmy-e-books
p171
aVconan-the-barbarian
p172
aVpersonal-collection
p173
aVnot-read
p174
aVsword-n-sorcery
p175
aVe-books-owned
p176
aVon-hold
p177
aVdo-not-own
p178
aVanthology
p179
aVsword---sorcery
p180
aVhorror
p181
aVaction-adventure
p182
aVfiction-speculative
p183
aVmystery-and-suspense
p184
asS'loc_class'
p185
VPS: Language and Literatures: American and Canadian literature
p186
sS'n_authors'
p187
I1
sb.