ccopy_reg
_reconstructor
p0
(cdataset.Book
Book
p1
c__builtin__
object
p2
Ntp3
Rp4
(dp5
S'content_name'
p6
V31897.txt.utf-8
p7
sS'isbn'
p8
V1612102174
p9
sS'year'
p10
I-1
sS'author_name'
p11
VDavid E. Fisher
p12
sS'images_urls'
p13
(lp14
Vhttp://www.gutenberg.org/files/31897/31897-h/images/001-1.jpg
p15
aVhttp://www.gutenberg.org/files/31897/31897-h/images/001-2.jpg
p16
aVhttp://www.gutenberg.org/files/31897/31897-h/images/002.png
p17
asS'language_code'
p18
NsS'id'
p19
I616
sS'category'
p20
VText
p21
sS'genres'
p22
(lp23
sS'copyright'
p24
VPublic domain in the USA.
p25
sS'title'
p26
VYou Don't Make Wine Like the Greeks Did
p27
sS'wikipedia'
p28
(dp29
S'found'
p30
I00
ssS'average_rating'
p31
F3.33
sS'rating_count'
p32
I5
sS'content_available'
p33
I01
sS'goodreads'
p34
(dp35
S'url'
p36
Vhttps://www.goodreads.com/book/show/18884214-you-don-t-make-wine-like-the-greek-did
p37
sS'found'
p38
I01
sS'year'
p39
I2011
ssS'similar_books'
p40
(lp41
sS'description'
p42
VEvery century has its advantages and its drawbacks," he said. "We, for instance, have bred out sexual desire. And, as for you people ...
p43
sS'format'
p44
Vebook
p45
sS'gutenberg'
p46
(dp47
g36
Vhttp://www.gutenberg.org/ebooks/31897
p48
sS'num'
p49
I31897
ssS'authors'
p50
(lp51
I206
asS'isbn13'
p52
V9781612102177
p53
sS'language'
p54
VEnglish
p55
sS'countries'
p56
(lp57
I3
asS'release_date'
p58
S'2010-04-06T00:00:00'
p59
sS'author'
p60
I206
sS'cover'
p61
Vhttps://s.gr-assets.com/assets/nophoto/book/111x148-bcc042a9c91a29c1d680899eff700a03.png
p62
sS'content_cleaned'
p63
I01
sS'classes'
p64
(lp65
Vto-read
p66
aVscience-fiction
p67
aVfree-from-amazon
p68
aVfiction
p69
aVpg
p70
aVfood
p71
aVthe-library
p72
asS'loc_class'
p73
VPS: Language and Literatures: American and Canadian literature
p74
sS'n_authors'
p75
I1
sb.