ccopy_reg
_reconstructor
p0
(cdataset.Book
Book
p1
c__builtin__
object
p2
Ntp3
Rp4
(dp5
S'content_name'
p6
V19102.txt.utf-8
p7
sS'isbn'
p8
NsS'year'
p9
I2014
sS'author_name'
p10
VH. Beam Piper
p11
sS'images_urls'
p12
(lp13
Vhttp://www.gutenberg.org/files/19102/19102-h/images/fig.jpg
p14
asS'language_code'
p15
Veng
p16
sS'images'
p17
(lp18
sS'id'
p19
I319
sS'category'
p20
VText
p21
sS'genres'
p22
(lp23
sS'copyright'
p24
VPublic domain in the USA.
p25
sS'title'
p26
VDearest
p27
sS'wikipedia'
p28
(dp29
S'found'
p30
I00
ssS'average_rating'
p31
F4.13
sS'rating_count'
p32
I8607
sS'content_available'
p33
I01
sS'goodreads'
p34
(dp35
S'url'
p36
Vhttps://www.goodreads.com/book/show/22351498-dearest-clementine
p37
sg30
I01
sS'year'
p38
I2014
ssS'similar_books'
p39
(lp40
VLike Gravity
p41
aVTo Professor, with Love (Forbidden Men, #2)
p42
aVMore Than Water (More Than Water, #1)
p43
aVExposure (East Park, #1)
p44
aVHothouse Flower (Calloway Sisters, #2; Addicted, #2.2)
p45
aVScoring Wilder
p46
aVSummer's Temptation (Vandeveer University, #1)
p47
aVFull Measures (Flight & Glory, #1)
p48
aVThird Degree
p49
aVThis Sky
p50
aVPieces of Olivia (Charleston Haven, #1)
p51
aVDevious Minds (Devious Minds, #1)
p52
aVIf Only (If Only..., #1)
p53
aVLove Show
p54
aVRedesigned (Off the Subject, #2)
p55
aVBroken (Redemption, #1)
p56
aVDeeper (Caroline & West, #1)
p57
asS'description'
p58
V<i>Librarian's Note: This is an alternate cover for ASIN B00JRQ08HI</i><br /><br />Twenty-year-old Clementine Avery doesn't mind being called bitchy and closed off. It's safe, and after being burned by her high school sweetheart and stalked by a professor her freshman year of college, safe sounds pretty damn good.<br /><br />Her number one rule for survival? No dating. That is until she accidentally signs up for a romance writing class and needs material for her latest assignment. Sexy RA Gavin Murphy is more than happy to play the part of book boyfriend to help Clem find some inspiration, even if that means making out \u2026 in the name of research, of course.<br /><br />As Gavin and Clem grow closer, they get entangled in the mystery surrounding a missing Boston University student, and Clem unwittingly becomes a possible target. Gavin tries to show Clem she can handle falling in love again, but she knows she has to be careful because her heart\u2019s at stake \u2026 and maybe even her life.<br /><br /><i>DEAREST CLEMENTINE is a stand-alone novel with two companion novels. This New Adult romance is recommended for readers 18+ due to mature content.</i>
p59
sS'format'
p60
VKindle Edition
p61
sS'gutenberg'
p62
(dp63
g36
Vhttp://www.gutenberg.org/ebooks/19102
p64
sS'num'
p65
I19102
ssS'authors'
p66
(lp67
I19
asS'pages'
p68
I370
sS'isbn13'
p69
NsS'language'
p70
VEnglish
p71
sS'countries'
p72
(lp73
I2
asS'release_date'
p74
S'2006-08-22T00:00:00'
p75
sS'author'
p76
I19
sS'content_cleaned'
p77
I01
sS'classes'
p78
(lp79
Vto-read
p80
aVnew-adult
p81
aVfavorites
p82
aVromance
p83
aVcurrently-reading
p84
aVcollege
p85
aVcontemporary
p86
aVkindle
p87
aVcontemporary-romance
p88
aVseries
p89
aVcollege-romance
p90
aVna
p91
aVbook-boyfriend
p92
aVread-in-2015
p93
aVebook
p94
aVdnf
p95
aVabuse
p96
aVebooks
p97
aVfree
p98
aVfreebie
p99
aVowned
p100
aVread-in-2014
p101
aV4-stars
p102
aVon-kindle
p103
aVmystery
p104
aVfunny
p105
aVmaybe
p106
aVfavourites
p107
aVread-2015
p108
aVfriends-to-lovers
p109
aVbook-boyfriends
p110
aVbooks-i-own
p111
aVsuspense
p112
aVread-in-2016
p113
aVfreebies
p114
aVkindle-freebie
p115
aVe-book
p116
aV5-stars
p117
aVyoung-adult
p118
aVcute
p119
aVon-my-kindle
p120
aV2015-reads
p121
aVfavorite
p122
aVya
p123
aVread-2014
p124
aVkindle-books
p125
aVread-in-2017
p126
aVadult
p127
aVsports
p128
aVfavs
p129
aVfaves
p130
aV2014-reads
p131
aVchick-lit
p132
aVstand-alone
p133
aVkindle-unlimited
p134
aVlove
p135
aVnew-adult-romance
p136
aVown-kindle
p137
aVpurchased
p138
aVfiction
p139
aVmusic
p140
aVarc
p141
aVsweet-guys
p142
aVkindle-to-read
p143
aVe-books
p144
aVto-buy
p145
aVrealistic-fiction
p146
aVowned-books
p147
aVfirst-in-series
p148
aVstandalone
p149
aVmusicians
p150
aVaudiobooks
p151
aVaudiobook
p152
aVlex-martin
p153
aV2014-releases
p154
aVamazon-freebie
p155
aVibooks
p156
aVangst
p157
aVna-romance
p158
aVamazon
p159
aVmust-read
p160
aVup-next
p161
aVhumor
p162
aVwish-list
p163
aVto-read-romance
p164
aVloved-it
p165
aVdid-not-finish
p166
aVswoon-worthy
p167
aVtbr
p168
aVsweet
p169
aV2014-read
p170
aV2016-reads
p171
aValpha-male
p172
aVya-na
p173
aVdrama
p174
aVkindle-freebies
p175
aVowned-to-read
p176
aVebooks-i-own
p177
aVcover-love
p178
aVto-read-own
p179
asS'loc_class'
p180
VPS: Language and Literatures: American and Canadian literature
p181
sS'n_authors'
p182
I1
sb.