ccopy_reg
_reconstructor
p0
(cdataset.Book
Book
p1
c__builtin__
object
p2
Ntp3
Rp4
(dp5
S'content_name'
p6
V4920.txt.utf-8
p7
sS'isbn'
p8
V0547763441
p9
sS'year'
p10
I2012
sS'author_name'
p11
VHomer Eon Flint
p12
sS'images_urls'
p13
(lp14
sS'language_code'
p15
Veng
p16
sS'images'
p17
(lp18
sS'id'
p19
I573
sS'category'
p20
VText
p21
sS'genres'
p22
(lp23
sS'copyright'
p24
VPublic domain in the USA.
p25
sS'title'
p26
VThe Blind Spot
p27
sS'wikipedia'
p28
(dp29
S'url'
p30
Vhttps://en.wikipedia.org/wiki/The_Blind_Spot
p31
sS'found'
p32
I01
sS'year'
p33
I-1
ssS'published_in'
p34
NsS'average_rating'
p35
F3.49
sS'rating_count'
p36
I943
sS'content_available'
p37
I01
sS'goodreads'
p38
(dp39
g30
Vhttps://www.goodreads.com/book/show/11105153-blind-spot
p40
sg32
I01
sg33
I2012
ssS'similar_books'
p41
(lp42
VFall to Pieces
p43
aVLeague of Strays
p44
aVThrough to You
p45
aVAll These Lives
p46
aVThe Suburban Strange
p47
aVSmashed
p48
aVThe Little Woods
p49
aVOut of Reach
p50
aVSend Me a Sign
p51
aVKiss the Morning Star
p52
aVTouching the Surface
p53
aVVelveteen
p54
aVMystique
p55
aVLive Through This
p56
aVThe Opposite of Hallelujah
p57
aVGetting Somewhere
p58
aVNever Eighteen
p59
aVThe Mapmaker and the Ghost
p60
asS'description'
p61
V<i>There\u2019s none so blind as they that won\u2019t see.</i><br /><br />Seventeen-year-old Tricia Farni\u2019s body floated to the surface of Alaska\u2019s Birch River six months after the night she disappeared. The night Roz Hart had a fight with her. The night Roz can\u2019t remember. Roz, who struggles with macular degeneration, is used to assembling fragments to make sense of the world around her. But this time it\u2019s her memory that needs piecing together\u2014to clear her name . . . to find a murderer.<br /><br />This unflinchingly emotional novel is written in the powerful first-person voice of a legally blind teen who just wants to be like everyone else.
p62
sS'format'
p63
VHardcover
p64
sS'gutenberg'
p65
(dp66
g30
Vhttp://www.gutenberg.org/ebooks/4920
p67
sS'num'
p68
I4920
ssS'authors'
p69
(lp70
I190
aI191
asS'pages'
p71
I336
sS'isbn13'
p72
V9780547763446
p73
sS'language'
p74
VEnglish
p75
sS'countries'
p76
(lp77
I2
asS'release_date'
p78
S'2004-01-01T00:00:00'
p79
sS'author'
p80
I190
sS'original_title'
p81
VThe Blind Spot
p82
sS'summary'
p83
VThe Blind Spot is a science fiction novel by American writers Austin Hall and Homer Eon Flint. The novel was originally serialized in six parts in the magazine Argosy beginning in May 1921. It was first published in book form in 1951 by Prime Press in an edition of 1,500 copies, though fewer than 800 were bound and the remainder are assumed lost. The sequel, The Spot of Life, was written by Hall alone.
p84
sS'content_cleaned'
p85
I00
sS'classes'
p86
(lp87
Vto-read
p88
aVyoung-adult
p89
aVmystery
p90
aVcontemporary
p91
aVya
p92
aVcurrently-reading
p93
aVwish-list
p94
aVarc
p95
aVrealistic-fiction
p96
aVthriller
p97
aV2012-release
p98
aVoctober-2012
p99
aVfavorites
p100
aVbooks-i-own
p101
aVfiction
p102
aVstand-alone
p103
aVromance
p104
aVnetgalley
p105
aVread-in-2012
p106
aVwant-to-read
p107
aVmaybe
p108
aV2012-releases
p109
aVcrime
p110
aVfor-review
p111
aVto-buy
p112
aVstand-alones
p113
aVlibrary
p114
aVya-books
p115
aVdnf
p116
aVebook
p117
aVmaybe-read
p118
aVmystery-thriller
p119
aVya-fiction
p120
aVapocalypsies
p121
aVreviewed
p122
aVmysteries
p123
aVi-own
p124
aVteen
p125
aVrealistic
p126
aVarcs
p127
aVwant
p128
aVmust-read
p129
aVdisability
p130
aVcrime-mystery
p131
aVnot-interested
p132
aVblind
p133
aVlost-interest
p134
aVto-read-maybe
p135
aVebooks
p136
aVamazon-vine
p137
aVto-download
p138
aVmurder
p139
aVparanormal
p140
aVoctober-2012-releases
p141
aVdeath
p142
aVblindness
p143
aVreally-want-to-read
p144
aV2012-publication
p145
aVbooks-i-want
p146
aVmaybe-reads
p147
aVsuspense-thriller
p148
aVcover-love
p149
aVnot-yet-released
p150
aVya-contemporary
p151
aV2012-debut-author-challenge
p152
aVdo-not-own
p153
aVdebut
p154
aVownvoices
p155
aVeh
p156
aVnovels
p157
aVbooks
p158
aVmurder-mystery
p159
aVfound
p160
aVmystery-suspense
p161
aVneed-to-buy
p162
aVarc-own
p163
aVmy-books
p164
aVdone
p165
aVhave-on-kindle
p166
aVtbr-2012
p167
aVmystery-thrillers
p168
aVe-book
p169
aVb
p170
aVdid-not-finish
p171
aVepub
p172
aVmy-library
p173
aVmodern
p174
aVcover-envy
p175
aVsingles
p176
aVwon
p177
aVthriller-suspense
p178
aVe
p179
aVebooks-i-own
p180
aVdownloaded
p181
aVhave
p182
aVsigned
p183
aV2012-reads
p184
aVread-2012
p185
aVthriller-mystery
p186
aVya-mystery
p187
asS'loc_class'
p188
VPS: Language and Literatures: American and Canadian literature
p189
sS'n_authors'
p190
I2
sb.