ccopy_reg
_reconstructor
p0
(cdataset.Book
Book
p1
c__builtin__
object
p2
Ntp3
Rp4
(dp5
S'content_name'
p6
V30322.txt.utf-8
p7
sS'isbn'
p8
NsS'year'
p9
I1961
sS'author_name'
p10
VTom Godwin
p11
sS'images_urls'
p12
(lp13
Vhttp://www.gutenberg.org/files/30322/30322-h/images/image_001_01.jpg
p14
aVhttp://www.gutenberg.org/files/30322/30322-h/images/image_001_02.jpg
p15
aVhttp://www.gutenberg.org/files/30322/30322-h/images/image_002.jpg
p16
aVhttp://www.gutenberg.org/files/30322/30322-h/images/image_003.jpg
p17
asS'language_code'
p18
Veng
p19
sS'images'
p20
(lp21
sS'id'
p22
I583
sS'category'
p23
VText
p24
sS'genres'
p25
(lp26
sS'copyright'
p27
VPublic domain in the USA.
p28
sS'title'
p29
VThe Helpful Hand of God
p30
sS'wikipedia'
p31
(dp32
S'found'
p33
I00
ssS'average_rating'
p34
F2.46
sS'rating_count'
p35
I10
sS'content_available'
p36
I01
sS'goodreads'
p37
(dp38
S'url'
p39
Vhttps://www.goodreads.com/book/show/10410170-the-helpful-hand-of-god
p40
sg33
I01
sS'year'
p41
I2010
ssS'similar_books'
p42
(lp43
sS'description'
p44
NsS'format'
p45
VKindle Edition
p46
sS'gutenberg'
p47
(dp48
g39
Vhttp://www.gutenberg.org/ebooks/30322
p49
sS'num'
p50
I30322
ssS'authors'
p51
(lp52
I39
asS'isbn13'
p53
NsS'language'
p54
VEnglish
p55
sS'countries'
p56
(lp57
I2
asS'release_date'
p58
S'2009-10-24T00:00:00'
p59
sS'author'
p60
I39
sS'content_cleaned'
p61
I01
sS'classes'
p62
(lp63
Vto-read
p64
aVcurrently-reading
p65
aV21st-century-lit
p66
aVshort-stories
p67
aVsci-fi
p68
aVpulp
p69
aVfiction
p70
aVscience-fiction-fantasy
p71
aVscifi
p72
aVnot-reviewed
p73
asS'loc_class'
p74
VPS: Language and Literatures: American and Canadian literature
p75
sS'n_authors'
p76
I1
sb.