ccopy_reg
_reconstructor
p0
(cdataset.Book
Book
p1
c__builtin__
object
p2
Ntp3
Rp4
(dp5
S'content_name'
p6
V50566.txt.utf-8
p7
sS'isbn'
p8
V0727841815
p9
sS'year'
p10
I1957
sS'author_name'
p11
VMarion Zimmer Bradley
p12
sS'images_urls'
p13
(lp14
Vhttp://www.gutenberg.org/files/50566/50566-h/images/cover.jpg
p15
asS'language_code'
p16
Veng
p17
sS'images'
p18
(lp19
sS'id'
p20
I169
sS'category'
p21
VText
p22
sS'genres'
p23
(lp24
sS'copyright'
p25
VPublic domain in the USA.
p26
sS'title'
p27
VFalcons of Narabedla
p28
sS'wikipedia'
p29
(dp30
S'url'
p31
Vhttps://en.wikipedia.org/wiki/Falcons_of_Narabedla
p32
sS'found'
p33
I01
sS'year'
p34
I-1
ssS'published_in'
p35
NsS'average_rating'
p36
F3.11
sS'rating_count'
p37
I139
sS'content_available'
p38
I01
sS'cover_art_url'
p39
S'http://www.gutenberg.org/cache/epub/50566/pg50566.cover.medium.jpg'
p40
sS'goodreads'
p41
(dp42
g31
Vhttps://www.goodreads.com/book/show/740510.Falcons_of_Narabedla
p43
sg33
I01
sg34
I1957
ssS'similar_books'
p44
(lp45
VThe Cloud Walker
p46
aVStrange Dreams
p47
aVGli incubi di Hazel
p48
aVSlipt
p49
aVPalace (The Pinch, #1)
p50
aVThe Earth Book of Stormgate
p51
aVThe Exiles Trilogy (Exiles, #1-3)
p52
aVThe Anvil of Ice (The Winter of the World, #1)
p53
aVBard
p54
aVThe Lost Prince (The Dark Border, #1)
p55
aVAppendices (The Lord of the Rings, #7)
p56
aVGolden Trillium (The Saga of the Trillium, #3)
p57
aVAsimov's Mysteries
p58
aVLizzie
p59
aVThe Alternate-Day Diet
p60
aVThe Saliva Tree and Other Strange Growths
p61
aVThe Dragon Masters
p62
aVPollution & the Death of Man
p63
asS'description'
p64
VMike Kenscott is having a really bad vacation. One minute he's camping in the Sierra Mountains with his brother Andy, and the next minute he's on a different world--or in a different time--or both. He's also in a different body. Now he's Adric, Lord of the Crimson Tower, of the Rainbow City of Narabedla. He has to cope with his fellow Narabedlans: the Dreamer Rhys, the mysterious veiled Gamine, the dwarf Idris, his brother Evarin the Toymaker (whose Toys are deadly), and Karamy, the golden witch, who is either his lover or his greatest enemy--with most of both his and Adric's memories gone, he's having trouble knowing what she is. Then there are the people outside the city, led by the man called Narayan. Mike/Adric knows that they are important to him, but he desperately needs to remember <i>why</i>.
p65
sS'gutenberg'
p66
(dp67
g31
Vhttp://www.gutenberg.org/ebooks/50566
p68
sS'num'
p69
I50566
ssS'authors'
p70
(lp71
I25
asS'isbn13'
p72
V9780727841810
p73
sS'language'
p74
VEnglish
p75
sS'countries'
p76
(lp77
I2
asS'release_date'
p78
S'2015-11-28T00:00:00'
p79
sS'author'
p80
I25
sS'original_title'
p81
VFalcons of Narabedla
p82
sS'summary'
p83
VFalcons of Narabedla is a science fiction novel by Marion Zimmer Bradley set in the universe of her Darkover series. It was first published in book form in English by Ace Books in 1964, as an Ace Double with Bradley's collection The Dark Intruder and Other Stories on the other side. The story first appeared in the May 1957 issue of the magazine Other Worlds.\u000aThe name "Narabedla" is the name of the star "Aldebaran" spelled backwards.\u000a\u000a
p84
sS'content_cleaned'
p85
I01
sS'classes'
p86
(lp87
Vto-read
p88
aVfantasy
p89
aVscience-fiction
p90
aVdefault
p91
aVsci-fi
p92
aVfiction
p93
aVmzb
p94
aVmarion-zimmer-bradley
p95
aVowned
p96
aVbooks-i-own
p97
aVebooks
p98
aVebook
p99
aVenglish
p100
aVphy-copy
p101
aVbooks
p102
aVe-books
p103
aVdarkover
p104
aVavailable
p105
aVseries
p106
aVscifi
p107
aVsf
p108
aVhave
p109
aVto-read-and-own
p110
aVon-pc-to-read
p111
aVbookcase-upstairs-1-top
p112
aVproject-gutenberg
p113
aVoff-world
p114
aVfantastic-sci-fi
p115
aVto-read-fantasy
p116
aVall
p117
aVshort-novella
p118
aVdigital
p119
aVarchivi
p120
aV2016-challenge-oldish
p121
aVdreaming-on-my-shelves
p122
aVscience-fiction-fantasy
p123
aVfantasy-to-read
p124
aVebook-pubic-domain
p125
aVgutenberg
p126
aVfiction-20th-century
p127
aVamerican-fiction
p128
aVb
p129
aV4-donated-after
p130
aVpg-finished
p131
aVbin-017
p132
aVpg-proofed
p133
aVsupernatural
p134
aVpublic-domain-misc
p135
aVpop-fic-scifi-fntsy
p136
aVform-short-story
p137
aVproofed-for-pg
p138
aVowned-but-not-read
p139
aVmine
p140
aVa-ipad
p141
aVg-sf-and-f
p142
aVb-scanned
p143
aVb-paperback
p144
aVb-own
p145
aVlit-american
p146
aVtbr
p147
aVfront-bedroom-bookcase
p148
aVdifferent-cover
p149
aVscifi-fantasy2
p150
aVscifi-mod
p151
aVscience-fantasy
p152
aVscifi-all
p153
aVfavorites
p154
aVon-disk
p155
aVce-tea
p156
aVlendable
p157
aVstefan
p158
aVb-authors
p159
aVread-in-2014
p160
aV1960s
p161
aVf-sf-horror
p162
aVowned-books
p163
aVamerican
p164
aVto-read-have-book
p165
aVi
p166
aVfantasy-and-sf
p167
aVbird-title-project
p168
aVserie
p169
aVsff
p170
aVbought-in-lokal-bookshops
p171
aVmy-personal-book-catalog
p172
aVi-read
p173
aVleon
p174
aVsci-fi-and-fantasy
p175
aVi-really-like-this-author
p176
aVkitchen
p177
aVletteratura
p178
aVfantastica
p179
aVil
p180
aVdi
p181
aVciclo
p182
aVzimmer-bradley
p183
aVto-buy
p184
aVhd
p185
aVadventure
p186
aVit-wikipedia
p187
asS'loc_class'
p188
S''
p189
sS'n_authors'
p190
I1
sb.