ccopy_reg
_reconstructor
p0
(cdataset.Book
Book
p1
c__builtin__
object
p2
Ntp3
Rp4
(dp5
S'content_name'
p6
V26957.txt.utf-8
p7
sS'isbn'
p8
NsS'year'
p9
I1959
sS'author_name'
p10
VRobert F. Young
p11
sS'images_urls'
p12
(lp13
Vhttp://www.gutenberg.org/files/26957/26957-page-images/p069.png
p14
aVhttp://www.gutenberg.org/files/26957/26957-page-images/p070.png
p15
aVhttp://www.gutenberg.org/files/26957/26957-page-images/p071.png
p16
aVhttp://www.gutenberg.org/files/26957/26957-page-images/p072.png
p17
aVhttp://www.gutenberg.org/files/26957/26957-page-images/p073.png
p18
asS'language_code'
p19
Veng
p20
sS'id'
p21
I586
sS'category'
p22
VText
p23
sS'genres'
p24
(lp25
sS'copyright'
p26
VPublic domain in the USA.
p27
sS'title'
p28
VStar Mother
p29
sS'wikipedia'
p30
(dp31
S'found'
p32
I00
ssS'average_rating'
p33
F3.19
sS'rating_count'
p34
I23
sS'content_available'
p35
I01
sS'goodreads'
p36
(dp37
S'url'
p38
Vhttps://www.goodreads.com/book/show/6280593-star-mother
p39
sS'found'
p40
I01
sS'year'
p41
I1959
ssS'similar_books'
p42
(lp43
sS'description'
p44
NsS'format'
p45
NsS'gutenberg'
p46
(dp47
g38
Vhttp://www.gutenberg.org/ebooks/26957
p48
sS'num'
p49
I26957
ssS'authors'
p50
(lp51
I153
asS'pages'
p52
I10
sS'isbn13'
p53
NsS'language'
p54
VEnglish
p55
sS'countries'
p56
(lp57
I2
asS'release_date'
p58
S'2008-10-18T00:00:00'
p59
sS'author'
p60
I153
sS'content_cleaned'
p61
I01
sS'classes'
p62
(lp63
Vto-read
p64
aVscience-fiction
p65
aVshort-story
p66
aVsci-fi
p67
aVowned
p68
aVaudiobooks
p69
aVbooks
p70
aV15
p71
aVaudio-obtained-lvss
p72
aVshort-stories
p73
aVebooks
p74
aV1950s
p75
aVscifi-and-horror
p76
aVeb-other
p77
aVeb
p78
aV3-ebooks
p79
aVsi-fi-fantasy
p80
aVpdfs
p81
aVtype-short-story
p82
aVaudio-obtained-ss
p83
aV3a-ebooks
p84
aVaudio-books
p85
asS'loc_class'
p86
VPS: Language and Literatures: American and Canadian literature
p87
sS'n_authors'
p88
I1
sb.