ccopy_reg
_reconstructor
p0
(cdataset.Book
Book
p1
c__builtin__
object
p2
Ntp3
Rp4
(dp5
S'content_name'
p6
V27248.txt.utf-8
p7
sS'isbn'
p8
V1606644033
p9
sS'year'
p10
I1932
sS'author_name'
p11
VPaul Ernst
p12
sS'images_urls'
p13
(lp14
Vhttp://www.gutenberg.org/files/27248/27248-h/images/001.png
p15
aVhttp://www.gutenberg.org/files/27248/27248-h/images/002-1.jpg
p16
aVhttp://www.gutenberg.org/files/27248/27248-h/images/002-2.jpg
p17
asS'language_code'
p18
NsS'id'
p19
I850
sS'category'
p20
VText
p21
sS'genres'
p22
(lp23
sS'copyright'
p24
VPublic domain in the USA.
p25
sS'title'
p26
VThe Raid on the Termites
p27
sS'wikipedia'
p28
(dp29
S'found'
p30
I00
ssS'average_rating'
p31
F3.1
sS'rating_count'
p32
I7
sS'content_available'
p33
I01
sS'goodreads'
p34
(dp35
S'url'
p36
Vhttps://www.goodreads.com/book/show/6779191-the-raid-on-the-termites
p37
sS'found'
p38
I01
sS'year'
p39
I1932
ssS'similar_books'
p40
(lp41
sS'description'
p42
V"You came just as I was about to try an experiment on the highest form of life I've yet exposed to my new rays," he said, striding toward the savage hound.<br /><br />The gathering mist rapidly occluded the dog, until the creature was concealed completely by the rolling vapor. But just before it disappeared, Jim saw that the fog seemed not to be gathering from the air penned up in the bell, but in some strange and rather awful way to be exuding "from the body of the dog itself!"<br /><br />At first, when the misty vapor cleared, there was no dog to be seen. Until Matt looked closely at the floor of the bell-space, and saw the canine reduced to the size of an insect. . . .
p43
sS'gutenberg'
p44
(dp45
g36
Vhttp://www.gutenberg.org/ebooks/27248
p46
sS'num'
p47
I27248
ssS'authors'
p48
(lp49
I201
asS'pages'
p50
I116
sS'isbn13'
p51
V9781606644034
p52
sS'language'
p53
VEnglish
p54
sS'countries'
p55
(lp56
I2
asS'release_date'
p57
S'2008-11-12T00:00:00'
p58
sS'author'
p59
I201
sS'cover'
p60
Vhttps://s.gr-assets.com/assets/nophoto/book/111x148-bcc042a9c91a29c1d680899eff700a03.png
p61
sS'content_cleaned'
p62
I01
sS'classes'
p63
(lp64
Vto-read
p65
aVhave-but-not-read
p66
aVscience-fiction
p67
aVowned-pending-kindle-free-ebook
p68
aVamerican
p69
aVcalibre
p70
aVfeedbooks-com
p71
aVpulp-era
p72
aVmicro-humans
p73
aVpublic-library
p74
aVfiction
p75
aVscience
p76
asS'loc_class'
p77
VPS: Language and Literatures: American and Canadian literature
p78
sS'n_authors'
p79
I1
sb.