ccopy_reg
_reconstructor
p0
(cdataset.Book
Book
p1
c__builtin__
object
p2
Ntp3
Rp4
(dp5
S'similar_books'
p6
(lp7
sS'genres'
p8
(lp9
sS'author'
p10
I918
sS'countries'
p11
(lp12
I2
asS'year'
p13
I1967
sS'title'
p14
VIF Magazine July 1967
p15
sS'cover'
p16
Vhttps://ia600206.us.archive.org/BookReader/BookReaderImages.php?zip=/6/items/1967-07_IF/1967-07_IF_jp2.zip&file=1967-07_IF_jp2/1967-07_IF_0000.jp2&scale=0&rotate=0
p17
sS'cover_art'
p18
S'http://www.isfdb.org/wiki/images/3/35/WOFIFJUL1967.jpg'
p19
sS'author_name'
p20
VIF Magazine
p21
sS'images_urls'
p22
(lp23
sS'authors'
p24
(lp25
I499
aI615
aI497
aI593
aI40
aI1125
aI549
aI111
aI1150
aI345
aI42
aI67
aI1151
aI918
asS'images'
p26
(lp27
sS'id'
p28
I1333
sS'contents'
p29
(lp30
(dp31
g10
I499
sg14
VThe Felled Star
p32
sa(dp33
g10
I615
sg14
VPopulation Implosion
p34
sa(dp35
g10
I497
sg14
VA Ticket to Zenner
p36
sa(dp37
g10
I497
sg14
VA Ticket to Zenner [2]
p38
sa(dp39
g10
I497
sg14
VA Ticket to Zenner [3]
p40
sa(dp41
g10
I497
sg14
VAdam's Eva
p42
sa(dp43
g10
I593
sg14
VSpaceman! (Part 3 of 3)
p44
sa(dp45
g10
I40
sg14
VWiped Out
p46
sa(dp47
g10
I1125
sg14
VThe Purpose of Fandom
p48
sa(dp49
g10
I40
sg14
VHue and Cry (If, July 1967)
p50
sa(dp51
g10
I549
sg14
VPopulation Implosion
p52
sa(dp53
g10
I111
sg14
VA Ticket to Zenner
p54
sa(dp55
g10
I1150
sg14
VAdam's Eva
p56
sa(dp57
g10
I345
sg14
VThe Tusk
p58
sa(dp59
g10
I42
sg14
VThe Felled Star (Part 1 of 2)
p60
sa(dp61
g10
I67
sg14
VSpaceman! (Part 3 of 3)
p62
sa(dp63
g10
I1151
sg14
VPelandra's Husbands
p64
sasb.