ccopy_reg
_reconstructor
p0
(cdataset.Book
Book
p1
c__builtin__
object
p2
Ntp3
Rp4
(dp5
S'content_name'
p6
V50449.txt.utf-8
p7
sS'isbn'
p8
V1479420417
p9
sS'year'
p10
I1959
sS'author_name'
p11
VStephen Marlowe
p12
sS'images_urls'
p13
(lp14
Vhttp://www.gutenberg.org/files/50449/50449-h/images/cover.jpg
p15
asS'language_code'
p16
NsS'images'
p17
(lp18
sS'id'
p19
I819
sS'category'
p20
VText
p21
sS'genres'
p22
(lp23
sS'copyright'
p24
VPublic domain in the USA.
p25
sS'title'
p26
VRecruit for Andromeda
p27
sS'wikipedia'
p28
(dp29
S'found'
p30
I00
ssS'average_rating'
p31
F3.25
sS'rating_count'
p32
I0
sS'content_available'
p33
I01
sS'cover_art_url'
p34
S'http://www.gutenberg.org/cache/epub/50449/pg50449.cover.medium.jpg'
p35
sS'goodreads'
p36
(dp37
S'url'
p38
S'https://www.goodreads.com/book/show/29515678-recruit-for-andromeda'
p39
sS'found'
p40
I01
ssS'similar_books'
p41
(lp42
sS'description'
p43
VWhen Kit Temple is drafted for the Nowhere Journey, he figures that he'll leave his home, his girl, and the Earth for good. For although the draftees are always promised "rotation," not a man has ever returned from that mysterious flight into the unknown. Kit's fellow-draftee Arkalion, the young man with the strange, old-man eyes, seems to know more than he should. So when Kit twists the tail of fate and follows Arkalion to the ends of space and time, he finds the secret behind "Nowhere" -- and a personal challenge upon which the entire future of Earth depends!
p44
sS'gutenberg'
p45
(dp46
S'url'
p47
Vhttp://www.gutenberg.org/ebooks/50449
p48
sS'num'
p49
I50449
ssS'authors'
p50
(lp51
I79
asS'pages'
p52
I92
sS'isbn13'
p53
V9781479420414
p54
sS'language'
p55
VEnglish
p56
sS'countries'
p57
(lp58
I2
asS'release_date'
p59
S'2015-11-13T00:00:00'
p60
sS'author'
p61
I79
sS'cover'
p62
Vhttps://s.gr-assets.com/assets/nophoto/book/111x148-bcc042a9c91a29c1d680899eff700a03.png
p63
sS'content_cleaned'
p64
I01
sS'classes'
p65
(lp66
Vto-read
p67
aVscience-fiction
p68
aVcurrently-reading
p69
aVsci-fi-fantasy
p70
aV20th-century-lit
p71
aVundgrad-15-17-tamu
p72
aVpleasure
p73
aVpublic-domain
p74
aV2015-challenge-oldish
p75
aVscifi
p76
aVunread
p77
aVfiction
p78
aVcover-art-collection
p79
aVace-doubles
p80
asS'loc_class'
p81
S''
p82
sS'n_authors'
p83
I1
sb.