ccopy_reg
_reconstructor
p0
(cdataset.Book
Book
p1
c__builtin__
object
p2
Ntp3
Rp4
(dp5
S'content_name'
p6
V29133.txt.utf-8
p7
sS'isbn'
p8
NsS'year'
p9
I1954
sS'author_name'
p10
VEando Binder
p11
sS'images_urls'
p12
(lp13
Vhttp://www.gutenberg.org/files/29133/29133-h/images/001-1.jpg
p14
aVhttp://www.gutenberg.org/files/29133/29133-h/images/001-2.jpg
p15
asS'language_code'
p16
NsS'images'
p17
(lp18
sS'id'
p19
I287
sS'category'
p20
VText
p21
sS'genres'
p22
(lp23
sS'copyright'
p24
VPublic domain in the USA.
p25
sS'title'
p26
VShipwreck in the Sky
p27
sS'wikipedia'
p28
(dp29
S'found'
p30
I00
ssS'average_rating'
p31
F2.97
sS'rating_count'
p32
I26
sS'content_available'
p33
I01
sS'goodreads'
p34
(dp35
S'url'
p36
Vhttps://www.goodreads.com/book/show/8544753-shipwreck-in-the-sky
p37
sg30
I01
sS'year'
p38
I1954
ssS'similar_books'
p39
(lp40
sS'description'
p41
NsS'gutenberg'
p42
(dp43
g36
Vhttp://www.gutenberg.org/ebooks/29133
p44
sS'num'
p45
I29133
ssS'authors'
p46
(lp47
I92
asS'isbn13'
p48
NsS'language'
p49
VEnglish
p50
sS'countries'
p51
(lp52
I2
asS'release_date'
p53
S'2009-06-15T00:00:00'
p54
sS'author'
p55
I92
sS'content_cleaned'
p56
I01
sS'classes'
p57
(lp58
Vto-read
p59
aVscience-fiction
p60
aVshort-stories
p61
aVsci-fi
p62
aVkindle
p63
aVowned
p64
aVshorts
p65
aVshort-story
p66
aVaudio-obtained-lvss
p67
aVread-2015
p68
aVsf-fantasy
p69
aV1950s
p70
aV13
p71
aVbinder-eando
p72
aVe-book
p73
aVtype-short-story
p74
aVaudio-obtained-ss
p75
asS'loc_class'
p76
VPS: Language and Literatures: American and Canadian literature
p77
sS'n_authors'
p78
I1
sb.