ccopy_reg
_reconstructor
p0
(cdataset.Book
Book
p1
c__builtin__
object
p2
Ntp3
Rp4
(dp5
S'content_name'
p6
V26093.txt.utf-8
p7
sS'isbn'
p8
NsS'year'
p9
I1961
sS'author_name'
p10
VRaymond F. Jones
p11
sS'images_urls'
p12
(lp13
Vhttp://www.gutenberg.org/files/26093/26093-h/images/001.png
p14
aVhttp://www.gutenberg.org/files/26093/26093-h/images/002.png
p15
asS'language_code'
p16
NsS'images'
p17
(lp18
sS'id'
p19
I793
sS'category'
p20
VText
p21
sS'genres'
p22
(lp23
sS'copyright'
p24
VPublic domain in the USA.
p25
sS'title'
p26
VThe Memory of Mars
p27
sS'wikipedia'
p28
(dp29
S'found'
p30
I00
ssS'average_rating'
p31
F3.64
sS'rating_count'
p32
I8
sS'content_available'
p33
I01
sS'goodreads'
p34
(dp35
S'url'
p36
Vhttps://www.goodreads.com/book/show/6395122-the-memory-of-mars
p37
sg30
I01
sS'year'
p38
I1961
ssS'similar_books'
p39
(lp40
sS'description'
p41
V"As soon as I'm well we'll go to Mars for a vacation again," Alice would say. But now she was dead, and the surgeons said she was not even human. In his misery, Hastings knew two things: he loved his wife; but they had never been off Earth!<br /><br />A novelet from the Golden Age of Science Fiction, originally published in the December, 1961 issue of Amazing Stories magazine!
p42
sS'format'
p43
NsS'gutenberg'
p44
(dp45
g36
Vhttp://www.gutenberg.org/ebooks/26093
p46
sS'num'
p47
I26093
ssS'authors'
p48
(lp49
I129
asS'isbn13'
p50
NsS'language'
p51
VEnglish
p52
sS'country'
p53
I3
sS'release_date'
p54
S'2008-07-19T00:00:00'
p55
sS'author'
p56
I129
sS'content_cleaned'
p57
I01
sS'classes'
p58
(lp59
Vto-read
p60
aVcurrently-reading
p61
aVto-read-short-stories
p62
aVreviewed
p63
aVsci-fi-fantasy
p64
aVshort-fiction
p65
aV20th-century
p66
aVold-sci-fi
p67
aVunread
p68
aVsci-fi
p69
aVpulp
p70
aVebooks
p71
aVscience-fiction
p72
aVeb-other
p73
aVeb
p74
aVfeedbooks-com
p75
asS'loc_class'
p76
VPS: Language and Literatures: American and Canadian literature
p77
sS'n_authors'
p78
I1
sb.