ccopy_reg
_reconstructor
p0
(cdataset.Book
Book
p1
c__builtin__
object
p2
Ntp3
Rp4
(dp5
S'content_name'
p6
V51603.txt.utf-8
p7
sS'isbn'
p8
V1582430543
p9
sS'year'
p10
I1989
sS'author_name'
p11
VR. A. Lafferty
p12
sS'images_urls'
p13
(lp14
Vhttp://www.gutenberg.org/files/51603/51603-h/images/cover.jpg
p15
aVhttp://www.gutenberg.org/files/51603/51603-h/images/illus.jpg
p16
asS'language_code'
p17
Veng
p18
sS'images'
p19
(lp20
sS'id'
p21
I433
sS'category'
p22
VText
p23
sS'plot'
p24
V
p25
sS'genres'
p26
(lp27
sS'copyright'
p28
VPublic domain in the USA.
p29
sS'title'
p30
VAll The People
p31
sS'wikipedia'
p32
(dp33
S'url'
p34
Vhttps://en.wikipedia.org/wiki/Blackout/All_Clear
p35
sS'found'
p36
I01
sS'year'
p37
I-1
ssS'published_in'
p38
NsS'average_rating'
p39
F3.61
sS'rating_count'
p40
I1401
sS'content_available'
p41
I01
sS'cover_art_url'
p42
S'http://www.gutenberg.org/cache/epub/51603/pg51603.cover.medium.jpg'
p43
sS'goodreads'
p44
(dp45
g34
Vhttps://www.goodreads.com/book/show/12537.All_New_People
p46
sg36
I01
sg37
I1989
ssS'similar_books'
p47
(lp48
VThe Rise of Life on Earth
p49
aVFather Melancholy's Daughter
p50
aVHeart, You Bully, You Punk
p51
aVThe All of It
p52
aVAwakenings / A Leg to Stand On / The Man Who Mistook his Wife for a Hat / Seeing Voices
p53
aVMatrimony
p54
aVThe Horizontal World: Growing Up Wild in the Middle of Nowhere: a Memoir
p55
aVPro-Life Answers to Pro-Choice Arguments Expanded & Updated
p56
aVCreating a Class: College Admissions and the Education of Elites
p57
aVThe Handyman
p58
aVA Dangerous Woman
p59
aVThe Hour of the Time
p60
aVEternal Echoes: Celtic Reflections on Our Yearning to Belong
p61
aVAppetite for Detention
p62
aVContemplative Youth Ministry: Practicing the Presence of Jesus
p63
aVBy the Shore
p64
aVJamesland
p65
aVAt Weddings and Wakes
p66
asS'description'
p67
VWith generosity, humor, and pathos, Anne Lamott takes on the barrage of dislocating changes that shook the Sixties. Leading us through the wake of these changes is Nanny Goodman, one small girl living in Marin County, California. A half-adult child among often childish adults, Nanny grows up with two spectacularly odd parents: a writer father and a mother who is a constant source of material. As Nanny moves into her adolescence, so, it seems, does America. While grappling with her own coming-of-age, Nanny witnesses an entire culture's descent into drugs, the mass exodus of fathers from her town, and rapid real-estate and technological development that foreshadow a drastically different future. In All New People, Anne Lamott works a special magic, transforming failure into forgiveness and illuminating the power of love to redeem us.
p68
sS'format'
p69
NsS'gutenberg'
p70
(dp71
g34
Vhttp://www.gutenberg.org/ebooks/51603
p72
sS'num'
p73
I51603
ssS'authors'
p74
(lp75
I74
asS'isbn13'
p76
V9781582430546
p77
sS'language'
p78
VEnglish
p79
sS'release_date'
p80
S'2016-03-30T00:00:00'
p81
sS'author'
p82
I74
sS'original_title'
p83
VBlackout/All Clear
p84
sS'summary'
p85
VBlackout and All Clear are the two volumes that comprise a 2010 science fiction novel by American author Connie Willis. Blackout was published February 2, 2010 by Spectra. The second part, the conclusion All Clear, was released as a separate book on October 19, 2010. The diptych won the 2010 Nebula Award for Best Novel, the 2011 Locus Award for Best Science Fiction Novel, and the 2011 Hugo Award for Best Novel. These two volumes are the most recent of four books and a short story that Willis has written involving time travel from Oxford during the mid 21st century.
p86
sS'content_cleaned'
p87
I01
sS'classes'
p88
(lp89
Vto-read
p90
aVfiction
p91
aVcurrently-reading
p92
aVcontemporary-fiction
p93
aVgeneral-fiction
p94
aVnovel
p95
aVown-it
p96
aVanne-lamott
p97
aVcalifornia
p98
aVnovels
p99
aVlamott
p100
aVliterary-fiction
p101
aVwish-list
p102
aVowned
p103
aVcontemporary
p104
aVmeh
p105
aVlibrary
p106
aVgrowth
p107
aVbooks-i-own
p108
aVfavorites
p109
aVwomen
p110
aVadult-fiction
p111
aVabandoned
p112
aVhere
p113
aVwell-read-heads
p114
aVown-to-read
p115
aVread-in-2017
p116
aVdefault
p117
aVown-but-have-not-read
p118
aVmy-library-books
p119
aV2017-summer-reads-vogue-list
p120
aVrecommended-by-linda-hoff
p121
aVnot-interested
p122
aVpartly-read
p123
aVspirituality
p124
aVamerican
p125
aVmy-library
p126
aVebook
p127
aVphysical-books
p128
aVto-read-in-2017
p129
aVscrewed-up-families
p130
aVfamily
p131
aVdrama
p132
aVcoming-of-age
p133
aV5-star-books
p134
aVrensing-center
p135
aVbook-book
p136
aVgood-news-book-club
p137
aVsurfeit
p138
aVwomen-s-fiction
p139
aVwant-to-re-read
p140
aVadult-non-juv
p141
aVsixties
p142
aVshelfari-favorites
p143
aVshelfari-wishlist
p144
aVmemoir
p145
aVdeep
p146
aVre-reads
p147
aVread-in-my-angsty-20s
p148
aVmemoirs
p149
aVamber
p150
aVread-in-2001
p151
aVto-read-novels
p152
aVstorage-bin
p153
aVall-stuff
p154
aVno-thank-you
p155
aVmy-personal-library
p156
aVfiction-to-read
p157
aVdevelopment
p158
aVbook-club-suggestions
p159
aVthe-best
p160
aVjen-to-read
p161
aVfavorite-reccomendations
p162
aVinterest
p163
aVread-some-but-didn-t-finish
p164
aVon-my-bookshelf
p165
aVnon-library
p166
aVown-but-havent-read
p167
aVin-both-delco-montco-libraries
p168
aVauthors-of-whom-i-ve-read-other-wri
p169
aVowned-paper
p170
aVc5
p171
aVbelcher-library
p172
aVto-re-read
p173
aVread-2014
p174
aVdeadtree
p175
aVnon-fiction-to-read
p176
aVwithdrawn
p177
aV2001-reads
p178
aVown-a-copy
p179
aVread-long-ago
p180
aVbest-of-1960s
p181
aVlibrary-books
p182
aVliterary-and-classics
p183
aVfestival-2014
p184
aVown-literature
p185
aVpleasure
p186
aVbox-in-attic
p187
aVfaith-in-general
p188
aVon-my-shelf
p189
asS'loc_class'
p190
S''
p191
sS'n_authors'
p192
I1
sb.