ccopy_reg
_reconstructor
p0
(cdataset.Book
Book
p1
c__builtin__
object
p2
Ntp3
Rp4
(dp5
S'content_name'
p6
V25166.txt.utf-8
p7
sS'isbn'
p8
NsS'year'
p9
I1960
sS'author_name'
p10
VRandall Garrett
p11
sS'images_urls'
p12
(lp13
Vhttp://www.gutenberg.org/files/25166/25166-h/images/img-15a.png
p14
aVhttp://www.gutenberg.org/files/25166/25166-h/images/img-15b.png
p15
aVhttp://www.gutenberg.org/files/25166/25166-h/images/img-24.png
p16
aVhttp://www.gutenberg.org/files/25166/25166-h/images/img-title.png
p17
aVhttp://www.gutenberg.org/files/25166/25166-page-images/p0008-image.png
p18
aVhttp://www.gutenberg.org/files/25166/25166-page-images/p0008.png
p19
aVhttp://www.gutenberg.org/files/25166/25166-page-images/p0009-image.png
p20
aVhttp://www.gutenberg.org/files/25166/25166-page-images/p0009.png
p21
aVhttp://www.gutenberg.org/files/25166/25166-page-images/p0010.png
p22
aVhttp://www.gutenberg.org/files/25166/25166-page-images/p0011.png
p23
aVhttp://www.gutenberg.org/files/25166/25166-page-images/p0012.png
p24
aVhttp://www.gutenberg.org/files/25166/25166-page-images/p0013.png
p25
aVhttp://www.gutenberg.org/files/25166/25166-page-images/p0014.png
p26
aVhttp://www.gutenberg.org/files/25166/25166-page-images/p0015-image1.png
p27
aVhttp://www.gutenberg.org/files/25166/25166-page-images/p0015-image2.png
p28
aVhttp://www.gutenberg.org/files/25166/25166-page-images/p0015.png
p29
aVhttp://www.gutenberg.org/files/25166/25166-page-images/p0016.png
p30
aVhttp://www.gutenberg.org/files/25166/25166-page-images/p0017.png
p31
aVhttp://www.gutenberg.org/files/25166/25166-page-images/p0018.png
p32
aVhttp://www.gutenberg.org/files/25166/25166-page-images/p0019.png
p33
aVhttp://www.gutenberg.org/files/25166/25166-page-images/p0020.png
p34
aVhttp://www.gutenberg.org/files/25166/25166-page-images/p0021.png
p35
aVhttp://www.gutenberg.org/files/25166/25166-page-images/p0022.png
p36
aVhttp://www.gutenberg.org/files/25166/25166-page-images/p0023.png
p37
aVhttp://www.gutenberg.org/files/25166/25166-page-images/p0024-image.png
p38
aVhttp://www.gutenberg.org/files/25166/25166-page-images/p0024.png
p39
aVhttp://www.gutenberg.org/files/25166/25166-page-images/p0025.png
p40
aVhttp://www.gutenberg.org/files/25166/25166-page-images/p0026.png
p41
aVhttp://www.gutenberg.org/files/25166/25166-page-images/p0027.png
p42
aVhttp://www.gutenberg.org/files/25166/25166-page-images/p0028.png
p43
aVhttp://www.gutenberg.org/files/25166/25166-page-images/p0029.png
p44
aVhttp://www.gutenberg.org/files/25166/25166-page-images/p0030.png
p45
aVhttp://www.gutenberg.org/files/25166/25166-page-images/p0031.png
p46
aVhttp://www.gutenberg.org/files/25166/25166-page-images/p0032.png
p47
asS'language_code'
p48
NsS'images'
p49
(lp50
sS'id'
p51
I450
sS'category'
p52
VText
p53
sS'genres'
p54
(lp55
sS'copyright'
p56
VPublic domain in the USA.
p57
sS'title'
p58
VWhat The Left Hand Was Doing
p59
sS'wikipedia'
p60
(dp61
S'found'
p62
I00
ssS'average_rating'
p63
F3.25
sS'rating_count'
p64
I5
sS'content_available'
p65
I01
sS'cover_art_url'
p66
S'http://www.gutenberg.org/cache/epub/25166/pg25166.cover.medium.jpg'
p67
sS'goodreads'
p68
(dp69
S'url'
p70
Vhttps://www.goodreads.com/book/show/5454699-what-the-left-hand-was-doing
p71
sg62
I01
sS'year'
p72
I1960
ssS'similar_books'
p73
(lp74
sS'description'
p75
NsS'format'
p76
NsS'gutenberg'
p77
(dp78
g70
Vhttp://www.gutenberg.org/ebooks/25166
p79
sS'num'
p80
I25166
ssS'authors'
p81
(lp82
I49
asS'isbn13'
p83
NsS'language'
p84
VEnglish
p85
sS'country'
p86
I3
sS'release_date'
p87
S'2008-04-25T00:00:00'
p88
sS'author'
p89
I49
sS'content_cleaned'
p90
I01
sS'classes'
p91
(lp92
Vto-read
p93
aVebook
p94
aVjunk
p95
aVfree-from-amazon
p96
aVclassic
p97
aVshort-stories
p98
aVshould-try-to-read
p99
aVfiction
p100
aVscience-fiction
p101
aV13
p102
aVebooks
p103
aVlibrary
p104
asS'loc_class'
p105
VPS: Language and Literatures: American and Canadian literature
p106
sS'n_authors'
p107
I1
sb.