ccopy_reg
_reconstructor
p0
(cdataset.Book
Book
p1
c__builtin__
object
p2
Ntp3
Rp4
(dp5
S'content_name'
p6
V30742.txt.utf-8
p7
sS'isbn'
p8
NsS'year'
p9
I1963
sS'author_name'
p10
VRandall Garrett
p11
sS'images_urls'
p12
(lp13
Vhttp://www.gutenberg.org/files/30742/30742-h/images/image_001.jpg
p14
aVhttp://www.gutenberg.org/files/30742/30742-h/images/image_002.jpg
p15
aVhttp://www.gutenberg.org/files/30742/30742-h/images/image_003.jpg
p16
aVhttp://www.gutenberg.org/files/30742/30742-h/images/image_004_01.jpg
p17
aVhttp://www.gutenberg.org/files/30742/30742-h/images/image_004_02.jpg
p18
aVhttp://www.gutenberg.org/files/30742/30742-h/images/image_005.jpg
p19
aVhttp://www.gutenberg.org/files/30742/30742-h/images/image_006.jpg
p20
aVhttp://www.gutenberg.org/files/30742/30742-h/images/image_007.jpg
p21
aVhttp://www.gutenberg.org/files/30742/30742-h/images/image_008.jpg
p22
aVhttp://www.gutenberg.org/files/30742/30742-h/images/image_009.jpg
p23
asS'language_code'
p24
Veng
p25
sS'id'
p26
I854
sS'category'
p27
VText
p28
sS'genres'
p29
(lp30
sS'copyright'
p31
VPublic domain in the USA.
p32
sS'title'
p33
VAnything You Can Do!
p34
sS'wikipedia'
p35
(dp36
S'found'
p37
I00
ssS'average_rating'
p38
F4.0
sS'rating_count'
p39
I5311
sS'content_available'
p40
I01
sS'goodreads'
p41
(dp42
S'url'
p43
Vhttps://www.goodreads.com/book/show/33037374-anything-you-can-do
p44
sS'found'
p45
I01
sS'year'
p46
I2017
ssS'similar_books'
p47
(lp48
sS'description'
p49
VLucas Thatcher has always been my enemy.<br /><br />It\u2019s been a decade since I\u2019ve seen him, but our years on opposite coasts were less of a lasting peace and more of a temporary cease-fire. Now that we\u2019re both back in our small town, I know Lucas expects the same old war, but I\u2019ve changed since high school\u2014and from the looks of it, so has he.<br /><br />The arrogant boy who was my teenage rival is now a chiseled doctor armed with intimidating good looks. He is Lucas Thatcher 2.0, the new and improved version I\u2019ll be competing with in the workplace instead of the schoolyard.<br /><br />I\u2019m not worried; I\u2019m a doctor now too, board-certified and sexy in a white coat. It almost feels like winning will be too easy\u2014until Lucas unveils a tactic neither of us has ever used before: sexual warfare.<br /><br />The day he pushes me up against the wall and presses his lips to mine, I can\u2019t help but wonder if he\u2019s filling me with passion or poison. Every fleeting touch is perfect torture. With every stolen kiss, my walls crumble a little more. After all this time, Lucas knows exactly how to strip me of my defenses, but I\u2019m in no hurry to surrender.<br /><br />Knowing thy enemy has never felt so good.
p50
sS'format'
p51
NsS'gutenberg'
p52
(dp53
g43
Vhttp://www.gutenberg.org/ebooks/30742
p54
sS'num'
p55
I30742
ssS'authors'
p56
(lp57
I49
asS'pages'
p58
I247
sS'isbn13'
p59
NsS'language'
p60
VEnglish
p61
sS'countries'
p62
(lp63
I2
asS'release_date'
p64
S'2009-12-23T00:00:00'
p65
sS'author'
p66
I49
sS'content_cleaned'
p67
I01
sS'classes'
p68
(lp69
Vto-read
p70
aVcurrently-reading
p71
aVromance
p72
aVcontemporary
p73
aVfavorites
p74
aVcontemporary-romance
p75
aVenemies-to-lovers
p76
aVnew-adult
p77
aVkindle-unlimited
p78
aVfunny
p79
aVread-in-2017
p80
aVkindle
p81
aVchick-lit
p82
aVread-2017
p83
aVadult
p84
aVstandalone
p85
aVlove-hate
p86
aV2017-reads
p87
aVarc
p88
aVdnf
p89
aVoffice-romance
p90
aV2017-read
p91
aV2017-releases
p92
aVhilarious
p93
aVromantic-comedy
p94
aVstand-alone
p95
aVrom-com
p96
aVebook
p97
aV4-stars
p98
aVfavourites
p99
aVhate-to-love
p100
aVlol
p101
aVbook-boyfriends
p102
aVbook-boyfriend
p103
aVhumor
p104
aVsteamy
p105
aVcute
p106
aVebooks
p107
aVna
p108
aVfebruary-2017
p109
aVfavorite
p110
aVlaugh-out-loud
p111
aVcomedy
p112
aVlove-hate-relationship
p113
aVhea
p114
aVsmall-town
p115
aVfiction
p116
aVe-book
p117
aV3-stars
p118
aVhumour
p119
aVreviewed
p120
aVmade-me-laugh
p121
aVfriends-to-lovers
p122
aV2017-release
p123
aVread-in-english
p124
aV2017-books
p125
aVadult-fiction
p126
aVowned
p127
aVkindle-books
p128
aVnext
p129
aV5-stars
p130
aVdoctor
p131
aV4-5-stars
p132
aVto-buy
p133
aVdoctors
p134
aVfunny-as-hell
p135
aVcould-not-put-down
p136
aVdid-not-finish
p137
aVku
p138
aVfun
p139
aVfunny-romance
p140
aV2017-favorites
p141
aVarcs
p142
aVfebruary
p143
aVmaybe
p144
aVfeb-2017
p145
aVfavorite-authors
p146
aV4-star
p147
aVlmao
p148
aVdownloaded
p149
aVadult-romance
p150
aVloved
p151
aV1st-person-pov
p152
aV2017-reading-challenge
p153
aVe-books
p154
aVenglish
p155
aVwitty
p156
aVfaves
p157
aVhaters-to-lovers
p158
aVannoying-heroine
p159
aVsecond-chance
p160
aVmeh
p161
aVgenre-contemporary-romance
p162
aVsweet
p163
aVdual-pov
p164
aValpha-male
p165
aV5-star
p166
aVwork
p167
aVloved-it
p168
aVon-kindle
p169
asS'loc_class'
p170
VPS: Language and Literatures: American and Canadian literature
p171
sS'n_authors'
p172
I1
sb.