ccopy_reg
_reconstructor
p0
(cdataset.Book
Book
p1
c__builtin__
object
p2
Ntp3
Rp4
(dp5
S'content_name'
p6
V50441.txt.utf-8
p7
sS'isbn'
p8
V0586045635
p9
sS'year'
p10
I1957
sS'author_name'
p11
VRobert Silverberg
p12
sS'images_urls'
p13
(lp14
Vhttp://www.gutenberg.org/files/50441/50441-h/images/cover.jpg
p15
asS'language_code'
p16
NsS'id'
p17
I208
sS'category'
p18
VText
p19
sS'genres'
p20
(lp21
sS'copyright'
p22
VPublic domain in the USA.
p23
sS'title'
p24
VMaster of Life and Death
p25
sS'wikipedia'
p26
(dp27
S'found'
p28
I00
ssS'average_rating'
p29
F3.53
sS'rating_count'
p30
I81
sS'content_available'
p31
I01
sS'cover_art_url'
p32
S'http://www.gutenberg.org/cache/epub/50441/pg50441.cover.medium.jpg'
p33
sS'goodreads'
p34
(dp35
S'url'
p36
Vhttps://www.goodreads.com/book/show/2373949.Master_Of_Life_And_Death
p37
sS'found'
p38
I01
sS'year'
p39
I1957
ssS'similar_books'
p40
(lp41
sS'description'
p42
NsS'gutenberg'
p43
(dp44
g36
Vhttp://www.gutenberg.org/ebooks/50441
p45
sS'num'
p46
I50441
ssS'authors'
p47
(lp48
I50
asS'pages'
p49
I144
sS'isbn13'
p50
V9780586045633
p51
sS'language'
p52
VEnglish
p53
sS'countries'
p54
(lp55
I2
asS'release_date'
p56
S'2015-11-12T00:00:00'
p57
sS'author'
p58
I50
sS'content_cleaned'
p59
I01
sS'classes'
p60
(lp61
Vto-read
p62
aVscience-fiction
p63
aVsci-fi
p64
aVfiction
p65
aVowned
p66
aVsf
p67
aVscifi
p68
aVcurrently-reading
p69
aVe-books
p70
aVdefault
p71
aVscience-fiction-fantasy
p72
aVnot-read
p73
aVunread
p74
aVfantasy
p75
aVfantascienza
p76
aVon-calibre-to-read
p77
aVtoo-few-ratings
p78
aVunread-owned
p79
aVkindle-version
p80
aVinterested
p81
aVfree-books
p82
aVlibrary
p83
aVebooks
p84
aVkindle-freebie-orm
p85
aVz-lg-en
p86
aVfreebies
p87
aVbk-on-kindle
p88
aVunread-kindle-fiction
p89
aVwobble
p90
aV16-09-haul
p91
aVfavorites
p92
aVbook-challenge-2016
p93
aVfree-ebooks
p94
aVkindle-owned
p95
aVto-read-ebook
p96
aVwish-list
p97
aVoeko-thriller
p98
aVdystopie
p99
aVon-kindle
p100
aVcould-read
p101
aVto-read-unrated
p102
aVsci-fi-read-box-r2
p103
aVcollection
p104
aVrobert-silverberg
p105
aV_ita
p106
aVpaperback
p107
aVcover-art-collection
p108
aVace-doubles
p109
aVread-in-2014
p110
aVsff
p111
aVepub
p112
aVfantasy-sf
p113
aVtaggare
p114
aVauthor-s
p115
aVread-2014
p116
aVnotebook
p117
aVe-book
p118
aVian-s-books
p119
aVp-mass-mkt-paperback
p120
aVall-paper
p121
aVebook
p122
aVclassics
p123
aVurania
p124
aVsf-fantasy-i-own
p125
aVpaper
p126
aVhd
p127
aVpublished-1951-1960
p128
aVclassici-urania
p129
aVpulp
p130
aVchecked
p131
aVs-f
p132
aVsf-fantasy
p133
aVsilverberg
p134
aVunfiltered
p135
aVread-in-1999
p136
aVmaybe
p137
aVbeckys-books
p138
aVpulp-sf
p139
aVsci-fi-fantasy
p140
aVown--not-read
p141
aVscifa
p142
aVto-read-owned
p143
asS'loc_class'
p144
S''
p145
sS'n_authors'
p146
I1
sb.