ccopy_reg
_reconstructor
p0
(cdataset.Book
Book
p1
c__builtin__
object
p2
Ntp3
Rp4
(dp5
S'content_name'
p6
V24278.txt.utf-8
p7
sS'isbn'
p8
NsS'year'
p9
I1991
sS'author_name'
p10
VTom Purdom
p11
sS'images_urls'
p12
(lp13
Vhttp://www.gutenberg.org/files/24278/24278-h/images/image_01.jpg
p14
aVhttp://www.gutenberg.org/files/24278/24278-h/images/image_02.jpg
p15
asS'language_code'
p16
Ven-US
p17
sS'images'
p18
(lp19
sS'id'
p20
I776
sS'category'
p21
VText
p22
sS'genres'
p23
(lp24
sS'copyright'
p25
VPublic domain in the USA.
p26
sS'title'
p27
VThe Green Beret
p28
sS'wikipedia'
p29
(dp30
S'found'
p31
I00
ssS'average_rating'
p32
F3.9
sS'rating_count'
p33
I533
sS'content_available'
p34
I01
sS'goodreads'
p35
(dp36
S'url'
p37
Vhttps://www.goodreads.com/book/show/11010115-eyes-of-the-hammer
p38
sg31
I01
sS'year'
p39
I1991
ssS'similar_books'
p40
(lp41
VHide and Seek (Sgt. Major Eric Moyer, #4)
p42
aVHunter (Dylan Hunter #1)
p43
aVMAC WALKER'S BENGHAZI:  The Complete Collection
p44
aVA Pious Killing (A Sean Colquhoun Adventure)
p45
aVThe Ajax Protocol (The Project, #7)
p46
aVThe Girl He Knows (No Strings Attached, #1)
p47
aVWith His Lady's Assistance (The Regent Mysteries, #1)
p48
aVUntying the Knot
p49
aVSuperbia (Superbia #1)
p50
aVTalon: Combat Tracking Team (A Breed Apart, #2)
p51
aVOverture to Disaster (Post Cold War Political Thriller Trilogy)
p52
aVThe Last Airship (Sam Reilly #1)
p53
aVSuperior Storm (Lake Superior Mysteries)
p54
aVThe Spider Inside
p55
aVPRIMAL Mirza (A PRIMAL Series Novella)
p56
aVThe Dig (Pike Logan #1.5)
p57
aVDeadly Crossing (Tom Dugan #3)
p58
aVSoundkeeper (Hall McCormick Thriller, #1)
p59
asS'description'
p60
VFrom NY Times Bestselling Author, Amazon top 25 Author, former Green Beret and West Point Graduate, Bob Mayer. <br /><br />What if US Army Green Berets led by Dave Riley must take on not only criminal drug traffickers but also betray their own government? <br /><br />A US Army Special Forces team carrying sterilized weapons and unmarked uniforms is on its way to Colombia. The mission: conduct covert, unilateral raids to destroy cocaine processing laboratories. <br /><br />Of course nothing is as it seems especially once the CIA gets involved. Throw in an Israeli mercenary, betrayal and double-dealing in Washington and the team soon finds itself wondering what the real mission is.
p61
sS'format'
p62
NsS'gutenberg'
p63
(dp64
g37
Vhttp://www.gutenberg.org/ebooks/24278
p65
sS'num'
p66
I24278
ssS'authors'
p67
(lp68
I248
asS'isbn13'
p69
NsS'language'
p70
VEnglish
p71
sS'release_date'
p72
S'2008-01-14T00:00:00'
p73
sS'author'
p74
I248
sS'content_cleaned'
p75
I01
sS'classes'
p76
(lp77
Vto-read
p78
aVcurrently-reading
p79
aVkindle
p80
aVmilitary
p81
aVthriller
p82
aVfiction
p83
aVaction
p84
aVkindle-books
p85
aVseries
p86
aVbob-mayer
p87
aVaction-adventure
p88
aVkindle-free
p89
aVown-kindle
p90
aVebook
p91
aVaudible
p92
aVibooks
p93
aVowned
p94
aVebooks
p95
aVunread
p96
aVthrillers
p97
aVsuspense
p98
aVon-kindle
p99
aVe-book
p100
aVmilitary-fiction
p101
aVdefault
p102
aVto-read-own-kindle
p103
aVowned-kindle
p104
aVshelved
p105
aVown-to-read
p106
aVdon-t-plan-on-reading
p107
aVe-books
p108
aVown-not-read
p109
aVowned-books
p110
aVhave
p111
aVbooks-i-own
p112
aVkobo
p113
aVown-it
p114
aVdid-not-finish
p115
aVmysteries-thrillers
p116
aVfirst-reads
p117
aVlendable
p118
aVkindle-to-read
p119
aVnot-read
p120
aVc-thriller-horror
p121
aVc-adventure-military
p122
aVbb-kindle-owned
p123
aVaaa-just-completed-to-review
p124
aV2017-read
p125
aV2016-read
p126
aVexciting-action
p127
aVliving-room
p128
aVhave-on-ibooks
p129
aVhave-but-not-read
p130
aVmaybe-to-read-someday
p131
aVamazon-kindle
p132
aVgen
p133
aVebook-owned
p134
aVcalibre
p135
aVfree-on-kindle
p136
aVnope
p137
aVthe-green-berets
p138
aVaction-thriller-spy
p139
aVown-not-read-yet
p140
aVnext-in-series
p141
aVnot-at-library
p142
aVto-read-owned-ebooks
p143
aVkobo-book
p144
aVnew-authors-to-me
p145
aVkindle-books-i-own-unread
p146
aVread-2016
p147
aVe-books-owned
p148
aVibooks-tbr-library
p149
aVwant-to-listen
p150
aVfree-ebooks
p151
aVon-kindle-to-read
p152
aVecopy
p153
aVaa-review-awol
p154
aVmy-kindle-tbr
p155
aVbought
p156
aVgave-up
p157
aVmystery-paranormal
p158
aVdigital
p159
aVshelf-m-authors
p160
aVa-pending-placement
p161
aVnook-or-kindle-freebie-not-gifted
p162
aValready-own-or-have-preordered
p163
aVavailable-at-medina
p164
aV_kindle
p165
aVto-read-owned
p166
aVspy-ct-war-thrillers
p167
aVtbr-owned
p168
aVseries-to-check
p169
aVpolitical-military-thriller
p170
aVauthor-to-check
p171
aVowned-pending-kindle-free-ebook
p172
aVon-my-ipad
p173
aVi-books
p174
aVkindle-to-read-series-have-multiple
p175
aVwant-to-read
p176
aVmy-apple-ibooks-library
p177
asS'loc_class'
p178
VPS: Language and Literatures: American and Canadian literature
p179
sS'n_authors'
p180
I1
sb.