ccopy_reg
_reconstructor
p0
(cdataset.Book
Book
p1
c__builtin__
object
p2
Ntp3
Rp4
(dp5
S'content_name'
p6
V29309.txt.utf-8
p7
sS'isbn'
p8
NsS'year'
p9
I1933
sS'author_name'
p10
VSewell Peaslee Wright
p11
sS'images_urls'
p12
(lp13
Vhttp://www.gutenberg.org/files/29309/29309-h/images/image_001.jpg
p14
asS'language_code'
p15
Veng
p16
sS'images'
p17
(lp18
sS'id'
p19
I482
sS'category'
p20
VText
p21
sS'genres'
p22
(lp23
sS'copyright'
p24
VPublic domain in the USA.
p25
sS'title'
p26
VThe Death-Traps of FX-31
p27
sS'wikipedia'
p28
(dp29
S'found'
p30
I00
ssS'average_rating'
p31
F3.12
sS'rating_count'
p32
I6
sS'content_available'
p33
I01
sS'goodreads'
p34
(dp35
S'url'
p36
Vhttps://www.goodreads.com/book/show/6633642-the-death-traps-of-fx-31
p37
sg30
I01
sS'year'
p38
I1933
ssS'similar_books'
p39
(lp40
sS'description'
p41
NsS'gutenberg'
p42
(dp43
g36
Vhttp://www.gutenberg.org/ebooks/29309
p44
sS'num'
p45
I29309
ssS'authors'
p46
(lp47
I44
asS'isbn13'
p48
NsS'language'
p49
VEnglish
p50
sS'countries'
p51
(lp52
I2
asS'release_date'
p53
S'2009-07-04T00:00:00'
p54
sS'author'
p55
I44
sS'cover'
p56
Vhttps://images.gr-assets.com/books/1375545853l/6633642.jpg
p57
sS'content_cleaned'
p58
I01
sS'classes'
p59
(lp60
Vto-read
p61
aVcurrently-reading
p62
aVunread
p63
aVowned
p64
aV15
p65
aVscience-fiction
p66
aVebooks
p67
aVeb-other
p68
aVeb
p69
aVclassics
p70
asS'loc_class'
p71
VPS: Language and Literatures: American and Canadian literature
p72
sS'n_authors'
p73
I1
sb.