ccopy_reg
_reconstructor
p0
(cdataset.Book
Book
p1
c__builtin__
object
p2
Ntp3
Rp4
(dp5
S'content_name'
p6
V29322.txt.utf-8
p7
sS'isbn'
p8
V1153818337
p9
sS'year'
p10
I1932
sS'author_name'
p11
VArthur Leo Zagat
p12
sS'images_urls'
p13
(lp14
Vhttp://www.gutenberg.org/files/29322/29322-h/images/image_001.jpg
p15
asS'language_code'
p16
NsS'images'
p17
(lp18
sS'id'
p19
I605
sS'category'
p20
VText
p21
sS'genres'
p22
(lp23
sS'copyright'
p24
VPublic domain in the USA.
p25
sS'title'
p26
VWhen the Sleepers Woke
p27
sS'wikipedia'
p28
(dp29
S'found'
p30
I00
ssS'average_rating'
p31
F2.88
sS'rating_count'
p32
I5
sS'content_available'
p33
I01
sS'goodreads'
p34
(dp35
S'url'
p36
Vhttps://www.goodreads.com/book/show/8464648-when-the-sleepers-woke
p37
sg30
I01
sS'year'
p38
I1932
ssS'similar_books'
p39
(lp40
sS'description'
p41
VThe book has no illustrations or index. Purchasers are entitled to a free trial membership in the General Books Club where they can select from more than a million books without charge. Subjects: Science fiction; Technological innovations; Twenty-first century; Time travel; London (England); Science fiction, English; Fiction / Science Fiction / General;
p42
sS'format'
p43
VPaperback
p44
sS'gutenberg'
p45
(dp46
g36
Vhttp://www.gutenberg.org/ebooks/29322
p47
sS'num'
p48
I29322
ssS'authors'
p49
(lp50
I197
asS'isbn13'
p51
V9781153818339
p52
sS'language'
p53
VEnglish
p54
sS'country'
p55
I3
sS'release_date'
p56
S'2009-07-05T00:00:00'
p57
sS'author'
p58
I197
sS'content_cleaned'
p59
I01
sS'classes'
p60
(lp61
Vto-read
p62
aVjunk
p63
aVcalibre
p64
aV15
p65
aVz
p66
aVpost-apocalyptic-and-disaster
p67
aVso-bad-it-s-good
p68
aVscience-fiction
p69
aVscience
p70
aVgeneral
p71
aVfiction
p72
asS'loc_class'
p73
VPS: Language and Literatures: American and Canadian literature
p74
sS'n_authors'
p75
I1
sb.