ccopy_reg
_reconstructor
p0
(cdataset.Book
Book
p1
c__builtin__
object
p2
Ntp3
Rp4
(dp5
S'content_name'
p6
V18584.txt.utf-8
p7
sS'isbn'
p8
V1428039937
p9
sS'year'
p10
I1957
sS'author_name'
p11
VH. Beam Piper
p12
sS'images_urls'
p13
(lp14
Vhttp://www.gutenberg.org/files/18584/18584-h/images/image_01.jpg
p15
aVhttp://www.gutenberg.org/files/18584/18584-h/images/image_02.jpg
p16
aVhttp://www.gutenberg.org/files/18584/18584-h/images/image_03.jpg
p17
aVhttp://www.gutenberg.org/files/18584/18584-h/images/image_42.jpg
p18
asS'language_code'
p19
NsS'images'
p20
(lp21
sS'id'
p22
I260
sS'category'
p23
VText
p24
sS'genres'
p25
(lp26
sS'copyright'
p27
VPublic domain in the USA.
p28
sS'title'
p29
VThe Edge of the Knife
p30
sS'wikipedia'
p31
(dp32
S'found'
p33
I00
ssS'average_rating'
p34
F4.75
sS'rating_count'
p35
I92
sS'content_available'
p36
I01
sS'goodreads'
p37
(dp38
S'url'
p39
S'https://www.goodreads.com/book/show/1002020.The_Edge_Of_The_Knife'
p40
sS'found'
p41
I01
ssS'similar_books'
p42
(lp43
sS'description'
p44
VThe Edge of the Knife by H. Beam Piper.
p45
sS'gutenberg'
p46
(dp47
S'url'
p48
Vhttp://www.gutenberg.org/ebooks/18584
p49
sS'num'
p50
I18584
ssS'authors'
p51
(lp52
I19
asS'isbn13'
p53
V9781428039933
p54
sS'language'
p55
VEnglish
p56
sS'countries'
p57
(lp58
I2
asS'release_date'
p59
S'2006-06-14T00:00:00'
p60
sS'author'
p61
I19
sS'content_cleaned'
p62
I01
sS'classes'
p63
(lp64
Vto-read
p65
aVsci-fi
p66
aVscience-fiction
p67
aVfiction
p68
aVshort-story
p69
aVscifi
p70
aVkindle
p71
aVtime-travel
p72
aVsi-fi
p73
aVebook
p74
aVaudiobooks
p75
aVshort-stories
p76
aVcollege
p77
aVcurrently-reading
p78
aVthe-real-stuff
p79
aVgrp-favorites
p80
aVaudio
p81
aVcollection
p82
aVscience-fiction-fantasy
p83
aVown-audiobook
p84
aVmy-ebooks
p85
aVis-fiction
p86
aVmade-of-audio
p87
aV15
p88
aVsf
p89
aVfav-authors-tr
p90
aVreviewed
p91
aV2015-completed
p92
aVscifi-fantasy
p93
aVowned
p94
aVebook_only
p95
aV2014-reading-list
p96
aVsff
p97
aVsci
p98
aVon-disk
p99
aVpulp-classics
p100
aVgutenberg
p101
aVh-beam-piper
p102
aVfrom-librivox
p103
aVproject-gutenberg
p104
aVenglisch
p105
aVin-calibre
p106
aVmy-library
p107
aVhugo-nebula-reading-list
p108
aVvintage-scifi
p109
aVamerican
p110
aVfiction-
p111
aVliterary
p112
aVmodern
p113
aV-
p114
aVscience
p115
aVgeneral
p116
aVpdfs
p117
aV2015-reading-list
p118
asS'loc_class'
p119
VPS: Language and Literatures: American and Canadian literature
p120
sS'n_authors'
p121
I1
sb.