ccopy_reg
_reconstructor
p0
(cdataset.Book
Book
p1
c__builtin__
object
p2
Ntp3
Rp4
(dp5
S'similar_books'
p6
(lp7
sS'genres'
p8
(lp9
sS'author'
p10
I302
sS'countries'
p11
(lp12
I2
asS'year'
p13
I1956
sS'title'
p14
VGalaxy Magazine September 1956
p15
sS'cover'
p16
Vhttps://ia601309.us.archive.org/BookReader/BookReaderImages.php?zip=/6/items/Galaxy_v12n05_1956-09/Galaxy_v12n05_1956-09_jp2.zip&file=Galaxy_v12n05_1956-09_jp2/Galaxy_v12n05_1956-09_0000.jp2&scale=0&rotate=0
p17
sS'cover_art'
p18
S'http://www.isfdb.org/wiki/images/b/b8/MLO4429.jpg'
p19
sS'author_name'
p20
VGalaxy Magazine
p21
sS'images_urls'
p22
(lp23
sS'authors'
p24
(lp25
I499
aI494
aI419
aI486
aI500
aI339
aI483
aI501
aI326
aI443
aI341
aI475
aI23
aI220
aI396
aI302
asS'images'
p26
(lp27
sS'id'
p28
I1043
sS'contents'
p29
(lp30
(dp31
S'title'
p32
VThe Other Man
p33
sS'author'
p34
I499
sa(dp35
g32
VThe Other Man [2]
p36
sg34
I499
sa(dp37
g32
VThe Other Man [3]
p38
sg34
I499
sa(dp39
g32
VNothing but the Best
p40
sg34
I494
sa(dp41
g32
VVerbal Agreement
p42
sg34
I419
sa(dp43
g32
VVerbal Agreement [2]
p44
sg34
I419
sa(dp45
g32
VVerbal Agreement [3]
p46
sg34
I419
sa(dp47
g32
VHuman Man's Burden
p48
sg34
I486
sa(dp49
g32
VSeeing-Eye Dog
p50
sg34
I494
sa(dp51
g32
VChain Reaction
p52
sg34
I500
sa(dp53
g32
VChain Reaction [2]
p54
sg34
I500
sa(dp55
g32
VChain Reaction [3]
p56
sg34
I500
sa(dp57
g32
VFor Your Information: Project Vanguard
p58
sg34
I339
sa(dp59
g32
VGalaxy's 5 Star Shelf (Galaxy, September 1956)
p60
sg34
I483
sa(dp61
g32
VReview of the Nonfiction Work "Mysteries of the North Pole"
p62
sg34
I501
sa(dp63
g32
VForecast (Galaxy, September 1956)
p64
sg34
I326
sa(dp65
g32
VVerbal Agreement
p66
sg34
I443
sa(dp67
g32
VThe Other Man
p68
sg34
I341
sa(dp69
g32
VNothing but the Best
p70
sg34
I475
sa(dp71
g32
VHuman Man's Burden
p72
sg34
I23
sa(dp73
g32
VSeeing-Eye Dog
p74
sg34
I220
sa(dp75
g32
VChain Reaction
p76
sg34
I396
sasb.