ccopy_reg
_reconstructor
p0
(cdataset.Book
Book
p1
c__builtin__
object
p2
Ntp3
Rp4
(dp5
S'content_name'
p6
V16921.txt.utf-8
p7
sS'isbn'
p8
V0441062911
p9
sS'year'
p10
I1956
sS'author_name'
p11
VAndre Norton
p12
sS'images_urls'
p13
(lp14
Vhttp://www.gutenberg.org/files/16921/16921-page-images/16921-page-images/anps001.jpg
p15
aVhttp://www.gutenberg.org/files/16921/16921-page-images/16921-page-images/anps002.png
p16
aVhttp://www.gutenberg.org/files/16921/16921-page-images/16921-page-images/anps003.png
p17
aVhttp://www.gutenberg.org/files/16921/16921-page-images/16921-page-images/anps004.png
p18
aVhttp://www.gutenberg.org/files/16921/16921-page-images/16921-page-images/anps005.png
p19
aVhttp://www.gutenberg.org/files/16921/16921-page-images/16921-page-images/anps006.png
p20
aVhttp://www.gutenberg.org/files/16921/16921-page-images/16921-page-images/anps007.png
p21
aVhttp://www.gutenberg.org/files/16921/16921-page-images/16921-page-images/anps008.png
p22
aVhttp://www.gutenberg.org/files/16921/16921-page-images/16921-page-images/anps009.png
p23
aVhttp://www.gutenberg.org/files/16921/16921-page-images/16921-page-images/anps010.png
p24
aVhttp://www.gutenberg.org/files/16921/16921-page-images/16921-page-images/anps011.png
p25
aVhttp://www.gutenberg.org/files/16921/16921-page-images/16921-page-images/anps012.png
p26
aVhttp://www.gutenberg.org/files/16921/16921-page-images/16921-page-images/anps013.png
p27
aVhttp://www.gutenberg.org/files/16921/16921-page-images/16921-page-images/anps014.png
p28
aVhttp://www.gutenberg.org/files/16921/16921-page-images/16921-page-images/anps015.png
p29
aVhttp://www.gutenberg.org/files/16921/16921-page-images/16921-page-images/anps016.png
p30
aVhttp://www.gutenberg.org/files/16921/16921-page-images/16921-page-images/anps017.png
p31
aVhttp://www.gutenberg.org/files/16921/16921-page-images/16921-page-images/anps018.png
p32
aVhttp://www.gutenberg.org/files/16921/16921-page-images/16921-page-images/anps019.png
p33
aVhttp://www.gutenberg.org/files/16921/16921-page-images/16921-page-images/anps020.png
p34
aVhttp://www.gutenberg.org/files/16921/16921-page-images/16921-page-images/anps021.png
p35
aVhttp://www.gutenberg.org/files/16921/16921-page-images/16921-page-images/anps022.png
p36
aVhttp://www.gutenberg.org/files/16921/16921-page-images/16921-page-images/anps023.png
p37
aVhttp://www.gutenberg.org/files/16921/16921-page-images/16921-page-images/anps024.png
p38
aVhttp://www.gutenberg.org/files/16921/16921-page-images/16921-page-images/anps025.png
p39
aVhttp://www.gutenberg.org/files/16921/16921-page-images/16921-page-images/anps026.png
p40
aVhttp://www.gutenberg.org/files/16921/16921-page-images/16921-page-images/anps027.png
p41
aVhttp://www.gutenberg.org/files/16921/16921-page-images/16921-page-images/anps028.png
p42
aVhttp://www.gutenberg.org/files/16921/16921-page-images/16921-page-images/anps029.png
p43
aVhttp://www.gutenberg.org/files/16921/16921-page-images/16921-page-images/anps030.png
p44
aVhttp://www.gutenberg.org/files/16921/16921-page-images/16921-page-images/anps031.png
p45
aVhttp://www.gutenberg.org/files/16921/16921-page-images/16921-page-images/anps032.png
p46
aVhttp://www.gutenberg.org/files/16921/16921-page-images/16921-page-images/anps033.png
p47
aVhttp://www.gutenberg.org/files/16921/16921-page-images/16921-page-images/anps034.png
p48
aVhttp://www.gutenberg.org/files/16921/16921-page-images/16921-page-images/anps035.png
p49
aVhttp://www.gutenberg.org/files/16921/16921-page-images/16921-page-images/anps036.png
p50
aVhttp://www.gutenberg.org/files/16921/16921-page-images/16921-page-images/anps037.png
p51
aVhttp://www.gutenberg.org/files/16921/16921-page-images/16921-page-images/anps038.png
p52
aVhttp://www.gutenberg.org/files/16921/16921-page-images/16921-page-images/anps039.png
p53
aVhttp://www.gutenberg.org/files/16921/16921-page-images/16921-page-images/anps040.png
p54
aVhttp://www.gutenberg.org/files/16921/16921-page-images/16921-page-images/anps041.png
p55
aVhttp://www.gutenberg.org/files/16921/16921-page-images/16921-page-images/anps042.png
p56
aVhttp://www.gutenberg.org/files/16921/16921-page-images/16921-page-images/anps043.png
p57
aVhttp://www.gutenberg.org/files/16921/16921-page-images/16921-page-images/anps044.png
p58
aVhttp://www.gutenberg.org/files/16921/16921-page-images/16921-page-images/anps045.png
p59
aVhttp://www.gutenberg.org/files/16921/16921-page-images/16921-page-images/anps046.png
p60
aVhttp://www.gutenberg.org/files/16921/16921-page-images/16921-page-images/anps047.png
p61
aVhttp://www.gutenberg.org/files/16921/16921-page-images/16921-page-images/anps048.png
p62
aVhttp://www.gutenberg.org/files/16921/16921-page-images/16921-page-images/anps049.png
p63
aVhttp://www.gutenberg.org/files/16921/16921-page-images/16921-page-images/anps050.png
p64
aVhttp://www.gutenberg.org/files/16921/16921-page-images/16921-page-images/anps051.png
p65
aVhttp://www.gutenberg.org/files/16921/16921-page-images/16921-page-images/anps052.png
p66
aVhttp://www.gutenberg.org/files/16921/16921-page-images/16921-page-images/anps053.png
p67
aVhttp://www.gutenberg.org/files/16921/16921-page-images/16921-page-images/anps054.png
p68
aVhttp://www.gutenberg.org/files/16921/16921-page-images/16921-page-images/anps055.png
p69
aVhttp://www.gutenberg.org/files/16921/16921-page-images/16921-page-images/anps056.png
p70
aVhttp://www.gutenberg.org/files/16921/16921-page-images/16921-page-images/anps057.png
p71
aVhttp://www.gutenberg.org/files/16921/16921-page-images/16921-page-images/anps058.png
p72
aVhttp://www.gutenberg.org/files/16921/16921-page-images/16921-page-images/anps059.png
p73
aVhttp://www.gutenberg.org/files/16921/16921-page-images/16921-page-images/anps060.png
p74
aVhttp://www.gutenberg.org/files/16921/16921-page-images/16921-page-images/anps061.png
p75
aVhttp://www.gutenberg.org/files/16921/16921-page-images/16921-page-images/anps062.png
p76
aVhttp://www.gutenberg.org/files/16921/16921-page-images/16921-page-images/anps063.png
p77
aVhttp://www.gutenberg.org/files/16921/16921-page-images/16921-page-images/anps064.png
p78
aVhttp://www.gutenberg.org/files/16921/16921-page-images/16921-page-images/anps065.png
p79
aVhttp://www.gutenberg.org/files/16921/16921-page-images/16921-page-images/anps066.png
p80
aVhttp://www.gutenberg.org/files/16921/16921-page-images/16921-page-images/anps067.png
p81
aVhttp://www.gutenberg.org/files/16921/16921-page-images/16921-page-images/anps068.png
p82
aVhttp://www.gutenberg.org/files/16921/16921-page-images/16921-page-images/anps069.png
p83
aVhttp://www.gutenberg.org/files/16921/16921-page-images/16921-page-images/anps070.png
p84
aVhttp://www.gutenberg.org/files/16921/16921-page-images/16921-page-images/anps071.png
p85
aVhttp://www.gutenberg.org/files/16921/16921-page-images/16921-page-images/anps072.png
p86
aVhttp://www.gutenberg.org/files/16921/16921-page-images/16921-page-images/anps073.png
p87
aVhttp://www.gutenberg.org/files/16921/16921-page-images/16921-page-images/anps074.png
p88
aVhttp://www.gutenberg.org/files/16921/16921-page-images/16921-page-images/anps075.png
p89
aVhttp://www.gutenberg.org/files/16921/16921-page-images/16921-page-images/anps076.png
p90
aVhttp://www.gutenberg.org/files/16921/16921-page-images/16921-page-images/anps077.png
p91
aVhttp://www.gutenberg.org/files/16921/16921-page-images/16921-page-images/anps078.png
p92
aVhttp://www.gutenberg.org/files/16921/16921-page-images/16921-page-images/anps079.png
p93
aVhttp://www.gutenberg.org/files/16921/16921-page-images/16921-page-images/anps080.png
p94
aVhttp://www.gutenberg.org/files/16921/16921-page-images/16921-page-images/anps081.png
p95
aVhttp://www.gutenberg.org/files/16921/16921-page-images/16921-page-images/anps082.png
p96
aVhttp://www.gutenberg.org/files/16921/16921-page-images/16921-page-images/anps083.png
p97
aVhttp://www.gutenberg.org/files/16921/16921-page-images/16921-page-images/anps084.png
p98
aVhttp://www.gutenberg.org/files/16921/16921-page-images/16921-page-images/anps085.png
p99
aVhttp://www.gutenberg.org/files/16921/16921-page-images/16921-page-images/anps086.png
p100
aVhttp://www.gutenberg.org/files/16921/16921-page-images/16921-page-images/anps087.png
p101
aVhttp://www.gutenberg.org/files/16921/16921-page-images/16921-page-images/anps088.png
p102
aVhttp://www.gutenberg.org/files/16921/16921-page-images/16921-page-images/anps089.png
p103
aVhttp://www.gutenberg.org/files/16921/16921-page-images/16921-page-images/anps090.png
p104
aVhttp://www.gutenberg.org/files/16921/16921-page-images/16921-page-images/anps091.png
p105
aVhttp://www.gutenberg.org/files/16921/16921-page-images/16921-page-images/anps092.png
p106
aVhttp://www.gutenberg.org/files/16921/16921-page-images/16921-page-images/anps093.png
p107
aVhttp://www.gutenberg.org/files/16921/16921-page-images/16921-page-images/anps094.png
p108
aVhttp://www.gutenberg.org/files/16921/16921-page-images/16921-page-images/anps095.png
p109
aVhttp://www.gutenberg.org/files/16921/16921-page-images/16921-page-images/anps096.png
p110
aVhttp://www.gutenberg.org/files/16921/16921-page-images/16921-page-images/anps097.png
p111
aVhttp://www.gutenberg.org/files/16921/16921-page-images/16921-page-images/anps098.png
p112
aVhttp://www.gutenberg.org/files/16921/16921-page-images/16921-page-images/anps099.png
p113
aVhttp://www.gutenberg.org/files/16921/16921-page-images/16921-page-images/anps100.png
p114
aVhttp://www.gutenberg.org/files/16921/16921-page-images/16921-page-images/anps101.png
p115
aVhttp://www.gutenberg.org/files/16921/16921-page-images/16921-page-images/anps102.png
p116
aVhttp://www.gutenberg.org/files/16921/16921-page-images/16921-page-images/anps103.png
p117
aVhttp://www.gutenberg.org/files/16921/16921-page-images/16921-page-images/anps104.png
p118
aVhttp://www.gutenberg.org/files/16921/16921-page-images/16921-page-images/anps105.png
p119
aVhttp://www.gutenberg.org/files/16921/16921-page-images/16921-page-images/anps106.png
p120
aVhttp://www.gutenberg.org/files/16921/16921-page-images/16921-page-images/anps107.png
p121
aVhttp://www.gutenberg.org/files/16921/16921-page-images/16921-page-images/anps108.png
p122
aVhttp://www.gutenberg.org/files/16921/16921-page-images/16921-page-images/anps109.png
p123
aVhttp://www.gutenberg.org/files/16921/16921-page-images/16921-page-images/anps110.png
p124
aVhttp://www.gutenberg.org/files/16921/16921-page-images/16921-page-images/anps111.png
p125
aVhttp://www.gutenberg.org/files/16921/16921-page-images/16921-page-images/anps112.png
p126
aVhttp://www.gutenberg.org/files/16921/16921-page-images/16921-page-images/anps113.png
p127
aVhttp://www.gutenberg.org/files/16921/16921-page-images/16921-page-images/anps114.png
p128
aVhttp://www.gutenberg.org/files/16921/16921-page-images/16921-page-images/anps115.png
p129
aVhttp://www.gutenberg.org/files/16921/16921-page-images/16921-page-images/anps116.png
p130
aVhttp://www.gutenberg.org/files/16921/16921-page-images/16921-page-images/anps117.png
p131
aVhttp://www.gutenberg.org/files/16921/16921-page-images/16921-page-images/anps118.png
p132
aVhttp://www.gutenberg.org/files/16921/16921-page-images/16921-page-images/anps119.png
p133
aVhttp://www.gutenberg.org/files/16921/16921-page-images/16921-page-images/anps120.png
p134
aVhttp://www.gutenberg.org/files/16921/16921-page-images/16921-page-images/anps121.png
p135
aVhttp://www.gutenberg.org/files/16921/16921-page-images/16921-page-images/anps122.png
p136
aVhttp://www.gutenberg.org/files/16921/16921-page-images/16921-page-images/anps123.png
p137
aVhttp://www.gutenberg.org/files/16921/16921-page-images/16921-page-images/anps124.png
p138
aVhttp://www.gutenberg.org/files/16921/16921-page-images/16921-page-images/anps125.png
p139
aVhttp://www.gutenberg.org/files/16921/16921-page-images/16921-page-images/anps126.png
p140
aVhttp://www.gutenberg.org/files/16921/16921-page-images/16921-page-images/anps127.png
p141
aVhttp://www.gutenberg.org/files/16921/16921-page-images/16921-page-images/anps128.png
p142
aVhttp://www.gutenberg.org/files/16921/16921-page-images/16921-page-images/anps129.png
p143
aVhttp://www.gutenberg.org/files/16921/16921-page-images/16921-page-images/anps130.png
p144
aVhttp://www.gutenberg.org/files/16921/16921-page-images/16921-page-images/anps131.png
p145
aVhttp://www.gutenberg.org/files/16921/16921-page-images/16921-page-images/anps132.png
p146
aVhttp://www.gutenberg.org/files/16921/16921-page-images/16921-page-images/anps133.png
p147
aVhttp://www.gutenberg.org/files/16921/16921-page-images/16921-page-images/anps134.png
p148
aVhttp://www.gutenberg.org/files/16921/16921-page-images/16921-page-images/anps135.png
p149
aVhttp://www.gutenberg.org/files/16921/16921-page-images/16921-page-images/anps136.png
p150
aVhttp://www.gutenberg.org/files/16921/16921-page-images/16921-page-images/anps137.png
p151
aVhttp://www.gutenberg.org/files/16921/16921-page-images/16921-page-images/anps138.png
p152
aVhttp://www.gutenberg.org/files/16921/16921-page-images/16921-page-images/anps139.png
p153
aVhttp://www.gutenberg.org/files/16921/16921-page-images/16921-page-images/anps140.png
p154
aVhttp://www.gutenberg.org/files/16921/16921-page-images/16921-page-images/anps141.png
p155
aVhttp://www.gutenberg.org/files/16921/16921-page-images/16921-page-images/anps142.png
p156
aVhttp://www.gutenberg.org/files/16921/16921-page-images/16921-page-images/anps143.png
p157
aVhttp://www.gutenberg.org/files/16921/16921-page-images/16921-page-images/anps144.png
p158
aVhttp://www.gutenberg.org/files/16921/16921-page-images/16921-page-images/anps145.png
p159
aVhttp://www.gutenberg.org/files/16921/16921-page-images/16921-page-images/anps146.png
p160
aVhttp://www.gutenberg.org/files/16921/16921-page-images/16921-page-images/anps147.png
p161
aVhttp://www.gutenberg.org/files/16921/16921-page-images/16921-page-images/anps148.png
p162
aVhttp://www.gutenberg.org/files/16921/16921-page-images/16921-page-images/anps149.png
p163
aVhttp://www.gutenberg.org/files/16921/16921-page-images/16921-page-images/anps150.png
p164
aVhttp://www.gutenberg.org/files/16921/16921-page-images/16921-page-images/anps151.png
p165
aVhttp://www.gutenberg.org/files/16921/16921-page-images/16921-page-images/anps152.png
p166
aVhttp://www.gutenberg.org/files/16921/16921-page-images/16921-page-images/anps153.png
p167
aVhttp://www.gutenberg.org/files/16921/16921-page-images/16921-page-images/anps154.png
p168
aVhttp://www.gutenberg.org/files/16921/16921-page-images/16921-page-images/anps155.png
p169
aVhttp://www.gutenberg.org/files/16921/16921-page-images/16921-page-images/anps156.png
p170
aVhttp://www.gutenberg.org/files/16921/16921-page-images/16921-page-images/anps157.png
p171
aVhttp://www.gutenberg.org/files/16921/16921-page-images/16921-page-images/anps158.png
p172
aVhttp://www.gutenberg.org/files/16921/16921-page-images/16921-page-images/anps159.png
p173
aVhttp://www.gutenberg.org/files/16921/16921-page-images/16921-page-images/anps160.png
p174
aVhttp://www.gutenberg.org/files/16921/16921-page-images/16921-page-images/anps161.png
p175
aVhttp://www.gutenberg.org/files/16921/16921-page-images/16921-page-images/anps162.png
p176
aVhttp://www.gutenberg.org/files/16921/16921-page-images/16921-page-images/anps163.png
p177
aVhttp://www.gutenberg.org/files/16921/16921-page-images/16921-page-images/anps164.png
p178
aVhttp://www.gutenberg.org/files/16921/16921-page-images/16921-page-images/anps165.png
p179
aVhttp://www.gutenberg.org/files/16921/16921-page-images/16921-page-images/anps166.png
p180
aVhttp://www.gutenberg.org/files/16921/16921-page-images/16921-page-images/anps167.png
p181
aVhttp://www.gutenberg.org/files/16921/16921-page-images/16921-page-images/anps168.png
p182
aVhttp://www.gutenberg.org/files/16921/16921-page-images/16921-page-images/anps169.png
p183
aVhttp://www.gutenberg.org/files/16921/16921-page-images/16921-page-images/anps170.png
p184
aVhttp://www.gutenberg.org/files/16921/16921-page-images/16921-page-images/anps171.png
p185
aVhttp://www.gutenberg.org/files/16921/16921-page-images/16921-page-images/anps172.png
p186
aVhttp://www.gutenberg.org/files/16921/16921-page-images/16921-page-images/anps173.png
p187
aVhttp://www.gutenberg.org/files/16921/16921-page-images/16921-page-images/anps174.png
p188
aVhttp://www.gutenberg.org/files/16921/16921-page-images/16921-page-images/anps175.png
p189
aVhttp://www.gutenberg.org/files/16921/16921-page-images/16921-page-images/anps176.png
p190
aVhttp://www.gutenberg.org/files/16921/16921-page-images/16921-page-images/anps177.png
p191
aVhttp://www.gutenberg.org/files/16921/16921-page-images/16921-page-images/anps178.png
p192
aVhttp://www.gutenberg.org/files/16921/16921-page-images/16921-page-images/anps179.png
p193
aVhttp://www.gutenberg.org/files/16921/16921-page-images/16921-page-images/anps180.png
p194
aVhttp://www.gutenberg.org/files/16921/16921-page-images/16921-page-images/anps181.png
p195
aVhttp://www.gutenberg.org/files/16921/16921-page-images/16921-page-images/anps182.png
p196
aVhttp://www.gutenberg.org/files/16921/16921-page-images/16921-page-images/anps183.png
p197
aVhttp://www.gutenberg.org/files/16921/16921-page-images/16921-page-images/anps184.png
p198
aVhttp://www.gutenberg.org/files/16921/16921-page-images/16921-page-images/anps185.png
p199
aVhttp://www.gutenberg.org/files/16921/16921-page-images/16921-page-images/anps186.png
p200
aVhttp://www.gutenberg.org/files/16921/16921-page-images/16921-page-images/anps187.png
p201
aVhttp://www.gutenberg.org/files/16921/16921-page-images/16921-page-images/anps188.png
p202
aVhttp://www.gutenberg.org/files/16921/16921-page-images/16921-page-images/anps189.png
p203
aVhttp://www.gutenberg.org/files/16921/16921-page-images/16921-page-images/anps190.png
p204
aVhttp://www.gutenberg.org/files/16921/16921-page-images/16921-page-images/anps191.png
p205
aVhttp://www.gutenberg.org/files/16921/16921-page-images/16921-page-images/anps192.png
p206
aVhttp://www.gutenberg.org/files/16921/16921-page-images/16921-page-images/anps193.png
p207
aVhttp://www.gutenberg.org/files/16921/16921-page-images/16921-page-images/anps194.png
p208
aVhttp://www.gutenberg.org/files/16921/16921-page-images/16921-page-images/anps195.png
p209
aVhttp://www.gutenberg.org/files/16921/16921-page-images/16921-page-images/anps196.png
p210
aVhttp://www.gutenberg.org/files/16921/16921-page-images/16921-page-images/anps197.png
p211
aVhttp://www.gutenberg.org/files/16921/16921-page-images/16921-page-images/anps198.png
p212
aVhttp://www.gutenberg.org/files/16921/16921-page-images/16921-page-images/anps199.png
p213
aVhttp://www.gutenberg.org/files/16921/16921-page-images/16921-page-images/anps200.png
p214
aVhttp://www.gutenberg.org/files/16921/16921-page-images/16921-page-images/anps201.png
p215
aVhttp://www.gutenberg.org/files/16921/16921-page-images/16921-page-images/anps202.png
p216
aVhttp://www.gutenberg.org/files/16921/16921-page-images/16921-page-images/anps203.png
p217
aVhttp://www.gutenberg.org/files/16921/16921-page-images/16921-page-images/anps204.png
p218
aVhttp://www.gutenberg.org/files/16921/16921-page-images/16921-page-images/anps205.png
p219
aVhttp://www.gutenberg.org/files/16921/16921-page-images/16921-page-images/anps206.png
p220
aVhttp://www.gutenberg.org/files/16921/16921-page-images/16921-page-images/anps207.png
p221
aVhttp://www.gutenberg.org/files/16921/16921-page-images/16921-page-images/anps208.png
p222
asS'language_code'
p223
NsS'images'
p224
(lp225
sS'id'
p226
I91
sS'category'
p227
VText
p228
sS'plot'
p229
VThe main protagonist of the novel is Dane Thorson, Cargo-master-apprentice on the Free Trader rocket ship the Solar Queen. Free Traders take on trading contracts on remote and recently discovered planets, which can be dangerous and unpredictable.\u000aThe Solar Queen has recently obtained a valuable trading contract on the planet Sargol and are building a relationship with one of the races on the planet, the cat-like Salariki. The process goes slowly till the Salariki discover that the Solar Queen is carrying catnip and other plants from Terra that are unknown on Sargol. The traders exchange what little of the plants they have for the rare and valuable Koros stones and collect a native red-colored wood to exchange at home. At the last minute the storm priests of the Salariki demand that the Solar Queen take a pre-paid contract to return within 6 months with more plants.\u000aA few days after leaving the planet, several members of the crew suffer from attacks, which start with severe headaches and end in a semi-coma state. Only 4 of the younger members of the crew are unaffected, including Dane Thorson. Upon exiting hyperspace on return to the vicinity of Terra, the crew discovers that they are pariah and have been declared a plague ship.\u000aOn the short hop to earth, the crew discovers that pests have invaded the ship and are the cause of the illness. In a final bid to prove their case they kidnap a medic and present his evidence by video to a solar-system-wide audience, which is successful.\u000aIn the meantime the rest of the crew have recovered, and after a final effort of negotiation the Solar Queen preserves its reputation by selling the contract with the Salariki to a large intergalactic trading company in exchange for credits and a quiet inter-solar mail route, which should lead to no more trouble.
p230
sS'genres'
p231
(lp232
sS'copyright'
p233
VPublic domain in the USA.
p234
sS'title'
p235
VPlague Ship
p236
sS'wikipedia'
p237
(dp238
S'url'
p239
Vhttps://en.wikipedia.org/wiki/Plague_Ship
p240
sS'found'
p241
I01
sS'year'
p242
I-1
ssS'published_in'
p243
NsS'average_rating'
p244
F4.02
sS'rating_count'
p245
I1139
sS'content_available'
p246
I01
sS'goodreads'
p247
(dp248
S'url'
p249
S'https://www.goodreads.com/book/show/961291.Plague_Ship'
p250
sS'found'
p251
I01
ssS'similar_books'
p252
(lp253
VThe Colors of Space
p254
aVFour Day Planet
p255
aVPolice Your Planet
p256
aVBroken Bulbs
p257
aVTNT: Telzey Amberdon & Trigger Argee Together
p258
aVThe Skylark of Space (Skylark #1)
p259
aVBeginning Operations: A Sector General Omnibus (Sector General, #1-3)
p260
aVBlack Projects, White Knights: The Company Dossiers (The Company, #4.5)
p261
aVCity at World's End
p262
aVFury
p263
aVA Plague of Demons & Other Stories
p264
aVThe Humanoid Touch (Humanoids, #2)
p265
aVPath of the Fury
p266
aVOtherness
p267
aVThe Survivors (Ragnarok, #1)
p268
aVDinosaur Planet Survivors (Dinosaur Planet, #2)
p269
asS'description'
p270
VLured by exotic gems and valuable oils, the crew of the space trader Solar Queen landed on the newly discovered planet Sargol, only to find their most ruthless competitor there ahead of them. Still they tried for fair trade, even according to the sly rules of the feline natives-- whose beauty and grace were equalled only by their determination to drive a hard bargain.<br /><br />But after satisfactory trading and uneventful take-off, the Solar Queen discovered a plague on board, the treacherous work of someone who'd been on Sargol. Now they are forbidden by Federation rules from landing on any inhabited planet - and their supplies are running dangerously low!
p271
sS'gutenberg'
p272
(dp273
g239
Vhttp://www.gutenberg.org/ebooks/16921
p274
sS'num'
p275
I16921
ssS'authors'
p276
(lp277
I28
asS'pages'
p278
I182
sS'isbn13'
p279
V9780441062911
p280
sS'language'
p281
VEnglish
p282
sS'countries'
p283
(lp284
I2
asS'release_date'
p285
S'2005-10-23T00:00:00'
p286
sS'author'
p287
I28
sS'original_title'
p288
VPlague Ship
p289
sS'summary'
p290
VPlague Ship is a science fiction novel by author Andrew North (pseudonym of Alice Mary Norton, also known as Andre Norton). It was published in 1956 by Gnome Press in an edition of 5,000 copies. The book is the second volume of the author's Solar Queen series.\u000a\u000a
p291
sS'content_cleaned'
p292
I01
sS'classes'
p293
(lp294
Vscience-fiction
p295
aVto-read
p296
aVcurrently-reading
p297
aVsci-fi
p298
aVfiction
p299
aVsf
p300
aVscifi
p301
aVkindle
p302
aVowned
p303
aVandre-norton
p304
aVebook
p305
aVnorton-andre
p306
aVfantasy
p307
aVebooks
p308
aVdefault
p309
aVspace-opera
p310
aVaudiobook
p311
aVe-books
p312
aVaudio
p313
aVadventure
p314
aVscience
p315
aVscifi-fantasy
p316
aVsci-fi-fantasy
p317
aVowned-books
p318
aVspace
p319
aVsolar-queen
p320
aVscience-fiction-fantasy
p321
aVsf-fantasy
p322
aVwish-list
p323
aVcalibre
p324
aVsold
p325
aVlibrivox
p326
aVdigital
p327
aVspace-science-fiction
p328
aVbooks-i-own
p329
aVmine
p330
aVfantasy-sci-fi
p331
aVenglish
p332
aVe-book
p333
aVkindle-books
p334
aValiens
p335
aVaudio-books
p336
aVfavorites
p337
aVaudiobooks
p338
aVliterary
p339
aVgeneral
p340
aVlistened-to
p341
aVother
p342
aVsci-fi-and-fantasy
p343
aVlibrary
p344
aVfiction-science
p345
aVbook-series
p346
aVdone
p347
aVsci-fi-or-fantasy
p348
aVkindlecollection
p349
aV1954
p350
aVhave-audio
p351
aVon-calibre-to-read
p352
aVreadathon_sfwomen
p353
aVmy-ebooks
p354
aVeown
p355
aVactually-own
p356
aVsf-classics
p357
aVfemale-author
p358
aVurgent-to-read
p359
aVon-deck
p360
aVdnf
p361
aVa-norton
p362
aVur-owned
p363
aV20th-century-lit
p364
aVwant-to-read-later
p365
aVmystery
p366
aVbest
p367
aVadult
p368
aVdrama
p369
aVfree-read
p370
aVaudio-books-to-read
p371
aVavailable-at-scpl
p372
aVclassics
p373
aVown-kindle
p374
aVunsorted-read
p375
aVkindle-tbr
p376
aVfantasy-and-sci-fi
p377
aV1
p378
aVon-phone
p379
aVdropbox
p380
aV2016ebook
p381
aVfinish-52-books-in-2016
p382
aVkindle-books-i-own
p383
aVfuture-sci-fi
p384
aVappendix-n
p385
aVclassic-science-fiction
p386
aVown-audiobook
p387
aVtbr
p388
aVclassic-literature-tbr
p389
aVowned-pending-kindle-free-ebook
p390
aVavailable
p391
aVmy-youth
p392
aVclasscal-literature
p393
aVhome-library
p394
asS'loc_class'
p395
VPS: Language and Literatures: American and Canadian literature
p396
sS'n_authors'
p397
I1
sb.