ccopy_reg
_reconstructor
p0
(cdataset.Book
Book
p1
c__builtin__
object
p2
Ntp3
Rp4
(dp5
S'similar_books'
p6
(lp7
sS'genres'
p8
(lp9
sS'author'
p10
I302
sS'countries'
p11
(lp12
I2
asS'year'
p13
I1971
sS'title'
p14
VGalaxy Magazine September 1971
p15
sS'cover'
p16
Vhttps://ia600206.us.archive.org/BookReader/BookReaderImages.php?zip=/31/items/Galaxy_v32n02_1971-09/Galaxy_v32n02_1971-09_jp2.zip&file=Galaxy_v32n02_1971-09_jp2/Galaxy_v32n02_1971-09_0000.jp2&scale=0&rotate=0
p17
sS'cover_art'
p18
S'http://www.isfdb.org/wiki/images/5/5b/GALSEPOCT71.jpg'
p19
sS'author_name'
p20
VGalaxy Magazine
p21
sS'images_urls'
p22
(lp23
sS'authors'
p24
(lp25
I326
aI499
aI91
aI696
aI341
aI630
aI679
aI86
aI698
aI302
asS'images'
p26
(lp27
sS'id'
p28
I1153
sS'contents'
p29
(lp30
(dp31
g10
I326
sg14
VThe Edge and the Mist
p32
sa(dp33
g10
I326
sg14
VWhy Johnny Can't Speed
p34
sa(dp35
g10
I499
sg14
VThe Moon Children (Part 2 of 3)
p36
sa(dp37
g10
I326
sg14
VGalaxy Stars (Galaxy, September-October 1971)
p38
sa(dp39
g10
I91
sg14
VGalaxy Bookshelf (Galaxy, September-October 1971)
p40
sa(dp41
g10
I696
sg14
VThe Edge and the Mist
p42
sa(dp43
g10
I341
sg14
VDazed
p44
sa(dp45
g10
I630
sg14
VSister Ships
p46
sa(dp47
g10
I679
sg14
VGalilean Problem
p48
sa(dp49
g10
I86
sg14
VThe Moon Children (Part 2 of 3)
p50
sa(dp51
g10
I698
sg14
VWhy Johnny Can't Speed
p52
sasb.