ccopy_reg
_reconstructor
p0
(cdataset.Book
Book
p1
c__builtin__
object
p2
Ntp3
Rp4
(dp5
S'content_name'
p6
V23439.txt.utf-8
p7
sS'isbn'
p8
NsS'year'
p9
I1960
sS'author_name'
p10
VMurray Leinster
p11
sS'images_urls'
p12
(lp13
Vhttp://www.gutenberg.org/files/23439/23439-h/images/001.jpg
p14
aVhttp://www.gutenberg.org/files/23439/23439-h/images/002.jpg
p15
aVhttp://www.gutenberg.org/files/23439/23439-page-images/p057-image.png
p16
aVhttp://www.gutenberg.org/files/23439/23439-page-images/p057.png
p17
aVhttp://www.gutenberg.org/files/23439/23439-page-images/p058.png
p18
aVhttp://www.gutenberg.org/files/23439/23439-page-images/p059.png
p19
aVhttp://www.gutenberg.org/files/23439/23439-page-images/p060.png
p20
aVhttp://www.gutenberg.org/files/23439/23439-page-images/p061.png
p21
aVhttp://www.gutenberg.org/files/23439/23439-page-images/p062.png
p22
aVhttp://www.gutenberg.org/files/23439/23439-page-images/p063.png
p23
aVhttp://www.gutenberg.org/files/23439/23439-page-images/p064.png
p24
aVhttp://www.gutenberg.org/files/23439/23439-page-images/p065-image.png
p25
aVhttp://www.gutenberg.org/files/23439/23439-page-images/p065.png
p26
aVhttp://www.gutenberg.org/files/23439/23439-page-images/p066.png
p27
aVhttp://www.gutenberg.org/files/23439/23439-page-images/p067.png
p28
aVhttp://www.gutenberg.org/files/23439/23439-page-images/p068.png
p29
aVhttp://www.gutenberg.org/files/23439/23439-page-images/p069.png
p30
aVhttp://www.gutenberg.org/files/23439/23439-page-images/p070.png
p31
aVhttp://www.gutenberg.org/files/23439/23439-page-images/p071.png
p32
aVhttp://www.gutenberg.org/files/23439/23439-page-images/p072.png
p33
aVhttp://www.gutenberg.org/files/23439/23439-page-images/p073.png
p34
asS'language_code'
p35
Veng
p36
sS'images'
p37
(lp38
sS'id'
p39
I543
sS'category'
p40
VText
p41
sS'genres'
p42
(lp43
sS'copyright'
p44
VPublic domain in the USA.
p45
sS'title'
p46
VAttention Saint Patrick
p47
sS'wikipedia'
p48
(dp49
S'found'
p50
I00
ssS'average_rating'
p51
F3.06
sS'rating_count'
p52
I10
sS'content_available'
p53
I01
sS'goodreads'
p54
(dp55
S'url'
p56
Vhttps://www.goodreads.com/book/show/12072149-attention-saint-patrick
p57
sg50
I01
sS'year'
p58
I1960
ssS'similar_books'
p59
(lp60
sS'description'
p61
VLegends do, of course, get somewhat distorted in the passage of time. In the future, the passage across space to other planets may cause a slight modification here and there ... and on Eire, a planet for the Irish, that might be the only thing that saves them!
p62
sS'gutenberg'
p63
(dp64
g56
Vhttp://www.gutenberg.org/ebooks/23439
p65
sS'num'
p66
I23439
ssS'authors'
p67
(lp68
I61
asS'isbn13'
p69
NsS'language'
p70
VEnglish
p71
sS'countries'
p72
(lp73
I2
asS'release_date'
p74
S'2007-11-10T00:00:00'
p75
sS'author'
p76
I61
sS'content_cleaned'
p77
I01
sS'classes'
p78
(lp79
Vto-read
p80
aVsci-fi
p81
aVscience-fiction
p82
aVcurrently-reading
p83
aVbooks
p84
aVlibrary
p85
aVaudiobooks
p86
aVshort-story
p87
aVshort-stories
p88
aVaudio-obtained
p89
aV1960s
p90
aVscifi
p91
aVbacklogue
p92
aVtype-short-story
p93
aVaudio-obtained-ss
p94
aVloan-od
p95
aVebook
p96
asS'loc_class'
p97
VPS: Language and Literatures: American and Canadian literature
p98
sS'n_authors'
p99
I1
sb.