ccopy_reg
_reconstructor
p0
(cdataset.Book
Book
p1
c__builtin__
object
p2
Ntp3
Rp4
(dp5
S'similar_books'
p6
(lp7
sS'genres'
p8
(lp9
sS'author'
p10
I918
sS'countries'
p11
(lp12
I2
asS'year'
p13
I1953
sS'title'
p14
VIF Magazine November 1953
p15
sS'cover'
p16
Vhttps://ia600209.us.archive.org/BookReader/BookReaderImages.php?zip=/30/items/1953-11_IF/1953-11_IF_jp2.zip&file=1953-11_IF_jp2/1953-11_IF_0000.jp2&scale=0&rotate=0
p17
sS'cover_art'
p18
S'http://www.philsp.com/visco/Magazines/WIF123/WIF1_0005.jpg'
p19
sS'author_name'
p20
VIF Magazine
p21
sS'images_urls'
p22
(lp23
sS'authors'
p24
(lp25
I951
aI412
aI956
aI969
aI970
aI971
aI427
aI966
aI326
aI98
aI935
aI972
aI414
aI973
aI616
aI183
aI396
aI166
aI918
asS'images'
p26
(lp27
sS'id'
p28
I1228
sS'contents'
p29
(lp30
(dp31
g10
I951
sg14
VHomeward Bound
p32
sa(dp33
g10
I412
sg14
VThe Custodian
p34
sa(dp35
g10
I956
sg14
VSee No Evil
p36
sa(dp37
g10
I412
sg14
VWhere There's Hope
p38
sa(dp39
g10
I969
sg14
VHomo Inferior
p40
sa(dp41
g10
I970
sg14
VTrees Are Where You Find Them
p42
sa(dp43
g10
I971
sg14
VCartoon: "It's Probably Ridiculous, but They Appear to Be Some Sort of Parking Meters."
p44
sa(dp45
g10
I956
sg14
VThe Eyes Have It
p46
sa(dp47
g10
I412
sg14
VI'll Kill You Tomorrow
p48
sa(dp49
g10
I427
sg14
VShow Business
p50
sa(dp51
g10
I970
sg14
VTurning Point
p52
sa(dp53
g10
I951
sg14
VEngines On
p54
sa(dp55
g10
I966
sg14
VA Chat with the Editor (If, November 1953)
p56
sa(dp57
g10
I326
sg14
VPersonalities in Science: Hans Albrecht Bethe
p58
sa(dp59
g10
I326
sg14
VScience Briefs (If, November 1953)
p60
sa(dp61
g10
I98
sg14
VThe Custodian
p62
sa(dp63
g10
I935
sg14
VHomo Inferior
p64
sa(dp65
g10
I972
sg14
VSee No Evil
p66
sa(dp67
g10
I414
sg14
VWhere There's Hope
p68
sa(dp69
g10
I973
sg14
VTrees Are Where You Find Them
p70
sa(dp71
g10
I616
sg14
VThe Eyes Have It
p72
sa(dp73
g10
I183
sg14
VI'll Kill You Tomorrow
p74
sa(dp75
g10
I396
sg14
VShow Business
p76
sa(dp77
g10
I166
sg14
VTurning Point
p78
sasb.