ccopy_reg
_reconstructor
p0
(cdataset.Book
Book
p1
c__builtin__
object
p2
Ntp3
Rp4
(dp5
S'similar_books'
p6
(lp7
sS'genres'
p8
(lp9
sS'author'
p10
I918
sS'countries'
p11
(lp12
I2
asS'year'
p13
I1952
sS'title'
p14
VIF Magazine May 1952
p15
sS'cover'
p16
Vhttps://ia601307.us.archive.org/BookReader/BookReaderImages.php?zip=/5/items/1952-05_IF/1952-05_IF_jp2.zip&file=1952-05_IF_jp2/1952-05_IF_0000.jp2&scale=0&rotate=0
p17
sS'cover_art'
p18
S'http://www.isfdb.org/wiki/images/3/33/WOFIFMAY1952.jpg'
p19
sS'author_name'
p20
VIF Magazine
p21
sS'images_urls'
p22
(lp23
sS'authors'
p24
(lp25
I924
aI326
aI925
aI221
aI926
aI927
aI121
aI365
aI928
aI389
aI575
aI88
aI922
aI918
asS'images'
p26
(lp27
sS'id'
p28
I1219
sS'contents'
p29
(lp30
(dp31
g10
I924
sg14
VJungle in the Sky
p32
sa(dp33
g10
I326
sg14
VJungle in the Sky
p34
sa(dp35
g10
I326
sg14
VIt Takes a Thief
p36
sa(dp37
g10
I925
sg14
VThe Beast
p38
sa(dp39
g10
I326
sg14
VInfinity's Child
p40
sa(dp41
g10
I326
sg14
VResurrection Seven
p42
sa(dp43
g10
I326
sg14
VDreamer's World
p44
sa(dp45
g10
I221
sg14
VA Chat with the Editor ... (If, May 1952)
p46
sa(dp47
g10
I221
sg14
VPersonalities in Science Fiction: Raymond A. Palmer
p48
sa(dp49
g10
I926
sg14
VGuest Editorial
p50
sa(dp51
g10
I927
sg14
VScience Briefs (If, May 1952)
p52
sa(dp53
g10
I326
sg14
VThe Postman Cometh ... (If, May 1952)
p54
sa(dp55
g10
I121
sg14
VInfinity's Child
p56
sa(dp57
g10
I365
sg14
VJungle in the Sky
p58
sa(dp59
g10
I928
sg14
VWelcome, Martians!
p60
sa(dp61
g10
I389
sg14
VIt Takes a Thief
p62
sa(dp63
g10
I575
sg14
VThe Beast
p64
sa(dp65
g10
I365
sg14
VResurrection Seven
p66
sa(dp67
g10
I88
sg14
VDreamer's World
p68
sa(dp69
g10
I922
sg14
VThe Revealing Pattern
p70
sasb.