ccopy_reg
_reconstructor
p0
(cdataset.Book
Book
p1
c__builtin__
object
p2
Ntp3
Rp4
(dp5
S'content_name'
p6
V31767.txt.utf-8
p7
sS'isbn'
p8
V0857664182
p9
sS'year'
p10
I2014
sS'author_name'
p11
VAlfred Coppel
p12
sS'images_urls'
p13
(lp14
Vhttp://www.gutenberg.org/files/31767/31767-h/images/001.png
p15
aVhttp://www.gutenberg.org/files/31767/31767-h/images/002-1.jpg
p16
aVhttp://www.gutenberg.org/files/31767/31767-h/images/002-2.jpg
p17
asS'language_code'
p18
Veng
p19
sS'images'
p20
(lp21
sS'id'
p22
I923
sS'category'
p23
VText
p24
sS'genres'
p25
(lp26
sS'copyright'
p27
VPublic domain in the USA.
p28
sS'title'
p29
VThe Peacemaker
p30
sS'wikipedia'
p31
(dp32
S'found'
p33
I00
ssS'average_rating'
p34
F3.59
sS'rating_count'
p35
I247
sS'content_available'
p36
I01
sS'goodreads'
p37
(dp38
S'url'
p39
Vhttps://www.goodreads.com/book/show/18490849-peacemaker
p40
sg33
I01
sS'year'
p41
I2014
ssS'similar_books'
p42
(lp43
VThe Female Factory (Twelve Planets book 11)
p44
aVLove and Romanpunk (Twelve Planets, #2)
p45
aVDebris (The Veiled Worlds, #1)
p46
aVSharp Shooter (Tara Sharp, #1)
p47
aVThe Disappearance of Ember Crow (The Tribe #2)
p48
aVThe Courier's New Bicycle
p49
aVDay Boy
p50
aVCaution: contains small parts (Twelve Planets book 9)
p51
aVNightsiders (Twelve Planets book 1)
p52
aVThe Hush
p53
aVA Trifle Dead (Cafe La Femme, #1)
p54
aVThe Red Wind (The Kingdom of the Lost #1)
p55
aVAsymmetry (Twelve Planets book 8)
p56
aVKaleidoscope: Diverse YA Science Fiction and Fantasy Stories
p57
aVThe Ark (Children of a Dead Earth, #1)
p58
aVAttack the Geek (Ree Reyes, #2.5)
p59
aVBlack Glass
p60
asS'description'
p61
VVirgin Jackson is the senior ranger in Birrimun Park - the world's last natural landscape, overshadowed though it is by a sprawling coastal megacity. She maintains public safety and order in the park, but her bosses have brought out a hotshot cowboy to help her catch some drug runners who are affecting tourism. She senses the company is holding something back from her, and she's not keen on working with an outsider like Nate Sixkiller.<br /><br />When an imaginary animal from her troubled teenage years reappears, Virgin takes it to mean one of two things: a breakdown (hers!) or a warning. Dead bodies start piling up around her, so she decides on the latter. Something terrible is about to happen in the park and Virgin and her new partner, U.S. Marshall Nate Sixkiller, are standing in its path...
p62
sS'format'
p63
VPaperback
p64
sS'gutenberg'
p65
(dp66
g39
Vhttp://www.gutenberg.org/ebooks/31767
p67
sS'num'
p68
I31767
ssS'authors'
p69
(lp70
I166
asS'pages'
p71
I352
sS'isbn13'
p72
V9780857664181
p73
sS'language'
p74
VEnglish
p75
sS'country'
p76
I3
sS'release_date'
p77
S'2010-03-25T00:00:00'
p78
sS'author'
p79
I166
sS'content_cleaned'
p80
I01
sS'classes'
p81
(lp82
Vto-read
p83
aVscience-fiction
p84
aVurban-fantasy
p85
aVsci-fi
p86
aVfantasy
p87
aVnetgalley
p88
aVcurrently-reading
p89
aVkindle
p90
aVwestern
p91
aVaustralian
p92
aVthriller
p93
aVparanormal
p94
aVfiction
p95
aVread-in-2014
p96
aVseries
p97
aVspeculative-fiction
p98
aVread-2014
p99
aVsupernatural
p100
aVebook
p101
aVangry-robot
p102
aVfavorites
p103
aVscifi
p104
aVaction
p105
aVaustralian-author
p106
aVfemale-protagonist
p107
aVmystery
p108
aVdemons
p109
aVcrime
p110
aVfor-review
p111
aVmaybe
p112
aVtbr
p113
aVowned-books
p114
aVbooks
p115
aVfemale-lead
p116
aVfantasy-sci-fi
p117
aVseries-to-try
p118
aVmy-library
p119
aV2014-best-of
p120
aVpub-2014
p121
aVadult
p122
aV2014-read
p123
aVwish-list
p124
aVaww2014
p125
aVnear-future
p126
aVdystopian
p127
aV2014-reads
p128
aVto-get
p129
aVsf
p130
aVscifi-fantasy
p131
aVnet-galley
p132
aVyear-2014
p133
aVspeculative
p134
aVto-read-d
p135
aVsf-f-2017-geographic-setting-challe
p136
aV2017-adventures
p137
aV00-to-read-02
p138
aVparanomal
p139
aVaussie
p140
aVaustraliana
p141
aV2017-reading-challenge
p142
aV000src-s-05-06-mary
p143
aVto-read-b
p144
aVaus-sff-novel
p145
aVaurealis-award
p146
aVread-not-owned
p147
aVto-read-fiction-on-dropbox
p148
aVawards-aurealis
p149
aVunfinished
p150
aVdnf
p151
aVfirst-in-series
p152
aVaustralia
p153
aVnext-in-series
p154
aVsteampunk
p155
aVbookshop-wanderings
p156
aVwishlist-to-own-hardcopies
p157
aVterrible
p158
aVunavailable
p159
aVinteresting
p160
aVseries-list
p161
aVgenre-blends
p162
aVdefault
p163
aVsub
p164
aVwwe2016
p165
aVweird-west
p166
aVurban
p167
aVfolklore
p168
aVfirst-person-narration
p169
aVbooks-by-women
p170
aVtitle-p
p171
aVebook-archive
p172
aVfantasy-and-sci-fi
p173
aVaww-authors
p174
aVto-read-ebook-sooner
p175
aVtbr-penpal
p176
aVsubj_science-fiction
p177
aVlit_australian
p178
aVwild-west
p179
aVurban-fantacy
p180
aVsupernatural-bureu
p181
aVsifi
p182
asS'loc_class'
p183
VPS: Language and Literatures: American and Canadian literature
p184
sS'n_authors'
p185
I1
sb.