ccopy_reg
_reconstructor
p0
(cdataset.Book
Book
p1
c__builtin__
object
p2
Ntp3
Rp4
(dp5
S'content_name'
p6
V17027.txt.utf-8
p7
sS'isbn'
p8
NsS'year'
p9
I1999
sS'author_name'
p10
VCory Doctorow
p11
sS'images_urls'
p12
(lp13
sS'language_code'
p14
Veng
p15
sS'id'
p16
I749
sS'category'
p17
VText
p18
sS'genres'
p19
(lp20
sS'copyright'
p21
VCopyrighted. Read the copyright notice inside this book for details.
p22
sS'title'
p23
VReturn to Pleasure Island
p24
sS'wikipedia'
p25
(dp26
S'found'
p27
I00
ssS'average_rating'
p28
F3.16
sS'rating_count'
p29
I45
sS'content_available'
p30
I01
sS'goodreads'
p31
(dp32
S'url'
p33
Vhttps://www.goodreads.com/book/show/11220496-return-to-pleasure-island
p34
sS'found'
p35
I01
sS'year'
p36
I1999
ssS'similar_books'
p37
(lp38
sS'description'
p39
VThis is the story of the ogres who run the concession stands on Pleasure Island, where Pinnocchio's friend Lampwick turned into a donkey.
p40
sS'gutenberg'
p41
(dp42
g33
Vhttp://www.gutenberg.org/ebooks/17027
p43
sS'num'
p44
I17027
ssS'authors'
p45
(lp46
I33
asS'pages'
p47
I31
sS'isbn13'
p48
NsS'language'
p49
VEnglish
p50
sS'countries'
p51
(lp52
I8
aI1
asS'release_date'
p53
S'2005-11-20T00:00:00'
p54
sS'author'
p55
I33
sS'cover'
p56
Vhttps://s.gr-assets.com/assets/nophoto/book/111x148-bcc042a9c91a29c1d680899eff700a03.png
p57
sS'content_cleaned'
p58
I01
sS'classes'
p59
(lp60
Vto-read
p61
aVscience-fiction
p62
aVebook
p63
aVebooks
p64
aVscifi
p65
aVcalibre
p66
aVinterested
p67
aVmaybe-read
p68
aVanother-to-read
p69
aVtype-short-story
p70
aVreviewed
p71
aVa9
p72
aVvery-short
p73
aVfantasy
p74
aVaudio-obtained
p75
aVscifi-fantasy-read
p76
aVto-read-in-2017
p77
aVa-on-nook
p78
aVa-adobe-editions
p79
aVfromcalibre
p80
aVto-read-owned
p81
aVshorts-to-read
p82
aVscience-fiction-fantasy
p83
aVfree-reads
p84
aVrandom-added
p85
aVgenre
p86
aVfree-ebook
p87
aVfiction
p88
aVsci-fi
p89
aVsf-dystopias
p90
aVfantasy-scifi
p91
aVfree
p92
aVcurious-about
p93
aVdoctorow
p94
aVcory-doctorow
p95
aVkindle
p96
aVaa9
p97
aVaudio-obtained-lvss
p98
aVa5
p99
aVaaaaaaaa
p100
asS'loc_class'
p101
VPS: Language and Literatures: American and Canadian literature
p102
sS'n_authors'
p103
I1
sb.