ccopy_reg
_reconstructor
p0
(cdataset.Book
Book
p1
c__builtin__
object
p2
Ntp3
Rp4
(dp5
S'content_name'
p6
V33642.txt.utf-8
p7
sS'isbn'
p8
V0307220141
p9
sS'year'
p10
I1993
sS'author_name'
p11
VKris Neville
p12
sS'images_urls'
p13
(lp14
Vhttp://www.gutenberg.org/files/33642/33642-h/images/cover.jpg
p15
aVhttp://www.gutenberg.org/files/33642/33642-h/images/illus.jpg
p16
asS'language_code'
p17
NsS'images'
p18
(lp19
sS'id'
p20
I620
sS'category'
p21
VText
p22
sS'genres'
p23
(lp24
sS'copyright'
p25
VPublic domain in the USA.
p26
sS'title'
p27
VEarth Alert!
p28
sS'wikipedia'
p29
(dp30
S'found'
p31
I00
ssS'average_rating'
p32
F3.6
sS'rating_count'
p33
I159
sS'content_available'
p34
I01
sS'cover_art_url'
p35
S'http://www.gutenberg.org/cache/epub/33642/pg33642.cover.medium.jpg'
p36
sS'goodreads'
p37
(dp38
S'url'
p39
Vhttps://www.goodreads.com/book/show/1350513.Earth_Alert_
p40
sg31
I01
sS'year'
p41
I1993
ssS'similar_books'
p42
(lp43
VVeronica at the Wells (Sadler's Wells, #2)
p44
aVKaren's Worst Day (Baby-Sitters Little Sister, #3)
p45
aVOf Sound Mind
p46
aVThe Case of the Nutcracker Ballet (The New Adventures of Mary-Kate & Ashley, #38)
p47
aVOlga: Back to Libur
p48
aVSTOP : Melacak Gerombolan Pemburu Liar
p49
aVNightmare (Undercover Girl, #3)
p50
aVLittle New York vol. 1
p51
aVThe Case of the Summer Camp Caper (The New Adventures of Mary-Kate & Ashley, #11)
p52
aVPadang Ilalang di Belakang Rumah
p53
asS'description'
p54
VGIRL TALK 14<br />BUMIKU CINTAKU<br />(Berhasilkah allison dan kawan - kawannya menyelamatkan bumi?)<br /><br />Bumi dalam bahaya<br />"Kerusakan Bumi semakin parah. Anak - anak di seluruh dunia pasti bisa berbuat sesuatu untuk menyelamatkannya."<br />Ketika Allison terpilih menjadi ketua bazar, ia bertekad untuk membuat anak - anak SMP Bradley memperhatikan bumi. <br />Tapi semua rencana nyaris berantakan karena si pongah Stacy menginginkan bazar tersebut diadakan dengan caranya!<br />
p55
sS'format'
p56
NsS'gutenberg'
p57
(dp58
g39
Vhttp://www.gutenberg.org/ebooks/33642
p59
sS'num'
p60
I33642
ssS'authors'
p61
(lp62
I194
asS'isbn13'
p63
V9780307220141
p64
sS'language'
p65
VEnglish
p66
sS'country'
p67
I3
sS'release_date'
p68
S'2010-09-05T00:00:00'
p69
sS'author'
p70
I194
sS'content_cleaned'
p71
I01
sS'classes'
p72
(lp73
Vto-read
p74
aVgirl-talk
p75
aVyoung-adult
p76
aVteen
p77
aVgirltalk
p78
aVowned
p79
aVchildhood
p80
aVteenlit
p81
aVfiction
p82
aVfemale-authors
p83
aVschool
p84
aVfriendship
p85
aVmiddle-grade-nostalgia
p86
aVchildhood-favourites
p87
aVseries-girl-talk
p88
aVindonesian-translation
p89
aVterjemahan
p90
aVwhat-my-childhood-looked-like
p91
aVfamily-and-friendship
p92
aVmy-younger-years
p93
aVtrade-paperback
p94
aVya-lit
p95
aVjuv-fiction
p96
aVchildhood-teenage-memory
p97
aVtranslated-novel
p98
aVteen-lite
p99
aVtweenie
p100
aVbooks-i-own
p101
aVchildhood-books
p102
aVyouth
p103
aV2009-and-before
p104
aVcurrently-reading
p105
aVpopuler
p106
aVbuku-anak-dan-remaja
p107
aVchildren-s-books
p108
aVleb
p109
aVbooks-from-childhood
p110
aVje-v-preklade
p111
aV4-stars
p112
aVchildhood-series
p113
aVmy-own-book
p114
aVindonesian
p115
aVbooks-from-my-childhood
p116
aVbooks
p117
aVya-contemporary
p118
aVchildhood-and-teenage-memories
p119
aVfrom-my-childhood
p120
aVintermediate
p121
aVcoming-of-age
p122
aVteens
p123
aV--available-at-raspberrys--
p124
aVteenage
p125
aVtranslated
p126
aVle-blair
p127
aVused-to-own
p128
aVbooks-i-loved-growing-up
p129
aVcerita-anak-remaja
p130
aVl-e-blair
p131
aVelementary-middle-school
p132
aVteenstory
p133
aVnovel-remaja
p134
aVfiksi
p135
aVpernah-minjam
p136
aVmiddle-grade-books
p137
aVchildren-ya-series
p138
aVpreteen-teen-youngadult
p139
aVmyteenagerperiod
p140
aVdone
p141
aVchildren-s-book
p142
aVchildren
p143
aVown-dtb
p144
aV1900-s
p145
asS'loc_class'
p146
VPS: Language and Literatures: American and Canadian literature
p147
sS'n_authors'
p148
I1
sb.