ccopy_reg
_reconstructor
p0
(cdataset.Book
Book
p1
c__builtin__
object
p2
Ntp3
Rp4
(dp5
S'content_name'
p6
V52574.txt.utf-8
p7
sS'isbn'
p8
NsS'year'
p9
I1963
sS'author_name'
p10
VMurray Leinster
p11
sS'images_urls'
p12
(lp13
Vhttp://www.gutenberg.org/files/52574/52574-h/images/cover.jpg
p14
aVhttp://www.gutenberg.org/files/52574/52574-h/images/illus1.jpg
p15
aVhttp://www.gutenberg.org/files/52574/52574-h/images/illus2.jpg
p16
aVhttp://www.gutenberg.org/files/52574/52574-h/images/illus3.jpg
p17
asS'language_code'
p18
NsS'images'
p19
(lp20
sS'id'
p21
I180
sS'category'
p22
VText
p23
sS'genres'
p24
(lp25
sS'copyright'
p26
VPublic domain in the USA.
p27
sS'title'
p28
VThird Planet
p29
sS'wikipedia'
p30
(dp31
S'url'
p32
Vhttps://en.wikipedia.org/wiki/The_Forgotten_Planet
p33
sS'found'
p34
I01
sS'year'
p35
I-1
ssS'published_in'
p36
NsS'average_rating'
p37
F4.18
sS'rating_count'
p38
I2
sS'content_available'
p39
I01
sS'cover_art_url'
p40
S'http://www.gutenberg.org/cache/epub/52574/pg52574.cover.medium.jpg'
p41
sS'goodreads'
p42
(dp43
S'url'
p44
S'https://www.goodreads.com/book/show/31299260-third-planet'
p45
sS'found'
p46
I01
ssS'similar_books'
p47
(lp48
sS'description'
p49
NsS'gutenberg'
p50
(dp51
g32
Vhttp://www.gutenberg.org/ebooks/52574
p52
sS'num'
p53
I52574
ssS'authors'
p54
(lp55
I61
asS'isbn13'
p56
NsS'language'
p57
VEnglish
p58
sS'countries'
p59
(lp60
I2
asS'release_date'
p61
S'2016-07-14T00:00:00'
p62
sS'author'
p63
I61
sS'original_title'
p64
VThe Forgotten Planet
p65
sS'summary'
p66
VThe Forgotten Planet is a science fiction novel by American writer Murray Leinster. It was released in 1954 by Gnome Press in an edition of 5,000 copies. The novel is a fix-up from three short stories, "The Mad Planet" and "The Red Dust", both of which had originally appeared in the magazine Argosy in 1920 and 1921, and "Nightmare Planet", which had been published in Science Fiction Plus in 1953.
p67
sS'content_cleaned'
p68
I01
sS'classes'
p69
(lp70
Vunknown-publication-dates
p71
aVto-read
p72
asS'loc_class'
p73
S''
p74
sS'n_authors'
p75
I1
sb.