ccopy_reg
_reconstructor
p0
(cdataset.Book
Book
p1
c__builtin__
object
p2
Ntp3
Rp4
(dp5
S'similar_books'
p6
(lp7
sS'genres'
p8
(lp9
sS'author'
p10
I302
sS'countries'
p11
(lp12
I2
asS'year'
p13
I1962
sS'title'
p14
VGalaxy Magazine April 1962
p15
sS'cover'
p16
Vhttps://ia600206.us.archive.org/BookReader/BookReaderImages.php?zip=/17/items/Galaxy_v20n04_1962-04/Galaxy_v20n04_1962-04_jp2.zip&file=Galaxy_v20n04_1962-04_jp2/Galaxy_v20n04_1962-04_0000.jp2&scale=0&rotate=0
p17
sS'cover_art'
p18
S'http://www.isfdb.org/wiki/images/5/51/GALAPR1962.jpg'
p19
sS'author_name'
p20
VGalaxy Magazine
p21
sS'images_urls'
p22
(lp23
sS'authors'
p24
(lp25
I497
aI419
aI560
aI570
aI571
aI565
aI339
aI326
aI86
aI507
aI514
aI554
aI572
aI179
aI542
aI302
asS'images'
p26
(lp27
sS'id'
p28
I1089
sS'contents'
p29
(lp30
(dp31
S'title'
p32
VA Planet for Plundering
p33
sS'author'
p34
I497
sa(dp35
g32
VA Planet for Plundering [2]
p36
sg34
I497
sa(dp37
g32
VThe Tail-Tied Kings
p38
sg34
I419
sa(dp39
g32
VStar-Crossed Lover
p40
sg34
I560
sa(dp41
g32
VBig Ba
p42
sg34
I570
sa(dp43
g32
VBig Ba
p44
sg34
I571
sa(dp45
g32
VFounding Father
p46
sg34
I560
sa(dp47
g32
VFounding Father [2]
p48
sg34
I560
sa(dp49
g32
VFounding Father [3]
p50
sg34
I560
sa(dp51
g32
VMoon Dog
p52
sg34
I419
sa(dp53
g32
VFootnotes Up Front
p54
sg34
I565
sa(dp55
g32
VFor Your Information: The Shape of Shells to Come
p56
sg34
I339
sa(dp57
g32
VStatement of Ownership (Galaxy, April 1962) (Circulation: 91,000)
p58
sg34
I326
sa(dp59
g32
VForecast (Galaxy, April 1962)
p60
sg34
I326
sa(dp61
g32
VA Planet for Plundering
p62
sg34
I86
sa(dp63
g32
VFounding Father
p64
sg34
I507
sa(dp65
g32
VThe Tail-Tied Kings
p66
sg34
I514
sa(dp67
g32
VStar-Crossed Lover
p68
sg34
I554
sa(dp69
g32
VThe Long, Silvery Day
p70
sg34
I572
sa(dp71
g32
VGourmet
p72
sg34
I179
sa(dp73
g32
VMoon Dog
p74
sg34
I542
sasb.