ccopy_reg
_reconstructor
p0
(cdataset.Book
Book
p1
c__builtin__
object
p2
Ntp3
Rp4
(dp5
S'content_name'
p6
V51741.txt.utf-8
p7
sS'isbn'
p8
V0688099866
p9
sS'year'
p10
I1983
sS'author_name'
p11
VH. B. Fyfe
p12
sS'images_urls'
p13
(lp14
Vhttp://www.gutenberg.org/files/51741/51741-h/images/cover.jpg
p15
aVhttp://www.gutenberg.org/files/51741/51741-h/images/illus1.jpg
p16
aVhttp://www.gutenberg.org/files/51741/51741-h/images/illus2.jpg
p17
asS'language_code'
p18
Ven-GB
p19
sS'images'
p20
(lp21
sS'id'
p22
I603
sS'category'
p23
VText
p24
sS'genres'
p25
(lp26
sS'copyright'
p27
VPublic domain in the USA.
p28
sS'title'
p29
VRound-and-Round Trip
p30
sS'wikipedia'
p31
(dp32
S'found'
p33
I00
ssS'average_rating'
p34
F4.23
sS'rating_count'
p35
I854
sS'content_available'
p36
I01
sS'cover_art_url'
p37
S'http://www.gutenberg.org/cache/epub/51741/pg51741.cover.medium.jpg'
p38
sS'goodreads'
p39
(dp40
S'url'
p41
Vhttps://www.goodreads.com/book/show/1430728.Round_Trip
p42
sg33
I01
sS'year'
p43
I1983
ssS'similar_books'
p44
(lp45
VPeter Spier's Rain
p46
aVRainstorm
p47
aVRe-Zoom
p48
aVAnno's Journey
p49
aVYou Can't Take a Balloon into the Metropolitan Museum
p50
aVSouth
p51
aVSpots, Feathers, and Curly Tails
p52
aVThe Turn-Around, Upside-Down Alphabet Book
p53
aVWave
p54
aVHome
p55
aVA Picture for Harold's Room
p56
aVUn-Brella
p57
aVHenry Hikes to Fitchburg
p58
aVAlong a Long Road
p59
aVArmadillo Rodeo
p60
aVBlack Cat
p61
aVDahlia
p62
aVThe Secret Circus
p63
asS'description'
p64
VBlack and white illustrations and text record the sights on a day trip to the city and back home again to the country. The trip to the city is read from front to back and the return trip from back to front, upside down.
p65
sS'format'
p66
VPaperback
p67
sS'gutenberg'
p68
(dp69
g41
Vhttp://www.gutenberg.org/ebooks/51741
p70
sS'num'
p71
I51741
ssS'authors'
p72
(lp73
I94
asS'pages'
p74
I32
sS'isbn13'
p75
V9780688099862
p76
sS'language'
p77
VEnglish
p78
sS'countries'
p79
(lp80
I2
asS'release_date'
p81
S'2016-04-12T00:00:00'
p82
sS'author'
p83
I94
sS'content_cleaned'
p84
I01
sS'classes'
p85
(lp86
Vto-read
p87
aVpicture-books
p88
aVcreativity
p89
aVpicture-book
p90
aVchildren-s-books
p91
aVchildren-s-lit
p92
aVchildrens
p93
aV04-realistic-fiction
p94
aVchildren
p95
aVchildren-s-literature
p96
aVchildren-s
p97
aVrealistic-fiction
p98
aVart
p99
aVmarch
p100
aV18-creativity
p101
aVfiction
p102
aVpicturebooks
p103
aVtravel
p104
aVfavorites
p105
aVchildrens-books
p106
aVchildrens-lit
p107
aVwordless
p108
aVmath
p109
aVpreschool
p110
aVkids
p111
aVgolden-sower
p112
aVchild-lit
p113
aVstory-time
p114
aVinteractive
p115
aVread-aloud
p116
aVchildren-s-picture-books
p117
aVcurrently-reading
p118
aVpicture
p119
aVdefault
p120
aV17-creativity
p121
aVchildrens-literature
p122
aVchildren-books
p123
aVchildhood-favorites
p124
aV100-books
p125
aVi-own
p126
aVchildrens-picture-books
p127
aVkids-books
p128
aVkiddos
p129
aVengineered
p130
aVread-alouds
p131
aVpicturebook
p132
aVgraphic-novel
p133
aVeng-355
p134
aVenglish-355
p135
aVseamons-eng-355-children-s-lit-f14
p136
aVpicture-books-to-buy
p137
aVarts
p138
aVbooks-i-own
p139
aVchildren-ya
p140
aVshapes
p141
aVpreschool-storytime
p142
aVece-3601
p143
aVkindergarten
p144
aVpost-modern
p145
aVtransportation
p146
aVowned
p147
aVchildrens-fiction
p148
aVschool
p149
aVpostmodern-picturebooks
p150
aVmeta
p151
aVpicture-books-read
p152
aVelementary
p153
aVchildhood
p154
aVchildren-s-book
p155
aVto-buy
p156
aVreading-rainbow
p157
aVreadalouds
p158
aVe
p159
aVgreat-picture-book-illustrations
p160
aVcycle-3
p161
aVpub-harper-collins
p162
aVpub-greenwillow
p163
aVpicture-book-pb
p164
aVcover-art-pb
p165
aVbooks-for-the-boys
p166
aVmath-read-alouds
p167
aVcleverness
p168
aVelementary-school
p169
aVc-read-himself
p170
aVc-read
p171
aVfor-my-classroom
p172
aVchildren-s-bookcase
p173
aVbedtime-stories-for-my-spawn
p174
aVzachary-s-books
p175
aVbooks-of-2017
p176
aVbooks-for-my-students
p177
aVshd
p178
aVjbf
p179
aV1000-books-before-kindergarten
p180
aVstorage-unit
p181
aVart-project
p182
aVto-read-picturebook
p183
aVlili-s-lifetime-reads
p184
aVrequired-books-1-12
p185
aVsimon-s-1000-books
p186
asS'loc_class'
p187
S''
p188
sS'n_authors'
p189
I1
sb.