ccopy_reg
_reconstructor
p0
(cdataset.Book
Book
p1
c__builtin__
object
p2
Ntp3
Rp4
(dp5
S'similar_books'
p6
(lp7
sS'genres'
p8
(lp9
sS'author'
p10
I918
sS'countries'
p11
(lp12
I2
asS'year'
p13
I1953
sS'title'
p14
VIF Magazine May 1953
p15
sS'cover'
p16
Vhttps://ia601307.us.archive.org/BookReader/BookReaderImages.php?zip=/19/items/1953-05_IF/1953-05_IF_jp2.zip&file=1953-05_IF_jp2/1953-05_IF_0000.jp2&scale=0&rotate=0
p17
sS'cover_art'
p18
S'http://www.philsp.com/visco/Magazines/WIF123/WIF1_0002.jpg'
p19
sS'author_name'
p20
VIF Magazine
p21
sS'images_urls'
p22
(lp23
sS'authors'
p24
(lp25
I951
aI363
aI326
aI436
aI412
aI956
aI948
aI952
aI957
aI542
aI441
aI194
aI616
aI218
aI236
aI958
aI467
aI959
aI960
aI918
asS'images'
p26
(lp27
sS'id'
p28
I1225
sS'contents'
p29
(lp30
(dp31
g10
I951
sg14
VMars Landscape
p32
sa(dp33
g10
I951
sg14
VJupiter Five
p34
sa(dp35
g10
I363
sg14
VShe Knew He Was Coming
p36
sa(dp37
g10
I326
sg14
VPipe of Peace
p38
sa(dp39
g10
I436
sg14
VThe Huddlers
p40
sa(dp41
g10
I412
sg14
VThe Kenzie Report
p42
sa(dp43
g10
I363
sg14
VDerelict
p44
sa(dp45
g10
I363
sg14
VCircle of Flight
p46
sa(dp47
g10
I956
sg14
VThe Contest
p48
sa(dp49
g10
I951
sg14
VJupiter
p50
sa(dp51
g10
I948
sg14
VA Chat with the Editor (If, May 1953)
p52
sa(dp53
g10
I952
sg14
VPersonalities in Science: Dr. Roy K. Marshall
p54
sa(dp55
g10
I957
sg14
VScience Briefs (If, May 1953)
p56
sa(dp57
g10
I326
sg14
VThe Postman Cometh (If, May 1953)
p58
sa(dp59
g10
I542
sg14
VJupiter Five
p60
sa(dp61
g10
I441
sg14
VDerelict
p62
sa(dp63
g10
I194
sg14
VShe Knew He Was Coming
p64
sa(dp65
g10
I616
sg14
VPipe of Peace
p66
sa(dp67
g10
I218
sg14
VThe Huddlers
p68
sa(dp69
g10
I236
sg14
VThe Kenzie Report
p70
sa(dp71
g10
I958
sg14
VField Trip
p72
sa(dp73
g10
I467
sg14
VCircle of Flight
p74
sa(dp75
g10
I959
sg14
VSay "Hello" for Me
p76
sa(dp77
g10
I960
sg14
VThe Contest
p78
sasb.