ccopy_reg
_reconstructor
p0
(cdataset.Book
Book
p1
c__builtin__
object
p2
Ntp3
Rp4
(dp5
S'similar_books'
p6
(lp7
sS'genres'
p8
(lp9
sS'author'
p10
I302
sS'countries'
p11
(lp12
I2
asS'year'
p13
I1969
sS'title'
p14
VGalaxy Magazine October 1969
p15
sS'cover'
p16
Vhttps://ia600208.us.archive.org/BookReader/BookReaderImages.php?zip=/17/items/Galaxy_v29n02_1969-10/Galaxy_v29n02_1969-10_jp2.zip&file=Galaxy_v29n02_1969-10_jp2/Galaxy_v29n02_1969-10_0000.jp2&scale=0&rotate=0
p17
sS'cover_art'
p18
S'http://www.isfdb.org/wiki/images/2/23/GALOCT69.jpg'
p19
sS'author_name'
p20
VGalaxy Magazine
p21
sS'images_urls'
p22
(lp23
sS'authors'
p24
(lp25
I499
aI326
aI40
aI339
aI91
aI602
aI663
aI63
aI204
aI664
aI665
aI630
aI666
aI662
aI302
asS'images'
p26
(lp27
sS'id'
p28
I1137
sS'contents'
p29
(lp30
(dp31
g10
I499
sg14
VTomorrow Cum Laude
p32
sa(dp33
g10
I499
sg14
VTomorrow Cum Laude [2]
p34
sa(dp35
g10
I499
sg14
VTomorrow Cum Laude [3]
p36
sa(dp37
g10
I499
sg14
VTomorrow Cum Laude [4]
p38
sa(dp39
g10
I326
sg14
VThe God of Cool
p40
sa(dp41
g10
I326
sg14
VElement of Chance
p42
sa(dp43
g10
I499
sg14
VThe Soul Machine
p44
sa(dp45
g10
I499
sg14
VErsalz's Rule
p46
sa(dp47
g10
I326
sg14
VTake the B Train
p48
sa(dp49
g10
I499
sg14
VTake the B Train [2]
p50
sa(dp51
g10
I326
sg14
VStella
p52
sa(dp53
g10
I326
sg14
VDune Messiah (Part 4 of 5)
p54
sa(dp55
g10
I40
sg14
VWhat Happened On 18 December 1955
p56
sa(dp57
g10
I339
sg14
VFor Your Information (Galaxy Magazine, October 1969)
p58
sa(dp59
g10
I91
sg14
VGalaxy Bookshelf (Galaxy, October 1969)
p60
sa(dp61
g10
I602
sg14
VTomorrow Cum Laude
p62
sa(dp63
g10
I663
sg14
VTake the B Train
p64
sa(dp65
g10
I63
sg14
VDune Messiah (Part 4 of 5)
p66
sa(dp67
g10
I204
sg14
VTruly Human
p68
sa(dp69
g10
I664
sg14
VThe God of Cool
p70
sa(dp71
g10
I665
sg14
VElement of Chance
p72
sa(dp73
g10
I630
sg14
VThe Soul Machine
p74
sa(dp75
g10
I666
sg14
VErsalz's Rule
p76
sa(dp77
g10
I662
sg14
VStella
p78
sasb.