ccopy_reg
_reconstructor
p0
(cdataset.Book
Book
p1
c__builtin__
object
p2
Ntp3
Rp4
(dp5
S'content_name'
p6
V605.txt.utf-8
p7
sS'isbn'
p8
V0803262043
p9
sS'year'
p10
I1915
sS'author_name'
p11
VEdgar Rice Burroughs
p12
sS'images_urls'
p13
(lp14
sS'language_code'
p15
Veng
p16
sS'images'
p17
(lp18
sS'id'
p19
I64
sS'category'
p20
VText
p21
sS'plot'
p22
V'The Return to Pellucidar'. David Innes goes for a war and becomes a POW again, while Abner Perry makes a balloon, which escapes with Dian the Beautiful in it.\u000a'Men of the Bronze Age'. Dian meets the people who have advanced to bronze age and is made a goddess.\u000a'Tiger Girl'. David Innes goes after Dian in another balloon, he plays the role of a god.\u000a'Savage Pellucidar'. Two separate search parties are looking for the lost ones without knowing the other has already found the ones they are seeking.
p23
sS'genres'
p24
(lp25
sS'copyright'
p26
VPublic domain in the USA.
p27
sS'title'
p28
VPellucidar
p29
sS'wikipedia'
p30
(dp31
S'url'
p32
Vhttps://en.wikipedia.org/wiki/Savage_Pellucidar
p33
sS'found'
p34
I01
sS'year'
p35
I-1
ssS'published_in'
p36
NsS'average_rating'
p37
F3.78
sS'rating_count'
p38
I1438
sS'content_available'
p39
I01
sS'goodreads'
p40
(dp41
g32
Vhttps://www.goodreads.com/book/show/403355.Pellucidar
p42
sg34
I01
sg35
I1915
ssS'similar_books'
p43
(lp44
VDwellers in the Mirage
p45
aVEdgar Rice Burroughs' Tarzan: The Land That Time Forgot
p46
aVAlmuric
p47
aVThe Misplaced Battleship
p48
aVDare
p49
aVBlack Amazon of Mars
p50
aVThe Black Star Passes
p51
aVThe New Machiavelli
p52
aVThongor Against the Gods (Thongor, #3)
p53
aVMasters Of The Pit Or Barbarians Of Mars (Michael Kane, Vol. 3)
p54
aVConan of the Isles (Conan 12)
p55
aVLucky Starr and the Oceans of Venus (Lucky Starr, #3)
p56
aVThe Two Faces of Tomorrow
p57
aVThe Man of Bronze (Doc Savage, #1)
p58
aVConan the Warlord
p59
aVEdgar Rice Burroughs : Master of Adventure
p60
asS'description'
p61
VA Sequel To At the Earth\u2019s Core<br />American David Innes narrates return to exotic, savage land below the Earth crust, old pal Abner Perry, female Mahar, an untamed wilderness where the sun never sets. He seeks beloved Beautiful Dian, torn away by trickery. He crosses the Pellucidar, the Land of Awful Shadow under a pendant moon, encounters prehistoric beasts &amp; strange peoples.
p62
sS'format'
p63
VPaperback
p64
sS'gutenberg'
p65
(dp66
g32
Vhttp://www.gutenberg.org/ebooks/605
p67
sS'num'
p68
I605
ssS'authors'
p69
(lp70
I2
asS'pages'
p71
I167
sS'isbn13'
p72
V9780803262041
p73
sS'language'
p74
VEnglish
p75
sS'country'
p76
I2
sS'release_date'
p77
S'1996-07-01T00:00:00'
p78
sS'author'
p79
I2
sS'original_title'
p80
VSavage Pellucidar
p81
sS'summary'
p82
VSavage Pellucidar is a 1963 fantasy story collection by Edgar Rice Burroughs, the seventh and final book in his series about the fictional "hollow earth" land of Pellucidar. It was published twelve years after Burroughs's death.\u000aLike a number of other posthumously published books by Burroughs, this book is not a novel but a collection of short stories. The first three stories, The Return to Pellucidar, Men of the Bronze Age and Tiger Girl, were published in Amazing Stories in February, March, and April 1942. The fourth story, Savage Pellucidar, was published for the first time in November 1963 after being discovered in a safe by Burroughs' son Hulbert in the early 1960s.
p83
sS'content_cleaned'
p84
I01
sS'classes'
p85
(lp86
Vscience-fiction
p87
aVfantasy
p88
aVfiction
p89
aVadventure
p90
aVsci-fi
p91
aVto-read
p92
aVedgar-rice-burroughs
p93
aVclassics
p94
aVowned
p95
aVkindle
p96
aVebook
p97
aVpulp
p98
aVsf
p99
aVscifi
p100
aVclassic
p101
aVdefault
p102
aVappendix-n
p103
aVseries
p104
aVburroughs
p105
aVebooks
p106
aVcurrently-reading
p107
aVe-books
p108
aVdinosaurs
p109
aVfantasy-science-fiction
p110
aVaction
p111
aVclassic-sci-fi
p112
aVscifi-fantasy
p113
aVsci-fi-fantasy
p114
aVpellucidar
p115
aVclassic-science-fiction
p116
aVscience-fiction-fantasy
p117
aVscience-fantasy
p118
aVaction-adventure
p119
aVhollow-earth
p120
aVsf-fantasy
p121
aVpaperbacks
p122
aVmy-library
p123
aVlibrivox
p124
aVerb
p125
aVmystery
p126
aVshelfari-review-only
p127
aVshelfari-part-of-a-set
p128
aVshelfari-no
p129
aVshelfari-kindlebook
p130
aVshelfari-kindle-originalk3
p131
aVshelfari-kindle
p132
aVcollection
p133
aVdrama
p134
aVaudiobooks
p135
aVunread
p136
aVkindle-ebook
p137
aVnovels
p138
aVamerican-authors
p139
aVthriller
p140
aVburroughs-edgar-rice
p141
aVplanetary-romance
p142
aVkindle-book
p143
aVfantasy-sf
p144
aV20th-century
p145
aV1910-1919
p146
aVnot-read
p147
aVprehistoric
p148
aVbooks-i-own
p149
aVsciencefiction
p150
aVspeculative-fiction
p151
aVlost-world-lost-race
p152
aVjunk
p153
aVtravel-to-another-world
p154
aVquest
p155
aVprehistoric-bronze
p156
aVmagical-realism
p157
aVjourney
p158
aViconic
p159
aVexploration
p160
aVseries-obnf
p161
aVhave-cali
p162
aVactually-own
p163
aVread-have
p164
aV00-to-read-01
p165
aVnew-read
p166
aVscifi-or-steampunk
p167
aVkindle-library
p168
aV000src-su-15-05-u-p-c
p169
aVkindlecollection
p170
aVgalaktyka-gutenberga
p171
aVcovers-david-mattingly
p172
aVmy-collection
p173
aVrtc
p174
aV20th-century-lit
p175
aVclassic-adventure
p176
aVdndrecommended
p177
aVshelf1
p178
aVfantastyka
p179
aVvillains-creepy-disturbing-etc
p180
aVunique-memorable-world
p181
aVsword-fighting
p182
aVsci-fi-adult
p183
aVromance
p184
aVlove-the-writing-style
p185
aVkindle-freebies
p186
asS'loc_class'
p187
VPS: Language and Literatures: American and Canadian literature
p188
sS'n_authors'
p189
I1
sb.