ccopy_reg
_reconstructor
p0
(cdataset.Book
Book
p1
c__builtin__
object
p2
Ntp3
Rp4
(dp5
S'content_name'
p6
V30252.txt.utf-8
p7
sS'isbn'
p8
NsS'year'
p9
I1961
sS'author_name'
p10
VArthur W. Orton
p11
sS'images_urls'
p12
(lp13
Vhttp://www.gutenberg.org/files/30252/30252-h/images/image_001.jpg
p14
aVhttp://www.gutenberg.org/files/30252/30252-h/images/image_002.jpg
p15
aVhttp://www.gutenberg.org/files/30252/30252-h/images/image_003.jpg
p16
aVhttp://www.gutenberg.org/files/30252/30252-h/images/image_004.jpg
p17
aVhttp://www.gutenberg.org/files/30252/30252-h/images/image_w.jpg
p18
asS'language_code'
p19
NsS'id'
p20
I795
sS'category'
p21
VText
p22
sS'genres'
p23
(lp24
sS'copyright'
p25
VPublic domain in the USA.
p26
sS'title'
p27
VThe Four-Faced Visitors of Ezekiel
p28
sS'wikipedia'
p29
(dp30
S'found'
p31
I00
ssS'average_rating'
p32
F3.23
sS'rating_count'
p33
I13
sS'content_available'
p34
I01
sS'goodreads'
p35
(dp36
S'url'
p37
Vhttps://www.goodreads.com/book/show/19114090-the-four-faced-visitors-of-ezekiel
p38
sS'found'
p39
I01
sS'year'
p40
I2011
ssS'similar_books'
p41
(lp42
sS'description'
p43
NsS'format'
p44
NsS'gutenberg'
p45
(dp46
g37
Vhttp://www.gutenberg.org/ebooks/30252
p47
sS'num'
p48
I30252
ssS'authors'
p49
(lp50
I252
asS'isbn13'
p51
NsS'language'
p52
VEnglish
p53
sS'countries'
p54
(lp55
I3
asS'release_date'
p56
S'2009-10-14T00:00:00'
p57
sS'author'
p58
I252
sS'content_cleaned'
p59
I01
sS'classes'
p60
(lp61
Vto-read
p62
aVcurrently-reading
p63
aVamazon-kindle-library
p64
aVspirituality
p65
aV15
p66
aVexegesis-to-read
p67
asS'loc_class'
p68
VBS: Philosophy, Psychology, Religion: Christianity: The Bible, Old and New Testament
p69
sS'n_authors'
p70
I1
sb.