ccopy_reg
_reconstructor
p0
(cdataset.Book
Book
p1
c__builtin__
object
p2
Ntp3
Rp4
(dp5
S'content_name'
p6
V51549.txt.utf-8
p7
sS'isbn'
p8
V1405203382
p9
sS'year'
p10
I1962
sS'author_name'
p11
VFritz Leiber
p12
sS'images_urls'
p13
(lp14
Vhttp://www.gutenberg.org/files/51549/51549-h/images/cover.jpg
p15
asS'language_code'
p16
Veng
p17
sS'images'
p18
(lp19
sS'id'
p20
I318
sS'category'
p21
VText
p22
sS'genres'
p23
(lp24
sS'copyright'
p25
VPublic domain in the USA.
p26
sS'title'
p27
VThe Big Engine
p28
sS'wikipedia'
p29
(dp30
S'found'
p31
I00
ssS'average_rating'
p32
F3.92
sS'rating_count'
p33
I34
sS'content_available'
p34
I01
sS'cover_art_url'
p35
S'http://www.gutenberg.org/cache/epub/51549/pg51549.cover.medium.jpg'
p36
sS'goodreads'
p37
(dp38
S'url'
p39
Vhttps://www.goodreads.com/book/show/5633934-gordon-the-big-engine
p40
sg31
I01
sS'year'
p41
I1953
ssS'similar_books'
p42
(lp43
sS'description'
p44
VGordon, that proud and pompous Express Engine, appeared in all the earlier books in this series, but this is the first time that he has had a book named after him.
p45
sS'format'
p46
VHardcover
p47
sS'gutenberg'
p48
(dp49
g39
Vhttp://www.gutenberg.org/ebooks/51549
p50
sS'num'
p51
I51549
ssS'authors'
p52
(lp53
I32
asS'pages'
p54
I72
sS'isbn13'
p55
V9781405203388
p56
sS'language'
p57
VEnglish
p58
sS'countries'
p59
(lp60
I2
asS'release_date'
p61
S'2016-03-25T00:00:00'
p62
sS'author'
p63
I32
sS'content_cleaned'
p64
I01
sS'classes'
p65
(lp66
Vto-read
p67
aVchildrens
p68
aVchildren-s
p69
aVpicture-books
p70
aVchildren
p71
aVfiction
p72
aVfirst-readers
p73
aVzowned
p74
aVstyle_kid_picture
p75
aVljc_read
p76
aVformat_hardcopy
p77
aVfaves_ljc
p78
aVbooks-i-own
p79
aVjake
p80
aVread-to-me
p81
aVbefore-i-turned-3
p82
aVchildhood
p83
aVbedroom
p84
aVmy-library
p85
aVchildrens-fiction
p86
aVpreschool-books
p87
aVchildren-s-books
p88
aVkids-books
p89
aVthomas
p90
aVdaniel
p91
aVcurrently-reading
p92
aVrowena-s-books
p93
asS'loc_class'
p94
S''
p95
sS'n_authors'
p96
I1
sb.