ccopy_reg
_reconstructor
p0
(cdataset.Book
Book
p1
c__builtin__
object
p2
Ntp3
Rp4
(dp5
S'similar_books'
p6
(lp7
sS'genres'
p8
(lp9
sS'author'
p10
I302
sS'countries'
p11
(lp12
I2
asS'year'
p13
I1975
sS'title'
p14
VGalaxy Magazine October 1975
p15
sS'cover'
p16
Vhttps://ia600204.us.archive.org/BookReader/BookReaderImages.php?zip=/22/items/Galaxy_v36n09_1975-10/Galaxy_v36n09_1975-10_jp2.zip&file=Galaxy_v36n09_1975-10_jp2/Galaxy_v36n09_1975-10_0000.jp2&scale=0&rotate=0
p17
sS'cover_art'
p18
S'http://www.isfdb.org/wiki/images/b/be/GALOCT75.jpg'
p19
sS'author_name'
p20
VGalaxy Magazine
p21
sS'images_urls'
p22
(lp23
sS'authors'
p24
(lp25
I744
aI763
aI753
aI326
aI764
aI305
aI734
aI767
aI770
aI728
aI755
aI765
aI604
aI766
aI791
aI792
aI302
asS'images'
p26
(lp27
sS'id'
p28
I1188
sS'contents'
p29
(lp30
(dp31
S'title'
p32
VThe Experimenter
p33
sS'author'
p34
I744
sa(dp35
g32
VThe Experimenter [2]
p36
sg34
I744
sa(dp37
g32
VThe End Result
p38
sg34
I744
sa(dp39
g32
VBut Loyal to His Own
p40
sg34
I744
sa(dp41
g32
VBut Loyal to His Own [2]
p42
sg34
I744
sa(dp43
g32
VInferno (Part 3 of 3)
p44
sg34
I763
sa(dp45
g32
VInferno (Part 3 of 3) [2]
p46
sg34
I763
sa(dp47
g32
VInferno (Part 3 of 3) [3]
p48
sg34
I763
sa(dp49
g32
VInferno (Part 3 of 3) [4]
p50
sg34
I763
sa(dp51
g32
VHelbent 4
p52
sg34
I753
sa(dp53
g32
VNo Mother Near
p54
sg34
I326
sa(dp55
g32
VCrusade
p56
sg34
I753
sa(dp57
g32
VShowcase: Harlequin Nova
p58
sg34
I744
sa(dp59
g32
VAd Astra Per ...
p60
sg34
I764
sa(dp61
g32
VForum: Looking Aft
p62
sg34
I305
sa(dp63
g32
VIn the Beginning
p64
sg34
I734
sa(dp65
g32
VS. F. Calendar (Galaxy, October 1975)
p66
sg34
I326
sa(dp67
g32
VThe Alien Viewpoint (Galaxy, October 1975)
p68
sg34
I767
sa(dp69
g32
VBookshelf (Galaxy, October 1975)
p70
sg34
I770
sa(dp71
g32
VDirections (Galaxy, October 1975)
p72
sg34
I326
sa(dp73
g32
VThe Experimenter
p74
sg34
I728
sa(dp75
g32
VBut Loyal to His Own
p76
sg34
I755
sa(dp77
g32
VHelbent 4
p78
sg34
I765
sa(dp79
g32
VInferno (Part 3 of 3)
p80
sg34
I604
sa(dp81
g32
VThe End Result
p82
sg34
I766
sa(dp83
g32
VNo Mother Near
p84
sg34
I791
sa(dp85
g32
VCrusade
p86
sg34
I792
sasb.