ccopy_reg
_reconstructor
p0
(cdataset.Book
Book
p1
c__builtin__
object
p2
Ntp3
Rp4
(dp5
S'content_name'
p6
V29437.txt.utf-8
p7
sS'isbn'
p8
NsS'year'
p9
I1932
sS'author_name'
p10
VRoman Frederick Starzl
p11
sS'images_urls'
p12
(lp13
Vhttp://www.gutenberg.org/files/29437/29437-h/images/image_001_01.jpg
p14
aVhttp://www.gutenberg.org/files/29437/29437-h/images/image_001_02.jpg
p15
aVhttp://www.gutenberg.org/files/29437/29437-h/images/image_002.jpg
p16
asS'language_code'
p17
NsS'images'
p18
(lp19
sS'id'
p20
I862
sS'category'
p21
VText
p22
sS'genres'
p23
(lp24
sS'copyright'
p25
VPublic domain in the USA.
p26
sS'title'
p27
VThe Martian Cabal
p28
sS'wikipedia'
p29
(dp30
S'found'
p31
I00
ssS'average_rating'
p32
F3.67
sS'rating_count'
p33
I2
sS'content_available'
p34
I01
sS'goodreads'
p35
(dp36
S'url'
p37
Vhttps://www.goodreads.com/book/show/11342701-the-martian-cabal
p38
sg31
I01
sS'year'
p39
I2010
ssS'similar_books'
p40
(lp41
sS'description'
p42
NsS'gutenberg'
p43
(dp44
g37
Vhttp://www.gutenberg.org/ebooks/29437
p45
sS'num'
p46
I29437
ssS'authors'
p47
(lp48
I178
asS'isbn13'
p49
NsS'language'
p50
VEnglish
p51
sS'countries'
p52
(lp53
I2
asS'release_date'
p54
S'2009-07-18T00:00:00'
p55
sS'author'
p56
I178
sS'cover'
p57
Vhttps://s.gr-assets.com/assets/nophoto/book/111x148-bcc042a9c91a29c1d680899eff700a03.png
p58
sS'content_cleaned'
p59
I01
sS'classes'
p60
(lp61
Vto-read
p62
aVcurrently-reading
p63
aVsci-fi-classics
p64
aVscience-fiction
p65
aV20th-century
p66
aVcalibre
p67
asS'loc_class'
p68
VPS: Language and Literatures: American and Canadian literature
p69
sS'n_authors'
p70
I1
sb.