ccopy_reg
_reconstructor
p0
(cdataset.Book
Book
p1
c__builtin__
object
p2
Ntp3
Rp4
(dp5
S'content_name'
p6
V51494.txt.utf-8
p7
sS'isbn'
p8
NsS'year'
p9
I2010
sS'author_name'
p10
VMarshall King
p11
sS'images_urls'
p12
(lp13
Vhttp://www.gutenberg.org/files/51494/51494-h/images/cover.jpg
p14
aVhttp://www.gutenberg.org/files/51494/51494-h/images/illus.jpg
p15
asS'language_code'
p16
NsS'images'
p17
(lp18
sS'id'
p19
I935
sS'category'
p20
VText
p21
sS'plot'
p22
VThis interwoven collection of stories is set in the fictional Scottish town of Graithnock and captures the social and emotional struggles of ordinary people's lives.\u000aThe short stories included in this collection are:\u000aWaving\u000aIn this first story, Bert Watson, a manager in a clothing factory, is approached by one of his young workers, Duncan MacFarlane, with an outrageous request for a loan of a large sum of money and a long leave of absence. This encounter causes Bert to examine his own life.\u000a\u000aPerformance\u000aThe performance is that of Fast Frankie White, and this story explores his fragile grasp on a masculine self-image through a visit to a local bar.\u000a\u000aOn the sidelines\u000aJohn Hannah stands freezing on the touchline to watch his son play football and contemplates the breakdown of his marriage and his post-divorce life.\u000a\u000aDeath of a spinster\u000aThe routine life and unfulfilled dreams of a spinster are brought sharply to focus in an ordinary day that meets with tragedy.\u000a\u000aThe Prisoner\u000aA recidivist house-burglar meets prison life, and the prison governor, on his own terms.\u000a\u000aHomecoming\u000aA chance encounter on a train brings throws light on a woman's relationship with her parents.\u000a\u000aAt the bar\u000aA man in a bar is looking for trouble, and meets his match.\u000a\u000aIn the steps of Spartacus\u000aA comic tale of an animal lover called Benny Mullen who names a greyhound Spartacus, the hero of the working man. Eventually realising however that this was a dog that could indeed have brought Rome to its knees.\u000a\u000aSentences\u000aA grim view of one man's marriage through a scene in a bar.\u000a\u000aGetting along\u000aThis story provides a brief glimpse of one woman's life following the breakdown of her marriage.\u000a\u000aMick's day\u000aThis story consists of a stark reflection on the day in the life of an unemployed man Mick Haggerty.\u000a\u000aTig\u000aAn animal lover realises his own idea of justice after an altercation in a bar.\u000a\u000aBeached\u000aA widow visits the beach with her children and she clings to dreams of a life that can no longer be.\u000a\u000aHow many miles to Babylon?\u000aBenny Mullen returns in this story which sees him have an altercation with a work colleague and contemplate his life as a widower.\u000a\u000aCallers\u000aThis short story consists of a series of answerphone messages which build up the tragic picture of a woman's life.\u000a\u000aEnd game\u000aGus McPhater and his wife fall out briefly over a copy of The Essential Schopenhauer.\u000a\u000aHullo again\u000aEddie Cameron rediscovers an old flame.\u000a\u000aHoling out\u000aBert Watson returns in this story for one last game of golf.\u000a\u000aDeathwatch beetle\u000aA grim portrait of prison life.\u000a\u000aDreaming\u000aA teenager, Sammy Nelson, who applied for a job with Bert Watson, but was considered over-qualified finds his own creative way to meet life on his terms.
p23
sS'genres'
p24
(lp25
sS'copyright'
p26
VPublic domain in the USA.
p27
sS'title'
p28
VBeach Scene
p29
sS'wikipedia'
p30
(dp31
S'url'
p32
Vhttps://en.wikipedia.org/wiki/Walking_Wounded_(short_story_collection)
p33
sS'found'
p34
I01
sS'year'
p35
I-1
ssS'published_in'
p36
NsS'average_rating'
p37
F3.23
sS'rating_count'
p38
I19
sS'content_available'
p39
I01
sS'cover_art_url'
p40
S'http://www.gutenberg.org/cache/epub/51494/pg51494.cover.medium.jpg'
p41
sS'goodreads'
p42
(dp43
g32
Vhttps://www.goodreads.com/book/show/10075222-the-beach-scene
p44
sg34
I01
sg35
I2010
ssS'similar_books'
p45
(lp46
sS'description'
p47
NsS'format'
p48
NsS'gutenberg'
p49
(dp50
g32
Vhttp://www.gutenberg.org/ebooks/51494
p51
sS'num'
p52
I51494
ssS'authors'
p53
(lp54
I284
asS'isbn13'
p55
V2940011139888
p56
sS'language'
p57
VEnglish
p58
sS'country'
p59
I3
sS'release_date'
p60
S'2016-03-18T00:00:00'
p61
sS'author'
p62
I284
sS'original_title'
p63
VWalking Wounded (short story collection)
p64
sS'summary'
p65
VWalking Wounded is a collection of short stories written by William McIlvanney and published in 1989. Following a revival of interest in McIlvanney's writing, this book was reissued by Canongate Books in 2014.
p66
sS'content_cleaned'
p67
I01
sS'classes'
p68
(lp69
Vto-read
p70
aVhorror
p71
aVnook
p72
aVon-my-nook
p73
aVnovella
p74
aVbump-in-the-night
p75
aV2015-reads
p76
aVid-like-that-part-of-my-life-back-p
p77
aVbrain-garbage
p78
aVsmashwords
p79
aVshort-stories
p80
aVe-reader
p81
asS'loc_class'
p82
S''
p83
sS'n_authors'
p84
I1
sb.