ccopy_reg
_reconstructor
p0
(cdataset.Book
Book
p1
c__builtin__
object
p2
Ntp3
Rp4
(dp5
S'content_name'
p6
V49809.txt.utf-8
p7
sS'isbn'
p8
NsS'year'
p9
I1956
sS'author_name'
p10
VRobert Abernathy
p11
sS'images_urls'
p12
(lp13
Vhttp://www.gutenberg.org/files/49809/49809-h/images/cover.jpg
p14
aVhttp://www.gutenberg.org/files/49809/49809-h/images/illus.jpg
p15
asS'language_code'
p16
Veng
p17
sS'images'
p18
(lp19
sS'id'
p20
I337
sS'category'
p21
VText
p22
sS'genres'
p23
(lp24
sS'copyright'
p25
VPublic domain in the USA.
p26
sS'title'
p27
VJunior
p28
sS'wikipedia'
p29
(dp30
S'found'
p31
I00
ssS'average_rating'
p32
F3.48
sS'rating_count'
p33
I5
sS'content_available'
p34
I01
sS'cover_art_url'
p35
S'http://www.gutenberg.org/cache/epub/49809/pg49809.cover.medium.jpg'
p36
sS'goodreads'
p37
(dp38
S'url'
p39
S'https://www.goodreads.com/book/show/18934815-junior'
p40
sS'found'
p41
I01
ssS'similar_books'
p42
(lp43
sS'description'
p44
VA short story first published 1956 in "S-F: The Year's Greatest Science-Fiction and Fantasy".
p45
sS'gutenberg'
p46
(dp47
S'url'
p48
Vhttp://www.gutenberg.org/ebooks/49809
p49
sS'num'
p50
I49809
ssS'authors'
p51
(lp52
I109
asS'pages'
p53
I10
sS'isbn13'
p54
NsS'language'
p55
VEnglish
p56
sS'countries'
p57
(lp58
I2
asS'release_date'
p59
S'2015-08-28T00:00:00'
p60
sS'author'
p61
I109
sS'content_cleaned'
p62
I01
sS'classes'
p63
(lp64
Vto-read
p65
aVrtc
p66
aVreading-challenge-2015
p67
aVsf
p68
aVto-read-1a-sf
p69
aVto-read-1
p70
aVto-read-someday
p71
aV_fun-stuff
p72
aV20-science-fiction
p73
aV000-short-story
p74
aVreview-on-the-way
p75
aVto-read-temp
p76
aV00-short-story
p77
asS'loc_class'
p78
S''
p79
sS'n_authors'
p80
I1
sb.