ccopy_reg
_reconstructor
p0
(cdataset.Book
Book
p1
c__builtin__
object
p2
Ntp3
Rp4
(dp5
S'similar_books'
p6
(lp7
sS'genres'
p8
(lp9
sS'author'
p10
I302
sS'countries'
p11
(lp12
I2
asS'year'
p13
I1955
sS'title'
p14
VGalaxy Magazine June 1955
p15
sS'cover'
p16
Vhttps://ia601308.us.archive.org/BookReader/BookReaderImages.php?zip=/11/items/Galaxy_v10n03_1955-06/Galaxy_v10n03_1955-06_jp2.zip&file=Galaxy_v10n03_1955-06_jp2/Galaxy_v10n03_1955-06_0000.jp2&scale=0&rotate=0
p17
sS'cover_art'
p18
S'http://www.isfdb.org/wiki/images/d/d6/MLO4380.jpg'
p19
sS'author_name'
p20
VGalaxy Magazine
p21
sS'images_urls'
p22
(lp23
sS'authors'
p24
(lp25
I433
aI419
aI363
aI402
aI427
aI305
aI339
aI326
aI340
aI172
aI217
aI40
aI23
aI387
aI302
asS'images'
p26
(lp27
sS'id'
p28
I1029
sS'contents'
p29
(lp30
(dp31
g10
I433
sg14
VPreferred Risk (Part 1 of 4)
p32
sa(dp33
g10
I433
sg14
VPreferred Risk (Part 1 of 4) [2]
p34
sa(dp35
g10
I433
sg14
VPreferred Risk (Part 1 of 4) [3]
p36
sa(dp37
g10
I433
sg14
VPreferred Risk (Part 1 of 4) [4]
p38
sa(dp39
g10
I419
sg14
VThe Necessary Thing
p40
sa(dp41
g10
I433
sg14
VThe Princess and the Physicist
p42
sa(dp43
g10
I433
sg14
VThe Princess and the Physicist [2]
p44
sa(dp45
g10
I433
sg14
VThe Princess and the Physicist [3]
p46
sa(dp47
g10
I363
sg14
VPicture Bride
p48
sa(dp49
g10
I402
sg14
VGrandy Devil
p50
sa(dp51
g10
I427
sg14
VInside Story
p52
sa(dp53
g10
I427
sg14
VInside Story [2]
p54
sa(dp55
g10
I427
sg14
VInside Story [3]
p56
sa(dp57
g10
I305
sg14
VMan's Bait
p58
sa(dp59
g10
I339
sg14
VFor Your Information: Konstantin Anklitzen Alias Friar Bertholdus
p60
sa(dp61
g10
I326
sg14
VForecast (Galaxy, June 1955)
p62
sa(dp63
g10
I340
sg14
VGalaxy's Five Star Shelf (Galaxy, June 1955)
p64
sa(dp65
g10
I172
sg14
VThe Princess and the Physicist
p66
sa(dp67
g10
I217
sg14
VInside Story
p68
sa(dp69
g10
I40
sg14
VPreferred Risk (Part 1 of 4)
p70
sa(dp71
g10
I23
sg14
VThe Necessary Thing
p72
sa(dp73
g10
I387
sg14
VPicture Bride
p74
sa(dp75
g10
I40
sg14
VGrandy Devil
p76
sasb.