ccopy_reg
_reconstructor
p0
(cdataset.Book
Book
p1
c__builtin__
object
p2
Ntp3
Rp4
(dp5
S'content_name'
p6
V51767.txt.utf-8
p7
sS'isbn'
p8
V0870679783
p9
sS'year'
p10
I1977
sS'author_name'
p11
VJim Wannamaker
p12
sS'images_urls'
p13
(lp14
Vhttp://www.gutenberg.org/files/51767/51767-h/images/cover.jpg
p15
aVhttp://www.gutenberg.org/files/51767/51767-h/images/illus1.jpg
p16
aVhttp://www.gutenberg.org/files/51767/51767-h/images/illus2.jpg
p17
aVhttp://www.gutenberg.org/files/51767/51767-h/images/illus3.jpg
p18
asS'language_code'
p19
Veng
p20
sS'images'
p21
(lp22
sS'id'
p23
I922
sS'category'
p24
VText
p25
sS'genres'
p26
(lp27
sS'copyright'
p28
VPublic domain in the USA.
p29
sS'title'
p30
VDeath's Wisher
p31
sS'wikipedia'
p32
(dp33
S'found'
p34
I00
ssS'average_rating'
p35
F3.95
sS'rating_count'
p36
I213
sS'content_available'
p37
I01
sS'cover_art_url'
p38
S'http://www.gutenberg.org/cache/epub/51767/pg51767.cover.medium.jpg'
p39
sS'goodreads'
p40
(dp41
S'url'
p42
Vhttps://www.goodreads.com/book/show/1968772.Death_Wish
p43
sg34
I01
sS'year'
p44
I1977
ssS'similar_books'
p45
(lp46
VWhite Man's Justice, Black Man's Grief
p47
aVPipe Dream (Strivers Row)
p48
aVLow Road: The Life and Legacy of Donald Goines
p49
aVHarlem On Lock
p50
aVNaked in Garden Hills
p51
aVShockproof Sydney Skate
p52
aVSarah Phillips
p53
aVTambourines to Glory
p54
aVThe One-Way Rain
p55
aVHoodlum
p56
asS'description'
p57
VA novel of the clash between Jimmy Collucci, an ambitious member of Chicago's Mafia, and Jessie Taylor, an African American driven by revenge and hatred to destroy Collucci's infamous organization.
p58
sS'format'
p59
VPaperback
p60
sS'gutenberg'
p61
(dp62
g42
Vhttp://www.gutenberg.org/ebooks/51767
p63
sS'num'
p64
I51767
ssS'authors'
p65
(lp66
I280
asS'pages'
p67
I288
sS'isbn13'
p68
V9780870679780
p69
sS'language'
p70
VEnglish
p71
sS'release_date'
p72
S'2016-04-15T00:00:00'
p73
sS'author'
p74
I280
sS'content_cleaned'
p75
I01
sS'classes'
p76
(lp77
Vto-read
p78
aVfiction
p79
aVdefault
p80
aVurban-fiction
p81
aVholloway-house
p82
aVbiography
p83
aVcurrently-reading
p84
aVdonnacha-get-this
p85
aVaudiobooks
p86
aVmy-books-kindle
p87
aVafrican-american-authors
p88
aVtrue-crime
p89
aVpage-turners
p90
aV1-kindle
p91
aVnonfiction
p92
aVbooks-read-liked-and-discarded
p93
aVafrican-american
p94
aVgave-up
p95
aVafro-american-drama
p96
aVpartially-read
p97
aVurban
p98
aVnovels
p99
aVon-shelf
p100
aVafrican-american-literature-fiction
p101
aVurban-masterpiece
p102
aVsampled-and-liked
p103
aVmainstream
p104
aVowned
p105
aVbookmarked
p106
aVown-a-copy
p107
aVowned-books
p108
aVstreet-lit
p109
aVto-read-urban-crime-fiction
p110
aVread-2012
p111
aVgangster
p112
aVfiction-crime
p113
aVfiction-african-american
p114
aVcrime-fictions
p115
aVtough-guy-fiction
p116
aVurban-literature
p117
aVa-dont-have-yet
p118
aVseventies
p119
aVlame-books
p120
aVchicago
p121
aVblacks
p122
aVanti-establishment
p123
asS'loc_class'
p124
S''
p125
sS'n_authors'
p126
I1
sb.