ccopy_reg
_reconstructor
p0
(cdataset.Book
Book
p1
c__builtin__
object
p2
Ntp3
Rp4
(dp5
S'content_name'
p6
V22893.txt.utf-8
p7
sS'isbn'
p8
V1419143522
p9
sS'year'
p10
I1935
sS'author_name'
p11
VStanley Grauman Weinbaum
p12
sS'images_urls'
p13
(lp14
Vhttp://www.gutenberg.org/files/22893/22893-page-images/p160.png
p15
aVhttp://www.gutenberg.org/files/22893/22893-page-images/p161.png
p16
aVhttp://www.gutenberg.org/files/22893/22893-page-images/p162.png
p17
aVhttp://www.gutenberg.org/files/22893/22893-page-images/p163.png
p18
aVhttp://www.gutenberg.org/files/22893/22893-page-images/p164.png
p19
aVhttp://www.gutenberg.org/files/22893/22893-page-images/p165.png
p20
aVhttp://www.gutenberg.org/files/22893/22893-page-images/p166.png
p21
aVhttp://www.gutenberg.org/files/22893/22893-page-images/p167.png
p22
aVhttp://www.gutenberg.org/files/22893/22893-page-images/p168.png
p23
aVhttp://www.gutenberg.org/files/22893/22893-page-images/p169.png
p24
aVhttp://www.gutenberg.org/files/22893/22893-page-images/p170.png
p25
aVhttp://www.gutenberg.org/files/22893/22893-page-images/p171.png
p26
aVhttp://www.gutenberg.org/files/22893/22893-page-images/p172.png
p27
aVhttp://www.gutenberg.org/files/22893/22893-page-images/p173.png
p28
aVhttp://www.gutenberg.org/files/22893/22893-page-images/p174.png
p29
aVhttp://www.gutenberg.org/files/22893/22893-page-images/p175.png
p30
aVhttp://www.gutenberg.org/files/22893/22893-page-images/p176.png
p31
aVhttp://www.gutenberg.org/files/22893/22893-page-images/p177.png
p32
aVhttp://www.gutenberg.org/files/22893/22893-page-images/p178.png
p33
aVhttp://www.gutenberg.org/files/22893/22893-page-images/p179.png
p34
aVhttp://www.gutenberg.org/files/22893/22893-page-images/p180.png
p35
asS'language_code'
p36
NsS'images'
p37
(lp38
sS'id'
p39
I184
sS'category'
p40
VText
p41
sS'genres'
p42
(lp43
sS'copyright'
p44
VPublic domain in the USA.
p45
sS'title'
p46
VPygmalion's Spectacles
p47
sS'wikipedia'
p48
(dp49
S'url'
p50
Vhttps://en.wikipedia.org/wiki/The_Best_of_Stanley_G._Weinbaum
p51
sS'found'
p52
I01
sS'year'
p53
I-1
ssS'published_in'
p54
NsS'average_rating'
p55
F3.55
sS'rating_count'
p56
I33
sS'content_available'
p57
I01
sS'goodreads'
p58
(dp59
g50
Vhttps://www.goodreads.com/book/show/6356126-pygmalion-s-spectacles
p60
sg52
I01
sg53
I1935
ssS'similar_books'
p61
(lp62
sS'description'
p63
NsS'format'
p64
NsS'gutenberg'
p65
(dp66
g50
Vhttp://www.gutenberg.org/ebooks/22893
p67
sS'num'
p68
I22893
ssS'authors'
p69
(lp70
I62
asS'isbn13'
p71
V9781419143526
p72
sS'language'
p73
VEnglish
p74
sS'countries'
p75
(lp76
I2
asS'release_date'
p77
S'2007-10-05T00:00:00'
p78
sS'author'
p79
I62
sS'original_title'
p80
VThe Best of Stanley G. Weinbaum
p81
sS'summary'
p82
VThe Best of Stanley G. Weinbaum is a collection of science fiction stories by Stanley G. Weinbaum, published in 1974 as an original paperback by Ballantine Books. The volume included an introduction by Isaac Asimov and an afterword by Robert Bloch. Ballantine reissued the collection twice in the later 1970s; Garland Publishing published a library hardcover edition in 1983, and Sphere Books released a UK market edition in 1977, under the title A Martian Odyssey and Other Stories. The original edition placed third in the 1975 Locus Poll for best genre collection.
p83
sS'content_cleaned'
p84
I01
sS'classes'
p85
(lp86
Vto-read
p87
aVscience-fiction
p88
aVshort-stories
p89
aVcurrently-reading
p90
aVsci-fi
p91
aVwm
p92
aV20th-century-lit
p93
aVenglish
p94
aVscience-fiction-fantasy
p95
aVclassic-american-lit
p96
aVrdcss
p97
aVaudio
p98
aVaudiobooks
p99
aVz_fiction
p100
aVx_shortstory
p101
aVwo_scifi
p102
aVw_us_federal
p103
aVromance
p104
aVphilosophy
p105
aVto-actually-probably-read
p106
aVnovellas-poems-shorts
p107
aVfiction
p108
aV1930s
p109
aVclassics
p110
aVkindle-ebook
p111
aVeventually
p112
aVnovellas-short-stories
p113
aV1940s-1950s-sf-golden-age
p114
aVaudiobook
p115
aVtype-short-story
p116
aVaudio-obtained-ss
p117
asS'loc_class'
p118
VPS: Language and Literatures: American and Canadian literature
p119
sS'n_authors'
p120
I1
sb.