ccopy_reg
_reconstructor
p0
(cdataset.Book
Book
p1
c__builtin__
object
p2
Ntp3
Rp4
(dp5
S'similar_books'
p6
(lp7
sS'genres'
p8
(lp9
sS'author'
p10
I302
sS'countries'
p11
(lp12
I2
asS'year'
p13
I1975
sS'title'
p14
VGalaxy Magazine March 1975
p15
sS'cover'
p16
Vhttps://ia600205.us.archive.org/BookReader/BookReaderImages.php?zip=/5/items/Galaxy_v36n03_1975-03/Galaxy_v36n03_1975-03_jp2.zip&file=Galaxy_v36n03_1975-03_jp2/Galaxy_v36n03_1975-03_0000.jp2&scale=0&rotate=0
p17
sS'cover_art'
p18
S'http://www.isfdb.org/wiki/images/9/99/GALMAR75.jpg'
p19
sS'author_name'
p20
VGalaxy Magazine
p21
sS'images_urls'
p22
(lp23
sS'authors'
p24
(lp25
I744
aI499
aI742
aI764
aI734
aI356
aI341
aI326
aI748
aI770
aI591
aI771
aI772
aI773
aI302
asS'images'
p26
(lp27
sS'id'
p28
I1182
sS'contents'
p29
(lp30
(dp31
g10
I744
sg14
VIn This Month's Issue
p32
sa(dp33
g10
I499
sg14
VThe Politics of Ratticide
p34
sa(dp35
g10
I499
sg14
VChangelings
p36
sa(dp37
g10
I744
sg14
VSign of the Unicorn (Part 3 of 3)
p38
sa(dp39
g10
I744
sg14
VSign of the Unicorn (Part 3 of 3) [2]
p40
sa(dp41
g10
I499
sg14
VNobody Likes to Be Lonely
p42
sa(dp43
g10
I744
sg14
VTree of Life
p44
sa(dp45
g10
I742
sg14
VShowcase (Galaxy, March 1975)
p46
sa(dp47
g10
I764
sg14
VIf This Goes On (and On and On ... )
p48
sa(dp49
g10
I734
sg14
VAbm, Missile-Eating Lasers and a Bi-Polar World
p50
sa(dp51
g10
I356
sg14
VForum: The Siren Song of Academe
p52
sa(dp53
g10
I341
sg14
VBookshelf (Galaxy, March 1975)
p54
sa(dp55
g10
I326
sg14
VDirections (Galaxy, March 1975)
p56
sa(dp57
g10
I748
sg14
VThe Politics of Ratticide
p58
sa(dp59
g10
I770
sg14
VNobody Likes to Be Lonely
p60
sa(dp61
g10
I591
sg14
VSign of the Unicorn (Part 3 of 3)
p62
sa(dp63
g10
I771
sg14
VIn This Month's Issue
p64
sa(dp65
g10
I772
sg14
VChangelings
p66
sa(dp67
g10
I773
sg14
VTree of Life
p68
sasb.