ccopy_reg
_reconstructor
p0
(cdataset.Book
Book
p1
c__builtin__
object
p2
Ntp3
Rp4
(dp5
S'content_name'
p6
V29177.txt.utf-8
p7
sS'isbn'
p8
NsS'year'
p9
I1932
sS'author_name'
p10
VJack Williamson
p11
sS'images_urls'
p12
(lp13
Vhttp://www.gutenberg.org/files/29177/29177-h/images/image_001.jpg
p14
aVhttp://www.gutenberg.org/files/29177/29177-h/images/image_002_01.jpg
p15
aVhttp://www.gutenberg.org/files/29177/29177-h/images/image_002_02.jpg
p16
asS'language_code'
p17
NsS'images'
p18
(lp19
sS'id'
p20
I582
sS'category'
p21
VText
p22
sS'genres'
p23
(lp24
sS'copyright'
p25
VPublic domain in the USA.
p26
sS'title'
p27
VThe Pygmy Planet
p28
sS'wikipedia'
p29
(dp30
S'found'
p31
I00
ssS'average_rating'
p32
F3.03
sS'rating_count'
p33
I15
sS'content_available'
p34
I01
sS'goodreads'
p35
(dp36
S'url'
p37
Vhttps://www.goodreads.com/book/show/6630012-the-pygmy-planet
p38
sg31
I01
sS'year'
p39
I1932
ssS'similar_books'
p40
(lp41
sS'description'
p42
VDown into the infinitely small goes Larry on his mission to the Pygmy Planet.
p43
sS'format'
p44
NsS'gutenberg'
p45
(dp46
g37
Vhttp://www.gutenberg.org/ebooks/29177
p47
sS'num'
p48
I29177
ssS'authors'
p49
(lp50
I86
asS'isbn13'
p51
NsS'language'
p52
VEnglish
p53
sS'countries'
p54
(lp55
I2
asS'release_date'
p56
S'2009-06-20T00:00:00'
p57
sS'author'
p58
I86
sS'content_cleaned'
p59
I01
sS'classes'
p60
(lp61
Vto-read
p62
aVcurrently-reading
p63
aVscience-fiction
p64
aVd-d
p65
aVfiction
p66
aVappendix-e
p67
aVshort-story
p68
aVd-d-inspiration
p69
aVappendix-n
p70
aVdndrecommended
p71
aVsci-fi-and-fantasy-fiction
p72
aVfree-on-kindle
p73
aVdungeons-and-dragons
p74
aVd-d-5e-reading
p75
aVdnd-reading-list
p76
aVowned-pending-kindle-free-ebook
p77
aVkindle-free-ebook
p78
aVto-read-scifi
p79
aV16
p80
aVcalibre
p81
aVgary-gygax-list
p82
aVbuy
p83
aVto-buy
p84
aVdnd-inspirational-reading
p85
aVscience-fiction-times
p86
aVsci-fi
p87
aVmmm2013
p88
aVso-bad-it-s-good
p89
aVe-book
p90
aVjust-a-lookin
p91
aVscience
p92
aVgeneral
p93
aVadventure
p94
aVtype-short-story
p95
asS'loc_class'
p96
VPS: Language and Literatures: American and Canadian literature
p97
sS'n_authors'
p98
I1
sb.