ccopy_reg
_reconstructor
p0
(cdataset.Book
Book
p1
c__builtin__
object
p2
Ntp3
Rp4
(dp5
S'similar_books'
p6
(lp7
sS'genres'
p8
(lp9
sS'author'
p10
I302
sS'countries'
p11
(lp12
I2
asS'year'
p13
I1956
sS'title'
p14
VGalaxy Magazine August 1956
p15
sS'cover'
p16
Vhttps://ia600205.us.archive.org/BookReader/BookReaderImages.php?zip=/17/items/Galaxy_v12n04_1956-08/Galaxy_v12n04_1956-08_jp2.zip&file=Galaxy_v12n04_1956-08_jp2/Galaxy_v12n04_1956-08_0000.jp2&scale=0&rotate=0
p17
sS'cover_art'
p18
S'http://www.isfdb.org/wiki/images/c/c4/MLO4428.jpg'
p19
sS'author_name'
p20
VGalaxy Magazine
p21
sS'images_urls'
p22
(lp23
sS'authors'
p24
(lp25
I419
aI480
aI363
aI499
aI471
aI326
aI339
aI483
aI98
aI341
aI56
aI204
aI23
aI55
aI302
asS'images'
p26
(lp27
sS'id'
p28
I1042
sS'contents'
p29
(lp30
(dp31
S'title'
p32
VTime in Advance
p33
sS'author'
p34
I419
sa(dp35
g32
VTime in Advance [2]
p36
sg34
I419
sa(dp37
g32
VTime in Advance [3]
p38
sg34
I419
sa(dp39
g32
VHonorable Opponent
p40
sg34
I419
sa(dp41
g32
VThis Way to the Regress
p42
sg34
I480
sa(dp43
g32
VEarly Model
p44
sg34
I363
sa(dp45
g32
VEarly Model [2]
p46
sg34
I363
sa(dp47
g32
VEarly Model [3]
p48
sg34
I363
sa(dp49
g32
VThe Genius Heap
p50
sg34
I499
sa(dp51
g32
VThe Claustrophile
p52
sg34
I471
sa(dp53
g32
VThe Claustrophile [2]
p54
sg34
I471
sa(dp55
g32
VThe Claustrophile [3]
p56
sg34
I471
sa(dp57
g32
VForecast (Galaxy, August 1956)
p58
sg34
I326
sa(dp59
g32
VFor Your Information: The Demotion of Pluto
p60
sg34
I339
sa(dp61
g32
VGalaxy's 5 Star Shelf (Galaxy, August 1956)
p62
sg34
I483
sa(dp63
g32
VTime in Advance
p64
sg34
I98
sa(dp65
g32
VThe Claustrophile
p66
sg34
I341
sa(dp67
g32
VHonorable Opponent
p68
sg34
I56
sa(dp69
g32
VThis Way to the Regress
p70
sg34
I204
sa(dp71
g32
VEarly Model
p72
sg34
I23
sa(dp73
g32
VThe Genius Heap
p74
sg34
I55
sasb.