ccopy_reg
_reconstructor
p0
(cdataset.Book
Book
p1
c__builtin__
object
p2
Ntp3
Rp4
(dp5
S'content_name'
p6
V29897.txt.utf-8
p7
sS'isbn'
p8
NsS'year'
p9
I1952
sS'author_name'
p10
VJoseph Samachson
p11
sS'images_urls'
p12
(lp13
Vhttp://www.gutenberg.org/files/29897/29897-h/images/001.png
p14
aVhttp://www.gutenberg.org/files/29897/29897-h/images/002-1.jpg
p15
aVhttp://www.gutenberg.org/files/29897/29897-h/images/002-2.jpg
p16
asS'language_code'
p17
NsS'images'
p18
(lp19
sS'id'
p20
I692
sS'category'
p21
VText
p22
sS'genres'
p23
(lp24
sS'copyright'
p25
VPublic domain in the USA.
p26
sS'title'
p27
VRunaway
p28
sS'wikipedia'
p29
(dp30
S'found'
p31
I00
ssS'average_rating'
p32
F3.96
sS'rating_count'
p33
I3
sS'content_available'
p34
I01
sS'goodreads'
p35
(dp36
S'url'
p37
S'https://www.goodreads.com/book/show/19086825-runaway'
p38
sS'found'
p39
I01
ssS'similar_books'
p40
(lp41
sS'description'
p42
NsS'gutenberg'
p43
(dp44
S'url'
p45
Vhttp://www.gutenberg.org/ebooks/29897
p46
sS'num'
p47
I29897
ssS'authors'
p48
(lp49
I157
asS'isbn13'
p50
NsS'language'
p51
VEnglish
p52
sS'countries'
p53
(lp54
I2
asS'release_date'
p55
S'2009-09-03T00:00:00'
p56
sS'author'
p57
I157
sS'content_cleaned'
p58
I01
sS'classes'
p59
(lp60
Vamazon-ebooks
p61
aVshort-stories
p62
aVsci-fi
p63
aVpulp
p64
aVhumor
p65
aVfiction
p66
aVback-shelf
p67
asS'loc_class'
p68
VPS: Language and Literatures: American and Canadian literature
p69
sS'n_authors'
p70
I1
sb.