ccopy_reg
_reconstructor
p0
(cdataset.Book
Book
p1
c__builtin__
object
p2
Ntp3
Rp4
(dp5
S'content_name'
p6
V40969.txt.utf-8
p7
sS'isbn'
p8
V0451239601
p9
sS'year'
p10
I2013
sS'author_name'
p11
VBryce Walton
p12
sS'images_urls'
p13
(lp14
Vhttp://www.gutenberg.org/files/40969/40969-h/images/cover.jpg
p15
aVhttp://www.gutenberg.org/files/40969/40969-h/images/illus1.jpg
p16
aVhttp://www.gutenberg.org/files/40969/40969-h/images/illus2.jpg
p17
asS'language_code'
p18
Ven-US
p19
sS'images'
p20
(lp21
sS'id'
p22
I637
sS'category'
p23
VText
p24
sS'genres'
p25
(lp26
sS'copyright'
p27
VPublic domain in the USA.
p28
sS'title'
p29
VThe Mating of the Moons
p30
sS'wikipedia'
p31
(dp32
S'found'
p33
I00
ssS'average_rating'
p34
F4.11
sS'rating_count'
p35
I1115
sS'content_available'
p36
I01
sS'cover_art_url'
p37
S'http://www.gutenberg.org/cache/epub/40969/pg40969.cover.medium.jpg'
p38
sS'goodreads'
p39
(dp40
S'url'
p41
Vhttps://www.goodreads.com/book/show/15710530-mating-instinct
p42
sg33
I01
sS'year'
p43
I2013
ssS'similar_books'
p44
(lp45
VTempting His Mate (Crescent Moon, #3)
p46
aVThe Werewolf's Wife
p47
aVEternal Demon (Mark of the Vampire, #5)
p48
aVHunter's Heart (Alpha Pack, #4)
p49
aVMoonlight (Moon, #1)
p50
aVEnemy Mine (Alpha and Omega, #2)
p51
aVA Howl for a Highlander (Heart of the Wolf, #10)
p52
aVDire Desires (Eternal Wolf Clan, #3)
p53
aVRaphael/Parish (Bayou Heat, #1-2)
p54
aVBlurred Expectations (Redwood Pack, #3.5)
p55
aVPack Enforcer (Were Chronicles, #2)
p56
aVWulfe Untamed (Feral Warriors, #8)
p57
aVAvenging Angel (The Fallen, #4)
p58
aVKane's Mate (Armageddon Mates, #1)
p59
aVSilver Mine (Takhini Wolves, #2)
p60
asS'description'
p61
V<i>As the beast within struggles to break free, he must learn to be what she needs...</i><br /><br />Surviving for centuries, powerful lupine shifter Jayce Kazan managed to stay away from humans until he met Kat Saburova and was consumed by the need to protect her. But while Jayce shared his passion with the human seer, he refused to make her his bondmate\u2014a refusal that caused the end of their relationship.<br /><br />A year later, an attack that left Kat near death has resulted in another lupine shifter turning her. Furious that he wasn\u2019t the one to save her, Jayce is determined to show Kat that he is the one she should rely on. But the newly turned shifter is still traumatized and worried that she\u2019ll hurt those she loves, unless she can learn to control her inner wolf.<br /><br />And as Jayce struggles to protect Kat from her own worst instincts and convince her to rekindle their love, the extremists who almost killed her are looking to finish the job\u2026
p62
sS'format'
p63
VMass Market Paperback
p64
sS'gutenberg'
p65
(dp66
g41
Vhttp://www.gutenberg.org/ebooks/40969
p67
sS'num'
p68
I40969
ssS'authors'
p69
(lp70
I88
asS'pages'
p71
I348
sS'isbn13'
p72
V9780451239600
p73
sS'language'
p74
VEnglish
p75
sS'release_date'
p76
S'2012-10-07T00:00:00'
p77
sS'author'
p78
I88
sS'content_cleaned'
p79
I01
sS'classes'
p80
(lp81
Vto-read
p82
aVparanormal-romance
p83
aVparanormal
p84
aVshifters
p85
aVromance
p86
aVwerewolves
p87
aVcurrently-reading
p88
aVkatie-reus
p89
aVfavorites
p90
aVshapeshifters
p91
aVfantasy
p92
aVkindle
p93
aVurban-fantasy
p94
aVvampires
p95
aVshifter
p96
aVpnr
p97
aVseries
p98
aVwerewolf
p99
aVebook
p100
aVmoon-shifter
p101
aVlibrary
p102
aVadult
p103
aVwish-list
p104
aVfiction
p105
aVsuspense
p106
aVreus-katie
p107
aVsupernatural
p108
aVread-in-2014
p109
aVshifter-romance
p110
aVbooks-i-own
p111
aVfirst-reads
p112
aVread-in-2013
p113
aVpart-of-a-series
p114
aVhave
p115
aVauthor-katie-reus
p116
aVcontemporary
p117
aVshape-shifters
p118
aVsigned-by-the-author
p119
aVowned-books
p120
aV4-star
p121
aVromantic-suspense
p122
aVshape-shifter
p123
aVebooks
p124
aVhot
p125
aVbad-boy
p126
aV2013-releases
p127
aVread-2017
p128
aVneed
p129
aVread-in-2016
p130
aV3-stars
p131
aVfantasy-romance
p132
aVown-it
p133
aVto-read-paranormal
p134
aVdefault
p135
aVbooks
p136
aVnook-books
p137
aVdnf
p138
aVwerewolf-shifter
p139
aVto-read-own
p140
aVread-next
p141
aVbought
p142
aVparanormal-suspense
p143
aVromance-shifters
p144
aVromance-paranormal
p145
aVnext-in-a-series
p146
aValpha-male
p147
aVowned
p148
aVmoon-shifters
p149
aVe-book
p150
aVaction
p151
aVfantasy-paranormal
p152
aVshapeshifter
p153
aV2013-read
p154
aVgenre-paranormal-romance
p155
aVvampire
p156
aVfavorite-books
p157
aVarc
p158
aVpnr-uf
p159
aVnetgalley
p160
aVcheck-out
p161
aVpre-ordered
p162
aVpaperback
p163
aVmaybe
p164
aVparanormal-series
p165
aVadult-paranormal
p166
aVwant-to-buy
p167
aVlibrary-books-finished
p168
aV2017-reading-challenge
p169
aV00-average-review
p170
aVprnml-romance
p171
aVpara-shifters-pack
p172
aVparanormal-fanasty
p173
aVowned-to-read-physical
p174
aVnook
p175
aVrereads-tbr
p176
aVobol
p177
aVtheme-trauma
p178
aVaverage-2017
p179
aVsupernatural-paranormal
p180
aV2017-challenge
p181
asS'loc_class'
p182
VPS: Language and Literatures: American and Canadian literature
p183
sS'n_authors'
p184
I1
sb.