ccopy_reg
_reconstructor
p0
(cdataset.Book
Book
p1
c__builtin__
object
p2
Ntp3
Rp4
(dp5
S'content_name'
p6
V50566.txt.utf-8
p7
sS'isbn'
p8
V0727841815
p9
sS'year'
p10
I1957
sS'author_name'
p11
VMarion Zimmer Bradley
p12
sS'images_urls'
p13
(lp14
Vhttp://www.gutenberg.org/files/50566/50566-h/images/cover.jpg
p15
asS'language_code'
p16
Veng
p17
sS'images'
p18
(lp19
sS'id'
p20
I169
sS'category'
p21
VText
p22
sS'genres'
p23
(lp24
sS'copyright'
p25
VPublic domain in the USA.
p26
sS'title'
p27
VFalcons of Narabedla
p28
sS'wikipedia'
p29
(dp30
S'url'
p31
Vhttps://en.wikipedia.org/wiki/Falcons_of_Narabedla
p32
sS'found'
p33
I01
sS'year'
p34
I-1
ssS'published_in'
p35
NsS'average_rating'
p36
F3.11
sS'rating_count'
p37
I139
sS'content_available'
p38
I01
sS'cover_art_url'
p39
S'http://www.gutenberg.org/cache/epub/50566/pg50566.cover.medium.jpg'
p40
sS'goodreads'
p41
(dp42
g31
Vhttps://www.goodreads.com/book/show/740510.Falcons_of_Narabedla
p43
sg33
I01
sg34
I1957
ssS'similar_books'
p44
(lp45
VThe Cloud Walker
p46
aVStrange Dreams
p47
aVGli incubi di Hazel
p48
aVSlipt
p49
aVPalace (The Pinch, #1)
p50
aVThe Earth Book of Stormgate
p51
aVThe Exiles Trilogy (Exiles, #1-3)
p52
aVThe Anvil of Ice (The Winter of the World, #1)
p53
aVBard
p54
aVThe Lost Prince (The Dark Border, #1)
p55
aVAppendices (The Lord of the Rings, #7)
p56
aVGolden Trillium (The Saga of the Trillium, #3)
p57
aVAsimov's Mysteries
p58
aVLizzie
p59
aVThe Alternate-Day Diet
p60
aVThe Saliva Tree and Other Strange Growths
p61
aVThe Dragon Masters
p62
aVPollution & the Death of Man
p63
asS'description'
p64
VMike Kenscott is having a really bad vacation. One minute he's camping in the Sierra Mountains with his brother Andy, and the next minute he's on a different world--or in a different time--or both. He's also in a different body. Now he's Adric, Lord of the Crimson Tower, of the Rainbow City of Narabedla. He has to cope with his fellow Narabedlans: the Dreamer Rhys, the mysterious veiled Gamine, the dwarf Idris, his brother Evarin the Toymaker (whose Toys are deadly), and Karamy, the golden witch, who is either his lover or his greatest enemy--with most of both his and Adric's memories gone, he's having trouble knowing what she is. Then there are the people outside the city, led by the man called Narayan. Mike/Adric knows that they are important to him, but he desperately needs to remember <i>why</i>.
p65
sS'format'
p66
NsS'gutenberg'
p67
(dp68
g31
Vhttp://www.gutenberg.org/ebooks/50566
p69
sS'num'
p70
I50566
ssS'authors'
p71
(lp72
I25
asS'isbn13'
p73
V9780727841810
p74
sS'language'
p75
VEnglish
p76
sS'countries'
p77
(lp78
I2
asS'release_date'
p79
S'2015-11-28T00:00:00'
p80
sS'author'
p81
I25
sS'original_title'
p82
VFalcons of Narabedla
p83
sS'summary'
p84
VFalcons of Narabedla is a science fiction novel by Marion Zimmer Bradley set in the universe of her Darkover series. It was first published in book form in English by Ace Books in 1964, as an Ace Double with Bradley's collection The Dark Intruder and Other Stories on the other side. The story first appeared in the May 1957 issue of the magazine Other Worlds.\u000aThe name "Narabedla" is the name of the star "Aldebaran" spelled backwards.\u000a\u000a
p85
sS'content_cleaned'
p86
I01
sS'classes'
p87
(lp88
Vto-read
p89
aVfantasy
p90
aVscience-fiction
p91
aVdefault
p92
aVsci-fi
p93
aVfiction
p94
aVmzb
p95
aVmarion-zimmer-bradley
p96
aVowned
p97
aVbooks-i-own
p98
aVebooks
p99
aVebook
p100
aVenglish
p101
aVphy-copy
p102
aVbooks
p103
aVe-books
p104
aVdarkover
p105
aVavailable
p106
aVseries
p107
aVscifi
p108
aVsf
p109
aVhave
p110
aVto-read-and-own
p111
aVon-pc-to-read
p112
aVbookcase-upstairs-1-top
p113
aVproject-gutenberg
p114
aVoff-world
p115
aVfantastic-sci-fi
p116
aVto-read-fantasy
p117
aVall
p118
aVshort-novella
p119
aVdigital
p120
aVarchivi
p121
aV2016-challenge-oldish
p122
aVdreaming-on-my-shelves
p123
aVscience-fiction-fantasy
p124
aVfantasy-to-read
p125
aVebook-pubic-domain
p126
aVgutenberg
p127
aVfiction-20th-century
p128
aVamerican-fiction
p129
aVb
p130
aV4-donated-after
p131
aVpg-finished
p132
aVbin-017
p133
aVpg-proofed
p134
aVsupernatural
p135
aVpublic-domain-misc
p136
aVpop-fic-scifi-fntsy
p137
aVform-short-story
p138
aVproofed-for-pg
p139
aVowned-but-not-read
p140
aVmine
p141
aVa-ipad
p142
aVg-sf-and-f
p143
aVb-scanned
p144
aVb-paperback
p145
aVb-own
p146
aVlit-american
p147
aVtbr
p148
aVfront-bedroom-bookcase
p149
aVdifferent-cover
p150
aVscifi-fantasy2
p151
aVscifi-mod
p152
aVscience-fantasy
p153
aVscifi-all
p154
aVfavorites
p155
aVon-disk
p156
aVce-tea
p157
aVlendable
p158
aVstefan
p159
aVb-authors
p160
aVread-in-2014
p161
aV1960s
p162
aVf-sf-horror
p163
aVowned-books
p164
aVamerican
p165
aVto-read-have-book
p166
aVi
p167
aVfantasy-and-sf
p168
aVbird-title-project
p169
aVserie
p170
aVsff
p171
aVbought-in-lokal-bookshops
p172
aVmy-personal-book-catalog
p173
aVi-read
p174
aVleon
p175
aVsci-fi-and-fantasy
p176
aVi-really-like-this-author
p177
aVkitchen
p178
aVletteratura
p179
aVfantastica
p180
aVil
p181
aVdi
p182
aVciclo
p183
aVzimmer-bradley
p184
aVto-buy
p185
aVhd
p186
aVadventure
p187
aVit-wikipedia
p188
asS'loc_class'
p189
S''
p190
sS'n_authors'
p191
I1
sb.