ccopy_reg
_reconstructor
p0
(cdataset.Book
Book
p1
c__builtin__
object
p2
Ntp3
Rp4
(dp5
S'isbn'
p6
NsS'year'
p7
I1961
sS'author_name'
p8
VMack Reynolds
p9
sS'images_urls'
p10
(lp11
Vhttp://www.gutenberg.org/files/30334/30334-h/images/front.png
p12
aVhttp://www.gutenberg.org/files/30334/30334-h/images/p18.png
p13
aVhttp://www.gutenberg.org/files/30334/30334-h/images/p27.png
p14
aVhttp://www.gutenberg.org/files/30334/30334-h/images/p37.png
p15
aVhttp://www.gutenberg.org/files/30334/30334-h/images/p46.png
p16
aVhttp://www.gutenberg.org/files/30334/30334-h/images/p57.png
p17
aVhttp://www.gutenberg.org/files/30334/30334-tei/images/front.png
p18
aVhttp://www.gutenberg.org/files/30334/30334-tei/images/p18.png
p19
aVhttp://www.gutenberg.org/files/30334/30334-tei/images/p27.png
p20
aVhttp://www.gutenberg.org/files/30334/30334-tei/images/p37.png
p21
aVhttp://www.gutenberg.org/files/30334/30334-tei/images/p46.png
p22
aVhttp://www.gutenberg.org/files/30334/30334-tei/images/p57.png
p23
asS'language_code'
p24
Veng
p25
sS'images'
p26
(lp27
sS'id'
p28
I418
sS'category'
p29
VText
p30
sS'genres'
p31
(lp32
sS'copyright'
p33
VPublic domain in the USA.
p34
sS'title'
p35
VUltima Thule
p36
sS'wikipedia'
p37
(dp38
S'found'
p39
I00
ssS'average_rating'
p40
F4.01
sS'rating_count'
p41
I39
sS'content_available'
p42
I00
sS'goodreads'
p43
(dp44
S'url'
p45
S'https://www.goodreads.com/book/show/7422019-ultima-thule'
p46
sS'found'
p47
I01
ssS'similar_books'
p48
(lp49
sS'description'
p50
NsS'gutenberg'
p51
(dp52
S'url'
p53
Vhttp://www.gutenberg.org/ebooks/30334
p54
sS'num'
p55
I30334
ssS'authors'
p56
(lp57
I69
asS'pages'
p58
I2
sS'isbn13'
p59
NsS'language'
p60
VEnglish
p61
sS'countries'
p62
(lp63
I2
asS'release_date'
p64
S'2009-10-25T00:00:00'
p65
sS'author'
p66
I69
sS'classes'
p67
(lp68
Vto-read
p69
aVscience-fiction
p70
aVsci-fi
p71
aVcurrently-reading
p72
aVnext
p73
aVaudio
p74
aVfantasy
p75
aVbacklog
p76
aVnext-fiction-tbr
p77
aV20th-century-lit
p78
aV2017-or-later
p79
aVtbr-owned
p80
aVshelf-r-authors
p81
aVgenre-syfi-fan-horr
p82
aVread-in-2015
p83
aVlistened-to-on-librivox
p84
aVown-audiobook
p85
aVaudiobooks
p86
aVno-time-soon
p87
aVto-read-secondary
p88
aVkaunokirjallisuus
p89
aVshort-stories-novellas-essays
p90
aVunknown-genre
p91
aVpaperwhite-active
p92
aVmaybe-someday
p93
aVfeedbooks-com
p94
aVfill-in-the-gaps-project-100
p95
aVpublic-domain-science-fiction
p96
aVnovellas
p97
aVpure-fiction
p98
aVaudio-books
p99
aVsf
p100
aVgenres-i-hate
p101
aVfavorites
p102
aVlibrivox
p103
aVaudiobook
p104
aVscifi
p105
aVpublic-domain
p106
aV2017-2019
p107
aVhigh-priority
p108
aV2018-or-later
p109
aVlower-priority-tbr
p110
aVround-tuit
p111
aVaudio-books-to-read
p112
aVdawn-of-the-unread
p113
aVowned-and-unread
p114
aV2013-reads
p115
aVbacklogue
p116
asS'loc_class'
p117
VPS: Language and Literatures: American and Canadian literature
p118
sS'n_authors'
p119
I1
sb.