ccopy_reg
_reconstructor
p0
(cdataset.Book
Book
p1
c__builtin__
object
p2
Ntp3
Rp4
(dp5
S'similar_books'
p6
(lp7
sS'genres'
p8
(lp9
sS'author'
p10
I302
sS'countries'
p11
(lp12
I2
asS'year'
p13
I1951
sS'title'
p14
VGalaxy Magazine November 1951
p15
sS'cover'
p16
Vhttps://ia600207.us.archive.org/BookReader/BookReaderImages.php?zip=/15/items/Galaxy_v03n02_1951-11/Galaxy_v03n02_1951-11_jp2.zip&file=Galaxy_v03n02_1951-11_jp2/Galaxy_v03n02_1951-11_0000.jp2&scale=0&rotate=0
p17
sS'cover_art'
p18
S'http://www.isfdb.org/wiki/images/9/9b/GALNOV1951.jpg'
p19
sS'author_name'
p20
VGalaxy Magazine
p21
sS'images_urls'
p22
(lp23
sS'authors'
p24
(lp25
I363
aI377
aI378
aI367
aI366
aI336
aI342
aI305
aI340
aI379
aI249
aI380
aI371
aI298
aI381
aI302
asS'images'
p26
(lp27
sS'id'
p28
I986
sS'contents'
p29
(lp30
(dp31
S'title'
p32
VSea Legs
p33
sS'author'
p34
I363
sa(dp35
g32
VSea Legs [2]
p36
sg34
I363
sa(dp37
g32
VSea Legs [3]
p38
sg34
I363
sa(dp39
g32
VTiger
p40
sg34
I377
sa(dp41
g32
VTiger
p42
sg34
I378
sa(dp43
g32
VZeritsky's Law
p44
sg34
I367
sa(dp45
g32
VSelf Portrait
p46
sg34
I366
sa(dp47
g32
VSelf Portrait [2]
p48
sg34
I366
sa(dp49
g32
VSelf Portrait [3]
p50
sg34
I366
sa(dp51
g32
VPsychotennis, Anyone?
p52
sg34
I336
sa(dp53
g32
VThe Puppet Masters (Part 3 of 3)
p54
sg34
I342
sa(dp55
g32
VThe Puppet Masters (Part 3 of 3) [2]
p56
sg34
I342
sa(dp57
g32
VThe Puppet Masters (Part 3 of 3) [3]
p58
sg34
I342
sa(dp59
g32
VThe Puppet Masters (Part 3 of 3) [4]
p60
sg34
I342
sa(dp61
g32
VStep Outside
p62
sg34
I305
sa(dp63
g32
VGalaxy's Five Star Shelf (Galaxy, November 1951)
p64
sg34
I340
sa(dp65
g32
VReview of the Nonfiction Work "Nature's Ways"
p66
sg34
I379
sa(dp67
g32
VSea Legs
p68
sg34
I249
sa(dp69
g32
VSelf Portrait
p70
sg34
I380
sa(dp71
g32
VThe Puppet Masters (Part 3 of 3)
p72
sg34
I371
sa(dp73
g32
VZeritsky's Law
p74
sg34
I298
sa(dp75
g32
VPsychotennis, Anyone?
p76
sg34
I381
sasb.