ccopy_reg
_reconstructor
p0
(cdataset.Book
Book
p1
c__builtin__
object
p2
Ntp3
Rp4
(dp5
S'similar_books'
p6
(lp7
sS'genres'
p8
(lp9
sS'author'
p10
I302
sS'countries'
p11
(lp12
I2
asS'year'
p13
I1967
sS'title'
p14
VGalaxy Magazine June 1967
p15
sS'cover'
p16
Vhttps://ia600201.us.archive.org/BookReader/BookReaderImages.php?zip=/15/items/Galaxy_v25n05_1967-06_modified/Galaxy_v25n05_1967-06_modified_jp2.zip&file=Galaxy_v25n05_1967-06_modified_jp2/Galaxy_v25n05_1967-06_modified_0000.jp2&scale=0&rotate=0
p17
sS'cover_art'
p18
S'http://www.isfdb.org/wiki/images/e/e2/GALJUN67.jpg'
p19
sS'author_name'
p20
VGalaxy Magazine
p21
sS'images_urls'
p22
(lp23
sS'authors'
p24
(lp25
I499
aI476
aI497
aI40
aI339
aI326
aI91
aI111
aI604
aI30
aI618
aI74
aI591
aI142
aI121
aI302
asS'images'
p26
(lp27
sS'id'
p28
I1118
sS'contents'
p29
(lp30
(dp31
g10
I499
sg14
VTo Outlive Eternity (Part 1 of 2)
p32
sa(dp33
g10
I499
sg14
VTo Outlive Eternity (Part 1 of 2) [2]
p34
sa(dp35
g10
I499
sg14
VTo Outlive Eternity (Part 1 of 2) [3]
p36
sa(dp37
g10
I476
sg14
VSpare That Tree
p38
sa(dp39
g10
I476
sg14
VSpare That Tree [2]
p40
sa(dp41
g10
I497
sg14
VThe Adults
p42
sa(dp43
g10
I497
sg14
VThe Adults [2]
p44
sa(dp45
g10
I497
sg14
VThe Adults [3]
p46
sa(dp47
g10
I497
sg14
VThe Adults [4]
p48
sa(dp49
g10
I40
sg14
VThe Dismal Science
p50
sa(dp51
g10
I339
sg14
VFor Your Information: Another Look at Atlantis
p52
sa(dp53
g10
I326
sg14
VForecast (Galaxy, June 1967)
p54
sa(dp55
g10
I91
sg14
VGalaxy Bookshelf (Galaxy, June 1967)
p56
sa(dp57
g10
I111
sg14
VSpare That Tree
p58
sa(dp59
g10
I604
sg14
VThe Adults
p60
sa(dp61
g10
I30
sg14
VTo Outlive Eternity (Part 1 of 2)
p62
sa(dp63
g10
I618
sg14
VMirror of Ice
p64
sa(dp65
g10
I74
sg14
VPolity and Custom of the Camiroi
p66
sa(dp67
g10
I591
sg14
VThe Man Who Loved the Faioli
p68
sa(dp69
g10
I142
sg14
VHowling Day
p70
sa(dp71
g10
I121
sg14
VAlien's Bequest
p72
sasb.