ccopy_reg
_reconstructor
p0
(cdataset.Book
Book
p1
c__builtin__
object
p2
Ntp3
Rp4
(dp5
S'content_name'
p6
V26066.txt.utf-8
p7
sS'isbn'
p8
NsS'year'
p9
I1930
sS'author_name'
p10
VJack Williamson
p11
sS'images_urls'
p12
(lp13
Vhttp://www.gutenberg.org/files/26066/26066-h/images/001.png
p14
aVhttp://www.gutenberg.org/files/26066/26066-h/images/002.png
p15
asS'language_code'
p16
Veng
p17
sS'images'
p18
(lp19
sS'id'
p20
I384
sS'category'
p21
VText
p22
sS'genres'
p23
(lp24
sS'copyright'
p25
VPublic domain in the USA.
p26
sS'title'
p27
VThe Cosmic Express
p28
sS'wikipedia'
p29
(dp30
S'found'
p31
I00
ssS'average_rating'
p32
F3.26
sS'rating_count'
p33
I22
sS'content_available'
p34
I01
sS'goodreads'
p35
(dp36
S'url'
p37
Vhttps://www.goodreads.com/book/show/6328997-the-cosmic-express
p38
sg31
I01
sS'year'
p39
I1930
ssS'similar_books'
p40
(lp41
sS'description'
p42
V<b>"A new invention. Just perfected a few weeks ago..."</b> <br /><br /><i>Wireless transmission of matter</i><br /><br />First published in Amazing Stories
p43
sS'format'
p44
NsS'gutenberg'
p45
(dp46
g37
Vhttp://www.gutenberg.org/ebooks/26066
p47
sS'num'
p48
I26066
ssS'authors'
p49
(lp50
I86
asS'isbn13'
p51
NsS'language'
p52
VEnglish
p53
sS'countries'
p54
(lp55
I2
asS'release_date'
p56
S'2008-07-15T00:00:00'
p57
sS'author'
p58
I86
sS'content_cleaned'
p59
I01
sS'classes'
p60
(lp61
Vto-read
p62
aVscience-fiction
p63
aVd-d
p64
aVappendix-e
p65
aVsci-fi
p66
aVshort-story
p67
aVd-d-inspiration
p68
aVappendix-n
p69
aVdndrecommended
p70
aVsci-fi-and-fantasy-fiction
p71
aVfree-on-kindle
p72
aVdungeons-and-dragons
p73
aVd-d-5e-reading
p74
aVdnd-reading-list
p75
aVowned-pending-kindle-free-ebook
p76
aVkindle-free-ebook
p77
aVto-read-scifi
p78
aV16
p79
aVearly-mid-1900s
p80
aVbooks-i-disliked
p81
aVgary-gygax-list
p82
aVbuy
p83
aVsf
p84
aVebooks
p85
aVto-buy
p86
aVdnd-inspirational-reading
p87
aVscience-fiction-times
p88
aVmmm2013
p89
aVe-book
p90
aV3-ebooks
p91
aVtype-short-story
p92
aV3a-ebooks
p93
asS'loc_class'
p94
VPS: Language and Literatures: American and Canadian literature
p95
sS'n_authors'
p96
I1
sb.