ccopy_reg
_reconstructor
p0
(cdataset.Book
Book
p1
c__builtin__
object
p2
Ntp3
Rp4
(dp5
S'similar_books'
p6
(lp7
sS'genres'
p8
(lp9
sS'author'
p10
I302
sS'countries'
p11
(lp12
I2
asS'year'
p13
I1966
sS'title'
p14
VGalaxy Magazine June 1966
p15
sS'cover'
p16
Vhttps://ia600206.us.archive.org/BookReader/BookReaderImages.php?zip=/7/items/Galaxy_v24n05_1966-06/Galaxy_v24n05_1966-06_jp2.zip&file=Galaxy_v24n05_1966-06_jp2/Galaxy_v24n05_1966-06_0000.jp2&scale=0&rotate=0
p17
sS'cover_art'
p18
S'http://www.isfdb.org/wiki/images/8/83/GALJUN66.jpg'
p19
sS'author_name'
p20
VGalaxy Magazine
p21
sS'images_urls'
p22
(lp23
sS'authors'
p24
(lp25
I611
aI499
aI545
aI40
aI339
aI91
aI326
aI602
aI50
aI63
aI262
aI546
aI112
aI302
asS'images'
p26
(lp27
sS'id'
p28
I1112
sS'contents'
p29
(lp30
(dp31
S'title'
p32
VHeisenberg's Eyes (Part 1 of 2)
p33
sS'author'
p34
I611
sa(dp35
g32
VHeisenberg's Eyes (Part 1 of 2) [2]
p36
sg34
I611
sa(dp37
g32
VHeisenberg's Eyes (Part 1 of 2) [3]
p38
sg34
I611
sa(dp39
g32
VHeisenberg's Eyes (Part 1 of 2) [4]
p40
sg34
I611
sa(dp41
g32
VHeisenberg's Eyes (Part 1 of 2) [5]
p42
sg34
I611
sa(dp43
g32
VThe Eskimo Invasion
p44
sg34
I499
sa(dp45
g32
VThe Eskimo Invasion [2]
p46
sg34
I499
sa(dp47
g32
VOpen the Sky
p48
sg34
I545
sa(dp49
g32
VOpen the Sky [2]
p50
sg34
I545
sa(dp51
g32
VOpen the Sky [3]
p52
sg34
I545
sa(dp53
g32
VLooking Ahead to 1965
p54
sg34
I40
sa(dp55
g32
VFor Your Information: Brownian Motion, Loschmidt's Number and the Laws of Utter Chaos
p56
sg34
I339
sa(dp57
g32
VGalaxy Bookshelf (Galaxy, June 1966)
p58
sg34
I91
sa(dp59
g32
VForecast (Galaxy, June 1966)
p60
sg34
I326
sa(dp61
g32
VThe Eskimo Invasion
p62
sg34
I602
sa(dp63
g32
VOpen the Sky
p64
sg34
I50
sa(dp65
g32
VHeisenberg's Eyes (Part 1 of 2)
p66
sg34
I63
sa(dp67
g32
VPriceless Possession
p68
sg34
I262
sa(dp69
g32
VGalactic Consumer Report No. 2: Automatic Twin-Tube Wishing Machines
p70
sg34
I546
sa(dp71
g32
VWhen I Was Miss Dow
p72
sg34
I112
sasb.