ccopy_reg
_reconstructor
p0
(cdataset.Book
Book
p1
c__builtin__
object
p2
Ntp3
Rp4
(dp5
S'content_name'
p6
V19111.txt.utf-8
p7
sS'isbn'
p8
V0099543850
p9
sS'year'
p10
I1967
sS'author_name'
p11
VRick Raphael
p12
sS'images_urls'
p13
(lp14
Vhttp://www.gutenberg.org/files/19111/19111-h/images/image_01.jpg
p15
aVhttp://www.gutenberg.org/files/19111/19111-h/images/image_02.jpg
p16
aVhttp://www.gutenberg.org/files/19111/19111-h/images/image_03.jpg
p17
aVhttp://www.gutenberg.org/files/19111/19111-h/images/image_04.jpg
p18
aVhttp://www.gutenberg.org/files/19111/19111-h/images/image_12.jpg
p19
aVhttp://www.gutenberg.org/files/19111/19111-h/images/image_22.jpg
p20
aVhttp://www.gutenberg.org/files/19111/19111-h/images/image_23.jpg
p21
aVhttp://www.gutenberg.org/files/19111/19111-h/images/image_32.jpg
p22
aVhttp://www.gutenberg.org/files/19111/19111-h/images/image_33.jpg
p23
aVhttp://www.gutenberg.org/files/19111/19111-h/images/image_42.jpg
p24
aVhttp://www.gutenberg.org/files/19111/19111-h/images/image_51.jpg
p25
asS'language_code'
p26
Veng
p27
sS'images'
p28
(lp29
sS'id'
p30
I456
sS'category'
p31
VText
p32
sS'genres'
p33
(lp34
sS'copyright'
p35
VPublic domain in the USA.
p36
sS'title'
p37
VCode Three
p38
sS'wikipedia'
p39
(dp40
S'found'
p41
I00
ssS'average_rating'
p42
F4.26
sS'rating_count'
p43
I6450
sS'content_available'
p44
I01
sS'goodreads'
p45
(dp46
S'url'
p47
Vhttps://www.goodreads.com/book/show/7744611-code
p48
sg41
I01
sS'year'
p49
I2013
ssS'similar_books'
p50
(lp51
V1.4 (Point 4, #2)
p52
aVA Tithe of Blood and Ashes (Drake Chronicles, #6.4)
p53
aVGone Collection (Gone #1-4)
p54
aVWitch Fire (Burn Mark, #2)
p55
aVRavage (Deviants, #3)
p56
aVIce Shock (The Joshua Files, #2)
p57
aVRip Tide (Dark Life, #2)
p58
aVSnakes & Ladders
p59
aVThe Gathering (Channie, #0.5)
p60
aVFox Forever (Jenna Fox Chronicles, #3)
p61
aVPossessed
p62
aVStrike (The SYLO Chronicles, #3)
p63
aVThe Whisper (The Roar, #2)
p64
aVBlood Witch / Dark Magick (Sweep, #3-4)
p65
aVCity of Swords (Stravaganza, #6)
p66
aVRun (Subject Seven, #2)
p67
aVPoison Most Vial
p68
asS'description'
p69
VThe Virals are put to the ultimate test when they find a geocache containing an ornate puzzle box. Shelton decodes the cipher inside, only to find more tantalizing clues left by "The Gamemaster." A second, greater geocache is within reach\u2014if the Virals are up to the challenge.<br /><br />But the hunt takes a dark turn when Tory locates the other box\u2014a fake bomb, along with a sinister proposal from The Gamemaster. Now, the real game has begun: another bomb is out there\u2014a real one\u2014and the clock is ticking.
p70
sS'format'
p71
VHardcover
p72
sS'gutenberg'
p73
(dp74
g47
Vhttp://www.gutenberg.org/ebooks/19111
p75
sS'num'
p76
I19111
ssS'authors'
p77
(lp78
I156
asS'pages'
p79
I408
sS'isbn13'
p80
V9780099543855
p81
sS'language'
p82
VEnglish
p83
sS'countries'
p84
(lp85
I2
asS'release_date'
p86
S'2006-08-24T00:00:00'
p87
sS'author'
p88
I156
sS'content_cleaned'
p89
I01
sS'classes'
p90
(lp91
Vto-read
p92
aVyoung-adult
p93
aVfavorites
p94
aVcurrently-reading
p95
aVscience-fiction
p96
aVkathy-reichs
p97
aVya
p98
aVsci-fi
p99
aVseries
p100
aVfiction
p101
aVowned
p102
aVvirals
p103
aVfantasy
p104
aVadventure
p105
aVbooks-i-own
p106
aVcrime
p107
aVparanormal
p108
aVthriller
p109
aVdefault
p110
aVfavourites
p111
aVmystery
p112
aVaudiobook
p113
aVkindle
p114
aVmy-books
p115
aVaction
p116
aVteen
p117
aVto-buy
p118
aVowned-books
p119
aVread-in-2013
p120
aVread-2013
p121
aVread-in-2014
p122
aVlibrary
p123
aVaction-adventure
p124
aVebook
p125
aVromance
p126
aVwish-list
p127
aVebooks
p128
aVsuspense
p129
aVsupernatural
p130
aVmystery-thriller
p131
aVwant-to-buy
p132
aVscifi
p133
aVaudiobooks
p134
aVi-own
p135
aVneed-to-buy
p136
aVreichs
p137
aVreichs-kathy
p138
aVbooks
p139
aVvirals-series
p140
aVlibrary-books
p141
aV2013-reads
p142
aVhave
p143
aVmy-library
p144
aV2013-releases
p145
aVpart-of-a-series
p146
aVbones
p147
aVread-in-2016
p148
aV5-stars
p149
aVaudio-books
p150
aVurban-fantasy
p151
aVabandoned
p152
aVneed
p153
aVfirst-reads
p154
aVbuy
p155
aVsigned
p156
aVaudio-book
p157
aVre-read
p158
aVaudio
p159
aVsi-fi
p160
aVread-2014
p161
aVmysteries
p162
aVbookshelf
p163
aVborrowed
p164
aVwolves
p165
aVbooks-read-in-2013
p166
aVall-time-favorites
p167
aVcontemporary
p168
aVe-books
p169
aVsuper-powers
p170
aVfunny
p171
aVfemale-pov
p172
aVto-get
p173
aVmystery-suspense
p174
aVthe-virals-series
p175
aVread-in-2015
p176
aVhardcover
p177
aVkathy-reichs-virals
p178
aVfriendship
p179
aVsuperpowers
p180
aVhardback
p181
aVown-to-read
p182
aVwerewolves
p183
aVya-books
p184
aVscience-fiction-fantasy
p185
aVlibrary-book
p186
aVyoung-adult-fiction
p187
aVtbr
p188
aVmy-favorites
p189
aVya-fantasy
p190
aVnew-books
p191
asS'loc_class'
p192
VPS: Language and Literatures: American and Canadian literature
p193
sS'n_authors'
p194
I1
sb.