ccopy_reg
_reconstructor
p0
(cdataset.Book
Book
p1
c__builtin__
object
p2
Ntp3
Rp4
(dp5
S'content_name'
p6
V22754.txt.utf-8
p7
sS'isbn'
p8
NsS'year'
p9
I1961
sS'author_name'
p10
VE. Everett Evans
p11
sS'images_urls'
p12
(lp13
Vhttp://www.gutenberg.org/files/22754/22754-h/images/001.png
p14
aVhttp://www.gutenberg.org/files/22754/22754-h/images/002.png
p15
aVhttp://www.gutenberg.org/files/22754/22754-h/images/003.png
p16
aVhttp://www.gutenberg.org/files/22754/22754-h/images/004.png
p17
asS'language_code'
p18
Veng
p19
sS'id'
p20
I102
sS'category'
p21
VText
p22
sS'genres'
p23
(lp24
sS'copyright'
p25
VPublic domain in the USA.
p26
sS'title'
p27
VMasters of Space
p28
sS'wikipedia'
p29
(dp30
S'found'
p31
I00
ssS'average_rating'
p32
F3.65
sS'rating_count'
p33
I155
sS'content_available'
p34
I01
sS'goodreads'
p35
(dp36
S'url'
p37
Vhttps://www.goodreads.com/book/show/2332291.Masters_Of_Space
p38
sS'found'
p39
I01
sS'year'
p40
I1961
ssS'similar_books'
p41
(lp42
VMind Changer (Sector General, #11)
p43
aVThe Secret of the Ninth Planet
p44
aVThe Jupiter Theft
p45
aVBroken Bulbs
p46
aVStorm Over Warlock (Forerunner, #1)
p47
aVBlack Projects, White Knights: The Company Dossiers (The Company, #4.5)
p48
aVTom Swift and His Flying Lab  (Tom Swift Jr, #1)
p49
aVBlack Amazon of Mars
p50
aVThe Eighth Science Fiction Megapack: 25 Modern and Classic Stories
p51
aVThe Forlorn
p52
aVThe Survivors (Ragnarok, #1)
p53
aVThe Dragon Lensman (Second Stage Lensman Trilogy, #1)
p54
aVBerserker Prime (Berserker, #13)
p55
aVDark as Day (Cold as Ice, #3)
p56
asS'description'
p57
VThe Masters had ruled all space with an unconquerable iron fist. But the Masters were gone. And this new, young race who came now to take their place\u2013could they hope to defeat the ancient Enemy of All?<br /><br />Approx. 6.75 hours
p58
sS'gutenberg'
p59
(dp60
g37
Vhttp://www.gutenberg.org/ebooks/22754
p61
sS'num'
p62
I22754
ssS'authors'
p63
(lp64
I38
aI14
asS'pages'
p65
I7
sS'isbn13'
p66
NsS'language'
p67
VEnglish
p68
sS'countries'
p69
(lp70
I2
asS'release_date'
p71
S'2007-09-24T00:00:00'
p72
sS'author'
p73
I38
sS'cover'
p74
Vhttps://images.gr-assets.com/books/1373070112l/2332291.jpg
p75
sS'content_cleaned'
p76
I01
sS'classes'
p77
(lp78
Vto-read
p79
aVscience-fiction
p80
aVsci-fi
p81
aVcurrently-reading
p82
aVowned
p83
aVspace-opera
p84
aVkindle
p85
aVsf
p86
aVebook
p87
aVfiction
p88
aVinvestigate
p89
aVcalibre
p90
aVbooks-i-own
p91
aVadventure
p92
aVscifi
p93
aVto-read-sometime
p94
aVown-print
p95
aVover-100-pages
p96
aVfree-from-amazon
p97
aVsmall
p98
aVread-owned
p99
aV20th-century-lit
p100
aVbooks
p101
aVunobtainium
p102
aVeugenics
p103
aVbig-science
p104
aVandroids
p105
aVscience
p106
aVlost-interest
p107
aVunsorted-read
p108
aVee-doc-smith
p109
aVdefault
p110
aVclassic-science-fiction
p111
aVown-audiobook
p112
aVyounger
p113
aVdoc-ee-smith
p114
aVowned-pending-kindle-free-ebook
p115
aVpulp-heroes
p116
aVkindle-scifi
p117
aVkindle-free-ebook
p118
aVto-read-jd
p119
aVundecided
p120
aV15
p121
aVunread
p122
aVsf-and-f
p123
aVipadair
p124
aVto-read-1a-sf
p125
aVto-read-1
p126
aVliterature
p127
aVon-disk
p128
aVtg-books
p129
aVeb-other
p130
aVeb
p131
aVsff
p132
aVlibrary
p133
aVmaster-list
p134
aVowned-to-read
p135
aVepubbooks
p136
aVkindle-ebook-to-read
p137
aVkindle-ebook
p138
aVhave-this-ebook
p139
aVscience-fiction-times
p140
aVdiff-ed
p141
aVpsionics
p142
aVfree-online
p143
aVnot-popular
p144
aVowned-books
p145
aV204-space-opera
p146
aV20-science-fiction
p147
aVhave-this
p148
aVowned-not-read
p149
aVabandoned
p150
aV20th-century-novels
p151
aVp-mass-mkt-paperback
p152
aVall-paper
p153
aVromane-und-prosa
p154
aVsmith-ee
p155
aVe-reader
p156
aVat-the-local-library
p157
aVpulp-classics
p158
aVsoftcover
p159
aVchecked
p160
aVfiction-sf
p161
aVspace
p162
aVopera
p163
aVmodern
p164
aVliterary
p165
aVgeneral
p166
aVfantasy-science-fiction
p167
aVcaliber-books
p168
aVscience-fiction-and-fantasy
p169
aVe-e-doc-smith
p170
aVto-sort
p171
aVpublic-library
p172
aVnightstand
p173
aVto-buy
p174
aVnovels
p175
aVclassic-lit
p176
aVcollected-classics
p177
aVbooks-on-kindle
p178
asS'loc_class'
p179
VPS: Language and Literatures: American and Canadian literature
p180
sS'n_authors'
p181
I2
sb.