ccopy_reg
_reconstructor
p0
(cdataset.Book
Book
p1
c__builtin__
object
p2
Ntp3
Rp4
(dp5
S'content_name'
p6
V32359.txt.utf-8
p7
sS'isbn'
p8
V0671642294
p9
sS'year'
p10
I1988
sS'author_name'
p11
VRobert Moore Williams
p12
sS'images_urls'
p13
(lp14
Vhttp://www.gutenberg.org/files/32359/32359-h/images/001.jpg
p15
aVhttp://www.gutenberg.org/files/32359/32359-h/images/002.jpg
p16
aVhttp://www.gutenberg.org/files/32359/32359-h/images/cover.jpg
p17
asS'language_code'
p18
NsS'images'
p19
(lp20
sS'id'
p21
I911
sS'category'
p22
VText
p23
sS'genres'
p24
(lp25
sS'copyright'
p26
VPublic domain in the USA.
p27
sS'title'
p28
VSinister Paradise
p29
sS'wikipedia'
p30
(dp31
S'url'
p32
Vhttps://en.wikipedia.org/wiki/The_King_in_Yellow
p33
sS'found'
p34
I01
sS'year'
p35
I-1
ssS'published_in'
p36
NsS'average_rating'
p37
F3.65
sS'rating_count'
p38
I184
sS'content_available'
p39
I01
sS'cover_art_url'
p40
S'http://www.gutenberg.org/cache/epub/32359/pg32359.cover.medium.jpg'
p41
sS'goodreads'
p42
(dp43
g32
Vhttps://www.goodreads.com/book/show/415754.Sinister_Paradise
p44
sg34
I01
sg35
I1988
ssS'similar_books'
p45
(lp46
VKidnapped (Nightmare Hall, #27)
p47
aVKristy and the Mystery Train (Baby-Sitters Club Mystery, #30)
p48
aVVeronica (Sunfire, #18)
p49
aVThe Big Book of Tell Me Why: Answers to Hundreds of Questions Children Ask
p50
aVJessica and the Brat Attack (Sweet Valley Twins, #29)
p51
asS'description'
p52
VIn Hawaii, Nancy Drew investigates when Lisa Trumbull, granddaughter of millionaire Alice Faulkner, is kidnapped and a ransom note demands that the Faulkners sell their shares of Windward Bancorp to the mysterious Malihini Corporation.
p53
sS'format'
p54
VPaperback
p55
sS'gutenberg'
p56
(dp57
g32
Vhttp://www.gutenberg.org/ebooks/32359
p58
sS'num'
p59
I32359
ssS'authors'
p60
(lp61
I135
asS'pages'
p62
I180
sS'isbn13'
p63
V9780671642297
p64
sS'language'
p65
VEnglish
p66
sS'release_date'
p67
S'2010-05-13T00:00:00'
p68
sS'author'
p69
I135
sS'original_title'
p70
VThe King in Yellow
p71
sS'summary'
p72
VThe King in Yellow is a book of short stories by American writer Robert W. Chambers, first published by F. Tennyson Neely in 1895. The book is named after a play with the same title which recurs as a motif through some of the stories. The first half of the book features highly esteemed weird stories, and the book has been described by critics such as E. F. Bleiler, S. T. Joshi and T. E. D. Klein as a classic in the field of the supernatural. There are ten stories, the first four of which ("The Repairer of Reputations", "The Mask", "In the Court of the Dragon", and "The Yellow Sign") mention The King in Yellow, a forbidden play which induces despair or madness in those who read it. "The Yellow Sign" inspired a film of the same name released in 2001.\u000aThe British first edition was published by Chatto & Windus in 1895 (316 pages).
p73
sS'content_cleaned'
p74
I01
sS'classes'
p75
(lp76
Vto-read
p77
aVnancy-drew
p78
aVmystery
p79
aVyoung-adult
p80
aVowned
p81
aVfiction
p82
aVcarolyn-keene
p83
aVbooks-i-own
p84
aVchildhood
p85
aVya-fiction
p86
aVya
p87
aVto-read-nancy-drew
p88
aVowned-books
p89
aVdefault
p90
aVchildrens
p91
aVchildhood-reads
p92
aVnancy-drew-files
p93
aVi-own
p94
aVkids
p95
aVcurrently-reading
p96
aVhave-a-copy
p97
aVsoft-cover
p98
aVread-in-high-school
p99
aVlead-female
p100
aVamateur-sleuths
p101
aVnancy-drew-tbr
p102
aVon-the-shelf
p103
aVin-my-library
p104
aVnext-reading-list
p105
aVchildhood-nostalgia
p106
aVteen-books
p107
aVscanned
p108
aVown-hard-copy
p109
aVhome-library
p110
aVmy-ebooks
p111
aVstrong-women
p112
aVpaperback
p113
aVbooks
p114
aVkeene-carolyn
p115
aVthe-nancy-drew-files
p116
aVjuvenile
p117
aVpb-books-owned
p118
aVabandoned
p119
aVon-my-shelf
p120
aVold-favorites
p121
aVmystery-thriller
p122
aVbooks-i-read-in-the-80-s
p123
aVseries
p124
aVclassroom-library
p125
aVopen-library
p126
aVchildhood-nestalgia
p127
aVnancy-drew-files-to-read
p128
aVansley
p129
aVown-it
p130
aVchildren-2
p131
aVfavorite-books-when-i-was-a-child
p132
aVstratemeyer
p133
aVnancy-drew-series
p134
aVage-teen
p135
aVpre-2005
p136
aVmystery-thriller-horror
p137
aVkid-lit
p138
aVchildhood-books
p139
aVya-kids-read
p140
aValltime-favourites
p141
aVbooks-from-junior-high
p142
aVto-read-and-to-buy
p143
aVmystery-and-crime
p144
aVlittle-kids-books-i-own
p145
aVhave
p146
aVwhen-i-was-young
p147
aVread-as-a-child
p148
aVtweens
p149
aVpre-2009
p150
aVcanadian-literature
p151
aVlibrary-request-list
p152
aVf--mystery
p153
aVyoung-adult-mystery
p154
aVmystery-suspense
p155
aVchildhood-reading
p156
aVnancy-drew-from-back-in-the-day-
p157
aVread-but-not-owned
p158
aVchildrens-ya
p159
aVbook-from-library
p160
aVfemale-author
p161
aVcrime-fiction
p162
aVchildrens-teens
p163
aVbooks-i-read-when-i-was-a-kid
p164
aVread-when-little
p165
aVmystery-and-suspense
p166
aVlibrary-request-list2
p167
asS'loc_class'
p168
VPS: Language and Literatures: American and Canadian literature
p169
sS'n_authors'
p170
I1
sb.