ccopy_reg
_reconstructor
p0
(cdataset.Book
Book
p1
c__builtin__
object
p2
Ntp3
Rp4
(dp5
S'content_name'
p6
V32953.txt.utf-8
p7
sS'isbn'
p8
NsS'year'
p9
I1957
sS'author_name'
p10
VRandall Garrett
p11
sS'images_urls'
p12
(lp13
Vhttp://www.gutenberg.org/files/32953/32953-h/images/cover.jpg
p14
aVhttp://www.gutenberg.org/files/32953/32953-h/images/cover_2.jpg
p15
aVhttp://www.gutenberg.org/files/32953/32953-h/images/cover_3.jpg
p16
aVhttp://www.gutenberg.org/files/32953/32953-h/images/image_001.jpg
p17
aVhttp://www.gutenberg.org/files/32953/32953-h/images/image_002.jpg
p18
aVhttp://www.gutenberg.org/files/32953/32953-h/images/image_003.jpg
p19
aVhttp://www.gutenberg.org/files/32953/32953-h/images/image_004.jpg
p20
aVhttp://www.gutenberg.org/files/32953/32953-h/images/image_a.jpg
p21
aVhttp://www.gutenberg.org/files/32953/32953-h/images/image_b.jpg
p22
aVhttp://www.gutenberg.org/files/32953/32953-h/images/image_e.jpg
p23
aVhttp://www.gutenberg.org/files/32953/32953-h/images/image_h.jpg
p24
aVhttp://www.gutenberg.org/files/32953/32953-h/images/image_i.jpg
p25
aVhttp://www.gutenberg.org/files/32953/32953-h/images/image_i1.jpg
p26
aVhttp://www.gutenberg.org/files/32953/32953-h/images/image_j.jpg
p27
aVhttp://www.gutenberg.org/files/32953/32953-h/images/image_n.jpg
p28
aVhttp://www.gutenberg.org/files/32953/32953-h/images/image_t.jpg
p29
asS'language_code'
p30
Veng
p31
sS'images'
p32
(lp33
sS'id'
p34
I236
sS'category'
p35
VText
p36
sS'genres'
p37
(lp38
sS'copyright'
p39
VPublic domain in the USA.
p40
sS'title'
p41
VQuest of the Golden Ape
p42
sS'wikipedia'
p43
(dp44
S'found'
p45
I00
ssS'average_rating'
p46
F2.85
sS'rating_count'
p47
I18
sS'content_available'
p48
I01
sS'cover_art_url'
p49
S'http://www.gutenberg.org/cache/epub/32953/pg32953.cover.medium.jpg'
p50
sS'goodreads'
p51
(dp52
S'url'
p53
Vhttps://www.goodreads.com/book/show/8503634-quest-of-the-golden-ape-by-randall-garrett
p54
sg45
I01
sS'year'
p55
I2002
ssS'similar_books'
p56
(lp57
sS'description'
p58
VHow could this man awaken with no past\u2014no childhood\u2014no recollection except of a vague world of terror from which his mother cried out for vengeance and the slaughter of his own people stood as a monument of infamy?
p59
sS'format'
p60
NsS'gutenberg'
p61
(dp62
g53
Vhttp://www.gutenberg.org/ebooks/32953
p63
sS'num'
p64
I32953
ssS'authors'
p65
(lp66
I49
aI79
asS'isbn13'
p67
NsS'language'
p68
VEnglish
p69
sS'countries'
p70
(lp71
I2
asS'release_date'
p72
S'2010-06-23T00:00:00'
p73
sS'author'
p74
I49
sS'content_cleaned'
p75
I01
sS'classes'
p76
(lp77
Vto-read
p78
aVfiction
p79
aVscience-fiction
p80
aVhave-but-not-read
p81
aVclassic-science-fiction
p82
aVlost-interest
p83
aVe-shelf
p84
aVowned-pending-kindle-free-ebook
p85
aVfeedbooks-com
p86
aVsff
p87
aValien-worlds
p88
aVsci-fi
p89
aVpulp
p90
asS'loc_class'
p91
VPS: Language and Literatures: American and Canadian literature
p92
sS'n_authors'
p93
I2
sb.