ccopy_reg
_reconstructor
p0
(cdataset.Book
Book
p1
c__builtin__
object
p2
Ntp3
Rp4
(dp5
S'similar_books'
p6
(lp7
sS'genres'
p8
(lp9
sS'author'
p10
I302
sS'countries'
p11
(lp12
I2
asS'year'
p13
I1969
sS'title'
p14
VGalaxy Magazine March 1969
p15
sS'cover'
p16
Vhttps://ia600206.us.archive.org/BookReader/BookReaderImages.php?zip=/23/items/Galaxy_v28n02_1969-03/Galaxy_v28n02_1969-03_jp2.zip&file=Galaxy_v28n02_1969-03_jp2/Galaxy_v28n02_1969-03_0000.jp2&scale=0&rotate=0
p17
sS'cover_art'
p18
S'http://www.isfdb.org/wiki/images/3/38/GALMAR69.jpg'
p19
sS'author_name'
p20
VGalaxy Magazine
p21
sS'images_urls'
p22
(lp23
sS'authors'
p24
(lp25
I499
aI640
aI40
aI326
aI339
aI604
aI91
aI613
aI648
aI67
aI446
aI632
aI645
aI592
aI302
asS'images'
p26
(lp27
sS'id'
p28
I1131
sS'contents'
p29
(lp30
(dp31
g10
I499
sg14
VAnd Now They Wake (Part 1 of 3)
p32
sa(dp33
g10
I499
sg14
VAnd Now They Wake (Part 1 of 3) [2]
p34
sa(dp35
g10
I499
sg14
VAnd Now They Wake (Part 1 of 3) [3]
p36
sa(dp37
g10
I640
sg14
VThe Weather On Welladay
p38
sa(dp39
g10
I640
sg14
VThe Weather On Welladay [2]
p40
sa(dp41
g10
I640
sg14
VThe Weather On Welladay [3]
p42
sa(dp43
g10
I640
sg14
VThe Weather On Welladay [4]
p44
sa(dp45
g10
I499
sg14
VGodel Numbers
p46
sa(dp47
g10
I499
sg14
VGodel Numbers [2]
p48
sa(dp49
g10
I499
sg14
VGodel Numbers [3]
p50
sa(dp51
g10
I40
sg14
VThe Election Everybody Won
p52
sa(dp53
g10
I326
sg14
VForecast (Galaxy, March 1969)
p54
sa(dp55
g10
I339
sg14
VFor Your Information: Collision Course
p56
sa(dp57
g10
I604
sg14
VThe Theory and Practice of Teleportation
p58
sa(dp59
g10
I91
sg14
VGalaxy Bookshelf (Galaxy, March 1969)
p60
sa(dp61
g10
I326
sg14
VGalaxy's Stars (Galaxy, March 1969)
p62
sa(dp63
g10
I613
sg14
VThe Weather On Welladay
p64
sa(dp65
g10
I648
sg14
VGodel Numbers
p66
sa(dp67
g10
I67
sg14
VAnd Now They Wake (Part 1 of 3)
p68
sa(dp69
g10
I446
sg14
VThe City That Loves You
p70
sa(dp71
g10
I632
sg14
VLeviathan
p72
sa(dp73
g10
I645
sg14
VThe Last Flight of Dr. Ain
p74
sa(dp75
g10
I592
sg14
VGreeks Bringing Knee-High Gifts
p76
sasb.