ccopy_reg
_reconstructor
p0
(cdataset.Book
Book
p1
c__builtin__
object
p2
Ntp3
Rp4
(dp5
S'similar_books'
p6
(lp7
sS'genres'
p8
(lp9
sS'author'
p10
I302
sS'countries'
p11
(lp12
I2
asS'year'
p13
I1977
sS'title'
p14
VGalaxy Magazine October 1977
p15
sS'cover'
p16
Vhttps://ia601304.us.archive.org/BookReader/BookReaderImages.php?zip=/23/items/Galaxy_v38n08_1977-10/Galaxy_v38n08_1977-10_jp2.zip&file=Galaxy_v38n08_1977-10_jp2/Galaxy_v38n08_1977-10_0000.jp2&scale=0&rotate=0
p17
sS'cover_art'
p18
S'http://www.isfdb.org/wiki/images/f/f1/GALOCT77.jpg'
p19
sS'author_name'
p20
VGalaxy Magazine
p21
sS'images_urls'
p22
(lp23
sS'authors'
p24
(lp25
I742
aI719
aI834
aI835
aI836
aI837
aI838
aI764
aI734
aI326
aI839
aI817
aI840
aI302
asS'images'
p26
(lp27
sS'id'
p28
I1205
sS'contents'
p29
(lp30
(dp31
g10
I742
sg14
VA Certain Place in History
p32
sa(dp33
g10
I742
sg14
VA Certain Place in History [2]
p34
sa(dp35
g10
I742
sg14
VA Certain Place in History [3]
p36
sa(dp37
g10
I742
sg14
VThe Prologue to Light
p38
sa(dp39
g10
I742
sg14
VThe Prologue to Light [2]
p40
sa(dp41
g10
I742
sg14
VThe Prologue to Light [3]
p42
sa(dp43
g10
I742
sg14
VThe Prologue to Light [4]
p44
sa(dp45
g10
I742
sg14
VThe Prologue to Light [5]
p46
sa(dp47
g10
I742
sg14
VLast Contact
p48
sa(dp49
g10
I742
sg14
VLast Contact [2]
p50
sa(dp51
g10
I742
sg14
VExiles to Glory (Part 2 of 2)
p52
sa(dp53
g10
I742
sg14
VExiles to Glory (Part 2 of 2) [2]
p54
sa(dp55
g10
I742
sg14
VExiles to Glory (Part 2 of 2) [3]
p56
sa(dp57
g10
I742
sg14
VExiles to Glory (Part 2 of 2) [4]
p58
sa(dp59
g10
I742
sg14
VExiles to Glory (Part 2 of 2) [5]
p60
sa(dp61
g10
I719
sg14
VAnd Ba
p62
sa(dp63
g10
I834
sg14
VAnd Ba
p64
sa(dp65
g10
I835
sg14
VAnd Ba
p66
sa(dp67
g10
I836
sg14
VA Message From the Publisher: The Best to Jim
p68
sa(dp69
g10
I837
sg14
VStar Wars - Pro
p70
sa(dp71
g10
I838
sg14
VStar Wars - Con
p72
sa(dp73
g10
I764
sg14
VIons and Microwaves
p74
sa(dp75
g10
I734
sg14
VJim Baen and His Electric Spaceships
p76
sa(dp77
g10
I326
sg14
VS. F. Calendar (Galaxy, October 1977)
p78
sa(dp79
g10
I326
sg14
VDirections (Galaxy, October 1977)
p80
sa(dp81
g10
I839
sg14
VThe Prologue to Light
p82
sa(dp83
g10
I734
sg14
VExiles to Glory (Part 2 of 2)
p84
sa(dp85
g10
I817
sg14
VA Certain Place in History
p86
sa(dp87
g10
I840
sg14
VLast Contact
p88
sasb.