ccopy_reg
_reconstructor
p0
(cdataset.Book
Book
p1
c__builtin__
object
p2
Ntp3
Rp4
(dp5
S'content_name'
p6
V29876.txt.utf-8
p7
sS'isbn'
p8
V0870679783
p9
sS'year'
p10
I1977
sS'author_name'
p11
VRobert Sheckley
p12
sS'images_urls'
p13
(lp14
Vhttp://www.gutenberg.org/files/29876/29876-h/images/001.png
p15
aVhttp://www.gutenberg.org/files/29876/29876-h/images/002-1.jpg
p16
aVhttp://www.gutenberg.org/files/29876/29876-h/images/002-2.jpg
p17
asS'language_code'
p18
Veng
p19
sS'images'
p20
(lp21
sS'id'
p22
I238
sS'category'
p23
VText
p24
sS'genres'
p25
(lp26
sS'copyright'
p27
VPublic domain in the USA.
p28
sS'title'
p29
VDeath Wish
p30
sS'wikipedia'
p31
(dp32
S'found'
p33
I00
ssS'average_rating'
p34
F3.95
sS'rating_count'
p35
I213
sS'content_available'
p36
I01
sS'goodreads'
p37
(dp38
S'url'
p39
Vhttps://www.goodreads.com/book/show/1968772.Death_Wish
p40
sg33
I01
sS'year'
p41
I1977
ssS'similar_books'
p42
(lp43
VWhite Man's Justice, Black Man's Grief
p44
aVPipe Dream (Strivers Row)
p45
aVLow Road: The Life and Legacy of Donald Goines
p46
aVHarlem On Lock
p47
aVNaked in Garden Hills
p48
aVShockproof Sydney Skate
p49
aVSarah Phillips
p50
aVTambourines to Glory
p51
aVThe One-Way Rain
p52
aVHoodlum
p53
asS'description'
p54
VA novel of the clash between Jimmy Collucci, an ambitious member of Chicago's Mafia, and Jessie Taylor, an African American driven by revenge and hatred to destroy Collucci's infamous organization.
p55
sS'format'
p56
VPaperback
p57
sS'gutenberg'
p58
(dp59
g39
Vhttp://www.gutenberg.org/ebooks/29876
p60
sS'num'
p61
I29876
ssS'authors'
p62
(lp63
I23
asS'pages'
p64
I288
sS'isbn13'
p65
V9780870679780
p66
sS'language'
p67
VEnglish
p68
sS'release_date'
p69
S'2009-08-31T00:00:00'
p70
sS'author'
p71
I23
sS'content_cleaned'
p72
I01
sS'classes'
p73
(lp74
Vto-read
p75
aVfiction
p76
aVdefault
p77
aVurban-fiction
p78
aVholloway-house
p79
aVbiography
p80
aVcurrently-reading
p81
aVdonnacha-get-this
p82
aVaudiobooks
p83
aVmy-books-kindle
p84
aVafrican-american-authors
p85
aVtrue-crime
p86
aVpage-turners
p87
aV1-kindle
p88
aVnonfiction
p89
aVbooks-read-liked-and-discarded
p90
aVafrican-american
p91
aVgave-up
p92
aVafro-american-drama
p93
aVpartially-read
p94
aVurban
p95
aVnovels
p96
aVon-shelf
p97
aVafrican-american-literature-fiction
p98
aVurban-masterpiece
p99
aVsampled-and-liked
p100
aVmainstream
p101
aVowned
p102
aVbookmarked
p103
aVown-a-copy
p104
aVowned-books
p105
aVstreet-lit
p106
aVto-read-urban-crime-fiction
p107
aVread-2012
p108
aVgangster
p109
aVfiction-crime
p110
aVfiction-african-american
p111
aVcrime-fictions
p112
aVtough-guy-fiction
p113
aVurban-literature
p114
aVa-dont-have-yet
p115
aVseventies
p116
aVlame-books
p117
aVchicago
p118
aVblacks
p119
aVanti-establishment
p120
asS'loc_class'
p121
VPS: Language and Literatures: American and Canadian literature
p122
sS'n_authors'
p123
I1
sb.