ccopy_reg
_reconstructor
p0
(cdataset.Book
Book
p1
c__builtin__
object
p2
Ntp3
Rp4
(dp5
S'content_name'
p6
V32108.txt.utf-8
p7
sS'isbn'
p8
NsS'year'
p9
I1952
sS'author_name'
p10
VHenry Kuttner
p11
sS'images_urls'
p12
(lp13
Vhttp://www.gutenberg.org/files/32108/32108-h/images/cover.jpg
p14
aVhttp://www.gutenberg.org/files/32108/32108-h/images/title.jpg
p15
asS'language_code'
p16
NsS'images'
p17
(lp18
sS'id'
p19
I634
sS'category'
p20
VText
p21
sS'genres'
p22
(lp23
sS'copyright'
p24
VPublic domain in the USA.
p25
sS'title'
p26
VThe Ego Machine
p27
sS'wikipedia'
p28
(dp29
S'found'
p30
I00
ssS'average_rating'
p31
F3.55
sS'rating_count'
p32
I47
sS'content_available'
p33
I01
sS'cover_art_url'
p34
S'http://www.gutenberg.org/cache/epub/32108/pg32108.cover.medium.jpg'
p35
sS'goodreads'
p36
(dp37
S'url'
p38
Vhttps://www.goodreads.com/book/show/8531798-the-ego-machine
p39
sg30
I01
sS'year'
p40
I1952
ssS'similar_books'
p41
(lp42
sS'description'
p43
VWhen a slightly mad robot drunk on AC, wants you to join an experiment in optimum ecology--don't do it! After all, who wants to argue like Disraeli or live like Ivan the Terrible. . . ?<br /><br />Nicholas Martin looked up at the robot across the desk.<br /><br />"I'm not going to ask what you want," he said, in a low, restrained voice. "I already know. Just go away and tell St. Cyr I approve. Tell him I think it's wonderful, putting a robot in the picture. We've had everything else by now, except the Rockettes. But clearly a quiet little play about Christmas among the Portuguese fishermen on the Florida coast "must" have a robot. Only, why not six robots? Tell him I suggest a baker's dozen. Go away."
p44
sS'format'
p45
NsS'gutenberg'
p46
(dp47
g38
Vhttp://www.gutenberg.org/ebooks/32108
p48
sS'num'
p49
I32108
ssS'authors'
p50
(lp51
I123
asS'isbn13'
p52
NsS'language'
p53
VEnglish
p54
sS'countries'
p55
(lp56
I2
asS'release_date'
p57
S'2010-04-24T00:00:00'
p58
sS'author'
p59
I123
sS'content_cleaned'
p60
I01
sS'classes'
p61
(lp62
Vto-read
p63
aVsci-fi
p64
aVscience-fiction
p65
aVcurrently-reading
p66
aVon-pc-to-read
p67
aV20th-century-lit
p68
aVfiction
p69
aVshort-stories
p70
aVe-title
p71
aVread-papier-copy
p72
aVpolska-wersja
p73
aVaudiobooks
p74
aVz_fiction
p75
aVx_shortstory
p76
aVwo_scifi
p77
aVw_us_federal
p78
aVmust-reads-calibre
p79
aVon-calibre
p80
aVmaybe-reads
p81
aVebooks
p82
aVaudio
p83
aV1-owning
p84
aVowned-amazon
p85
aVscifi
p86
aVfeedbooks-com
p87
aVfun
p88
aVgenre
p89
aVadventures
p90
aVfront-shelf
p91
asS'loc_class'
p92
VPS: Language and Literatures: American and Canadian literature
p93
sS'n_authors'
p94
I1
sb.