ccopy_reg
_reconstructor
p0
(cdataset.Book
Book
p1
c__builtin__
object
p2
Ntp3
Rp4
(dp5
S'similar_books'
p6
(lp7
sS'genres'
p8
(lp9
sS'author'
p10
I302
sS'countries'
p11
(lp12
I2
asS'year'
p13
I1974
sS'title'
p14
VGalaxy Magazine March 1974
p15
sS'cover'
p16
Vhttps://ia600202.us.archive.org/BookReader/BookReaderImages.php?zip=/28/items/Galaxy_v34n06_1974-03/Galaxy_v34n06_1974-03_jp2.zip&file=Galaxy_v34n06_1974-03_jp2/Galaxy_v34n06_1974-03_0000.jp2&scale=0&rotate=0
p17
sS'cover_art'
p18
S'http://www.isfdb.org/wiki/images/9/9e/GALMAR74.jpg'
p19
sS'author_name'
p20
VGalaxy Magazine
p21
sS'images_urls'
p22
(lp23
sS'authors'
p24
(lp25
I326
aI499
aI570
aI341
aI675
aI732
aI546
aI725
aI722
aI733
aI302
asS'images'
p26
(lp27
sS'id'
p28
I1170
sS'contents'
p29
(lp30
(dp31
g10
I326
sg14
VWeb of Everywhere (Part 1 of 2)
p32
sa(dp33
g10
I499
sg14
VThe Hook, the Eye and the Whip
p34
sa(dp35
g10
I326
sg14
VA Typical Day
p36
sa(dp37
g10
I499
sg14
VInfidel of Five Temples
p38
sa(dp39
g10
I499
sg14
VThe Durable Man
p40
sa(dp41
g10
I570
sg14
VThe Ba
p42
sa(dp43
g10
I499
sg14
VInverted World (Part 4 of 4)
p44
sa(dp45
g10
I341
sg14
VGalaxy Bookshelf (Galaxy, March 1974)
p46
sa(dp47
g10
I675
sg14
VThe Hook, the Eye and the Whip
p48
sa(dp49
g10
I732
sg14
VInfidel of Five Temples
p50
sa(dp51
g10
I546
sg14
VWeb of Everywhere (Part 1 of 2)
p52
sa(dp53
g10
I725
sg14
VInverted World (Part 4 of 4)
p54
sa(dp55
g10
I722
sg14
VA Typical Day
p56
sa(dp57
g10
I733
sg14
VThe Durable Man
p58
sasb.