ccopy_reg
_reconstructor
p0
(cdataset.Book
Book
p1
c__builtin__
object
p2
Ntp3
Rp4
(dp5
S'content_name'
p6
V29965.txt.utf-8
p7
sS'isbn'
p8
NsS'year'
p9
I1933
sS'author_name'
p10
VCharles Willard Diffin
p11
sS'images_urls'
p12
(lp13
Vhttp://www.gutenberg.org/files/29965/29965-h/images/image_001.jpg
p14
aVhttp://www.gutenberg.org/files/29965/29965-h/images/image_002.jpg
p15
aVhttp://www.gutenberg.org/files/29965/29965-h/images/image_003.jpg
p16
aVhttp://www.gutenberg.org/files/29965/29965-h/images/image_004.jpg
p17
aVhttp://www.gutenberg.org/files/29965/29965-h/images/image_a.jpg
p18
aVhttp://www.gutenberg.org/files/29965/29965-h/images/image_b.jpg
p19
aVhttp://www.gutenberg.org/files/29965/29965-h/images/image_b1.jpg
p20
aVhttp://www.gutenberg.org/files/29965/29965-h/images/image_c.jpg
p21
aVhttp://www.gutenberg.org/files/29965/29965-h/images/image_d.jpg
p22
aVhttp://www.gutenberg.org/files/29965/29965-h/images/image_d1.jpg
p23
aVhttp://www.gutenberg.org/files/29965/29965-h/images/image_e.jpg
p24
aVhttp://www.gutenberg.org/files/29965/29965-h/images/image_f.jpg
p25
aVhttp://www.gutenberg.org/files/29965/29965-h/images/image_g.jpg
p26
aVhttp://www.gutenberg.org/files/29965/29965-h/images/image_g1.jpg
p27
aVhttp://www.gutenberg.org/files/29965/29965-h/images/image_h.jpg
p28
aVhttp://www.gutenberg.org/files/29965/29965-h/images/image_i.jpg
p29
aVhttp://www.gutenberg.org/files/29965/29965-h/images/image_i1.jpg
p30
aVhttp://www.gutenberg.org/files/29965/29965-h/images/image_m.jpg
p31
aVhttp://www.gutenberg.org/files/29965/29965-h/images/image_m1.jpg
p32
aVhttp://www.gutenberg.org/files/29965/29965-h/images/image_o.jpg
p33
aVhttp://www.gutenberg.org/files/29965/29965-h/images/image_o1.jpg
p34
aVhttp://www.gutenberg.org/files/29965/29965-h/images/image_r.jpg
p35
aVhttp://www.gutenberg.org/files/29965/29965-h/images/image_r1.jpg
p36
aVhttp://www.gutenberg.org/files/29965/29965-h/images/image_s.jpg
p37
aVhttp://www.gutenberg.org/files/29965/29965-h/images/image_s1.jpg
p38
aVhttp://www.gutenberg.org/files/29965/29965-h/images/image_t.jpg
p39
aVhttp://www.gutenberg.org/files/29965/29965-h/images/image_t1.jpg
p40
aVhttp://www.gutenberg.org/files/29965/29965-h/images/image_u.jpg
p41
aVhttp://www.gutenberg.org/files/29965/29965-h/images/image_w.jpg
p42
aVhttp://www.gutenberg.org/files/29965/29965-h/images/image_w1.jpg
p43
aVhttp://www.gutenberg.org/files/29965/29965-h/images/image_y1.jpg
p44
asS'language_code'
p45
NsS'images'
p46
(lp47
sS'id'
p48
I459
sS'category'
p49
VText
p50
sS'genres'
p51
(lp52
sS'copyright'
p53
VPublic domain in the USA.
p54
sS'title'
p55
VTwo Thousand Miles Below
p56
sS'wikipedia'
p57
(dp58
S'found'
p59
I00
ssS'average_rating'
p60
F2.67
sS'rating_count'
p61
I10
sS'content_available'
p62
I01
sS'goodreads'
p63
(dp64
S'url'
p65
Vhttps://www.goodreads.com/book/show/12123104-two-thousand-miles-below
p66
sg59
I01
sS'year'
p67
I1933
ssS'similar_books'
p68
(lp69
sS'description'
p70
NsS'format'
p71
NsS'gutenberg'
p72
(dp73
g65
Vhttp://www.gutenberg.org/ebooks/29965
p74
sS'num'
p75
I29965
ssS'authors'
p76
(lp77
I124
asS'isbn13'
p78
NsS'language'
p79
VEnglish
p80
sS'country'
p81
I3
sS'release_date'
p82
S'2009-09-12T00:00:00'
p83
sS'author'
p84
I124
sS'content_cleaned'
p85
I01
sS'classes'
p86
(lp87
Vto-read
p88
aVsci-fi
p89
aVscience-fiction
p90
aVclassic-sci-fi
p91
aVfantasy
p92
aVlistened-to
p93
aVaudiobooks
p94
aV20th-century
p95
aVunknown-genre
p96
aVowned
p97
aVebook
p98
aVaudio
p99
asS'loc_class'
p100
VPS: Language and Literatures: American and Canadian literature
p101
sS'n_authors'
p102
I1
sb.