ccopy_reg
_reconstructor
p0
(cdataset.Book
Book
p1
c__builtin__
object
p2
Ntp3
Rp4
(dp5
S'content_name'
p6
V29019.txt.utf-8
p7
sS'isbn'
p8
NsS'year'
p9
I1953
sS'author_name'
p10
VAndre Norton
p11
sS'images_urls'
p12
(lp13
Vhttp://www.gutenberg.org/files/29019/29019-h/images/cover.jpg
p14
asS'language_code'
p15
NsS'id'
p16
I76
sS'category'
p17
VText
p18
sS'genres'
p19
(lp20
sS'copyright'
p21
VPublic domain in the USA.
p22
sS'title'
p23
VAll Cats Are Gray
p24
sS'wikipedia'
p25
(dp26
S'found'
p27
I00
ssS'average_rating'
p28
F3.45
sS'rating_count'
p29
I289
sS'content_available'
p30
I01
sS'cover_art_url'
p31
S'http://www.gutenberg.org/cache/epub/29019/pg29019.cover.medium.jpg'
p32
sS'goodreads'
p33
(dp34
S'url'
p35
Vhttps://www.goodreads.com/book/show/6522491-all-cats-are-gray
p36
sS'found'
p37
I01
sS'year'
p38
I1953
ssS'similar_books'
p39
(lp40
VThe Mountain of Marvels: A Celtic Tale of Magic, Retold from the Mabinogion
p41
aVGrace Immaculate
p42
aVWonder Tales: Six French Stories of Enchantment
p43
aVThe Demon You Know (Demon-Hunting Soccer Mom #4.5)
p44
aVTarzan Triumphant (Tarzan, #15)
p45
aVInconstant Star (Man-Kzin Wars)
p46
aVThe Cat Who Walked a Thousand Miles
p47
aVSpecimen 313
p48
aVSpace Viking
p49
aVSteel Walls and Dirt Drops
p50
aVAgent of Vega & Other Stories
p51
aVSmoked
p52
aVBreaths in Winter
p53
aVFirst Flight
p54
aVHappily Ever After (Girls to the Rescue #1)
p55
aVThe Spoils of War (The Damned, #3)
p56
aVRath's Reckoning (The Janus Group #3)
p57
aVLittle Girl Lost (The Valley of Ten Crescents, #0.5)
p58
asS'description'
p59
VUnder normal conditions a whole person has a decided advantage over a handicapped one. But out in deep space the normal may be reversed--for humans at any rate.
p60
sS'format'
p61
NsS'gutenberg'
p62
(dp63
g35
Vhttp://www.gutenberg.org/ebooks/29019
p64
sS'num'
p65
I29019
ssS'authors'
p66
(lp67
I28
asS'isbn13'
p68
NsS'language'
p69
VEnglish
p70
sS'countries'
p71
(lp72
I2
asS'release_date'
p73
S'2009-06-01T00:00:00'
p74
sS'author'
p75
I28
sS'content_cleaned'
p76
I01
sS'classes'
p77
(lp78
Vto-read
p79
aVscience-fiction
p80
aVsci-fi
p81
aVshort-stories
p82
aVfiction
p83
aVcurrently-reading
p84
aVebook
p85
aVkindle
p86
aVscifi
p87
aVshort-story
p88
aVkindle-books
p89
aVandre-norton
p90
aVsci-fi-fantasy
p91
aVcats
p92
aVbooks-i-own
p93
aVowned
p94
aVscifi-fantasy
p95
aVclassic
p96
aVebooks
p97
aV20th-century
p98
aVschool
p99
aVadventure
p100
aVe-book
p101
aVshort
p102
aVfree-ebook
p103
aVkindle-lendable
p104
aVaudiobooks
p105
aVanimals
p106
aVfree
p107
aVsf
p108
aVnovel-vella-velette
p109
aVread-fiction
p110
aVactually-own
p111
aVshort-ebooks
p112
aVpulp
p113
aVspace
p114
aVpublic-domain
p115
aVwant-to-read-later
p116
aVspace-opera
p117
aVkindle-freebie
p118
aV16
p119
aVself-esteem-issues
p120
aVon-librivox-web-site
p121
aVreview-done
p122
aVaudible-channels
p123
aVdetest-with-the-power-of-the-sun
p124
aVread-short-story
p125
aValiens
p126
aVchallenge-2016
p127
aVamazon-ebooks
p128
aVnon-sucky-scifi-and-fantasy
p129
aVnook-books
p130
aVz_fiction
p131
aVx_shortstory
p132
aVw_us_modern
p133
aVold-sci-fi
p134
aVown-not-read
p135
aV1960s-50s
p136
aVunread
p137
aVcalibre
p138
aVamazing-pre2k
p139
aVshelfari-science-fiction
p140
aVshelfari-review-only
p141
aVshelfari-part-of-a-set
p142
aVshelfari-no
p143
aVshelfari-kindlebook
p144
aVshelfari-eo
p145
aVshelfari-andre-norton
p146
aVto-read-aloud
p147
aV2015-books-read
p148
aValdiko
p149
aVlibrary-unread
p150
aVstraight-sci-fi-unread
p151
aVpnr-uf-sf-r
p152
aVfemale-author
p153
aVfavorites
p154
aVnovellas-and-short-stories
p155
aVaudio-obtained
p156
aVpre-2014
p157
aVsf-mys-older
p158
aVsf-uf-paranormal-etc
p159
aVfave-authors-books
p160
aVso-let-it-be-kitten
p161
aVshort-fiction
p162
aV1-loc-dropbox
p163
aVonline-read
p164
aVshorts
p165
aVread_in_english
p166
aVread-sci-fi
p167
aVin-space
p168
aVbrain-candy
p169
aVother
p170
aVread-in-2014
p171
aVhorror-sf-thriller
p172
aVmystery
p173
aVformat-ebooks
p174
aVfeminism
p175
aVclassics
p176
aVfeedbooks-com
p177
aVreimport
p178
asS'loc_class'
p179
VPS: Language and Literatures: American and Canadian literature
p180
sS'n_authors'
p181
I1
sb.