ccopy_reg
_reconstructor
p0
(cdataset.Book
Book
p1
c__builtin__
object
p2
Ntp3
Rp4
(dp5
S'content_name'
p6
V23153.txt.utf-8
p7
sS'isbn'
p8
NsS'year'
p9
I1958
sS'author_name'
p10
VWalter S. Tevis
p11
sS'images_urls'
p12
(lp13
Vhttp://www.gutenberg.org/files/23153/23153-h/images/gf58045i.jpg
p14
aVhttp://www.gutenberg.org/files/23153/23153-h/images/quote.png
p15
aVhttp://www.gutenberg.org/files/23153/23153-page-images/p037.png
p16
aVhttp://www.gutenberg.org/files/23153/23153-page-images/p038.png
p17
aVhttp://www.gutenberg.org/files/23153/23153-page-images/p039.png
p18
aVhttp://www.gutenberg.org/files/23153/23153-page-images/p040.png
p19
aVhttp://www.gutenberg.org/files/23153/23153-page-images/p041.png
p20
aVhttp://www.gutenberg.org/files/23153/23153-page-images/p042.png
p21
aVhttp://www.gutenberg.org/files/23153/23153-page-images/p043.png
p22
aVhttp://www.gutenberg.org/files/23153/23153-page-images/p044.png
p23
aVhttp://www.gutenberg.org/files/23153/23153-page-images/p045.png
p24
aVhttp://www.gutenberg.org/files/23153/23153-page-images/p046.png
p25
asS'language_code'
p26
NsS'id'
p27
I670
sS'category'
p28
VText
p29
sS'genres'
p30
(lp31
sS'copyright'
p32
VPublic domain in the USA.
p33
sS'title'
p34
VThe Big Bounce
p35
sS'wikipedia'
p36
(dp37
S'found'
p38
I00
ssS'average_rating'
p39
F3.4
sS'rating_count'
p40
I35
sS'content_available'
p41
I01
sS'goodreads'
p42
(dp43
S'url'
p44
S'https://www.goodreads.com/book/show/5105720-the-big-bounce'
p45
sS'found'
p46
I01
ssS'similar_books'
p47
(lp48
sS'description'
p49
NsS'gutenberg'
p50
(dp51
S'url'
p52
Vhttp://www.gutenberg.org/ebooks/23153
p53
sS'num'
p54
I23153
ssS'authors'
p55
(lp56
I222
asS'isbn13'
p57
NsS'language'
p58
VEnglish
p59
sS'countries'
p60
(lp61
I2
asS'release_date'
p62
S'2007-10-23T00:00:00'
p63
sS'author'
p64
I222
sS'content_cleaned'
p65
I00
sS'classes'
p66
(lp67
Vto-read
p68
aVscience-fiction
p69
aVsci-fi
p70
aVaudio
p71
aVqueued
p72
aVaudio-obtained-lvss
p73
aVshort-story
p74
aVnovellas-poems-shorts
p75
aVfiction
p76
aVleisure
p77
aVnook
p78
aVsci-fi-and-horror
p79
aVshort-stories
p80
aVpublished-1958
p81
aVsummer-2012
p82
aVshortstory-shortstories-novellas
p83
aVgutenberg-project
p84
aVe-book
p85
aVe-reader--sony
p86
aVsci-fi--fantasy--horror
p87
aVtype-short-story
p88
aVaudio-obtained-ss
p89
asS'loc_class'
p90
VPS: Language and Literatures: American and Canadian literature
p91
sS'n_authors'
p92
I1
sb.