ccopy_reg
_reconstructor
p0
(cdataset.Book
Book
p1
c__builtin__
object
p2
Ntp3
Rp4
(dp5
S'content_name'
p6
V29990.txt.utf-8
p7
sS'isbn'
p8
V2819907830
p9
sS'year'
p10
I1960
sS'author_name'
p11
VH. B. Fyfe
p12
sS'images_urls'
p13
(lp14
Vhttp://www.gutenberg.org/files/29990/29990-h/images/image_001.jpg
p15
aVhttp://www.gutenberg.org/files/29990/29990-h/images/image_h.jpg
p16
asS'language_code'
p17
NsS'images'
p18
(lp19
sS'id'
p20
I575
sS'category'
p21
VText
p22
sS'genres'
p23
(lp24
sS'copyright'
p25
VPublic domain in the USA.
p26
sS'title'
p27
VSatellite System
p28
sS'wikipedia'
p29
(dp30
S'found'
p31
I00
ssS'average_rating'
p32
F2.5
sS'rating_count'
p33
I4
sS'content_available'
p34
I01
sS'goodreads'
p35
(dp36
S'url'
p37
Vhttps://www.goodreads.com/book/show/12944585-satellite-system
p38
sg31
I01
sS'year'
p39
I2010
ssS'similar_books'
p40
(lp41
sS'description'
p42
NsS'gutenberg'
p43
(dp44
g37
Vhttp://www.gutenberg.org/ebooks/29990
p45
sS'num'
p46
I29990
ssS'authors'
p47
(lp48
I94
asS'isbn13'
p49
V9782819907831
p50
sS'language'
p51
VEnglish
p52
sS'countries'
p53
(lp54
I2
asS'release_date'
p55
S'2009-09-14T00:00:00'
p56
sS'author'
p57
I94
sS'cover'
p58
Vhttps://s.gr-assets.com/assets/nophoto/book/111x148-bcc042a9c91a29c1d680899eff700a03.png
p59
sS'content_cleaned'
p60
I01
sS'classes'
p61
(lp62
Vscience-fiction
p63
aVto-read
p64
aVshort-stories
p65
aVlibrivox-free-editions
p66
aVshort-story
p67
aVcalibre
p68
asS'loc_class'
p69
VPS: Language and Literatures: American and Canadian literature
p70
sS'n_authors'
p71
I1
sb.