ccopy_reg
_reconstructor
p0
(cdataset.Book
Book
p1
c__builtin__
object
p2
Ntp3
Rp4
(dp5
S'content_name'
p6
V51240.txt.utf-8
p7
sS'isbn'
p8
NsS'year'
p9
I2013
sS'author_name'
p10
VJoseph Samachson
p11
sS'images_urls'
p12
(lp13
Vhttp://www.gutenberg.org/files/51240/51240-h/images/cover.jpg
p14
aVhttp://www.gutenberg.org/files/51240/51240-h/images/illus1.jpg
p15
aVhttp://www.gutenberg.org/files/51240/51240-h/images/illus2.jpg
p16
asS'language_code'
p17
Veng
p18
sS'images'
p19
(lp20
sS'id'
p21
I601
sS'category'
p22
VText
p23
sS'genres'
p24
(lp25
sS'copyright'
p26
VPublic domain in the USA.
p27
sS'title'
p28
VThe Addicts
p29
sS'wikipedia'
p30
(dp31
S'found'
p32
I00
ssS'average_rating'
p33
F3.9
sS'rating_count'
p34
I12781
sS'content_available'
p35
I01
sS'cover_art_url'
p36
S'http://www.gutenberg.org/cache/epub/51240/pg51240.cover.medium.jpg'
p37
sS'goodreads'
p38
(dp39
S'url'
p40
Vhttps://www.goodreads.com/book/show/22296542-addicted-to-you
p41
sg32
I01
sS'year'
p42
I2013
ssS'similar_books'
p43
(lp44
VNight Owl (Night Owl, #1)
p45
aVPresent Perfect (Perfect, #1)
p46
aVShooting Scars (The Artists Trilogy, #2)
p47
aVGood (Too Good, #1)
p48
aVDon't Make Me Beautiful
p49
aVA Girl by Any Other Name
p50
aVTragic (Rook and Ronin, #1)
p51
aVDarkness Before Dawn (Darkness, #2)
p52
aVArouse (Spiral of Bliss, #1)
p53
aVPush (Push, #1)
p54
aVReclaiming the Sand (Reclaiming the Sand, #1)
p55
aVWelcome to Sugartown (Sugartown, #1)
p56
aVInfraction (Breach, #2)
p57
aVA Little Too Far (A Little Too Far, #1)
p58
aVWounded
p59
aVKeeping Never (Tasting Never, #3)
p60
aVMore Than Her (More Than, #2)
p61
aVLily of the Springs
p62
asS'description'
p63
V<b>She\u2019s addicted to sex. He\u2019s addicted to booze\u2026the only way out is rock bottom.</b><br /><br />No one would suspect shy Lily Calloway\u2019s biggest secret. While everyone is dancing at college bars, Lily stays in the bathroom. To get laid. Her compulsion leads her to one-night stands, steamy hookups and events she shamefully regrets. The only person who knows her secret happens to have one of his own.<br /><br />Loren Hale\u2019s best friend is his bottle of bourbon. Lily comes at a close second. For three years, they\u2019ve pretended to be in a real relationship, hiding their addictions from their families. They\u2019ve mastered the art of concealing flasks and random guys that filter in and out of their apartment.<br /><br />But as they sink beneath the weight of their addictions, they cling harder to their destructive relationship and wonder if a life together, for real, is better than a lie. Strangers and family begin to infiltrate their guarded lives, and with new challenges, they realize they may not just be addicted to alcohol and sex.<br /><br />Their real vice may be each other. <br /><br /><b>New Adult Romance recommended for readers 18+ for mature content</b>
p64
sS'format'
p65
Vebook
p66
sS'gutenberg'
p67
(dp68
g40
Vhttp://www.gutenberg.org/ebooks/51240
p69
sS'num'
p70
I51240
ssS'authors'
p71
(lp72
I157
asS'pages'
p73
I324
sS'isbn13'
p74
NsS'language'
p75
VEnglish
p76
sS'country'
p77
I3
sS'release_date'
p78
S'2016-02-17T00:00:00'
p79
sS'author'
p80
I157
sS'content_cleaned'
p81
I01
sS'classes'
p82
(lp83
Vto-read
p84
aVnew-adult
p85
aVcurrently-reading
p86
aVfavorites
p87
aVromance
p88
aVcontemporary
p89
aVseries
p90
aVkindle
p91
aVcontemporary-romance
p92
aVcollege
p93
aVdnf
p94
aVfriends-to-lovers
p95
aVebook
p96
aVna
p97
aVebooks
p98
aVdark
p99
aVadult
p100
aVaddiction
p101
aVread-in-2015
p102
aVnetgalley
p103
aVerotica
p104
aVbooks-i-own
p105
aVabuse
p106
aVfavourites
p107
aVread-in-2016
p108
aVcollege-romance
p109
aV2015-reads
p110
aV4-stars
p111
aVangst
p112
aVdid-not-finish
p113
aVread-in-english
p114
aVread-in-2014
p115
aVfiction
p116
aVmaybe
p117
aVowned
p118
aVarc
p119
aVe-book
p120
aVkindle-books
p121
aVread-2015
p122
aV5-stars
p123
aVon-my-kindle
p124
aVfavorite-series
p125
aVon-kindle
p126
aVe-books
p127
aVreviewed
p128
aVcliffhanger
p129
aVaudiobook
p130
aVread-2014
p131
aVdrama
p132
aVfirst-in-series
p133
aVemotional
p134
aVfreebie
p135
aVfree
p136
aVall-time-favorites
p137
aVfavorite
p138
aVrealistic-fiction
p139
aV3-stars
p140
aVto-buy
p141
aVangsty
p142
aVmental-illness
p143
aVread-in-2013
p144
aVya
p145
aVfreebies
p146
aV2014-reads
p147
aVchick-lit
p148
aVmade-me-cry
p149
aVtbr
p150
aVtop-tbr
p151
aVbook-boyfriends
p152
aVfaves
p153
aVmust-read
p154
aVnew-adult-romance
p155
aVsteamy
p156
aVaudio
p157
aVkrista-ritchie
p158
aVyoung-adult
p159
aVpart-of-a-series
p160
aVaudible
p161
aVlove
p162
aVbad-boy
p163
aVbad-boys
p164
aVread-2013
p165
aV2013-release
p166
aVread-2016
p167
aVown-ebook
p168
aVpurchased
p169
aVloved
p170
aVbook-boyfriend
p171
aVaddictions
p172
aVown-it
p173
aVreread
p174
aVerotic
p175
aVwish-list
p176
aVaddicted
p177
aVnext
p178
aV2016-reads
p179
aVaddicted-series
p180
aVkobo
p181
aVmeh
p182
aVowned-books
p183
asS'loc_class'
p184
S''
p185
sS'n_authors'
p186
I1
sb.