ccopy_reg
_reconstructor
p0
(cdataset.Book
Book
p1
c__builtin__
object
p2
Ntp3
Rp4
(dp5
S'content_name'
p6
V19067.txt.utf-8
p7
sS'isbn'
p8
V1428049134
p9
sS'year'
p10
I1948
sS'author_name'
p11
VH. Beam Piper
p12
sS'images_urls'
p13
(lp14
Vhttp://www.gutenberg.org/files/19067/19067-h/images/image01.png
p15
aVhttp://www.gutenberg.org/files/19067/19067-h/images/image02.png
p16
aVhttp://www.gutenberg.org/files/19067/19067-h/images/image03.png
p17
aVhttp://www.gutenberg.org/files/19067/19067-h/images/image04.png
p18
asS'language_code'
p19
NsS'images'
p20
(lp21
sS'id'
p22
I276
sS'category'
p23
VText
p24
sS'genres'
p25
(lp26
sS'copyright'
p27
VPublic domain in the USA.
p28
sS'title'
p29
VPolice Operation
p30
sS'wikipedia'
p31
(dp32
S'found'
p33
I00
ssS'average_rating'
p34
F3.56
sS'rating_count'
p35
I101
sS'content_available'
p36
I01
sS'goodreads'
p37
(dp38
S'url'
p39
Vhttps://www.goodreads.com/book/show/2504736.Police_Operation
p40
sg33
I01
sS'year'
p41
I1948
ssS'similar_books'
p42
(lp43
sS'description'
p44
NsS'format'
p45
VPaperback
p46
sS'gutenberg'
p47
(dp48
g39
Vhttp://www.gutenberg.org/ebooks/19067
p49
sS'num'
p50
I19067
ssS'authors'
p51
(lp52
I19
asS'pages'
p53
I56
sS'isbn13'
p54
V9781428049130
p55
sS'language'
p56
VEnglish
p57
sS'country'
p58
I2
sS'release_date'
p59
S'2006-08-16T00:00:00'
p60
sS'author'
p61
I19
sS'content_cleaned'
p62
I01
sS'classes'
p63
(lp64
Vto-read
p65
aVscience-fiction
p66
aVsci-fi
p67
aVcurrently-reading
p68
aVscifi
p69
aVfiction
p70
aVscifi-fantasy
p71
aVkindle
p72
aVebook
p73
aVh-beam-piper
p74
aVpulp
p75
aVsi-fi
p76
aVaudiobooks
p77
aVtime-travel
p78
aVshort-stories
p79
aVfree
p80
aVsf
p81
aVdetective
p82
aVmystery
p83
aVshort-story
p84
aV20th-century-lit
p85
aVsfpl
p86
aVaudio
p87
aVown-audiobook
p88
aVshelfari-fiction
p89
aVshelfari-e-book
p90
aVto-check-out
p91
aV15
p92
aVtrack-down
p93
aVrecreational
p94
aVfav-authors-tr
p95
aVereader
p96
aVscience-fiction-fantasy
p97
aVto-borrow-acquire
p98
aVon-disk
p99
aV2014-short-stories
p100
aVfeedbooks-com
p101
aVscience-fiction-alt-history
p102
aVclassic
p103
aVadventure-suspense
p104
aVe-books
p105
aVlibrivox
p106
aVclassics
p107
aVmmm2013
p108
aValternate-history
p109
aVchapterbooks
p110
aVfree-reads
p111
aVvintage-scifi
p112
aVrainy-day-light-but-enjoyable
p113
aVlibrivox-audiobooks-they-re-free
p114
aVe-book
p115
aVsci-fi-or-speculative
p116
aVclassic-sci-fi
p117
aVebook---epub
p118
aV2007s
p119
aVpg
p120
aVparatime
p121
aVreader
p122
aVgenre-
p123
aVedition
p124
aVc
p125
aVprocedural
p126
aVpolice
p127
aVliterary
p128
aVmodern
p129
aV-
p130
aVstories
p131
aVshort
p132
aVgeneral
p133
aVbooks-on-kindle
p134
aVpdfs
p135
asS'loc_class'
p136
VPS: Language and Literatures: American and Canadian literature
p137
sS'n_authors'
p138
I1
sb.