ccopy_reg
_reconstructor
p0
(cdataset.Book
Book
p1
c__builtin__
object
p2
Ntp3
Rp4
(dp5
S'similar_books'
p6
(lp7
sS'genres'
p8
(lp9
sS'author'
p10
I918
sS'countries'
p11
(lp12
I2
asS'year'
p13
I1961
sS'title'
p14
VIF Magazine September 1961
p15
sS'cover'
p16
Vhttps://ia600203.us.archive.org/BookReader/BookReaderImages.php?zip=/3/items/1961-09_IF/1961-09_IF_jp2.zip&file=1961-09_IF_jp2/1961-09_IF_0000.jp2&scale=0&rotate=0
p17
sS'cover_art'
p18
S'http://www.isfdb.org/wiki/images/d/d6/WOFIFSEP1961.jpg'
p19
sS'author_name'
p20
VIF Magazine
p21
sS'images_urls'
p22
(lp23
sS'authors'
p24
(lp25
I326
aI1068
aI560
aI341
aI67
aI168
aI220
aI356
aI94
aI1072
aI153
aI121
aI918
asS'images'
p26
(lp27
sS'id'
p28
I1281
sS'contents'
p29
(lp30
(dp31
g10
I326
sg14
VThe Frozen Planet
p32
sa(dp33
g10
I1068
sg14
VTolliver's Orbit
p34
sa(dp35
g10
I560
sg14
VThe Valley of the Masters
p36
sa(dp37
g10
I560
sg14
VCall Him Nemesis
p38
sa(dp39
g10
I341
sg14
VMonoliths and Miracles
p40
sa(dp41
g10
I326
sg14
VScience Briefs (If, September 1961)
p42
sa(dp43
g10
I326
sg14
VHue and Cry (If, September 1961)
p44
sa(dp45
g10
I67
sg14
VThe Frozen Planet
p46
sa(dp47
g10
I168
sg14
VCall Him Nemesis
p48
sa(dp49
g10
I220
sg14
VMirror Image
p50
sa(dp51
g10
I356
sg14
VSpawning Ground
p52
sa(dp53
g10
I94
sg14
VTolliver's Orbit
p54
sa(dp55
g10
I1072
sg14
VThe Valley of the Masters
p56
sa(dp57
g10
I153
sg14
VThe Girls From Fieu Dayol
p58
sa(dp59
g10
I121
sg14
VLorelei
p60
sasb.