ccopy_reg
_reconstructor
p0
(cdataset.Book
Book
p1
c__builtin__
object
p2
Ntp3
Rp4
(dp5
S'content_name'
p6
V24517.txt.utf-8
p7
sS'isbn'
p8
NsS'year'
p9
I1959
sS'author_name'
p10
VPeter Baily
p11
sS'images_urls'
p12
(lp13
Vhttp://www.gutenberg.org/files/24517/24517-h/images/001.png
p14
aVhttp://www.gutenberg.org/files/24517/24517-h/images/002.png
p15
asS'language_code'
p16
NsS'images'
p17
(lp18
sS'id'
p19
I308
sS'category'
p20
VText
p21
sS'genres'
p22
(lp23
sS'copyright'
p24
VPublic domain in the USA.
p25
sS'title'
p26
VAccidental Death
p27
sS'wikipedia'
p28
(dp29
S'found'
p30
I00
ssS'average_rating'
p31
F4.11
sS'rating_count'
p32
I60
sS'content_available'
p33
I01
sS'goodreads'
p34
(dp35
S'url'
p36
S'https://www.goodreads.com/book/show/6540001-accidental-death'
p37
sS'found'
p38
I01
ssS'similar_books'
p39
(lp40
sS'description'
p41
VThe most dangerous of weapons is the one you don't know is loaded.<br />Illustrated by Schoenherr<br />[Illustration]<br />The wind howled out of the northwest, blind with snow and barbed with ice crystals. All the way up the half-mile precipice it fingered and wrenched away at groaning ice-slabs. It screamed over the top, whirled snow in a dervish dance around the hollow there, piled snow into the long furrow plowed ruler-straight through streamlined hummocks of snow.<br />The sun glinted on black rock glazed by ice, chasms and ridges and bridges of ice. It lit the snow slope to a frozen glare, penciled black shadow down the long furrow, and flashed at the furrow's end on a thing of metal and plastics, an artifact thrown down in the dead wilderness.<br />Nothing grew, nothing flew, nothing walked, nothing talked. But the thing in the hollow was stirring in stiff jerks like a snake with its back broken or a clockwork toy running down. When the movements stopped, there was a click and a strange sound began. Thin, scratchy, inaudible more than a yard away, weary but still cocky, there leaked from the shape in the hollow the sound of a human voice.
p42
sS'gutenberg'
p43
(dp44
S'url'
p45
Vhttp://www.gutenberg.org/ebooks/24517
p46
sS'num'
p47
I24517
ssS'authors'
p48
(lp49
I100
asS'isbn13'
p50
NsS'language'
p51
VEnglish
p52
sS'countries'
p53
(lp54
I3
asS'release_date'
p55
S'2008-02-04T00:00:00'
p56
sS'author'
p57
I100
sS'cover'
p58
Vhttps://s.gr-assets.com/assets/nophoto/book/111x148-bcc042a9c91a29c1d680899eff700a03.png
p59
sS'content_cleaned'
p60
I01
sS'classes'
p61
(lp62
Vto-read
p63
aVscience-fiction
p64
aVsci-fi
p65
aVshort-stories
p66
aVfiction
p67
aV20th-century
p68
aVcurrently-reading
p69
aVone-a-day-4
p70
aVone-book-a-day
p71
aVanthology
p72
aVjuly-2017
p73
aVgolden-age-scifi
p74
aVwtf-was-that
p75
aVfuture
p76
aVread-in-2016
p77
aVpulp
p78
aVlibrivox-short-story-collection-11
p79
aVaudiobooks
p80
aVshort-story
p81
aVbooks
p82
aVbooks-read-in-2015
p83
aVowned
p84
aVowned-books
p85
aVaudio-obtained
p86
aV14
p87
aVaudio
p88
aVsci-fi-and-post-apocalyptic
p89
aV1950s
p90
aVshort-scifi-stories
p91
aVg-science-fiction
p92
aVfantasy-sf
p93
aVpeter-baily
p94
aVebooks
p95
aV3-ebooks
p96
aVbooks-set-aside
p97
aVclassic
p98
aVe-book
p99
aVto-read-kindle
p100
aVtype-short-story
p101
aVaudio-obtained-ss
p102
aVbailey-peter
p103
aV3a-ebooks
p104
aVto-read-on-kindle
p105
aVaudio-books
p106
asS'loc_class'
p107
VPS: Language and Literatures: American and Canadian literature
p108
sS'n_authors'
p109
I1
sb.