ccopy_reg
_reconstructor
p0
(cdataset.Book
Book
p1
c__builtin__
object
p2
Ntp3
Rp4
(dp5
S'similar_books'
p6
(lp7
sS'genres'
p8
(lp9
sS'author'
p10
I302
sS'countries'
p11
(lp12
I2
asS'year'
p13
I1969
sS'title'
p14
VGalaxy Magazine August 1969
p15
sS'cover'
p16
Vhttps://ia600209.us.archive.org/BookReader/BookReaderImages.php?zip=/0/items/Galaxy_v28n06_1969-08_modified/Galaxy_v28n06_1969-08_modified_jp2.zip&file=Galaxy_v28n06_1969-08_modified_jp2/Galaxy_v28n06_1969-08_modified_0000.jp2&scale=0&rotate=0
p17
sS'cover_art'
p18
S'http://www.isfdb.org/wiki/images/1/12/GALAUG69.jpg'
p19
sS'author_name'
p20
VGalaxy Magazine
p21
sS'images_urls'
p22
(lp23
sS'authors'
p24
(lp25
I499
aI326
aI91
aI339
aI30
aI636
aI630
aI63
aI32
aI654
aI56
aI356
aI302
asS'images'
p26
(lp27
sS'id'
p28
I1135
sS'contents'
p29
(lp30
(dp31
S'title'
p32
VThe White King's War
p33
sS'author'
p34
I499
sa(dp35
g32
VStarhunger
p36
sg34
I326
sa(dp37
g32
VThe Minus Effect
p38
sg34
I499
sa(dp39
g32
VWhen They Openly Walk
p40
sg34
I499
sa(dp41
g32
VLife Matter
p42
sg34
I499
sa(dp43
g32
VI Am Crying All Inside
p44
sg34
I326
sa(dp45
g32
VDune Messiah (Part 2 of 5)
p46
sg34
I326
sa(dp47
g32
VGalaxy Bookshelf (Galaxy, August 1969)
p48
sg34
I91
sa(dp49
g32
VForecast (Galaxy, August 1969)
p50
sg34
I326
sa(dp51
g32
VGalaxy Stars (Galaxy Magazine, August 1969)
p52
sg34
I326
sa(dp53
g32
VFor Your Information (Galaxy Magazine, August 1969)
p54
sg34
I339
sa(dp55
g32
VThe White King's War
p56
sg34
I30
sa(dp57
g32
VStarhunger
p58
sg34
I636
sa(dp59
g32
VThe Minus Effect
p60
sg34
I630
sa(dp61
g32
VDune Messiah (Part 2 of 5)
p62
sg34
I63
sa(dp63
g32
VWhen They Openly Walk
p64
sg34
I32
sa(dp65
g32
VLife Matter
p66
sg34
I654
sa(dp67
g32
VI Am Crying All Inside
p68
sg34
I56
sa(dp69
g32
VRescue Team
p70
sg34
I356
sasb.