ccopy_reg
_reconstructor
p0
(cdataset.Book
Book
p1
c__builtin__
object
p2
Ntp3
Rp4
(dp5
S'content_name'
p6
V23198.txt.utf-8
p7
sS'isbn'
p8
V0545221269
p9
sS'year'
p10
I2011
sS'author_name'
p11
VRandall Garrett
p12
sS'images_urls'
p13
(lp14
Vhttp://www.gutenberg.org/files/23198/23198-h/images/pic1.png
p15
aVhttp://www.gutenberg.org/files/23198/23198-h/images/pic2.png
p16
aVhttp://www.gutenberg.org/files/23198/23198-page-images/p105.png
p17
aVhttp://www.gutenberg.org/files/23198/23198-page-images/p106.png
p18
aVhttp://www.gutenberg.org/files/23198/23198-page-images/p107.png
p19
aVhttp://www.gutenberg.org/files/23198/23198-page-images/p108.png
p20
aVhttp://www.gutenberg.org/files/23198/23198-page-images/p109.png
p21
aVhttp://www.gutenberg.org/files/23198/23198-page-images/p110.png
p22
aVhttp://www.gutenberg.org/files/23198/23198-page-images/p111.png
p23
aVhttp://www.gutenberg.org/files/23198/23198-page-images/p112.png
p24
aVhttp://www.gutenberg.org/files/23198/23198-page-images/p113.png
p25
aVhttp://www.gutenberg.org/files/23198/23198-page-images/p114.png
p26
aVhttp://www.gutenberg.org/files/23198/23198-page-images/p115.png
p27
aVhttp://www.gutenberg.org/files/23198/23198-page-images/p116.png
p28
aVhttp://www.gutenberg.org/files/23198/23198-page-images/p117.png
p29
aVhttp://www.gutenberg.org/files/23198/23198-page-images/p118.png
p30
aVhttp://www.gutenberg.org/files/23198/23198-page-images/p119.png
p31
asS'language_code'
p32
NsS'images'
p33
(lp34
sS'id'
p35
I529
sS'category'
p36
VText
p37
sS'genres'
p38
(lp39
sS'copyright'
p40
VPublic domain in the USA.
p41
sS'title'
p42
VWith No Strings Attached
p43
sS'wikipedia'
p44
(dp45
S'found'
p46
I00
ssS'average_rating'
p47
F3.57
sS'rating_count'
p48
I2141
sS'content_available'
p49
I01
sS'goodreads'
p50
(dp51
S'url'
p52
Vhttps://www.goodreads.com/book/show/8712325-strings-attached
p53
sg46
I01
sS'year'
p54
I2011
ssS'similar_books'
p55
(lp56
VGod Is in the Pancakes
p57
aVIn the Shadow of the Lamp
p58
aVI Wanna Be Your Shoebox
p59
aVDeadly
p60
aVThe FitzOsbornes in Exile (The Montmaray Journals, #2)
p61
aVThe Girl is Murder (The Girl is Murder, #1)
p62
aVSeth Baumgartner's Love Manifesto
p63
aVTen Cents a Dance
p64
aVThe Big Game of Everything
p65
aVWrapped (Wrapped, #1)
p66
aVThe Dark Days of Hamburger Halpin
p67
aV13
p68
aVFolly
p69
aVNewes from the Dead
p70
aVYou Killed Wesley Payne
p71
aVThe Revenant
p72
aVFrannie in Pieces
p73
aVCate of the Lost Colony
p74
asS'description'
p75
V<p>From National Book Award winner Judy Blundell, the tale of a sixteen-year-old girl caught in a mix of love, mystery, Broadway glamour, and Mob retribution in 1950 New York. </p><p>When Kit Corrigan arrives in New York City, she doesn't have much. She's fled from her family in Providence, Rhode Island, and she's broken off her tempestuous relationship with a boy named Billy, who's enlisted in the army. </p><p>The city doesn't exactly welcome her with open arms. She gets a bit part as a chorus girl in a Broadway show, but she knows that's not going to last very long. She needs help--and then it comes, from an unexpected source.</p><p>Nate Benedict is Billy's father. He's also a lawyer involved in the mob. He makes Kit a deal--he'll give her an apartment and introduce her to a new crowd. All she has to do is keep him informed about Billy . . . and maybe do him a favor every now and then.</p>
p76
sS'format'
p77
VHardcover
p78
sS'gutenberg'
p79
(dp80
g52
Vhttp://www.gutenberg.org/ebooks/23198
p81
sS'num'
p82
I23198
ssS'authors'
p83
(lp84
I49
asS'pages'
p85
I313
sS'isbn13'
p86
V9780545221269
p87
sS'language'
p88
VEnglish
p89
sS'release_date'
p90
S'2007-10-26T00:00:00'
p91
sS'author'
p92
I49
sS'content_cleaned'
p93
I01
sS'classes'
p94
(lp95
Vto-read
p96
aVhistorical-fiction
p97
aVyoung-adult
p98
aVya
p99
aVhistorical
p100
aVmystery
p101
aVcurrently-reading
p102
aVromance
p103
aVteen
p104
aVfiction
p105
aVfavorites
p106
aVread-in-2011
p107
aVbooks-i-own
p108
aVarc
p109
aVaudio
p110
aVrealistic-fiction
p111
aVaudiobook
p112
aVcrime
p113
aVcoming-of-age
p114
aVya-historical-fiction
p115
aVya-fiction
p116
aVwish-list
p117
aVstand-alone
p118
aVhistory
p119
aVaudiobooks
p120
aVlibrary
p121
aVya-lit
p122
aVyoung-adult-books
p123
aVowned
p124
aVya-historical
p125
aVfor-review
p126
aVnew-york
p127
aVmurder
p128
aVgangsters
p129
aVto-buy
p130
aVteen-fiction
p131
aVaudio-book
p132
aVdance
p133
aVdnf
p134
aVthriller
p135
aV1950s
p136
aVrealistic
p137
aVkindle
p138
aVmaybe
p139
aVyoungadult
p140
aVhistoricalfiction
p141
aVya-books
p142
aVyoung
p143
aVfamily
p144
aVhistorical-ya
p145
aVlistened-to
p146
aVyoung-adult-fiction
p147
aVwant-to-read
p148
aVteens
p149
aVtheater
p150
aVfamilies
p151
aVother
p152
aVmystery-thriller
p153
aVmarch-2011
p154
aV2011-releases
p155
aVbroadway
p156
aVneed
p157
aVwar
p158
aVadult
p159
aVrelationships
p160
aVowned-books
p161
aVebook
p162
aV4-stars
p163
aVmystery-crime
p164
aVya-novels
p165
aVmafia
p166
aVchick-lit
p167
aVmy-library
p168
aVyork
p169
aVschool
p170
aVnew
p171
aVdrama
p172
aVsuspense
p173
aVown-to-read
p174
aVlaw
p175
aVgave-up-on
p176
aVnovels
p177
aVyoung-adult-historical-fiction
p178
aV2011-read
p179
aV2011-books
p180
aVteen-historical-fiction
p181
aVto-review
p182
aV2011-release
p183
aVmar-2011
p184
aV2017-books
p185
aVcontemporary
p186
aV1950
p187
aVlibrary-books
p188
aVstand-a-lone-b
p189
aV3-star
p190
aVmeh
p191
aVdefault
p192
aVhigh-school
p193
aVi-own-tbr
p194
aVtheatre
p195
asS'loc_class'
p196
VPS: Language and Literatures: American and Canadian literature
p197
sS'n_authors'
p198
I1
sb.