ccopy_reg
_reconstructor
p0
(cdataset.Book
Book
p1
c__builtin__
object
p2
Ntp3
Rp4
(dp5
S'similar_books'
p6
(lp7
sS'genres'
p8
(lp9
sS'author'
p10
I302
sS'countries'
p11
(lp12
I2
asS'year'
p13
I1950
sS'title'
p14
VGalaxy Magazine December 1950
p15
sS'cover'
p16
Vhttps://ia600203.us.archive.org/BookReader/BookReaderImages.php?zip=/18/items/Galaxy_v01n03_1950-12/Galaxy_v01n03_1950-12_jp2.zip&file=Galaxy_v01n03_1950-12_jp2/Galaxy_v01n03_1950-12_0000.jp2&scale=0&rotate=0
p17
sS'cover_art'
p18
S'http://www.isfdb.org/wiki/images/5/52/GALDEC1950.jpg'
p19
sS'author_name'
p20
VGalaxy Magazine
p21
sS'images_urls'
p22
(lp23
sS'authors'
p24
(lp25
I346
aI347
aI342
aI348
aI338
aI336
aI305
aI340
aI339
aI326
aI136
aI129
aI56
aI349
aI350
aI122
aI302
asS'images'
p26
(lp27
sS'id'
p28
I976
sS'contents'
p29
(lp30
(dp31
g10
I346
sg14
VSecond Night of Summer
p32
sa(dp33
g10
I346
sg14
VSecond Night of Summer [2]
p34
sa(dp35
g10
I346
sg14
VSecond Night of Summer [3]
p36
sa(dp37
g10
I347
sg14
VJudas Ram
p38
sa(dp39
g10
I347
sg14
VJudas Ram [2]
p40
sa(dp41
g10
I347
sg14
VJudas Ram [3]
p42
sa(dp43
g10
I342
sg14
VJaywalker
p44
sa(dp45
g10
I348
sg14
VA Stone and a Spear
p46
sa(dp47
g10
I342
sg14
VTwenty-Foot Miss
p48
sa(dp49
g10
I338
sg14
VThe Waker Dreams
p50
sa(dp51
g10
I338
sg14
VThe Waker Dreams [2]
p52
sa(dp53
g10
I336
sg14
VTime Quarry (Part 3 of 3)
p54
sa(dp55
g10
I336
sg14
VTime Quarry (Part 3 of 3) [2]
p56
sa(dp57
g10
I336
sg14
VTime Quarry (Part 3 of 3) [3]
p58
sa(dp59
g10
I305
sg14
VLet's Talk It Over
p60
sa(dp61
g10
I340
sg14
VGalaxy's Five Star Shelf (Galaxy, December 1950)
p62
sa(dp63
g10
I339
sg14
VTwenty-Foot Miss
p64
sa(dp65
g10
I326
sg14
VNext Month's Contents Page (Galaxy, December 1950)
p66
sa(dp67
g10
I136
sg14
VSecond Night of Summer
p68
sa(dp69
g10
I129
sg14
VA Stone and a Spear
p70
sa(dp71
g10
I56
sg14
VTime Quarry (Part 3 of 3)
p72
sa(dp73
g10
I349
sg14
VJudas Ram
p74
sa(dp75
g10
I350
sg14
VJaywalker
p76
sa(dp77
g10
I122
sg14
VThe Waker Dreams
p78
sasb.