ccopy_reg
_reconstructor
p0
(cdataset.Book
Book
p1
c__builtin__
object
p2
Ntp3
Rp4
(dp5
S'similar_books'
p6
(lp7
sS'genres'
p8
(lp9
sS'author'
p10
I302
sS'countries'
p11
(lp12
I2
asS'year'
p13
I1967
sS'title'
p14
VGalaxy Magazine December 1967
p15
sS'cover'
p16
Vhttps://ia800200.us.archive.org/BookReader/BookReaderImages.php?zip=/22/items/Galaxy_v26n02_1967-12_modified/Galaxy_v26n02_1967-12_modified_jp2.zip&file=Galaxy_v26n02_1967-12_modified_jp2/Galaxy_v26n02_1967-12_modified_0000.jp2&scale=0&rotate=0
p17
sS'cover_art'
p18
S'http://www.isfdb.org/wiki/images/e/eb/GALDEC67.jpg'
p19
sS'author_name'
p20
VGalaxy Magazine
p21
sS'images_urls'
p22
(lp23
sS'authors'
p24
(lp25
I545
aI499
aI326
aI40
aI339
aI91
aI604
aI30
aI217
aI50
aI32
aI605
aI546
aI16
aI302
asS'images'
p26
(lp27
sS'id'
p28
I1120
sS'contents'
p29
(lp30
(dp31
S'title'
p32
VOutpost of Empire
p33
sS'author'
p34
I545
sa(dp35
g32
VOutpost of Empire [2]
p36
sg34
I545
sa(dp37
g32
VOutpost of Empire [3]
p38
sg34
I545
sa(dp39
g32
VOutpost of Empire [4]
p40
sg34
I545
sa(dp41
g32
VThe South Waterford Rumple Club
p42
sg34
I499
sa(dp43
g32
VBlack Corridor
p44
sg34
I326
sa(dp45
g32
VGalactic Consumer Report No. 3: A Survey of the Membership
p46
sg34
I499
sa(dp47
g32
VHandicap
p48
sg34
I499
sa(dp49
g32
VHandicap [2]
p50
sg34
I499
sa(dp51
g32
VHandicap [3]
p52
sg34
I499
sa(dp53
g32
VHandicap [4]
p54
sg34
I499
sa(dp55
g32
VThe Fairly Civil Service
p56
sg34
I499
sa(dp57
g32
VOn Hugos
p58
sg34
I40
sa(dp59
g32
VForecast (Galaxy, December 1967)
p60
sg34
I326
sa(dp61
g32
VFor Your Information: Astronautics International
p62
sg34
I339
sa(dp63
g32
VGalaxy Bookshelf (Galaxy, December 1967)
p64
sg34
I91
sa(dp65
g32
VHandicap
p66
sg34
I604
sa(dp67
g32
VOutpost of Empire
p68
sg34
I30
sa(dp69
g32
VThe South Waterford Rumple Club
p70
sg34
I217
sa(dp71
g32
VKing of the Golden World
p72
sg34
I50
sa(dp73
g32
VBlack Corridor
p74
sg34
I32
sa(dp75
g32
VThe Red Euphoric Bands
p76
sg34
I605
sa(dp77
g32
VGalactic Consumer Report No. 3: A Survey of the Membership
p78
sg34
I546
sa(dp79
g32
VThe Fairly Civil Service
p80
sg34
I16
sasb.