ccopy_reg
_reconstructor
p0
(cdataset.Book
Book
p1
c__builtin__
object
p2
Ntp3
Rp4
(dp5
S'similar_books'
p6
(lp7
sS'genres'
p8
(lp9
sS'author'
p10
I302
sS'countries'
p11
(lp12
I2
asS'year'
p13
I1957
sS'title'
p14
VGalaxy Magazine November 1957
p15
sS'cover'
p16
Vhttps://ia601308.us.archive.org/BookReader/BookReaderImages.php?zip=/15/items/Galaxy_v15n01_1957-11/Galaxy_v15n01_1957-11_jp2.zip&file=Galaxy_v15n01_1957-11_jp2/Galaxy_v15n01_1957-11_0000.jp2&scale=0&rotate=0
p17
sS'cover_art'
p18
S'http://www.isfdb.org/wiki/images/8/88/MLO4443.jpg'
p19
sS'author_name'
p20
VGalaxy Magazine
p21
sS'images_urls'
p22
(lp23
sS'authors'
p24
(lp25
I515
aI419
aI519
aI506
aI499
aI305
aI326
aI339
aI483
aI23
aI142
aI40
aI384
aI302
asS'images'
p26
(lp27
sS'id'
p28
I1057
sS'contents'
p29
(lp30
(dp31
g10
I515
sg14
VMorning After
p32
sa(dp33
g10
I515
sg14
VMorning After [2]
p34
sa(dp35
g10
I419
sg14
VYou Were Right, Joe
p36
sa(dp37
g10
I519
sg14
VWolfbane (Part 2 of 2)
p38
sa(dp39
g10
I519
sg14
VWolfbane (Part 2 of 2) [2]
p40
sa(dp41
g10
I519
sg14
VWolfbane (Part 2 of 2) [3]
p42
sa(dp43
g10
I519
sg14
VWolfbane (Part 2 of 2) [4]
p44
sa(dp45
g10
I506
sg14
VGray Flannel Armor
p46
sa(dp47
g10
I499
sg14
VBreak a Leg
p48
sa(dp49
g10
I499
sg14
VBreak a Leg [2]
p50
sa(dp51
g10
I499
sg14
VBreak a Leg [3]
p52
sa(dp53
g10
I305
sg14
VCall to Arms
p54
sa(dp55
g10
I326
sg14
VForecast (Galaxy, November 1957)
p56
sa(dp57
g10
I339
sg14
VFor Your Information: On with the Dodo Hunt!
p58
sa(dp59
g10
I483
sg14
VGalaxy's 5 Star Shelf (Galaxy, November 1957)
p60
sa(dp61
g10
I23
sg14
VMorning After
p62
sa(dp63
g10
I142
sg14
VBreak a Leg
p64
sa(dp65
g10
I40
sg14
VWolfbane (Part 2 of 2)
p66
sa(dp67
g10
I384
sg14
VYou Were Right, Joe
p68
sa(dp69
g10
I23
sg14
VGray Flannel Armor
p70
sasb.