ccopy_reg
_reconstructor
p0
(cdataset.Book
Book
p1
c__builtin__
object
p2
Ntp3
Rp4
(dp5
S'content_name'
p6
V29525.txt.utf-8
p7
sS'isbn'
p8
NsS'year'
p9
I1952
sS'author_name'
p10
VRobert Sheckley
p11
sS'images_urls'
p12
(lp13
Vhttp://www.gutenberg.org/files/29525/29525-h/images/001.png
p14
aVhttp://www.gutenberg.org/files/29525/29525-h/images/002-1.jpg
p15
aVhttp://www.gutenberg.org/files/29525/29525-h/images/002-2.jpg
p16
asS'language_code'
p17
Veng
p18
sS'images'
p19
(lp20
sS'id'
p21
I322
sS'category'
p22
VText
p23
sS'genres'
p24
(lp25
sS'copyright'
p26
VPublic domain in the USA.
p27
sS'title'
p28
VThe Leech
p29
sS'wikipedia'
p30
(dp31
S'found'
p32
I00
ssS'average_rating'
p33
F3.53
sS'rating_count'
p34
I29
sS'content_available'
p35
I01
sS'goodreads'
p36
(dp37
S'url'
p38
S'https://www.goodreads.com/book/show/10215282-the-leech'
p39
sS'found'
p40
I01
ssS'similar_books'
p41
(lp42
sS'description'
p43
NsS'gutenberg'
p44
(dp45
S'url'
p46
Vhttp://www.gutenberg.org/ebooks/29525
p47
sS'num'
p48
I29525
ssS'authors'
p49
(lp50
I23
asS'isbn13'
p51
NsS'language'
p52
VEnglish
p53
sS'countries'
p54
(lp55
I2
asS'release_date'
p56
S'2009-07-27T00:00:00'
p57
sS'author'
p58
I23
sS'content_cleaned'
p59
I01
sS'classes'
p60
(lp61
Vto-read
p62
aVscience-fiction
p63
aVsci-fi
p64
aVshort-story
p65
aVfiction
p66
aVx-weird-and-scifi
p67
aVshort-fiction
p68
aVshort-stories
p69
aVto-read-someday
p70
aVowned-pending-kindle-free-ebook
p71
aVshould-try-to-read
p72
aVteenager
p73
aVenglish
p74
aVe-book
p75
aVbooks-i-own
p76
aV2015-have-reads
p77
aVlibrivox-short-scifi
p78
aVauthor-s
p79
aV1940s-1950s-sf-golden-age
p80
aVshort-stories-novellas
p81
aVmight-read-sometime
p82
aVtype-short-story
p83
aVaudio-books
p84
asS'loc_class'
p85
VPS: Language and Literatures: American and Canadian literature
p86
sS'n_authors'
p87
I1
sb.