ccopy_reg
_reconstructor
p0
(cdataset.Book
Book
p1
c__builtin__
object
p2
Ntp3
Rp4
(dp5
S'similar_books'
p6
(lp7
sS'genres'
p8
(lp9
sS'author'
p10
I302
sS'countries'
p11
(lp12
I2
asS'year'
p13
I1951
sS'title'
p14
VGalaxy Magazine August 1951
p15
sS'cover'
p16
Vhttps://ia600208.us.archive.org/BookReader/BookReaderImages.php?zip=/7/items/Galaxy_v02n05_1951-08/Galaxy_v02n05_1951-08_jp2.zip&file=Galaxy_v02n05_1951-08_jp2/Galaxy_v02n05_1951-08_0000.jp2&scale=0&rotate=0
p17
sS'cover_art'
p18
S'http://www.isfdb.org/wiki/images/f/f2/GALAUG1951.jpg'
p19
sS'author_name'
p20
VGalaxy Magazine
p21
sS'images_urls'
p22
(lp23
sS'authors'
p24
(lp25
I336
aI363
aI366
aI367
aI305
aI326
aI339
aI254
aI354
aI368
aI356
aI36
aI18
aI302
asS'images'
p26
(lp27
sS'id'
p28
I983
sS'contents'
p29
(lp30
(dp31
g10
I336
sg14
VBeyond Bedlam
p32
sa(dp33
g10
I336
sg14
VBeyond Bedlam [2]
p34
sa(dp35
g10
I336
sg14
VBeyond Bedlam [3]
p36
sa(dp37
g10
I336
sg14
VBeyond Bedlam [4]
p38
sa(dp39
g10
I363
sg14
VOperation Distress
p40
sa(dp41
g10
I363
sg14
VOperation Distress [2]
p42
sa(dp43
g10
I336
sg14
VThe Pilot and the Bushman
p44
sa(dp45
g10
I336
sg14
VThe Pilot and the Bushman [2]
p46
sa(dp47
g10
I336
sg14
VThe Pilot and the Bushman [3]
p48
sa(dp49
g10
I366
sg14
VPictures Don't Lie
p50
sa(dp51
g10
I366
sg14
VPictures Don't Lie [2]
p52
sa(dp53
g10
I363
sg14
VThe Fire and the Sword
p54
sa(dp55
g10
I363
sg14
VThe Fire and the Sword [2]
p56
sa(dp57
g10
I363
sg14
VThe Fire and the Sword [3]
p58
sa(dp59
g10
I367
sg14
VA Little Journey
p60
sa(dp61
g10
I305
sg14
VAsk a Foolish Question
p62
sa(dp63
g10
I326
sg14
VNext Month's Contents Page (Galaxy, August 1951)
p64
sa(dp65
g10
I339
sg14
VGalaxy's 5 Star Shelf (Galaxy, August 1951)
p66
sa(dp67
g10
I326
sg14
VFlying Saucer Contest Winners
p68
sa(dp69
g10
I254
sg14
VThe Pilot and the Bushman
p70
sa(dp71
g10
I354
sg14
VThe Fire and the Sword
p72
sa(dp73
g10
I368
sg14
VBeyond Bedlam
p74
sa(dp75
g10
I356
sg14
VOperation Distress
p76
sa(dp77
g10
I36
sg14
VPictures Don't Lie
p78
sa(dp79
g10
I18
sg14
VA Little Journey
p80
sasb.