ccopy_reg
_reconstructor
p0
(cdataset.Book
Book
p1
c__builtin__
object
p2
Ntp3
Rp4
(dp5
S'content_name'
p6
V29720.txt.utf-8
p7
sS'isbn'
p8
V0395860288
p9
sS'year'
p10
I1967
sS'author_name'
p11
VFredric Brown
p12
sS'images_urls'
p13
(lp14
Vhttp://www.gutenberg.org/files/29720/29720-h/images/001.png
p15
aVhttp://www.gutenberg.org/files/29720/29720-h/images/002-1.jpg
p16
aVhttp://www.gutenberg.org/files/29720/29720-h/images/002-2.jpg
p17
asS'language_code'
p18
Ven-US
p19
sS'images'
p20
(lp21
sS'id'
p22
I290
sS'category'
p23
VText
p24
sS'genres'
p25
(lp26
sS'copyright'
p27
VPublic domain in the USA.
p28
sS'title'
p29
VHall of Mirrors
p30
sS'wikipedia'
p31
(dp32
S'url'
p33
Vhttps://en.wikipedia.org/wiki/Honeymoon_in_Hell
p34
sS'found'
p35
I01
sS'year'
p36
I-1
ssS'published_in'
p37
NsS'average_rating'
p38
F3.72
sS'rating_count'
p39
I332
sS'content_available'
p40
I01
sS'goodreads'
p41
(dp42
g33
Vhttps://www.goodreads.com/book/show/324987.A_Hall_of_Mirrors
p43
sg35
I01
sg36
I1967
ssS'similar_books'
p44
(lp45
VEqual Danger
p46
aVDead Boys: Stories
p47
aVBordersnakes
p48
aVGod's Pocket
p49
aVBlack Hornet (Lew Griffin, #3)
p50
aVWest Coast Blues
p51
aVThe Origin of the Brunists
p52
aVZero
p53
aVWake Up Dead (Cape Town #2)
p54
aVTwo-Way Split
p55
aVThe Stars at Noon
p56
aVDark Property
p57
aVThe Ones You Do
p58
aVGears of the City
p59
aVCrackpot Palace: Stories
p60
aVThree to Kill
p61
aVNinety-two in the Shade
p62
aVAmerican Skin
p63
asS'description'
p64
VRheinhardt, a disk jockey and failed musician, rolls into New Orleans looking for work and another chance in life. What he finds is a woman physically and psychically damaged by the men in her past and a job that entangles him in a right-wing political movement. Peopled with civil rights activists, fanatical Christians, corrupt politicians, and demented Hollywood stars, A Hall of Mirrors vividly depicts the dark side of America that erupted in the sixties. To quote Wallace Stegner, "Stone writes like a bird, like an angel, like a circus barker, like a con man, like someone so high on pot that he is scraping his shoes on the stars."
p65
sS'format'
p66
VPaperback
p67
sS'gutenberg'
p68
(dp69
g33
Vhttp://www.gutenberg.org/ebooks/29720
p70
sS'num'
p71
I29720
ssS'authors'
p72
(lp73
I58
asS'pages'
p74
I416
sS'isbn13'
p75
V9780395860281
p76
sS'language'
p77
VEnglish
p78
sS'country'
p79
I2
sS'release_date'
p80
S'2009-08-17T00:00:00'
p81
sS'author'
p82
I58
sS'original_title'
p83
VHoneymoon in Hell
p84
sS'summary'
p85
VHoneymoon in Hell is a science fiction short story by Fredric Brown, first published in 1950. In 1958, this was the title story of a short story anthology.\u000a\u000a
p86
sS'content_cleaned'
p87
I01
sS'classes'
p88
(lp89
Vto-read
p90
aVfiction
p91
aVcurrently-reading
p92
aVfavorites
p93
aVowned
p94
aVamerican
p95
aVnovels
p96
aVnew-orleans
p97
aVnovel
p98
aVliterature
p99
aVnola
p100
aVdefault
p101
aVdark-fiction
p102
aVamerican-fiction
p103
aVwish-list
p104
aVavailable-at-library
p105
aVon-deck
p106
aVcurrent-read
p107
aVthe-1960s
p108
aVnon-library-to-read
p109
aVliterary-fiction
p110
aVread-fiction
p111
aVpen-faulkner-winners
p112
aVedition-errors
p113
aVbook-club
p114
aVaward-winners-nominees
p115
aVbooklists-from-catalogs
p116
aVtranslated-in-greek
p117
aVfirst-k
p118
aV3rd-to-read
p119
aVbooks-to-find
p120
aV1-condo-to-read
p121
aVviolent
p122
aVus-politics
p123
aVus-history
p124
aVtwentieth-century-history
p125
aVtwentieth-century
p126
aVsex
p127
aVsecret-societies
p128
aVsatire
p129
aVs
p130
aVreligion
p131
aVracial-issues
p132
aVprize-winner
p133
aVpolitical-science
p134
aVpolice
p135
aVphilosophy
p136
aVpen-faulkner
p137
aVmovie-of
p138
aVhollywood
p139
aVfanaticism
p140
aVfamily-troubles
p141
aVdrugs
p142
aVconspiracy-theory
p143
aVcold-war-history
p144
aVchristianity
p145
aVclassics
p146
aVracial-tension
p147
aVfour-times-a-charm
p148
aVexceptional-books
p149
aVdark
p150
aVbest-20th-century-books
p151
aVadult-fiction
p152
aVclassics-old-and-new
p153
aVuslit101
p154
aVlitteratur
p155
aVcontemporary-american-fiction
p156
aV1960s
p157
aVshelfari-favorites
p158
aVmale-author
p159
aVlit-fiction
p160
aVjapanese
p161
aVbought-used
p162
aV2014-reads
p163
aVother
p164
aVnerd-fighting
p165
aVi-want-money
p166
aVfred-karl
p167
aVto-read-fourth-shelf
p168
aV60s
p169
aVwant-new-orleans
p170
aVunobtained
p171
aVliterary
p172
aVscience-fiction
p173
aVmale
p174
aVbooks-to-buy
p175
aVawards-multiple
p176
aVsouthern
p177
aVserious-novels
p178
aVhoughton
p179
aVusa
p180
aVsociety-culture
p181
aVsampled-and-liked
p182
aVmainstream
p183
aVhipster
p184
aVantallagis
p185
aVon-deck-fiction
p186
aVpanama
p187
aVset-aside
p188
aVread-2014
p189
asS'loc_class'
p190
VPS: Language and Literatures: American and Canadian literature
p191
sS'n_authors'
p192
I1
sb.