ccopy_reg
_reconstructor
p0
(cdataset.Book
Book
p1
c__builtin__
object
p2
Ntp3
Rp4
(dp5
S'content_name'
p6
V23379.txt.utf-8
p7
sS'isbn'
p8
NsS'year'
p9
I1951
sS'author_name'
p10
VGreye La Spina
p11
sS'images_urls'
p12
(lp13
Vhttp://www.gutenberg.org/files/23379/23379-h/images/illus.jpg
p14
aVhttp://www.gutenberg.org/files/23379/23379-page-images/p037.png
p15
aVhttp://www.gutenberg.org/files/23379/23379-page-images/p038.png
p16
aVhttp://www.gutenberg.org/files/23379/23379-page-images/p039.png
p17
aVhttp://www.gutenberg.org/files/23379/23379-page-images/p040.png
p18
aVhttp://www.gutenberg.org/files/23379/23379-page-images/p041.png
p19
aVhttp://www.gutenberg.org/files/23379/23379-page-images/p042.png
p20
aVhttp://www.gutenberg.org/files/23379/23379-page-images/p043.png
p21
aVhttp://www.gutenberg.org/files/23379/23379-page-images/p044.png
p22
aVhttp://www.gutenberg.org/files/23379/23379-page-images/p045.png
p23
aVhttp://www.gutenberg.org/files/23379/23379-page-images/p046.png
p24
aVhttp://www.gutenberg.org/files/23379/23379-page-images/p047-image.png
p25
aVhttp://www.gutenberg.org/files/23379/23379-page-images/p047.png
p26
asS'language_code'
p27
NsS'id'
p28
I848
sS'category'
p29
VText
p30
sS'genres'
p31
(lp32
sS'copyright'
p33
VPublic domain in the USA.
p34
sS'title'
p35
VOld Mr. Wiley
p36
sS'wikipedia'
p37
(dp38
S'found'
p39
I00
ssS'average_rating'
p40
F2.67
sS'rating_count'
p41
I3
sS'content_available'
p42
I01
sS'goodreads'
p43
(dp44
S'url'
p45
Vhttps://www.goodreads.com/book/show/11328871-old-mr-wiley
p46
sS'found'
p47
I01
sS'year'
p48
I2009
ssS'similar_books'
p49
(lp50
sS'description'
p51
NsS'format'
p52
NsS'gutenberg'
p53
(dp54
g45
Vhttp://www.gutenberg.org/ebooks/23379
p55
sS'num'
p56
I23379
ssS'authors'
p57
(lp58
I266
asS'isbn13'
p59
NsS'language'
p60
VEnglish
p61
sS'countries'
p62
(lp63
I2
asS'release_date'
p64
S'2007-11-06T00:00:00'
p65
sS'author'
p66
I266
sS'content_cleaned'
p67
I00
sS'classes'
p68
(lp69
Vshort-story
p70
aV15
p71
aVto-read
p72
aVtype-short-story
p73
asS'loc_class'
p74
VPS: Language and Literatures: American and Canadian literature
p75
sS'n_authors'
p76
I1
sb.