ccopy_reg
_reconstructor
p0
(cdataset.Book
Book
p1
c__builtin__
object
p2
Ntp3
Rp4
(dp5
S'content_name'
p6
V51727.txt.utf-8
p7
sS'isbn'
p8
V031236945X
p9
sS'year'
p10
I1961
sS'author_name'
p11
VJoy Leache
p12
sS'images_urls'
p13
(lp14
Vhttp://www.gutenberg.org/files/51727/51727-h/images/cover.jpg
p15
aVhttp://www.gutenberg.org/files/51727/51727-h/images/illus.jpg
p16
asS'language_code'
p17
NsS'images'
p18
(lp19
sS'id'
p20
I805
sS'category'
p21
VText
p22
sS'genres'
p23
(lp24
sS'copyright'
p25
VPublic domain in the USA.
p26
sS'title'
p27
VSatisfaction Guaranteed
p28
sS'wikipedia'
p29
(dp30
S'url'
p31
Vhttps://en.wikipedia.org/wiki/Earth_Is_Room_Enough
p32
sS'found'
p33
I01
sS'year'
p34
I-1
ssS'published_in'
p35
NsS'average_rating'
p36
F3.68
sS'rating_count'
p37
I288
sS'content_available'
p38
I01
sS'cover_art_url'
p39
S'http://www.gutenberg.org/cache/epub/51727/pg51727.cover.medium.jpg'
p40
sS'goodreads'
p41
(dp42
g31
Vhttps://www.goodreads.com/book/show/1654707.Satisfaction_Guaranteed
p43
sg33
I01
sg34
I2008
ssS'similar_books'
p44
(lp45
VHard to Get (Games, #3)
p46
aVBlack Silk (Rodesson's Daughters, #2)
p47
aVEllora's Cavemen: Seasons of Seduction III
p48
aVLisa's Gift
p49
aVCops and Cowboys
p50
aVWaiting for It
p51
aVTotal Surrender
p52
aVChains
p53
aVDown In Texas
p54
aVJane and the Sneaky Dom
p55
aVThe Twelve Quickies of Christmas (Volume 2)
p56
aVOne Wild Night
p57
aVForbidden Fantasies
p58
aVRated: X-Mas
p59
aVShow and Tell (Fortune Hunter Trilogy, #2)
p60
aVA Mutual Favor
p61
aVSkin Deep
p62
aVCady's Cowboy (Crime Tells, #2)
p63
asS'description'
p64
VWelcome to The Capture Agency, a fantasy dating service for dominant men who know what they like and how they like it, and women who can handle limitless pleasure. After being matched with a partner, the male will capture his date and make her a slave to passion. This service is for couples who aren't afraid to push the limits, let go of their inhibitions and lose themselves in the fantasy.<br /><br />Clients include Chase Hunter, the agency's owner, who decides to break his cardinal rule against dating clients and capture a woman for the first time. Kane Woods, a man of superior size and strength who's always had to reign in his desires--until now. And Gage Michael, who learns that his ex is using the service\u2026and decides to capture her. Will these couples enjoy a hot romp between the sheets, or will they capture each other's hearts?
p65
sS'format'
p66
VTrade Paperback
p67
sS'gutenberg'
p68
(dp69
g31
Vhttp://www.gutenberg.org/ebooks/51727
p70
sS'num'
p71
I51727
ssS'authors'
p72
(lp73
I257
asS'pages'
p74
I291
sS'isbn13'
p75
V9780312369453
p76
sS'language'
p77
VEnglish
p78
sS'countries'
p79
(lp80
I3
asS'release_date'
p81
S'2016-04-10T00:00:00'
p82
sS'author'
p83
I257
sS'original_title'
p84
VEarth Is Room Enough
p85
sS'summary'
p86
VEarth Is Room Enough is a collection of seventeen short science fiction and fantasy stories and two pieces of comic verse by American writer Isaac Asimov in 1957. In his autobiography In Joy Still Felt, Asimov wrote, "I was still thinking of the remarks of reviewers such as George O. Smith... concerning my penchant for wandering over the Galaxy. I therefore picked stories that took place on Earth and called the book Earth Is Room Enough." The collection includes one story from the Robot series and four stories that feature or mention the fictional computer Multivac.
p87
sS'content_cleaned'
p88
I01
sS'classes'
p89
(lp90
Vto-read
p91
aVerotica
p92
aVerotic-romance
p93
aVbdsm
p94
aVerotic
p95
aVromance
p96
aVcontemporary-romance
p97
aVanthology
p98
aVcontemporary
p99
aVcharlene-teglia
p100
aVcurrently-reading
p101
aVm-f
p102
aVadult
p103
aVromantica
p104
aVsecond-chances
p105
aVfavorites
p106
aVanthologies
p107
aVlibrary
p108
aVpaperback
p109
aVpaperbacks
p110
aVromantica-erotica
p111
aV2008-reads
p112
aV1-kindle-to-sort
p113
aVsouthwall
p114
aVtime-contemporary
p115
aVkink-bdsm
p116
aVgenre-romance
p117
aVgenre-erotica
p118
aVst
p119
aVtbr-list-2017
p120
aVprice-watch-restrictive-price
p121
aVnope
p122
aVnew
p123
aVblom-check
p124
aV1-4ever-love
p125
aVcrates
p126
aVoffice
p127
aV2000-s
p128
aVdefault
p129
aVbookcase
p130
aVre-read
p131
aVown-book
p132
aVwl-m
p133
aVhave
p134
aVreviews-say-meh
p135
aVdid-not-keep
p136
aVhome-shelf
p137
aVto-read-wishlist
p138
aVgenre-contemp-rom
p139
aVto-finish
p140
aVto-add
p141
aVformat-print
p142
aVnot-owned-will-read
p143
aV11-19
p144
aVmeet-n-greet
p145
aVcharacter-alpha-male
p146
aV2014-read
p147
aVmust-reads
p148
aV100
p149
aVsingle-books
p150
aVromance-inventory
p151
aVowned-kobo
p152
aVromance-hot-hot-hot
p153
aVromance-contemporary
p154
aVread-agaij
p155
aVspinsters-bluestockings
p156
aVpropositions
p157
aVnovella
p158
aVhot-as-eff
p159
aVfunny
p160
aVchildhood-friends
p161
aVangst
p162
aValpha-males
p163
aVerotic-romance-to-read
p164
aVmf
p165
aVrenewed-marriages
p166
aVlooks-pretty-good
p167
aVcollection
p168
aV3-my-2-read-library
p169
aVerotica-bdsm
p170
aVadult-erotica-romance
p171
aVadult-contemporary-romance
p172
aV4-stars
p173
aVi-own-it
p174
aVej-nedladdade
p175
aVread-at
p176
aVbooks
p177
aVromance-and-poetry
p178
aVjust-for-mama
p179
aVavailable-overdrive-library
p180
aVlink-library-book
p181
aVnot-a-library
p182
aVrich-business-hero
p183
aVlove-at-first-sight
p184
aVi-ve-loved-you-4ever
p185
aVerotic-love
p186
aVto-read-adult
p187
aVpaper-format
p188
aVf-m
p189
aVsearch
p190
asS'loc_class'
p191
S''
p192
sS'n_authors'
p193
I1
sb.