ccopy_reg
_reconstructor
p0
(cdataset.Book
Book
p1
c__builtin__
object
p2
Ntp3
Rp4
(dp5
S'content_name'
p6
V22544.txt.utf-8
p7
sS'isbn'
p8
NsS'year'
p9
I1941
sS'author_name'
p10
VLeigh Douglass Brackett
p11
sS'images_urls'
p12
(lp13
Vhttp://www.gutenberg.org/files/22544/22544-h/images/left.png
p14
aVhttp://www.gutenberg.org/files/22544/22544-h/images/left_thumb.png
p15
aVhttp://www.gutenberg.org/files/22544/22544-h/images/right.png
p16
aVhttp://www.gutenberg.org/files/22544/22544-h/images/right_thumb.png
p17
aVhttp://www.gutenberg.org/files/22544/22544-page-images/p056.png
p18
aVhttp://www.gutenberg.org/files/22544/22544-page-images/p057.png
p19
aVhttp://www.gutenberg.org/files/22544/22544-page-images/p058.png
p20
aVhttp://www.gutenberg.org/files/22544/22544-page-images/p059.png
p21
aVhttp://www.gutenberg.org/files/22544/22544-page-images/p060.png
p22
aVhttp://www.gutenberg.org/files/22544/22544-page-images/p061.png
p23
aVhttp://www.gutenberg.org/files/22544/22544-page-images/p062.png
p24
aVhttp://www.gutenberg.org/files/22544/22544-page-images/p063.png
p25
aVhttp://www.gutenberg.org/files/22544/22544-page-images/p064.png
p26
aVhttp://www.gutenberg.org/files/22544/22544-page-images/p065.png
p27
aVhttp://www.gutenberg.org/files/22544/22544-page-images/p066.png
p28
aVhttp://www.gutenberg.org/files/22544/22544-page-images/p067.png
p29
aVhttp://www.gutenberg.org/files/22544/22544-page-images/p068.png
p30
aVhttp://www.gutenberg.org/files/22544/22544-page-images/p069.png
p31
aVhttp://www.gutenberg.org/files/22544/22544-page-images/p070.png
p32
asS'language_code'
p33
NsS'images'
p34
(lp35
sS'id'
p36
I205
sS'category'
p37
VText
p38
sS'genres'
p39
(lp40
sS'copyright'
p41
VPublic domain in the USA.
p42
sS'title'
p43
VA World is Born
p44
sS'wikipedia'
p45
(dp46
S'found'
p47
I00
ssS'average_rating'
p48
F2.89
sS'rating_count'
p49
I39
sS'content_available'
p50
I01
sS'goodreads'
p51
(dp52
S'url'
p53
Vhttps://www.goodreads.com/book/show/5602091-a-world-is-born
p54
sg47
I01
sS'year'
p55
I1941
ssS'similar_books'
p56
(lp57
sS'description'
p58
VMel Gray flung down his hoe with a sudden tigerish fierceness and stood erect. Tom Ward, working beside him, glanced at Gray's Indianesque profile, the youth of it hardened by war and the hells of the Eros prison blocks.<br /><br />A quick flash of satisfaction crossed Ward's dark eyes. Then he grinned and said mockingly, "Hell of a place to spend the rest of your life, ain't it?"<br /><br />Mel Gray stared with slitted blue eyes down the valley. The huge sun of Mercury seared his naked body. Sweat channeled the dust on his skin. His throat ached with thirst. And the bitter landscape mocked him more than Wade's dark face.<br /><br />"The rest of my life," he repeated softly. "The rest of my life!"<br /><br />He was twenty-eight.<br /><br />Wade spat in the damp black earth. "You ought to be glad -- helping the unfortunate, building a haven for the derelict. . . ."
p59
sS'format'
p60
NsS'gutenberg'
p61
(dp62
g53
Vhttp://www.gutenberg.org/ebooks/22544
p63
sS'num'
p64
I22544
ssS'authors'
p65
(lp66
I52
asS'isbn13'
p67
NsS'language'
p68
VEnglish
p69
sS'country'
p70
I3
sS'release_date'
p71
S'2007-09-08T00:00:00'
p72
sS'author'
p73
I52
sS'content_cleaned'
p74
I00
sS'classes'
p75
(lp76
Vto-read
p77
aVscience-fiction
p78
aVcurrently-reading
p79
aVsci-fi
p80
aVshort-stories
p81
aVgutenberg
p82
aVfiction
p83
aVnook
p84
aVowned
p85
aVsci-fi-fantasy
p86
aVgolden-age-scifi
p87
aVhave-cali-library
p88
aVhave-but-not-read
p89
aVclassic-science-fiction
p90
aVspeculative-fiction-women
p91
aVi-own
p92
aVebook
p93
aVnovel
p94
aVto-read-pile
p95
aVz_fiction
p96
aVx_shortstory
p97
aVwo_scifi
p98
aVw_us_unitary
p99
aVclassic-sff
p100
aVkindle-reads
p101
aVscience
p102
aVshort-story
p103
aVreviewed
p104
aVspeculative-fiction
p105
aVcalibre-library
p106
aVaudio-obtained
p107
aVappendix-n
p108
aV100-greatest-books
p109
aV50-books-for-2014
p110
aVaction
p111
aVdonated
p112
aVfinished-2013
p113
aVsci-fic
p114
aVjim-s
p115
aVfantasy-science-fiction
p116
aVnovella
p117
aVpublic-library
p118
aVaudio-obtained-lvss
p119
aVaaaaaaaa
p120
asS'loc_class'
p121
VPS: Language and Literatures: American and Canadian literature
p122
sS'n_authors'
p123
I1
sb.