ccopy_reg
_reconstructor
p0
(cdataset.Book
Book
p1
c__builtin__
object
p2
Ntp3
Rp4
(dp5
S'similar_books'
p6
(lp7
sS'genres'
p8
(lp9
sS'author'
p10
I302
sS'countries'
p11
(lp12
I2
asS'year'
p13
I1975
sS'title'
p14
VGalaxy Magazine September 1975
p15
sS'cover'
p16
Vhttps://ia600208.us.archive.org/BookReader/BookReaderImages.php?zip=/24/items/Galaxy_v36n08_1975-09/Galaxy_v36n08_1975-09_jp2.zip&file=Galaxy_v36n08_1975-09_jp2/Galaxy_v36n08_1975-09_0000.jp2&scale=0&rotate=0
p17
sS'cover_art'
p18
S'http://www.isfdb.org/wiki/images/5/50/GALSEP75.jpg'
p19
sS'author_name'
p20
VGalaxy Magazine
p21
sS'images_urls'
p22
(lp23
sS'authors'
p24
(lp25
I753
aI744
aI742
aI763
aI30
aI734
aI770
aI326
aI787
aI788
aI604
aI789
aI790
aI741
aI302
asS'images'
p26
(lp27
sS'id'
p28
I1187
sS'contents'
p29
(lp30
(dp31
g10
I753
sg14
VEvening Song, Night Dancer
p32
sa(dp33
g10
I744
sg14
VAlien Persuasion
p34
sa(dp35
g10
I744
sg14
VAlien Persuasion [2]
p36
sa(dp37
g10
I742
sg14
VMoonball
p38
sa(dp39
g10
I753
sg14
VA Nice Girl Like Me
p40
sa(dp41
g10
I742
sg14
VForum: Our Many Roads to the Stars
p42
sa(dp43
g10
I763
sg14
VInferno (Part 2 of 3)
p44
sa(dp45
g10
I763
sg14
VInferno (Part 2 of 3) [2]
p46
sa(dp47
g10
I744
sg14
VOverdose
p48
sa(dp49
g10
I742
sg14
VThe Other Half
p50
sa(dp51
g10
I30
sg14
VGalaxy, September 1975
p52
sa(dp53
g10
I734
sg14
VAn Open Letter
p54
sa(dp55
g10
I734
sg14
VThe Big Rain
p56
sa(dp57
g10
I30
sg14
VForum: Our Many Roads to the Stars
p58
sa(dp59
g10
I770
sg14
VBookshelf (Galaxy, September 1975)
p60
sa(dp61
g10
I326
sg14
VDirections (Galaxy, September 1975)
p62
sa(dp63
g10
I787
sg14
VAlien Persuasion
p64
sa(dp65
g10
I788
sg14
VMoonball
p66
sa(dp67
g10
I604
sg14
VInferno (Part 2 of 3)
p68
sa(dp69
g10
I789
sg14
VEvening Song, Night Dancer
p70
sa(dp71
g10
I790
sg14
VA Nice Girl Like Me
p72
sa(dp73
g10
I770
sg14
VOverdose
p74
sa(dp75
g10
I741
sg14
VThe Other Half
p76
sasb.