ccopy_reg
_reconstructor
p0
(cdataset.Book
Book
p1
c__builtin__
object
p2
Ntp3
Rp4
(dp5
S'similar_books'
p6
(lp7
sS'genres'
p8
(lp9
sS'author'
p10
I302
sS'countries'
p11
(lp12
I2
asS'year'
p13
I1954
sS'title'
p14
VGalaxy Magazine December 1954
p15
sS'cover'
p16
Vhttps://ia601303.us.archive.org/BookReader/BookReaderImages.php?zip=/19/items/Galaxy_v09n03_1954-12/Galaxy_v09n03_1954-12_jp2.zip&file=Galaxy_v09n03_1954-12_jp2/Galaxy_v09n03_1954-12_0000.jp2&scale=0&rotate=0
p17
sS'cover_art'
p18
S'http://www.isfdb.org/wiki/images/5/5f/MLO4374.jpg'
p19
sS'author_name'
p20
VGalaxy Magazine
p21
sS'images_urls'
p22
(lp23
sS'authors'
p24
(lp25
I427
aI463
aI436
aI461
aI419
aI363
aI305
aI326
aI339
aI340
aI23
aI400
aI172
aI384
aI464
aI465
aI302
asS'images'
p26
(lp27
sS'id'
p28
I1023
sS'contents'
p29
(lp30
(dp31
g10
I427
sg14
VSkulking Permit
p32
sa(dp33
g10
I427
sg14
VSkulking Permit [2]
p34
sa(dp35
g10
I427
sg14
VSkulking Permit [3]
p36
sa(dp37
g10
I463
sg14
VPlayback
p38
sa(dp39
g10
I436
sg14
VUncle Tom's Planet
p40
sa(dp41
g10
I461
sg14
VAssignment's End
p42
sa(dp43
g10
I461
sg14
VAssignment's End [2]
p44
sa(dp45
g10
I427
sg14
VRough Translation
p46
sa(dp47
g10
I419
sg14
VJoy Ride
p48
sa(dp49
g10
I363
sg14
VCollector's Item
p50
sa(dp51
g10
I363
sg14
VCollector's Item [2]
p52
sa(dp53
g10
I363
sg14
VCollector's Item [3]
p54
sa(dp55
g10
I305
sg14
VAll but the Squeal
p56
sa(dp57
g10
I326
sg14
VForecast (Galaxy, December 1954)
p58
sa(dp59
g10
I339
sg14
VFor Your Information: The Elements of Khujut Rabu'a and Ctesiphon
p60
sa(dp61
g10
I340
sg14
VGalaxy's Five Star Shelf (Galaxy, December 1954)
p62
sa(dp63
g10
I23
sg14
VSkulking Permit
p64
sa(dp65
g10
I400
sg14
VAssignment's End
p66
sa(dp67
g10
I172
sg14
VCollector's Item
p68
sa(dp69
g10
I384
sg14
VPlayback
p70
sa(dp71
g10
I23
sg14
VUncle Tom's Planet
p72
sa(dp73
g10
I464
sg14
VRough Translation
p74
sa(dp75
g10
I465
sg14
VJoy Ride
p76
sasb.