ccopy_reg
_reconstructor
p0
(cdataset.Book
Book
p1
c__builtin__
object
p2
Ntp3
Rp4
(dp5
S'content_name'
p6
V20796.txt.utf-8
p7
sS'isbn'
p8
V0898651913
p9
sS'year'
p10
I1963
sS'author_name'
p11
VMarion Zimmer Bradley
p12
sS'images_urls'
p13
(lp14
sS'language_code'
p15
Veng
p16
sS'id'
p17
I65
sS'category'
p18
VText
p19
sS'genres'
p20
(lp21
sS'copyright'
p22
VPublic domain in the USA.
p23
sS'title'
p24
VThe Colors of Space
p25
sS'wikipedia'
p26
(dp27
S'found'
p28
I00
ssS'average_rating'
p29
F3.65
sS'rating_count'
p30
I670
sS'content_available'
p31
I01
sS'goodreads'
p32
(dp33
S'url'
p34
Vhttps://www.goodreads.com/book/show/472228.The_Colors_of_Space
p35
sS'found'
p36
I01
sS'year'
p37
I1963
ssS'similar_books'
p38
(lp39
VBadge of Infamy
p40
aVThe Defiant Agents (Time Traders/Ross Murdock, #3)
p41
aVInvaders from the Infinite
p42
aVSpacehounds of IPC
p43
aVThe Survivors (Ragnarok, #1)
p44
aVMars Crossing
p45
aVThe Green Odyssey
p46
aVFour Day Planet
p47
aVOperation: Outer Space
p48
aVThe Lotus Caves
p49
aVStarman's Quest
p50
aVAn Alien Light
p51
aVThe Night of the Long Knives
p52
aVDinosaur Planet Survivors (Dinosaur Planet, #2)
p53
asS'description'
p54
V-SUDDEN PANIC-<br />It was a week before the Lhari ship went into warp-drive, and all that time young Bart Steele had stayed in his cabin. He was so bored with his own company that the Mentorian medic was a welcome sight when he came to prepare him for <i>cold-sleep</i>. <br /><br />The Mentorian paused, needle in hand. "Do you wish to be wakened for the time we shall spend in each of the three star systems, sir? You can, of course, be given enough drug to keep you in cold-sleep until we reach your destination." <br /><br />Bart felt tempted -- he wanted very much to see the other star systems. But he couldn't risk meeting other passengers. <br /><br />The needle went into his arm. In sudden panic, he realized he was helpless. The ship would touch down on three worlds, and on any of them the Lhari might have his description, or his alias! He could be taken off, unconscious, and might never wake up! He tried to move, to protest, but he couldn't. There was a freezing moment of intense cold and then nothing. . . .
p55
sS'gutenberg'
p56
(dp57
g34
Vhttp://www.gutenberg.org/ebooks/20796
p58
sS'num'
p59
I20796
ssS'authors'
p60
(lp61
I25
asS'isbn13'
p62
V9780898651911
p63
sS'language'
p64
VEnglish
p65
sS'countries'
p66
(lp67
I2
asS'release_date'
p68
S'2007-03-11T00:00:00'
p69
sS'author'
p70
I25
sS'content_cleaned'
p71
I01
sS'classes'
p72
(lp73
Vto-read
p74
aVscience-fiction
p75
aVsci-fi
p76
aVfiction
p77
aVcurrently-reading
p78
aVebook
p79
aVkindle
p80
aVowned
p81
aVmarion-zimmer-bradley
p82
aVscifi
p83
aVsf
p84
aVscifi-fantasy
p85
aVfantasy
p86
aVaudio
p87
aVadventure
p88
aVyoung-adult
p89
aValiens
p90
aVscience
p91
aVebooks
p92
aVaudiobook
p93
aVaudiobooks
p94
aVe-book
p95
aVdefault
p96
aVspace-opera
p97
aVnot-read
p98
aVfantasy-sci-fi
p99
aVsci-fi-fantasy
p100
aVnovel
p101
aVphy-copy
p102
aVbooks
p103
aVscience-fiction-fantasy
p104
aVread-in-english
p105
aVcalibre
p106
aVclassics
p107
aVaudio-books
p108
aVkindle-books
p109
aVshelfari
p110
aVsf-fantasy
p111
aVhave
p112
aVundecided
p113
aVbedroom
p114
aVaudiobooked
p115
aVteen-fiction
p116
aVgeneral
p117
aVsci-fi-and-fantasy
p118
aVborrowed
p119
aVlibrivox
p120
aVaudio-book
p121
aVepub
p122
aVfavorites
p123
aValdiko
p124
aVjfic
p125
aVon-calibre-to-read
p126
aVscience-fiction-shelf
p127
aVpossibilities
p128
aVshort-novels
p129
aV1960s
p130
aV1-toppicks
p131
aVbookcase-upstairs-1-top
p132
aVshelved-tbr
p133
aVlit-usa
p134
aV20th-century-lit
p135
aVfor-show
p136
aV2017-march-reading-challenges
p137
aVon-project-gutenberg
p138
aVold-stony-way
p139
aVjugendbuch
p140
aVabenteuer
p141
aVreadanybook
p142
aVmodern-scifi
p143
aVsff
p144
aVto-buy
p145
aVnon-serial-novels
p146
aVshelf-b-authors
p147
aVown-kindle
p148
aVi-own
p149
aVgenre-syfi-fan-horr
p150
aVfemale-authors
p151
aVunsorted-read
p152
aVanglofono
p153
aV_ebooks
p154
aVgenre-science-fiction
p155
aVdate-read
p156
aVto-read-would-have-to-buy
p157
aVsci-fi-reading-list
p158
aVfantasy-and-science-fiction
p159
aVstopped-midway
p160
aV4-stars
p161
aVnon-erotica
p162
aV1989
p163
aVread-2016
p164
aV2016-august
p165
aVstopped-reading
p166
aVgeneral-supernatural-fiction
p167
aVfour-star-books
p168
aVbooks-owned
p169
aVowned_analog
p170
aVv_eigene-welt
p171
aVowned-physical
p172
aVthe-official-booklist
p173
asS'loc_class'
p174
VPS: Language and Literatures: American and Canadian literature
p175
sS'n_authors'
p176
I1
sb.