ccopy_reg
_reconstructor
p0
(cdataset.Book
Book
p1
c__builtin__
object
p2
Ntp3
Rp4
(dp5
S'similar_books'
p6
(lp7
sS'genres'
p8
(lp9
sS'author'
p10
I302
sS'countries'
p11
(lp12
I2
asS'year'
p13
I1958
sS'title'
p14
VGalaxy Magazine October 1958
p15
sS'cover'
p16
Vhttps://ia600205.us.archive.org/BookReader/BookReaderImages.php?zip=/14/items/Galaxy_v16n06_1958-10/Galaxy_v16n06_1958-10_jp2.zip&file=Galaxy_v16n06_1958-10_jp2/Galaxy_v16n06_1958-10_0000.jp2&scale=0&rotate=0
p17
sS'cover_art'
p18
S'http://www.isfdb.org/wiki/images/b/b3/GALOCT1958.jpg'
p19
sS'author_name'
p20
VGalaxy Magazine
p21
sS'images_urls'
p22
(lp23
sS'authors'
p24
(lp25
I519
aI523
aI305
aI339
aI326
aI483
aI40
aI98
aI23
aI514
aI45
aI302
asS'images'
p26
(lp27
sS'id'
p28
I1068
sS'contents'
p29
(lp30
(dp31
g10
I519
sg14
VTime Killer (Part 1 of 4)
p32
sa(dp33
g10
I519
sg14
VTime Killer (Part 1 of 4) [2]
p34
sa(dp35
g10
I519
sg14
VTime Killer (Part 1 of 4) [3]
p36
sa(dp37
g10
I523
sg14
VParamount Ulj
p38
sa(dp39
g10
I519
sg14
VThe Wizards of Pung's Corners
p40
sa(dp41
g10
I519
sg14
VThe Wizards of Pung's Corners [2]
p42
sa(dp43
g10
I519
sg14
VThe Wizards of Pung's Corners [3]
p44
sa(dp45
g10
I519
sg14
VLisbon Cubed
p46
sa(dp47
g10
I519
sg14
VLisbon Cubed [2]
p48
sa(dp49
g10
I519
sg14
VLisbon Cubed [3]
p50
sa(dp51
g10
I523
sg14
VBlock That Metaphor
p52
sa(dp53
g10
I305
sg14
VPick One
p54
sa(dp55
g10
I339
sg14
VFor Your Information: X-Rays in Space
p56
sa(dp57
g10
I326
sg14
VForecast (Galaxy, October 1958)
p58
sa(dp59
g10
I483
sg14
VGalaxy's 5 Star Shelf (Galaxy, October 1958)
p60
sa(dp61
g10
I40
sg14
VThe Wizards of Pung's Corners
p62
sa(dp63
g10
I98
sg14
VLisbon Cubed
p64
sa(dp65
g10
I23
sg14
VTime Killer (Part 1 of 4)
p66
sa(dp67
g10
I514
sg14
VParamount Ulj
p68
sa(dp69
g10
I45
sg14
VBlock That Metaphor
p70
sasb.