ccopy_reg
_reconstructor
p0
(cdataset.Book
Book
p1
c__builtin__
object
p2
Ntp3
Rp4
(dp5
S'content_name'
p6
V32696.txt.utf-8
p7
sS'isbn'
p8
NsS'year'
p9
I2010
sS'author_name'
p10
VRobert Moore Williams
p11
sS'images_urls'
p12
(lp13
Vhttp://www.gutenberg.org/files/32696/32696-h/images/cover.jpg
p14
aVhttp://www.gutenberg.org/files/32696/32696-h/images/illus1.jpg
p15
aVhttp://www.gutenberg.org/files/32696/32696-h/images/illus2.jpg
p16
asS'language_code'
p17
Vvie
p18
sS'images'
p19
(lp20
sS'id'
p21
I584
sS'category'
p22
VText
p23
sS'genres'
p24
(lp25
sS'copyright'
p26
VPublic domain in the USA.
p27
sS'title'
p28
VPlanet of the Gods
p29
sS'wikipedia'
p30
(dp31
S'found'
p32
I00
ssS'average_rating'
p33
F3.07
sS'rating_count'
p34
I9
sS'content_available'
p35
I01
sS'cover_art_url'
p36
S'http://www.gutenberg.org/cache/epub/32696/pg32696.cover.medium.jpg'
p37
sS'goodreads'
p38
(dp39
S'url'
p40
Vhttps://www.goodreads.com/book/show/10567723-planet-of-the-gods
p41
sg32
I01
sS'year'
p42
I2010
ssS'similar_books'
p43
(lp44
sS'description'
p45
NsS'format'
p46
NsS'gutenberg'
p47
(dp48
g40
Vhttp://www.gutenberg.org/ebooks/32696
p49
sS'num'
p50
I32696
ssS'authors'
p51
(lp52
I135
asS'isbn13'
p53
NsS'language'
p54
VEnglish
p55
sS'country'
p56
I2
sS'release_date'
p57
S'2010-06-05T00:00:00'
p58
sS'author'
p59
I135
sS'content_cleaned'
p60
I01
sS'classes'
p61
(lp62
Vto-read
p63
aVscience-fiction
p64
aVpulp
p65
aVaudiobooks-to-read
p66
aVhave-but-not-read
p67
aV21st-century-lit
p68
aVcurrently-reading
p69
aVaudiobooks
p70
aVfeedbooks-com
p71
aV3-ebooks
p72
aVsci-fi
p73
aVclassic-sci-fi
p74
aV3a-ebooks
p75
asS'loc_class'
p76
VPS: Language and Literatures: American and Canadian literature
p77
sS'n_authors'
p78
I1
sb.