ccopy_reg
_reconstructor
p0
(cdataset.Book
Book
p1
c__builtin__
object
p2
Ntp3
Rp4
(dp5
S'content_name'
p6
V50848.txt.utf-8
p7
sS'isbn'
p8
V0671833421
p9
sS'cover'
p10
Vhttps://images.gr-assets.com/books/1255605245l/160763.jpg
p11
sS'year'
p12
I1953
sS'author_name'
p13
VMichael Shaara
p14
sS'images_urls'
p15
(lp16
Vhttp://www.gutenberg.org/files/50848/50848-h/images/cover.jpg
p17
aVhttp://www.gutenberg.org/files/50848/50848-h/images/illus1.jpg
p18
aVhttp://www.gutenberg.org/files/50848/50848-h/images/illus2.jpg
p19
aVhttp://www.gutenberg.org/files/50848/50848-h/images/illus3.jpg
p20
aVhttp://www.gutenberg.org/files/50848/50848-h/images/illus4.jpg
p21
asS'language_code'
p22
NsS'images'
p23
(lp24
Vhttps://upload.wikimedia.org/wikipedia/en/8/86/Soldier_Boy_%28Michael_Shaara_collection_-_front_cover%29.jpg
p25
asS'id'
p26
I849
sS'category'
p27
VText
p28
sS'plot'
p29
NsS'genres'
p30
(lp31
sS'copyright'
p32
VPublic domain in the USA.
p33
sS'title'
p34
VSoldier Boy
p35
sS'wikipedia'
p36
(dp37
S'url'
p38
S'https://en.wikipedia.org/wiki/Soldier_Boy_(short_story)'
p39
sS'found'
p40
I01
sS'year'
p41
I-1
ssS'published_in'
p42
NsS'average_rating'
p43
F4.59
sS'rating_count'
p44
I22
sS'publisher_in'
p45
NsS'content_available'
p46
I01
sS'cover_art_url'
p47
S'http://www.gutenberg.org/cache/epub/50848/pg50848.cover.medium.jpg'
p48
sS'goodreads'
p49
(dp50
S'url'
p51
S'https://www.goodreads.com/book/show/160763.Soldier_Boy'
p52
sS'found'
p53
I01
ssS'similar_books'
p54
(lp55
sS'description'
p56
NsS'gutenberg'
p57
(dp58
g38
Vhttp://www.gutenberg.org/ebooks/50848
p59
sS'num'
p60
I50848
ssS'authors'
p61
(lp62
I243
asS'pages'
p63
I255
sS'publisher'
p64
NsS'isbn13'
p65
V9780671833428
p66
sS'language'
p67
VEnglish
p68
sS'countries'
p69
(lp70
I2
asS'release_date'
p71
S'2016-01-05T00:00:00'
p72
sS'author'
p73
I243
sS'original_title'
p74
VSoldier Boy (short story)
p75
sS'summary'
p76
V"Soldier Boy" (also known as "X Minus One #71: 56-10-17 Soldier Boy") is a 1953 science fiction short story by American author Michael Shaara, about a soldier who, when sent on a routine patrol to a colonized world, saves the planet from an alien and its robot attack devices. Despite an ingrained contempt for the military that arose as part of conditioning to avoid war, the human colonists gradually assist the soldier when strange occurrences suggest they are not alone on the planet and may be, like several other colony planets, under threat of extermination by outside forces. It was originally published in the July 1953 issue of Galaxy Science Fiction. It is also the title of a 1982 collection of Shaara's short stories
p77
sS'content_cleaned'
p78
I01
sS'classes'
p79
(lp80
Vto-read
p81
aVscience-fiction
p82
aVshort-stories
p83
aVfiction
p84
aVcurrently-reading
p85
aVnot-read
p86
aVcollection
p87
aVsf
p88
aVbooks-to-find
p89
aVscience-fiction-i-want-to-read
p90
aVbookcase
p91
aV20th-century-lit
p92
aVurania-s
p93
aVnew
p94
aVinfluences
p95
aVcivil-war-fiction
p96
aVpaper
p97
aVdefault
p98
aVpaperback
p99
aVanthologies
p100
aVillustrated
p101
aVscifi
p102
aV0250
p103
aVa-ya-class-choice
p104
aV_ita
p105
aVfantascienza
p106
aVall
p107
aVurania
p108
aVbooks-i-have-read
p109
aVtub19
p110
aVscanning
p111
aVpaperback-box-3
p112
aVowned
p113
aVevaluated-no
p114
aV100
p115
asS'loc_class'
p116
S''
p117
sS'cover_artist'
p118
NsS'n_authors'
p119
I1
sb.