ccopy_reg
_reconstructor
p0
(cdataset.Book
Book
p1
c__builtin__
object
p2
Ntp3
Rp4
(dp5
S'content_name'
p6
V50928.txt.utf-8
p7
sS'isbn'
p8
NsS'year'
p9
I1963
sS'author_name'
p10
VHal Clement
p11
sS'images_urls'
p12
(lp13
Vhttp://www.gutenberg.org/files/50928/50928-h/images/cover.jpg
p14
aVhttp://www.gutenberg.org/files/50928/50928-h/images/illus1.jpg
p15
aVhttp://www.gutenberg.org/files/50928/50928-h/images/illus2.jpg
p16
aVhttp://www.gutenberg.org/files/50928/50928-h/images/illus3.jpg
p17
aVhttp://www.gutenberg.org/files/50928/50928-h/images/illus4.jpg
p18
asS'language_code'
p19
NsS'id'
p20
I220
sS'category'
p21
VText
p22
sS'genres'
p23
(lp24
sS'copyright'
p25
VPublic domain in the USA.
p26
sS'title'
p27
VHot Planet
p28
sS'wikipedia'
p29
(dp30
S'found'
p31
I00
ssS'average_rating'
p32
F3.67
sS'rating_count'
p33
I11
sS'content_available'
p34
I01
sS'cover_art_url'
p35
S'http://www.gutenberg.org/cache/epub/50928/pg50928.cover.medium.jpg'
p36
sS'goodreads'
p37
(dp38
S'url'
p39
S'https://www.goodreads.com/book/show/8807425-hot-planet'
p40
sS'found'
p41
I01
ssS'similar_books'
p42
(lp43
sS'description'
p44
NsS'gutenberg'
p45
(dp46
S'url'
p47
Vhttp://www.gutenberg.org/ebooks/50928
p48
sS'num'
p49
I50928
ssS'authors'
p50
(lp51
I70
asS'isbn13'
p52
NsS'language'
p53
VEnglish
p54
sS'countries'
p55
(lp56
I2
asS'release_date'
p57
S'2016-01-14T00:00:00'
p58
sS'author'
p59
I70
sS'content_cleaned'
p60
I01
sS'classes'
p61
(lp62
Vto-read
p63
aVscience-fiction
p64
aV20th-century-lit
p65
aVowned
p66
aVsf
p67
aVscifi-fanatasy-2013-challenge
p68
asS'loc_class'
p69
S''
p70
sS'n_authors'
p71
I1
sb.