ccopy_reg
_reconstructor
p0
(cdataset.Book
Book
p1
c__builtin__
object
p2
Ntp3
Rp4
(dp5
S'content_name'
p6
V28645.txt.utf-8
p7
sS'isbn'
p8
NsS'year'
p9
I1954
sS'author_name'
p10
VJohn Victor Peterson
p11
sS'images_urls'
p12
(lp13
Vhttp://www.gutenberg.org/files/28645/28645-h/images/001-1.jpg
p14
aVhttp://www.gutenberg.org/files/28645/28645-h/images/001-2.jpg
p15
asS'language_code'
p16
Veng
p17
sS'id'
p18
I901
sS'category'
p19
VText
p20
sS'genres'
p21
(lp22
sS'copyright'
p23
VPublic domain in the USA.
p24
sS'title'
p25
VLost in the Future
p26
sS'wikipedia'
p27
(dp28
S'found'
p29
I00
ssS'average_rating'
p30
F2.57
sS'rating_count'
p31
I9
sS'content_available'
p32
I01
sS'goodreads'
p33
(dp34
S'url'
p35
Vhttps://www.goodreads.com/book/show/6552387-lost-in-the-future
p36
sS'found'
p37
I01
sS'year'
p38
I2009
ssS'similar_books'
p39
(lp40
sS'description'
p41
VDid you ever wonder what might happen if mankind ever exceeded the speed of light? Here is a profound story based on that thought--a story which may well forecast one of the problems to be encountered in space travel.
p42
sS'gutenberg'
p43
(dp44
g35
Vhttp://www.gutenberg.org/ebooks/28645
p45
sS'num'
p46
I28645
ssS'authors'
p47
(lp48
I274
asS'pages'
p49
I27
sS'isbn13'
p50
NsS'language'
p51
VEnglish
p52
sS'countries'
p53
(lp54
I3
asS'release_date'
p55
S'2009-04-30T00:00:00'
p56
sS'author'
p57
I274
sS'cover'
p58
Vhttps://s.gr-assets.com/assets/nophoto/book/111x148-bcc042a9c91a29c1d680899eff700a03.png
p59
sS'content_cleaned'
p60
I01
sS'classes'
p61
(lp62
Vshort-story
p63
aVcollection
p64
aVtime-travel
p65
aVlibrivox-short-story-collection-046
p66
aVaudiobooks
p67
aVscifi
p68
aVscience-fiction
p69
aVto-read
p70
aVtime-traveling
p71
aVsci-fi
p72
aVtype-short-story
p73
asS'loc_class'
p74
VPS: Language and Literatures: American and Canadian literature
p75
sS'n_authors'
p76
I1
sb.