ccopy_reg
_reconstructor
p0
(cdataset.Book
Book
p1
c__builtin__
object
p2
Ntp3
Rp4
(dp5
S'content_name'
p6
V29401.txt.utf-8
p7
sS'isbn'
p8
NsS'year'
p9
I1931
sS'author_name'
p10
VS. P. Meek
p11
sS'images_urls'
p12
(lp13
Vhttp://www.gutenberg.org/files/29401/29401-h/images/illus.jpg
p14
asS'language_code'
p15
Veng
p16
sS'id'
p17
I641
sS'category'
p18
VText
p19
sS'genres'
p20
(lp21
sS'copyright'
p22
VPublic domain in the USA.
p23
sS'title'
p24
VThe Solar Magnet
p25
sS'wikipedia'
p26
(dp27
S'found'
p28
I00
ssS'average_rating'
p29
F5.0
sS'rating_count'
p30
I0
sS'content_available'
p31
I01
sS'goodreads'
p32
(dp33
S'url'
p34
Vhttps://www.goodreads.com/book/show/12267946-the-solar-magnet
p35
sS'found'
p36
I01
sS'year'
p37
I1931
ssS'similar_books'
p38
(lp39
sS'description'
p40
V\u201cThe Solar Magnet\u201d is a short science fiction novel written in 1931 for Astounding Stories magazine. This is another episode in Dr. Bird's long scientific duel with his country's arch-enemy, Saranoff. It is a pleasure to publish this new, high quality, and affordable edition of this timeless story.
p41
sS'format'
p42
NsS'gutenberg'
p43
(dp44
g34
Vhttp://www.gutenberg.org/ebooks/29401
p45
sS'num'
p46
I29401
ssS'authors'
p47
(lp48
I139
asS'isbn13'
p49
NsS'language'
p50
VEnglish
p51
sS'countries'
p52
(lp53
I2
asS'release_date'
p54
S'2009-07-13T00:00:00'
p55
sS'author'
p56
I139
sS'content_cleaned'
p57
I01
sS'classes'
p58
(lp59
Vto-read
p60
aVcurrently-reading
p61
asS'loc_class'
p62
VPS: Language and Literatures: American and Canadian literature
p63
sS'n_authors'
p64
I1
sb.