ccopy_reg
_reconstructor
p0
(cdataset.Book
Book
p1
c__builtin__
object
p2
Ntp3
Rp4
(dp5
S'content_name'
p6
V23767.txt.utf-8
p7
sS'isbn'
p8
V160664517X
p9
sS'year'
p10
I1962
sS'author_name'
p11
VH. B. Fyfe
p12
sS'images_urls'
p13
(lp14
Vhttp://www.gutenberg.org/files/23767/23767-page-images/p048.png
p15
aVhttp://www.gutenberg.org/files/23767/23767-page-images/p049a.png
p16
aVhttp://www.gutenberg.org/files/23767/23767-page-images/p049b.png
p17
aVhttp://www.gutenberg.org/files/23767/23767-page-images/p050a.png
p18
aVhttp://www.gutenberg.org/files/23767/23767-page-images/p050b.png
p19
aVhttp://www.gutenberg.org/files/23767/23767-page-images/p051a.png
p20
aVhttp://www.gutenberg.org/files/23767/23767-page-images/p051b.png
p21
aVhttp://www.gutenberg.org/files/23767/23767-page-images/p052a.png
p22
aVhttp://www.gutenberg.org/files/23767/23767-page-images/p052b.png
p23
aVhttp://www.gutenberg.org/files/23767/23767-page-images/p053a.png
p24
aVhttp://www.gutenberg.org/files/23767/23767-page-images/p053b.png
p25
aVhttp://www.gutenberg.org/files/23767/23767-page-images/p054a.png
p26
aVhttp://www.gutenberg.org/files/23767/23767-page-images/p054b.png
p27
aVhttp://www.gutenberg.org/files/23767/23767-page-images/p055a.png
p28
aVhttp://www.gutenberg.org/files/23767/23767-page-images/p055b.png
p29
asS'language_code'
p30
NsS'images'
p31
(lp32
sS'id'
p33
I897
sS'category'
p34
VText
p35
sS'genres'
p36
(lp37
sS'copyright'
p38
VPublic domain in the USA.
p39
sS'title'
p40
VThe Talkative Tree
p41
sS'wikipedia'
p42
(dp43
S'found'
p44
I00
ssS'average_rating'
p45
F3.1
sS'rating_count'
p46
I7
sS'content_available'
p47
I01
sS'goodreads'
p48
(dp49
S'url'
p50
Vhttps://www.goodreads.com/book/show/14465413-the-talkative-tree
p51
sg44
I01
sS'year'
p52
I2011
ssS'similar_books'
p53
(lp54
sS'description'
p55
V"Dang vines! Beats all how some plants have no manners -- but what do you expect, when they used to be men!"<br /><br />Steward Peter Kolin made himself inconspicuous.<br /><br />All things considered -- the obscure star system they were stranded in, the undetermined damage to the stellar drive, and the way the small planet's murky atmosphere defied precision scanners -- the pilot made a reasonably good landing. Despite sour feelings for the space service of Haurtoz, Kolin had to admit that things might have been far worse.<br /><br />They were going to get worse. Much, "much" worse . . .
p56
sS'format'
p57
VPaperback
p58
sS'gutenberg'
p59
(dp60
g50
Vhttp://www.gutenberg.org/ebooks/23767
p61
sS'num'
p62
I23767
ssS'authors'
p63
(lp64
I94
asS'pages'
p65
I20
sS'isbn13'
p66
V9781606645178
p67
sS'language'
p68
VEnglish
p69
sS'countries'
p70
(lp71
I2
asS'release_date'
p72
S'2007-12-08T00:00:00'
p73
sS'author'
p74
I94
sS'content_cleaned'
p75
I01
sS'classes'
p76
(lp77
Vto-read
p78
aVshort-story
p79
aVfree-from-amazon
p80
aVclassic
p81
aVscience-fiction
p82
aVlibrivox-short-scifi
p83
aVsci-fi
p84
aVfiction
p85
aVsci-fi-fantasy
p86
asS'loc_class'
p87
VPS: Language and Literatures: American and Canadian literature
p88
sS'n_authors'
p89
I1
sb.