ccopy_reg
_reconstructor
p0
(cdataset.Book
Book
p1
c__builtin__
object
p2
Ntp3
Rp4
(dp5
S'content_name'
p6
V19111.txt.utf-8
p7
sS'isbn'
p8
V0809501449
p9
sS'year'
p10
I1967
sS'author_name'
p11
VRick Raphael
p12
sS'images_urls'
p13
(lp14
Vhttp://www.gutenberg.org/files/19111/19111-h/images/image_01.jpg
p15
aVhttp://www.gutenberg.org/files/19111/19111-h/images/image_02.jpg
p16
aVhttp://www.gutenberg.org/files/19111/19111-h/images/image_03.jpg
p17
aVhttp://www.gutenberg.org/files/19111/19111-h/images/image_04.jpg
p18
aVhttp://www.gutenberg.org/files/19111/19111-h/images/image_12.jpg
p19
aVhttp://www.gutenberg.org/files/19111/19111-h/images/image_22.jpg
p20
aVhttp://www.gutenberg.org/files/19111/19111-h/images/image_23.jpg
p21
aVhttp://www.gutenberg.org/files/19111/19111-h/images/image_32.jpg
p22
aVhttp://www.gutenberg.org/files/19111/19111-h/images/image_33.jpg
p23
aVhttp://www.gutenberg.org/files/19111/19111-h/images/image_42.jpg
p24
aVhttp://www.gutenberg.org/files/19111/19111-h/images/image_51.jpg
p25
asS'language_code'
p26
NsS'images'
p27
(lp28
sS'id'
p29
I456
sS'category'
p30
VText
p31
sS'genres'
p32
(lp33
sS'copyright'
p34
VPublic domain in the USA.
p35
sS'title'
p36
VCode Three
p37
sS'wikipedia'
p38
(dp39
S'found'
p40
I00
ssS'average_rating'
p41
F4.26
sS'rating_count'
p42
I32
sS'content_available'
p43
I01
sS'goodreads'
p44
(dp45
S'url'
p46
S'https://www.goodreads.com/book/show/332031.Code_Three'
p47
sS'found'
p48
I01
ssS'similar_books'
p49
(lp50
sS'description'
p51
VThe cars on high-speed highways must follow each other like sheep. And they need shepherds. The highway police cruiser of tomorrow however must be massively different-as different as the highways themselves!
p52
sS'gutenberg'
p53
(dp54
S'url'
p55
Vhttp://www.gutenberg.org/ebooks/19111
p56
sS'num'
p57
I19111
ssS'authors'
p58
(lp59
I156
asS'pages'
p60
I92
sS'isbn13'
p61
V9780809501441
p62
sS'language'
p63
VEnglish
p64
sS'countries'
p65
(lp66
I2
asS'release_date'
p67
S'2006-08-24T00:00:00'
p68
sS'author'
p69
I156
sS'cover'
p70
Vhttps://s.gr-assets.com/assets/nophoto/book/111x148-bcc042a9c91a29c1d680899eff700a03.png
p71
sS'content_cleaned'
p72
I01
sS'classes'
p73
(lp74
Vto-read
p75
aVcurrently-reading
p76
aVscience-fiction
p77
aVsci-fi
p78
aVfiction
p79
aVdefault
p80
aVowned
p81
aVebooks
p82
aVgeneral
p83
aVadventure
p84
aVkindle
p85
aV20th-century-lit
p86
aVsf-f
p87
aVlibrary
p88
aVdifferent-cover
p89
aVscifi-new-wave-1960-1979
p90
aVscifi
p91
aVold-skool
p92
aVshort-story-or-collection
p93
aVeast-coast
p94
aVto-read-kindle-7
p95
aVpg
p96
aVspec-fic-sci-fi-near
p97
aVspec-fic-sci-fi
p98
aVspec-fic-awd-hugo-nom
p99
aVspec-fic
p100
aVshort-stories
p101
aVread-this-year
p102
aVgood-fiction
p103
aVfun-reads
p104
aVto-read-do-not-have
p105
aVsci-fi-or-speculative
p106
aVthriller
p107
aVcomedy
p108
aVdrama
p109
aVclassics
p110
aVtaggare
p111
aVei-suom
p112
aVhugo-novella
p113
aVto-read-2e-sf-d
p114
aVto-read-2-en-sf
p115
aVc2-f-en
p116
aVh-sf
p117
aVy-long-ago
p118
aVmy-favorites
p119
aVstories
p120
aVshort
p121
aVscience
p122
aVmagic
p123
aVjuvenile
p124
aVfantasy
p125
aVaction
p126
aVto-read-own
p127
aVraphael-rick
p128
aVurania-201-400
p129
aVfantascienza
p130
aV\u58f0
p131
aVbookshelf
p132
aVe-books
p133
aVunfiltered
p134
aVenglish
p135
aVhugo-short-fiction
p136
aVto-read-2e-sf
p137
aVto-read-2-en
p138
aVhardbound
p139
asS'loc_class'
p140
VPS: Language and Literatures: American and Canadian literature
p141
sS'n_authors'
p142
I1
sb.