ccopy_reg
_reconstructor
p0
(cdataset.Book
Book
p1
c__builtin__
object
p2
Ntp3
Rp4
(dp5
S'content_name'
p6
V51435.txt.utf-8
p7
sS'isbn'
p8
V0753539799
p9
sS'year'
p10
I1960
sS'author_name'
p11
VJack Sharkey
p12
sS'images_urls'
p13
(lp14
Vhttp://www.gutenberg.org/files/51435/51435-h/images/cover.jpg
p15
aVhttp://www.gutenberg.org/files/51435/51435-h/images/illus1.jpg
p16
aVhttp://www.gutenberg.org/files/51435/51435-h/images/illus2.jpg
p17
asS'language_code'
p18
NsS'images'
p19
(lp20
sS'id'
p21
I827
sS'category'
p22
VText
p23
sS'genres'
p24
(lp25
sS'copyright'
p26
VPublic domain in the USA.
p27
sS'title'
p28
VThe Business, As Usual
p29
sS'wikipedia'
p30
(dp31
S'found'
p32
I00
ssS'average_rating'
p33
F3.65
sS'rating_count'
p34
I842
sS'content_available'
p35
I01
sS'cover_art_url'
p36
S'http://www.gutenberg.org/cache/epub/51435/pg51435.cover.medium.jpg'
p37
sS'goodreads'
p38
(dp39
S'url'
p40
Vhttps://www.goodreads.com/book/show/12357518-screw-business-as-usual
p41
sg32
I01
sS'year'
p42
I2011
ssS'similar_books'
p43
(lp44
VLikeable Business: Why Today's Consumers Demand More and How Leaders Can Deliver
p45
aVCan't Buy Me Like
p46
aVExtreme Trust: Honesty as a Competitive Advantage
p47
aVThe Synergist: How to Lead Your Team to Predictable Success
p48
aVGenerations at Work: Managing the Clash of Veterans, Boomers, Xers, and Nexters in Your Workplace
p49
aVLeft Brain, Right Stuff: How Leaders Make Winning Decisions
p50
aVGame-Changer: Game Theory and the Art of Transforming Strategic Situations
p51
aVHow to Change Minds: The Art of Influence without Manipulation
p52
aVConfidence: How Winning Streaks and Losing Streaks Begin and End
p53
aVThe Business of Belief: How the World's Best Marketers, Designers, Salespeople, Coaches, Fundraisers, Educators, Entrepreneurs and Other Leaders Get Us to Believe
p54
aVLeaders Open Doors: A Radically Simple Leadership Approach to Lift People, Profits, and Performance
p55
aVIt's Not What You Sell, It's What You Stand For: Why Every Extraordinary Business is Driven by Purpose
p56
aVGreat Work: How to Make a Difference People Love
p57
aVOvercoming Fake Talk: How to Hold Real Conversations That Create Respect, Build Relationships, and Get Results
p58
aVCollaborate or Perish!: Reaching Across Boundaries in a Networked World
p59
aVLeading the Starbucks Way: 5 Principles for Connecting with Your Customers, Your Products and Your People
p60
aVThe Spirit of Kaizen: Creating Lasting Excellence One Small Step at a Time
p61
aVLeadership and the Art of Struggle: How Great Leaders Grow Through Challenge and Adversity
p62
asS'description'
p63
VCan we bring more meaning to our lives and help change the world at the same time? Richard Branson, at his brilliant and motivating best, reveals how with his exciting new vision for the future. It is time to turn capitalism upside down \u2013 to shift our values, to switch from a profit focus to caring for people, communities and the planet.<br /><br />With inspiration for everyone, <i>Screw Business As Usual</i> shows how easy it is for both businesses and individuals to embark on a whole new way of doing things, solving major problems and turning our work into something we both love and are proud of.
p64
sS'format'
p65
VPaperback
p66
sS'gutenberg'
p67
(dp68
g40
Vhttp://www.gutenberg.org/ebooks/51435
p69
sS'num'
p70
I51435
ssS'authors'
p71
(lp72
I205
asS'pages'
p73
I357
sS'isbn13'
p74
V9780753539798
p75
sS'language'
p76
VEnglish
p77
sS'countries'
p78
(lp79
I2
asS'release_date'
p80
S'2016-03-13T00:00:00'
p81
sS'author'
p82
I205
sS'content_cleaned'
p83
I01
sS'classes'
p84
(lp85
Vto-read
p86
aVcurrently-reading
p87
aVbusiness
p88
aVnon-fiction
p89
aVentrepreneurship
p90
aVbusiness-books
p91
aVnonfiction
p92
aVbiography
p93
aVmanagement
p94
aVbiographies
p95
aVdefault
p96
aVfavorites
p97
aVebooks
p98
aVkindle
p99
aVlibrary
p100
aVto-buy
p101
aVsociety
p102
aVeconomics
p103
aVrecommended
p104
aVleadership
p105
aVself-improvement
p106
aVto-read-business
p107
aVbooks-i-own
p108
aVsocial
p109
aVbookshelf
p110
aVsocial-entrepreneurship
p111
aVowned
p112
aVbusiness-development
p113
aVhome-library
p114
aVbusiness-finance
p115
aVmemoir
p116
aVmarketing
p117
aVinspiration
p118
aVrichard-branson
p119
aVmanagement-leadership
p120
aVmy-books
p121
aVbook-club
p122
aVsocial-enterprise
p123
aVgirlboss
p124
aVtop-books
p125
aVp-trp
p126
aVautobiography-to-be-read
p127
aVi-own-you-i-ll-get-to-you
p128
aVpersonal-library
p129
aVnon-ficiton
p130
aVvolunteer-pics
p131
aVmarieforleo
p132
aVwant-to-read-not-bought-yet
p133
aVtemporarily-on-hold
p134
aVrecommended-by
p135
aVto-read-owned
p136
aVeducation
p137
aVin-the-shelf
p138
aVnon-fiction-inspirational-books
p139
aVmarketing-business
p140
aVphysical-copies
p141
aVbusiness-and-management
p142
aVprofessional-development
p143
aVmust-read-in-2017
p144
aVread-in-2017
p145
aVmy-library
p146
aVmanagement-business
p147
aVlibrary-no-copy
p148
aVreference-books
p149
aVto-read-in-2017
p150
aVaudio
p151
aVhome
p152
aVbusiness-marketing
p153
aVcurrently-on-the-shelf
p154
aVnot-as-interested
p155
aVon-my-shelf
p156
aVread-and-own
p157
aVmy-shelf
p158
aVaudiobooks
p159
aVdon-t-own
p160
aVmotivational
p161
aVbusiness-professional
p162
aVwaiting-to-be-read
p163
aVwill-read-soon
p164
aVlounge
p165
aVbiblioteca
p166
aVmba
p167
aV1-cloud
p168
aVbusiness-self-improvement
p169
aVread-2015
p170
aVautumn-2016
p171
aVstrb
p172
aVhistory-story
p173
aVprofessional
p174
aVoneclick
p175
aVourlibrary
p176
aVbusiness-related
p177
aVme-time
p178
aVmjl-library
p179
aVleadership-and-mgmt
p180
aVbusiness-finance-and-economics
p181
aVmarie-forleo
p182
aVknowledge
p183
aVbusiness-design-support-creating
p184
aVentrepreneurial
p185
asS'loc_class'
p186
S''
p187
sS'n_authors'
p188
I1
sb.