ccopy_reg
_reconstructor
p0
(cdataset.Book
Book
p1
c__builtin__
object
p2
Ntp3
Rp4
(dp5
S'content_name'
p6
V30124.txt.utf-8
p7
sS'isbn'
p8
NsS'year'
p9
I1931
sS'author_name'
p10
VVarious
p11
sS'images_urls'
p12
(lp13
Vhttp://www.gutenberg.org/files/30124/30124-h/images/cover.jpg
p14
aVhttp://www.gutenberg.org/files/30124/30124-h/images/image_001.jpg
p15
aVhttp://www.gutenberg.org/files/30124/30124-h/images/image_002.jpg
p16
aVhttp://www.gutenberg.org/files/30124/30124-h/images/image_003.jpg
p17
aVhttp://www.gutenberg.org/files/30124/30124-h/images/image_004.jpg
p18
aVhttp://www.gutenberg.org/files/30124/30124-h/images/image_005.jpg
p19
aVhttp://www.gutenberg.org/files/30124/30124-h/images/image_006.jpg
p20
aVhttp://www.gutenberg.org/files/30124/30124-h/images/image_007.jpg
p21
aVhttp://www.gutenberg.org/files/30124/30124-h/images/image_008.jpg
p22
aVhttp://www.gutenberg.org/files/30124/30124-h/images/image_009.jpg
p23
aVhttp://www.gutenberg.org/files/30124/30124-h/images/image_010.jpg
p24
aVhttp://www.gutenberg.org/files/30124/30124-h/images/image_011.jpg
p25
aVhttp://www.gutenberg.org/files/30124/30124-h/images/image_012.jpg
p26
aVhttp://www.gutenberg.org/files/30124/30124-h/images/image_a.jpg
p27
aVhttp://www.gutenberg.org/files/30124/30124-h/images/image_a1.jpg
p28
aVhttp://www.gutenberg.org/files/30124/30124-h/images/image_b.jpg
p29
aVhttp://www.gutenberg.org/files/30124/30124-h/images/image_c.jpg
p30
aVhttp://www.gutenberg.org/files/30124/30124-h/images/image_d.jpg
p31
aVhttp://www.gutenberg.org/files/30124/30124-h/images/image_e.jpg
p32
aVhttp://www.gutenberg.org/files/30124/30124-h/images/image_f.jpg
p33
aVhttp://www.gutenberg.org/files/30124/30124-h/images/image_f1.jpg
p34
aVhttp://www.gutenberg.org/files/30124/30124-h/images/image_g1.jpg
p35
aVhttp://www.gutenberg.org/files/30124/30124-h/images/image_h.jpg
p36
aVhttp://www.gutenberg.org/files/30124/30124-h/images/image_i.jpg
p37
aVhttp://www.gutenberg.org/files/30124/30124-h/images/image_i1.jpg
p38
aVhttp://www.gutenberg.org/files/30124/30124-h/images/image_k.jpg
p39
aVhttp://www.gutenberg.org/files/30124/30124-h/images/image_l.jpg
p40
aVhttp://www.gutenberg.org/files/30124/30124-h/images/image_m.jpg
p41
aVhttp://www.gutenberg.org/files/30124/30124-h/images/image_n.jpg
p42
aVhttp://www.gutenberg.org/files/30124/30124-h/images/image_o.jpg
p43
aVhttp://www.gutenberg.org/files/30124/30124-h/images/image_o1.jpg
p44
aVhttp://www.gutenberg.org/files/30124/30124-h/images/image_p.jpg
p45
aVhttp://www.gutenberg.org/files/30124/30124-h/images/image_r.jpg
p46
aVhttp://www.gutenberg.org/files/30124/30124-h/images/image_s.jpg
p47
aVhttp://www.gutenberg.org/files/30124/30124-h/images/image_t.jpg
p48
aVhttp://www.gutenberg.org/files/30124/30124-h/images/image_t1.jpg
p49
aVhttp://www.gutenberg.org/files/30124/30124-h/images/image_u.jpg
p50
aVhttp://www.gutenberg.org/files/30124/30124-h/images/image_v.jpg
p51
aVhttp://www.gutenberg.org/files/30124/30124-h/images/image_w.jpg
p52
aVhttp://www.gutenberg.org/files/30124/30124-h/images/image_w1.jpg
p53
aVhttp://www.gutenberg.org/files/30124/30124-h/images/image_y1.jpg
p54
asS'language_code'
p55
Veng
p56
sS'images'
p57
NsS'id'
p58
I163
sS'category'
p59
VText
p60
sS'plot'
p61
NsS'genres'
p62
(lp63
sS'copyright'
p64
VPublic domain in the USA.
p65
sS'title'
p66
VAstounding Stories, February, 1931
p67
sS'wikipedia'
p68
(dp69
S'url'
p70
S'https://en.wikipedia.org/wiki/Analog_Science_Fiction_and_Fact'
p71
sS'found'
p72
I01
ssS'average_rating'
p73
F3.62
sS'rating_count'
p74
I5
sS'publisher_in'
p75
NsS'content_available'
p76
I01
sS'cover_art_url'
p77
S'http://www.gutenberg.org/cache/epub/30124/pg30124.cover.medium.jpg'
p78
sS'goodreads'
p79
(dp80
S'url'
p81
Vhttps://www.goodreads.com/book/show/18755997-astounding-stories-february-1931
p82
sg72
I01
sS'year'
p83
I2009
ssS'similar_books'
p84
(lp85
sS'description'
p86
NsS'gutenberg'
p87
(dp88
g81
Vhttp://www.gutenberg.org/ebooks/30124
p89
sS'num'
p90
I30124
ssS'authors'
p91
(lp92
I17
asS'publisher'
p93
NsS'isbn13'
p94
NsS'language'
p95
VEnglish
p96
sS'countries'
p97
(lp98
I3
asS'release_date'
p99
S'2009-09-28T00:00:00'
p100
sS'author'
p101
I17
sS'original_title'
p102
NsS'summary'
p103
NsS'content_cleaned'
p104
I01
sS'classes'
p105
(lp106
Vto-read
p107
aVproject-gutenberg
p108
aVebook
p109
aVgraphic-novel
p110
aVfiction
p111
aVart
p112
aVshort-stories
p113
aVpg
p114
aVshort-stories-essays
p115
asS'loc_class'
p116
VPN: Language and Literatures: Literature: General, Criticism, Collections
p117
sS'cover_artist'
p118
NsS'n_authors'
p119
I1
sb.