ccopy_reg
_reconstructor
p0
(cdataset.Book
Book
p1
c__builtin__
object
p2
Ntp3
Rp4
(dp5
S'similar_books'
p6
(lp7
sS'genres'
p8
(lp9
sS'author'
p10
I302
sS'countries'
p11
(lp12
I2
asS'year'
p13
I1978
sS'title'
p14
VGalaxy Magazine February 1978
p15
sS'cover'
p16
Vhttps://ia600202.us.archive.org/BookReader/BookReaderImages.php?zip=/1/items/Galaxy_v39n02_1978-02/Galaxy_v39n02_1978-02_jp2.zip&file=Galaxy_v39n02_1978-02_jp2/Galaxy_v39n02_1978-02_0000.jp2&scale=0&rotate=0
p17
sS'cover_art'
p18
S'http://www.isfdb.org/wiki/images/b/b8/GALFEB78.jpg'
p19
sS'author_name'
p20
VGalaxy Magazine
p21
sS'images_urls'
p22
(lp23
sS'authors'
p24
(lp25
I842
aI849
aI855
aI844
aI734
aI843
aI856
aI857
aI591
aI858
aI859
aI302
asS'images'
p26
(lp27
sS'id'
p28
I1208
sS'contents'
p29
(lp30
(dp31
S'title'
p32
VThe Faded Sun: Kesrith (Part 1 of 4)
p33
sS'author'
p34
I842
sa(dp35
g32
VThe Faded Sun: Kesrith (Part 1 of 4) [2]
p36
sg34
I842
sa(dp37
g32
VThe Faded Sun: Kesrith (Part 1 of 4) [3]
p38
sg34
I842
sa(dp39
g32
VThe Faded Sun: Kesrith (Part 1 of 4) [4]
p40
sg34
I842
sa(dp41
g32
VThe Faded Sun: Kesrith (Part 1 of 4) [5]
p42
sg34
I842
sa(dp43
g32
VThe Faded Sun: Kesrith (Part 1 of 4) [6]
p44
sg34
I842
sa(dp45
g32
VThe Nothing Spot
p46
sg34
I849
sa(dp47
g32
VWriter's Block
p48
sg34
I849
sa(dp49
g32
VWriter's Block [2]
p50
sg34
I849
sa(dp51
g32
VThe Courts of Chaos (Part 3 of 3)
p52
sg34
I855
sa(dp53
g32
VThe Courts of Chaos (Part 3 of 3) [2]
p54
sg34
I855
sa(dp55
g32
VThe Courts of Chaos (Part 3 of 3) [3]
p56
sg34
I855
sa(dp57
g32
VThe Courts of Chaos (Part 3 of 3) [4]
p58
sg34
I855
sa(dp59
g32
VThe Courts of Chaos (Part 3 of 3) [5]
p60
sg34
I855
sa(dp61
g32
VDeath's Dimensions
p62
sg34
I849
sa(dp63
g32
VDeath's Dimensions [2]
p64
sg34
I849
sa(dp65
g32
VShowcase (Galaxy, February 1978)
p66
sg34
I842
sa(dp67
g32
VImagination and Evolution
p68
sg34
I844
sa(dp69
g32
VRapping Out the Space Industries
p70
sg34
I734
sa(dp71
g32
VGalaxy Bookshelf (Galaxy, February 1978)
p72
sg34
I843
sa(dp73
g32
VDirections (Galaxy, February 1978)
p74
sg34
I844
sa(dp75
g32
VWriter's Block
p76
sg34
I856
sa(dp77
g32
VThe Faded Sun: Kesrith (Part 1 of 4)
p78
sg34
I857
sa(dp79
g32
VThe Courts of Chaos (Part 3 of 3)
p80
sg34
I591
sa(dp81
g32
VThe Nothing Spot
p82
sg34
I858
sa(dp83
g32
VDeath's Dimensions
p84
sg34
I859
sasb.