ccopy_reg
_reconstructor
p0
(cdataset.Book
Book
p1
c__builtin__
object
p2
Ntp3
Rp4
(dp5
S'content_name'
p6
V33854.txt.utf-8
p7
sS'isbn'
p8
NsS'year'
p9
I1953
sS'author_name'
p10
VRobert Sheckley
p11
sS'images_urls'
p12
(lp13
Vhttp://www.gutenberg.org/files/33854/33854-h/images/cover.jpg
p14
aVhttp://www.gutenberg.org/files/33854/33854-h/images/image_001.jpg
p15
aVhttp://www.gutenberg.org/files/33854/33854-h/images/image_003.jpg
p16
aVhttp://www.gutenberg.org/files/33854/33854-h/images/image_a.jpg
p17
aVhttp://www.gutenberg.org/files/33854/33854-h/images/image_a1.jpg
p18
aVhttp://www.gutenberg.org/files/33854/33854-h/images/image_e.jpg
p19
aVhttp://www.gutenberg.org/files/33854/33854-h/images/image_t.jpg
p20
asS'language_code'
p21
Veng
p22
sS'id'
p23
I116
sS'category'
p24
VText
p25
sS'genres'
p26
(lp27
sS'copyright'
p28
VPublic domain in the USA.
p29
sS'title'
p30
VAsk a Foolish Question
p31
sS'wikipedia'
p32
(dp33
S'found'
p34
I00
ssS'average_rating'
p35
F3.69
sS'rating_count'
p36
I65
sS'content_available'
p37
I01
sS'cover_art_url'
p38
S'http://www.gutenberg.org/cache/epub/33854/pg33854.cover.medium.jpg'
p39
sS'goodreads'
p40
(dp41
S'url'
p42
Vhttps://www.goodreads.com/book/show/10215277-ask-a-foolish-question
p43
sS'found'
p44
I01
sS'year'
p45
I1953
ssS'similar_books'
p46
(lp47
sS'description'
p48
V"It's well established now that the way you put a question often determines not only the answer you'll get, but the type of answer possible. So ... a mechanical answerer, geared to produce the ultimate revelations in reference to anything you want to know, might have unsuspected limitations."-From Ask A Foolish Question<br />This short science fiction story by Robert Sheckley was first publsihed in Science Fiction magazine but is now available on the Kindle with illustrations and original text.
p49
sS'gutenberg'
p50
(dp51
g42
Vhttp://www.gutenberg.org/ebooks/33854
p52
sS'num'
p53
I33854
ssS'authors'
p54
(lp55
I23
asS'isbn13'
p56
NsS'language'
p57
VEnglish
p58
sS'countries'
p59
(lp60
I2
asS'release_date'
p61
S'2010-10-11T00:00:00'
p62
sS'author'
p63
I23
sS'cover'
p64
Vhttps://s.gr-assets.com/assets/nophoto/book/111x148-bcc042a9c91a29c1d680899eff700a03.png
p65
sS'content_cleaned'
p66
I01
sS'classes'
p67
(lp68
Vto-read
p69
aVscience-fiction
p70
aVshort-stories
p71
aVsci-fi
p72
aVfiction
p73
aVcurrently-reading
p74
aVclassics
p75
aVglowing-stuff
p76
aVbuddyreads-bookclub
p77
aVlibrivox-short-story-collection-046
p78
aVaudiobooks
p79
aVshelfari-fiction
p80
aVshelfari-english
p81
aVshelfari-e-book
p82
aVshelfari-communication
p83
aVsf-amp-f
p84
aVsci-fi-fantasy
p85
aVclassic-science-fiction
p86
aVshort-story
p87
aVe-book
p88
aVbooks-i-own
p89
aV_fun-stuff
p90
aVpg
p91
aVaudio-obtained
p92
aVread-in-my-50s
p93
aVliked-it
p94
aVebooks
p95
aVauthor-s
p96
aVfiction-sf
p97
aVshort
p98
aVgutenberg
p99
aVebook
p100
aVanthology
p101
aVsci-fi-and-horror
p102
aVsi-fi-fantasy
p103
aVbooks-to-read-in-2012
p104
aVclassic-sci-fi
p105
aVtype-short-story
p106
aVaudio-obtained-ss
p107
aV_fiction-and-fun
p108
aVaudio-books
p109
asS'loc_class'
p110
VPS: Language and Literatures: American and Canadian literature
p111
sS'n_authors'
p112
I1
sb.