ccopy_reg
_reconstructor
p0
(cdataset.Book
Book
p1
c__builtin__
object
p2
Ntp3
Rp4
(dp5
S'content_name'
p6
V17958.txt.utf-8
p7
sS'isbn'
p8
V1434619346
p9
sS'year'
p10
I1963
sS'author_name'
p11
VTerry Gene Carr
p12
sS'images_urls'
p13
(lp14
sS'language_code'
p15
NsS'images'
p16
(lp17
sS'id'
p18
I536
sS'category'
p19
VText
p20
sS'genres'
p21
(lp22
sS'copyright'
p23
VPublic domain in the USA.
p24
sS'title'
p25
VWarlord of Kor
p26
sS'wikipedia'
p27
(dp28
S'found'
p29
I00
ssS'average_rating'
p30
F3.57
sS'rating_count'
p31
I15
sS'content_available'
p32
I01
sS'goodreads'
p33
(dp34
S'url'
p35
Vhttps://www.goodreads.com/book/show/2511999.Warlord_of_Kor
p36
sg29
I01
sS'year'
p37
I1963
ssS'similar_books'
p38
(lp39
sS'description'
p40
VThis is a pre-1923 historical reproduction that was curated for quality. Quality assurance was conducted on each of these books in an attempt to remove books with imperfections introduced by the digitization process. Though we have made best efforts - the books may have occasional errors that do not impede the reading experience. We believe this work is culturally important and have elected to bring the book back into print as part of our continuing commitment to the preservation of printed works worldwide.
p41
sS'format'
p42
VPaperback
p43
sS'gutenberg'
p44
(dp45
g35
Vhttp://www.gutenberg.org/ebooks/17958
p46
sS'num'
p47
I17958
ssS'authors'
p48
(lp49
I177
asS'isbn13'
p50
V9781434619341
p51
sS'language'
p52
VEnglish
p53
sS'country'
p54
I2
sS'release_date'
p55
S'2006-03-10T00:00:00'
p56
sS'author'
p57
I177
sS'content_cleaned'
p58
I00
sS'classes'
p59
(lp60
Vto-read
p61
aVscience-fiction
p62
aVcurrently-reading
p63
aVto-get
p64
aVpublic-domain
p65
aVnovels
p66
aVown-audiobook
p67
aVaudiobooks
p68
aVbooks
p69
aVowned-books
p70
aVunread
p71
aVfiction
p72
aVcover-art-collection
p73
aVace-doubles
p74
aVdonated
p75
aVebook
p76
aVfeedbooks-com
p77
aVreimport
p78
aVsword-and-planet
p79
aVsci-fi-fantasy
p80
aVsci-fic
p81
aVto-purchase
p82
aVe-books
p83
aVread-on-pc
p84
aVmy-ebooks
p85
aVreorganize
p86
aVshelved
p87
aVs-tr
p88
aVtanith
p89
aVlee
p90
asS'loc_class'
p91
VPS: Language and Literatures: American and Canadian literature
p92
sS'n_authors'
p93
I1
sb.