ccopy_reg
_reconstructor
p0
(cdataset.Book
Book
p1
c__builtin__
object
p2
Ntp3
Rp4
(dp5
S'content_name'
p6
V51461.txt.utf-8
p7
sS'isbn'
p8
V0884119335
p9
sS'year'
p10
I1956
sS'author_name'
p11
VFritz Leiber
p12
sS'images_urls'
p13
(lp14
Vhttp://www.gutenberg.org/files/51461/51461-h/images/cover.jpg
p15
aVhttp://www.gutenberg.org/files/51461/51461-h/images/illus1.jpg
p16
aVhttp://www.gutenberg.org/files/51461/51461-h/images/illus2.jpg
p17
asS'language_code'
p18
Ven-US
p19
sS'images'
p20
(lp21
sS'id'
p22
I85
sS'category'
p23
VText
p24
sS'plot'
p25
VThe story is narrated by a ten-year-old boy living on Earth after it has become a rogue planet, having been torn away from the Sun by a passing "dark star". The loss of solar heating has caused the Earth's atmosphere to freeze into thick layers of "snow". The boy's father had worked with a group of other scientists to construct a large shelter, but the earthquakes accompanying the disaster had destroyed it and killed the others. He managed to construct a smaller, makeshift shelter called the "Nest" for his family, where they maintain a breathable atmosphere by periodically retrieving pails of frozen oxygen to thaw over a fire. They have survived in this way for a number of years.\u000aAt the end, they are found by a search party from a large group of survivors at Los Alamos, where they are using nuclear power to provide heat and have begun using rockets to search for other survivors (radio being ineffective at long range without an ionosphere). They reveal that other groups of humans have survived at Argonne, Brookhaven, and Harwell nuclear research facilities as well as in Tannu Tuva, and that plans are being made to establish uranium-mining colonies at Great Slave Lake or in the Congo region.
p26
sS'genres'
p27
(lp28
sS'copyright'
p29
VPublic domain in the USA.
p30
sS'title'
p31
VA Pail of Air
p32
sS'wikipedia'
p33
(dp34
S'url'
p35
Vhttps://en.wikipedia.org/wiki/A_Pail_of_Air
p36
sS'found'
p37
I01
sS'year'
p38
I-1
ssS'published_in'
p39
NsS'average_rating'
p40
F3.93
sS'rating_count'
p41
I138
sS'content_available'
p42
I01
sS'cover_art_url'
p43
S'http://www.gutenberg.org/cache/epub/51461/pg51461.cover.medium.jpg'
p44
sS'goodreads'
p45
(dp46
g35
Vhttps://www.goodreads.com/book/show/297432.A_Pail_of_Air
p47
sg37
I01
sg38
I1956
ssS'similar_books'
p48
(lp49
VThe Best of John W. Campbell (US)
p50
aVPerseids and Other Stories
p51
aVClassic Stories 2: Medicine for Melancholy & S is for Space
p52
aVGalaxies Like Grains of Sand
p53
aVThe Seeds of Time
p54
aVTime Patrolman
p55
aVI Am the Doorway
p56
aVNightfall [Short story]
p57
aVEl Eternauta II (El Eternauta, #2)
p58
aVAlone Against Tomorrow: Stories of Alienation in Speculative Fiction
p59
aVThe Best of C. L. Moore
p60
aVPilgrimage to Earth
p61
aVFamous Science-Fiction Stories: Adventures in Time and Space
p62
aVElements
p63
aVThe Best of Philip K. Dick
p64
aVTimes Without Number
p65
aVPortable Childhoods
p66
aVYear's Best SF 14
p67
asS'description'
p68
VReprint of 1964 paperback.<br /><br /><u>Contains the short stories:</u><br />A Pail of Air (1951)<br />The Beat Cluster (1961)<br />The Foxholes of Mars (1952)<br />Pipe Dream (1959)<br />Time Fighter (1957)<br />The 64-Square Madhouse (1962)<br />Bread Overhead (1958)<br />The Last Letter (1958)<br />Rump-Titty-Titty-Tum-TAH-Tee (1958)<br />Coming Attraction (1950)<br />Nice Girl with Five Husbands (1951)
p69
sS'format'
p70
VHardcover
p71
sS'gutenberg'
p72
(dp73
g35
Vhttp://www.gutenberg.org/ebooks/51461
p74
sS'num'
p75
I51461
ssS'authors'
p76
(lp77
I32
asS'isbn13'
p78
V9780884119333
p79
sS'language'
p80
VEnglish
p81
sS'country'
p82
I2
sS'release_date'
p83
S'2016-03-15T00:00:00'
p84
sS'author'
p85
I32
sS'original_title'
p86
VA Pail of Air
p87
sS'summary'
p88
V"A Pail of Air" is a science fiction short story by American writer Fritz Leiber, which originally appeared in the December 1951 issue of Galaxy Magazine and was dramatized on the radio show X Minus One in March 1956.
p89
sS'content_cleaned'
p90
I01
sS'classes'
p91
(lp92
Vto-read
p93
aVshort-stories
p94
aVcurrently-reading
p95
aVown-might-read
p96
aVscifi
p97
aVsf
p98
aVsci-fi
p99
aVfiction
p100
aV--139-
p101
aVcollection
p102
aVshort-story
p103
aV20th-century
p104
aVpost-apocalyptic
p105
aVfavorites
p106
aVaudio
p107
aVx
p108
aVstories
p109
aV1950-1959
p110
aVshorts
p111
aVscifi-fantasy
p112
aVowned
p113
aV20th-century-lit
p114
aVpostapocalypse
p115
aV31
p116
aVam-thinking-about-it
p117
aVto-own
p118
aVaudiobooks
p119
aV4-stars
p120
aVutopia-dystopia
p121
aVenglish
p122
aVnovella
p123
aVliterature
p124
aVdystopia
p125
aVaudible-channels
p126
aVformat-short-story
p127
aVformat-audio
p128
aVdystopian
p129
aV16reads
p130
aV2-stars
p131
aVread-sci-fi_fantasy
p132
aVlit-anglosajona
p133
aVcuentos
p134
aVcf
p135
aVmust-read
p136
aVvintage-sf
p137
aVclassics
p138
aVkindle
p139
aVlong-to-read
p140
aVs-f
p141
aVcollections
p142
aVsf-hard
p143
aVplays
p144
aVadult-fiction
p145
aVtamil
p146
aVto-read-bump
p147
aVwant-to-read
p148
aVshort-stories-novellas
p149
aVantiwar
p150
aVportals
p151
aVscience-fiction-fantasy
p152
aV2011-reading-challenge
p153
aVstory
p154
aVshort
p155
aVscience
p156
aVcloning
p157
aVtime-travel
p158
aVartificial-intelligence
p159
aVpost-apocalypse
p160
aVpartially-read
p161
aVspiiiiiicccccce
p162
asS'loc_class'
p163
S''
p164
sS'n_authors'
p165
I1
sb.