ccopy_reg
_reconstructor
p0
(cdataset.Book
Book
p1
c__builtin__
object
p2
Ntp3
Rp4
(dp5
S'content_name'
p6
V51233.txt.utf-8
p7
sS'isbn'
p8
V0345607600
p9
sS'year'
p10
I1959
sS'author_name'
p11
VC. M. Kornbluth
p12
sS'images_urls'
p13
(lp14
Vhttp://www.gutenberg.org/files/51233/51233-h/images/cover.jpg
p15
aVhttp://www.gutenberg.org/files/51233/51233-h/images/illus1.jpg
p16
aVhttp://www.gutenberg.org/files/51233/51233-h/images/illus2.jpg
p17
aVhttp://www.gutenberg.org/files/51233/51233-h/images/illus3.jpg
p18
asS'language_code'
p19
Veng
p20
sS'images'
p21
(lp22
sS'id'
p23
I361
sS'category'
p24
VText
p25
sS'genres'
p26
(lp27
sS'copyright'
p28
VPublic domain in the USA.
p29
sS'title'
p30
VThe Marching Morons
p31
sS'wikipedia'
p32
(dp33
S'url'
p34
Vhttps://en.wikipedia.org/wiki/The_Marching_Morons_(collection)
p35
sS'found'
p36
I01
sS'year'
p37
I-1
ssS'published_in'
p38
NsS'average_rating'
p39
F3.63
sS'rating_count'
p40
I226
sS'content_available'
p41
I01
sS'cover_art_url'
p42
S'http://www.gutenberg.org/cache/epub/51233/pg51233.cover.medium.jpg'
p43
sS'goodreads'
p44
(dp45
g34
Vhttps://www.goodreads.com/book/show/2300110.The_Marching_Morons
p46
sg36
I01
sg37
I1959
ssS'similar_books'
p47
(lp48
VWatchbird
p49
aVWasp
p50
aVThe Dystopia Chronicles (Atopia, #2)
p51
aVConcrete, Volume 5: Think Like A Mountain
p52
aVPolymath (Zarathustra Refugee Planets, #2)
p53
aVThe Weather-Makers
p54
aVThe Agonizing Resurrection of Victor Frankenstein and Other Gothic Tales
p55
aVThe Shores of Space
p56
aVThe Men in the Jungle
p57
aVThe View from Serendip
p58
aVClose to Critical (Mesklin, #2)
p59
aVLucretia
p60
aVThe Dark Side of the Earth
p61
aVDonovan's Brain
p62
aVDannii: My Story
p63
aVThe Phantom of the Earth (The Phantom of the Earth #1-5)
p64
aVThe Year's Best Science Fiction: Twenty-Seventh Annual Collection
p65
aVThe People of the Wind
p66
asS'description'
p67
VKornbluth's nickname, during his tragically short life, was "the Great Tale-Twister." He could take a common SF theme and stand it on its ear. Satirical, witty, startling - a delight to read lo these fifty years after his demise.<br /><br />CONTENTS:<br />The Marching Morons; <br />Dominoes; <br />The Luckiest Man in Denv; <br />The Silly Season; <br />Ms. Found in a Chinese Fortune Cookie; <br />The Only Thing We Learn; <br />The Cosmic Charge Account; <br />I Never Ast No Favors; <br />The Remorseful
p68
sS'format'
p69
VPaperback
p70
sS'gutenberg'
p71
(dp72
g34
Vhttp://www.gutenberg.org/ebooks/51233
p73
sS'num'
p74
I51233
ssS'authors'
p75
(lp76
I51
asS'pages'
p77
I160
sS'isbn13'
p78
V9780345607607
p79
sS'language'
p80
VEnglish
p81
sS'country'
p82
I2
sS'release_date'
p83
S'2016-02-16T00:00:00'
p84
sS'author'
p85
I51
sS'original_title'
p86
VThe Marching Morons (collection)
p87
sS'summary'
p88
VThe Marching Morons (and Other Famous Science Fiction Stories) is a collection of stories by Cyril M. Kornbluth, originally published in paperback by Ballantine Books in 1959. Ballantine reissued the collection in 1963. A Spanish translation, Desfile de Cretines, appeared in 1964. In 1972, the novella from which the collection takes its name was selected by SFWA members as one of the ten best novellas published in the genre before 1966.
p89
sS'content_cleaned'
p90
I01
sS'classes'
p91
(lp92
Vto-read
p93
aVscience-fiction
p94
aVcurrently-reading
p95
aVshort-stories
p96
aVfiction
p97
aVkindle
p98
aVown-might-read
p99
aVsci-fi
p100
aVdystopia
p101
aV--83-
p102
aVshelfari-sci-fi
p103
aVphilosophy
p104
aVcollections
p105
aVto-read-kindle
p106
aVscifi-fantasy
p107
aVsf
p108
aVdystopian
p109
aVreread-again
p110
aVto-read-next-horror-sci-fi
p111
aVbooks-to-read-next
p112
aV00-to-read-01
p113
aV200-or-less
p114
aVthe-greatest-books-of-all-time
p115
aVsuper-weird
p116
aVhumor-and-comedy
p117
aVhorror-and-noir
p118
aVadult
p119
aV20th-century-lit
p120
aVpre
p121
aVwhat-i-grew-up-on
p122
aV31
p123
aVdystopian-books
p124
aVc-m-kornbluth-science-fiction
p125
aVtbr_novels
p126
aVanthology
p127
aVshort-fiction
p128
aVnovellas
p129
aVkindle-bookshelf
p130
aVto-read-classics
p131
aVdefault
p132
aVreread
p133
aVkindle-unlimited
p134
aVanthologies
p135
aVhiq
p136
aVgutenberg
p137
aVthe-long-list
p138
aVwish-list
p139
aVsci-fi-1950-2000
p140
aV02sftr
p141
aVc-m-kornbluth
p142
aVfavorites
p143
aVe-l
p144
aVlitteratur
p145
aVowned
p146
aVshelfari-favorites
p147
aVlife-lessons
p148
aVfiktio
p149
aVsf-unread
p150
aVdnf
p151
aVowned-digital
p152
aVliterature
p153
aVstarted-but-did-not-finish
p154
aVmust
p155
aVsf-hard
p156
aVread-2015
p157
aVto-read-ebook
p158
aVi-have-one
p159
aVlendable-books
p160
aVebook-kindle-own
p161
aV106
p162
aVutopia_dystopia
p163
aVthalia
p164
aVreviewed-books
p165
aVreviewed-by-manny
p166
aVmay-read
p167
aVthe-end-of-the-world
p168
aVfiction-general
p169
aVfantasy-sci-fi
p170
aVapocalyptic-dystopian-futuristic
p171
aVa1-immediate-read
p172
aVa1-i-own-books
p173
aV2014-all-sci-fi-my-challenge
p174
aV2013-eclectic-reader-challenge
p175
aV2013-dustbuster-challenge
p176
aV2013-authors-new-to-me-challenge
p177
aVread-2013
p178
aVdigital
p179
aVsci-fi-fantasy
p180
aVto-eread
p181
aVebook-archive
p182
aVread-2012
p183
aVgenre-classics-reading-challenge
p184
aVfantasy-scifi
p185
aVdystopian-novels
p186
aVostoslista
p187
aVphd-robots
p188
aVcripp-s-book
p189
aVsoftcover
p190
aVwishlist-summer-of-2013-14
p191
aVsci-fi-retro-pulp-years
p192
asS'loc_class'
p193
S''
p194
sS'n_authors'
p195
I1
sb.