ccopy_reg
_reconstructor
p0
(cdataset.Book
Book
p1
c__builtin__
object
p2
Ntp3
Rp4
(dp5
S'content_name'
p6
V18361.txt.utf-8
p7
sS'isbn'
p8
V1426451784
p9
sS'cover'
p10
Vhttps://s.gr-assets.com/assets/nophoto/book/111x148-bcc042a9c91a29c1d680899eff700a03.png
p11
sS'year'
p12
I1954
sS'author_name'
p13
VMurray Leinster
p14
sS'images_urls'
p15
(lp16
sS'language_code'
p17
NsS'images'
p18
(lp19
Vhttps://upload.wikimedia.org/wikipedia/en/b/ba/Operation_outer_space.jpg
p20
aVhttps://upload.wikimedia.org/wikipedia/commons/a/a0/Sfbook.png
p21
asS'id'
p22
I428
sS'category'
p23
VText
p24
sS'genres'
p25
(lp26
sS'copyright'
p27
VPublic domain in the USA.
p28
sS'title'
p29
VOperation: Outer Space
p30
sS'wikipedia'
p31
(dp32
S'url'
p33
Vhttps://en.wikipedia.org/wiki/Operation:_Outer_Space
p34
sS'found'
p35
I01
sS'year'
p36
I-1
ssS'published_in'
p37
NsS'average_rating'
p38
F3.37
sS'rating_count'
p39
I28
sS'content_available'
p40
I01
sS'goodreads'
p41
(dp42
g33
Vhttps://www.goodreads.com/book/show/6328778-operation
p43
sg35
I01
sg36
I1954
ssS'similar_books'
p44
(lp45
VStarman's Quest
p46
aVThe Long Way Home
p47
aVA Trace of Memory
p48
aVBadge of Infamy
p49
aVClassic Stories 2: Medicine for Melancholy & S is for Space
p50
aVThe Dueling Machine
p51
aVThe Green Odyssey
p52
aVThis Crowded Earth
p53
aVLegacy
p54
aVThe Colors of Space
p55
aVThe Crossroads of Time
p56
aVSinister Barrier
p57
aVThe Texas-Israeli War: 1999
p58
aVAlternities
p59
aVThe Survivors (Ragnarok, #1)
p60
aVThe Bones of Time
p61
aVNorby Through Time and Space (Norby, #5-6)
p62
aVTime Slave
p63
asS'description'
p64
VThis is a pre-1923 historical reproduction that was curated for quality. Quality assurance was conducted on each of these books in an attempt to remove books with imperfections introduced by the digitization process. Though we have made best efforts - the books may have occasional errors that do not impede the reading experience. We believe this work is culturally important and have elected to bring the book back into print as part of our continuing commitment to the preservation of printed works worldwide.
p65
sS'gutenberg'
p66
(dp67
g33
Vhttp://www.gutenberg.org/ebooks/18361
p68
sS'num'
p69
I18361
ssS'authors'
p70
(lp71
I61
asS'pages'
p72
I172
sS'isbn13'
p73
V9781426451782
p74
sS'language'
p75
VEnglish
p76
sS'countries'
p77
(lp78
I2
asS'release_date'
p79
S'2006-05-10T00:00:00'
p80
sS'author'
p81
I61
sS'original_title'
p82
VOperation: Outer Space
p83
sS'summary'
p84
VOperation: Outer Space is a science fiction novel by American writer Murray Leinster. It was first published in 1954 by Fantasy Press in an edition of 2,042 copies.
p85
sS'content_cleaned'
p86
I00
sS'classes'
p87
(lp88
Vto-read
p89
aVcurrently-reading
p90
aVscience-fiction
p91
aVsci-fi
p92
aVscifi
p93
aVsf
p94
aVowned
p95
aVfiction
p96
aVscifi-golden-age-2-1947-1959
p97
aVebook
p98
aVpublic-domain
p99
aVlibrary
p100
aVa-5-star-rating
p101
aV20th-century-lit
p102
aVdnf
p103
aVz-1954-pub
p104
aVaudio-books-to-read
p105
aVin-bundles
p106
aVdefault
p107
aVpulp-fiction
p108
aVold-skool
p109
aVdead-tree
p110
aVaudiobooks
p111
aVsci-fi-horror-dystopian
p112
aVaudio
p113
aVfree-from-amazon
p114
aVsteve-s
p115
aVbooks-i-own
p116
aVtaggare
p117
aVfeedbooks-com
p118
aVscifi-fantasy
p119
aVcollection
p120
aVpaperback
p121
aVfill-in-the-gaps-project-100
p122
aVkindle
p123
aVonline-books
p124
aVtravel-and-explore
p125
aVlibrivox-listens
p126
aVon-hiatus
p127
aVurania-201-400
p128
aVfantascienza
p129
aVvintage-scifi
p130
aV06-stjerne
p131
aVs-f
p132
aVscience
p133
aVgeneral
p134
aVadventure
p135
aVcalibre
p136
aVpre-1982-read
p137
aVpublic-domain-science-fiction
p138
aVgolden-age-science-fiction
p139
aVread-in-2011
p140
aVscifi-fantasy-horror
p141
aVaudiobooks-to-read
p142
aVcook-crafts-places
p143
asS'loc_class'
p144
VPS: Language and Literatures: American and Canadian literature
p145
sS'n_authors'
p146
I1
sb.