ccopy_reg
_reconstructor
p0
(cdataset.Book
Book
p1
c__builtin__
object
p2
Ntp3
Rp4
(dp5
S'content_name'
p6
V51321.txt.utf-8
p7
sS'isbn'
p8
V1515405168
p9
sS'year'
p10
I-1
sS'author_name'
p11
VAlan Edward Nourse
p12
sS'images_urls'
p13
(lp14
Vhttp://www.gutenberg.org/files/51321/51321-h/images/cover.jpg
p15
aVhttp://www.gutenberg.org/files/51321/51321-h/images/illus.jpg
p16
asS'language_code'
p17
NsS'images'
p18
(lp19
sS'id'
p20
I693
sS'category'
p21
VText
p22
sS'genres'
p23
(lp24
sS'copyright'
p25
VPublic domain in the USA.
p26
sS'title'
p27
VPrime Difference
p28
sS'wikipedia'
p29
(dp30
S'found'
p31
I00
ssS'average_rating'
p32
F0.0
sS'rating_count'
p33
I0
sS'content_available'
p34
I01
sS'cover_art_url'
p35
S'http://www.gutenberg.org/cache/epub/51321/pg51321.cover.medium.jpg'
p36
sS'goodreads'
p37
(dp38
S'url'
p39
Vhttps://www.goodreads.com/book/show/29516763-prime-difference
p40
sg31
I01
sS'year'
p41
I-1
ssS'similar_books'
p42
(lp43
sS'description'
p44
VBeing two men rolled out of one would solve my problems-but which one would I be?
p45
sS'format'
p46
Vebook
p47
sS'gutenberg'
p48
(dp49
g39
Vhttp://www.gutenberg.org/ebooks/51321
p50
sS'num'
p51
I51321
ssS'authors'
p52
(lp53
I108
asS'pages'
p54
I15
sS'isbn13'
p55
V9781515405160
p56
sS'language'
p57
VEnglish
p58
sS'release_date'
p59
S'2016-02-28T00:00:00'
p60
sS'author'
p61
I108
sS'content_cleaned'
p62
I01
sS'classes'
p63
(lp64
sS'loc_class'
p65
S''
p66
sS'n_authors'
p67
I1
sb.