ccopy_reg
_reconstructor
p0
(cdataset.Book
Book
p1
c__builtin__
object
p2
Ntp3
Rp4
(dp5
S'similar_books'
p6
(lp7
sS'genres'
p8
(lp9
sS'author'
p10
I302
sS'countries'
p11
(lp12
I2
asS'year'
p13
I1965
sS'title'
p14
VGalaxy Magazine August 1965
p15
sS'cover'
p16
Vhttps://ia601304.us.archive.org/BookReader/BookReaderImages.php?zip=/8/items/Galaxy_v23n06_1965-08/Galaxy_v23n06_1965-08_jp2.zip&file=Galaxy_v23n06_1965-08_jp2/Galaxy_v23n06_1965-08_0000.jp2&scale=0&rotate=0
p17
sS'cover_art'
p18
S'http://www.isfdb.org/wiki/images/9/9a/GALAUG65.jpg'
p19
sS'author_name'
p20
VGalaxy Magazine
p21
sS'images_urls'
p22
(lp23
sS'authors'
p24
(lp25
I578
aI545
aI40
aI339
aI326
aI91
aI55
aI63
aI153
aI607
aI302
asS'images'
p26
(lp27
sS'id'
p28
I1108
sS'contents'
p29
(lp30
(dp31
g10
I578
sg14
VDo I Wake or Dream? (Complete Novel)
p32
sa(dp33
g10
I578
sg14
VDo I Wake or Dream? (Complete Novel) [2]
p34
sa(dp35
g10
I578
sg14
VDo I Wake or Dream? (Complete Novel) [3]
p36
sa(dp37
g10
I578
sg14
VDo I Wake or Dream? (Complete Novel) [4]
p38
sa(dp39
g10
I578
sg14
VDo I Wake or Dream? (Complete Novel) [5]
p40
sa(dp41
g10
I578
sg14
VDo I Wake or Dream? (Complete Novel) [6]
p42
sa(dp43
g10
I545
sg14
VThe Shipwrecked Hotel
p44
sa(dp45
g10
I545
sg14
VThe Shipwrecked Hotel [2]
p46
sa(dp47
g10
I40
sg14
VOld Home Month
p48
sa(dp49
g10
I339
sg14
VFor Your Information: The Galactic Giants
p50
sa(dp51
g10
I326
sg14
VForecast (Galaxy, August 1965)
p52
sa(dp53
g10
I91
sg14
VGalaxy Bookshelf (Galaxy, August 1965)
p54
sa(dp55
g10
I55
sg14
VThe Shipwrecked Hotel
p56
sa(dp57
g10
I63
sg14
VDo I Wake or Dream? (Complete Novel)
p58
sa(dp59
g10
I153
sg14
VPeeping Tommy
p60
sa(dp61
g10
I607
sg14
VPlease State My Business
p62
sasb.