ccopy_reg
_reconstructor
p0
(cdataset.Book
Book
p1
c__builtin__
object
p2
Ntp3
Rp4
(dp5
S'content_name'
p6
V48880.txt.utf-8
p7
sS'isbn'
p8
V1938853555
p9
sS'year'
p10
I2014
sS'author_name'
p11
VRoger D. Aycock
p12
sS'images_urls'
p13
(lp14
Vhttp://www.gutenberg.org/files/48880/48880-h/images/beast.jpg
p15
aVhttp://www.gutenberg.org/files/48880/48880-h/images/cover.jpg
p16
asS'language_code'
p17
Veng
p18
sS'images'
p19
(lp20
sS'id'
p21
I775
sS'category'
p22
VText
p23
sS'genres'
p24
(lp25
sS'copyright'
p26
VPublic domain in the USA.
p27
sS'title'
p28
VRough Beast
p29
sS'wikipedia'
p30
(dp31
S'found'
p32
I00
ssS'average_rating'
p33
F4.67
sS'rating_count'
p34
I11
sS'content_available'
p35
I01
sS'cover_art_url'
p36
S'http://www.gutenberg.org/cache/epub/48880/pg48880.cover.medium.jpg'
p37
sS'goodreads'
p38
(dp39
S'url'
p40
Vhttps://www.goodreads.com/book/show/20646508-rough-beast
p41
sg32
I01
sS'year'
p42
I2014
ssS'similar_books'
p43
(lp44
VHanging Dog Creek
p45
aVThe Gravedigger's Roots
p46
aVReasons (not) to Dance
p47
aVFor One Who Knows How to Own Land
p48
aVBroke
p49
aVHouse You Cannot Reach
p50
aVMiss Havisham in Winter
p51
aVBeyond the Bones
p52
aVWhat the Neighbors Know
p53
aVBullets in the Jewelry Box
p54
aVFugitive Pigments
p55
aVThe Night I Heard Everything
p56
aVDamaged Little Creatures
p57
aVJuly's Thick Kingdom
p58
aVA Lean Against the Wheel
p59
aVStealing Hymnals from the Choir
p60
aVBlood Moon
p61
aVSimple Weight
p62
asS'description'
p63
VSet on what remains of a small family farm in the Blue Ridge foothills of Western North Carolina, ROUGH BEAST depicts the quirky ascension of Larry Ledbetter from small-time country gangster to unwilling literary lion. Larry\u2019s voice is the engine that drives the sometimes comic but often violent narrative. In his attempt to come to grips with both personal tragedies and his inexplicable success, Larry reveals his vulnerability and shared humanity.
p64
sS'format'
p65
VPaperback
p66
sS'gutenberg'
p67
(dp68
g40
Vhttp://www.gutenberg.org/ebooks/48880
p69
sS'num'
p70
I48880
ssS'authors'
p71
(lp72
I162
asS'pages'
p73
I82
sS'isbn13'
p74
V9781938853555
p75
sS'language'
p76
VEnglish
p77
sS'release_date'
p78
S'2015-05-05T00:00:00'
p79
sS'author'
p80
I162
sS'content_cleaned'
p81
I00
sS'classes'
p82
(lp83
Vto-read
p84
aVcurrently-reading
p85
aVcontest
p86
aVfirst-reads
p87
aVrandom
p88
aVchrissy-s-hope-to-reads
p89
aVedited-designed
p90
aVfuturecycle
p91
asS'loc_class'
p92
S''
p93
sS'n_authors'
p94
I1
sb.