ccopy_reg
_reconstructor
p0
(cdataset.Book
Book
p1
c__builtin__
object
p2
Ntp3
Rp4
(dp5
S'isbn'
p6
NsS'year'
p7
I1935
sS'author_name'
p8
S'Stanley Weinbaum'
p9
sS'images_urls'
p10
(lp11
Vhttp://www.gutenberg.org/files/22890/22890-page-images/p103.png
p12
aVhttp://www.gutenberg.org/files/22890/22890-page-images/p104.png
p13
aVhttp://www.gutenberg.org/files/22890/22890-page-images/p105.png
p14
aVhttp://www.gutenberg.org/files/22890/22890-page-images/p106.png
p15
aVhttp://www.gutenberg.org/files/22890/22890-page-images/p107.png
p16
aVhttp://www.gutenberg.org/files/22890/22890-page-images/p108.png
p17
aVhttp://www.gutenberg.org/files/22890/22890-page-images/p109.png
p18
aVhttp://www.gutenberg.org/files/22890/22890-page-images/p110.png
p19
aVhttp://www.gutenberg.org/files/22890/22890-page-images/p111.png
p20
aVhttp://www.gutenberg.org/files/22890/22890-page-images/p112.png
p21
aVhttp://www.gutenberg.org/files/22890/22890-page-images/p113.png
p22
aVhttp://www.gutenberg.org/files/22890/22890-page-images/p114.png
p23
aVhttp://www.gutenberg.org/files/22890/22890-page-images/p115.png
p24
aVhttp://www.gutenberg.org/files/22890/22890-page-images/p116.png
p25
aVhttp://www.gutenberg.org/files/22890/22890-page-images/p117.png
p26
aVhttp://www.gutenberg.org/files/22890/22890-page-images/p118.png
p27
aVhttp://www.gutenberg.org/files/22890/22890-page-images/p119.png
p28
asS'language_code'
p29
NsS'images'
p30
(lp31
sS'id'
p32
I791
sS'category'
p33
VText
p34
sS'genres'
p35
(lp36
sS'copyright'
p37
VPublic domain in the USA.
p38
sS'title'
p39
VThe Worlds of If
p40
sS'wikipedia'
p41
(dp42
S'found'
p43
I00
ssS'average_rating'
p44
F3.97
sS'rating_count'
p45
I19
sS'content_available'
p46
I00
sS'goodreads'
p47
(dp48
S'url'
p49
S'https://www.goodreads.com/book/show/20501984-the-worlds-of-if'
p50
sS'found'
p51
I01
ssS'similar_books'
p52
(lp53
sS'description'
p54
VDixon Wells, a fashionable playboy, is always late. What will it cost him this time? Sideways into time, lie the worlds of 'if', where many answers await.
p55
sS'gutenberg'
p56
(dp57
S'url'
p58
Vhttp://www.gutenberg.org/ebooks/22890
p59
sS'num'
p60
I22890
ssS'authors'
p61
(lp62
I62
asS'isbn13'
p63
NsS'language'
p64
VEnglish
p65
sS'countries'
p66
(lp67
I2
asS'release_date'
p68
S'2007-10-05T00:00:00'
p69
sS'author'
p70
I62
sS'cover'
p71
Vhttps://s.gr-assets.com/assets/nophoto/book/111x148-bcc042a9c91a29c1d680899eff700a03.png
p72
sS'classes'
p73
(lp74
Vto-read
p75
aVscience-fiction
p76
aVshort-stories
p77
aVd-d-inspiration
p78
aVappendix-n
p79
aV20th-century-lit
p80
aVdndrecommended
p81
aVrdcss
p82
aVrdc
p83
aVd-d
p84
aVdnd-reading-list
p85
aVgot-a-paperback
p86
aVfav-covers-titles-or-both
p87
aVto-read-scifi
p88
aVx_shortstory
p89
aVz_fiction
p90
aVwo_scifi
p91
aVw_us_federal
p92
aVscience
p93
aVsci-fi
p94
aVphilosophy
p95
aVcurrently-reading
p96
aVappendix-e
p97
aVclassics
p98
aVdnd-inspirational-reading
p99
aVkindle-ebook
p100
aVeventually
p101
aVrdck
p102
aVtype-short-story
p103
aVaudio-obtained-ss
p104
asS'loc_class'
p105
VPS: Language and Literatures: American and Canadian literature
p106
sS'n_authors'
p107
I1
sb.