ccopy_reg
_reconstructor
p0
(cdataset.Book
Book
p1
c__builtin__
object
p2
Ntp3
Rp4
(dp5
S'content_name'
p6
V32353.txt.utf-8
p7
sS'isbn'
p8
NsS'year'
p9
I2010
sS'author_name'
p10
VWinston K. Marks
p11
sS'images_urls'
p12
(lp13
Vhttp://www.gutenberg.org/files/32353/32353-h/images/cover.jpg
p14
aVhttp://www.gutenberg.org/files/32353/32353-h/images/illus1.jpg
p15
asS'language_code'
p16
NsS'images'
p17
(lp18
sS'id'
p19
I883
sS'category'
p20
VText
p21
sS'genres'
p22
(lp23
sS'copyright'
p24
VPublic domain in the USA.
p25
sS'title'
p26
VThe Mind Digger
p27
sS'wikipedia'
p28
(dp29
S'found'
p30
I00
ssS'average_rating'
p31
F2.5
sS'rating_count'
p32
I1
sS'content_available'
p33
I01
sS'cover_art_url'
p34
S'http://www.gutenberg.org/cache/epub/32353/pg32353.cover.medium.jpg'
p35
sS'goodreads'
p36
(dp37
S'url'
p38
Vhttps://www.goodreads.com/book/show/8584836-the-mind-digger
p39
sg30
I01
sS'year'
p40
I2010
ssS'similar_books'
p41
(lp42
sS'description'
p43
NsS'format'
p44
NsS'gutenberg'
p45
(dp46
g38
Vhttp://www.gutenberg.org/ebooks/32353
p47
sS'num'
p48
I32353
ssS'authors'
p49
(lp50
I228
asS'isbn13'
p51
NsS'language'
p52
VEnglish
p53
sS'country'
p54
I3
sS'release_date'
p55
S'2010-05-12T00:00:00'
p56
sS'author'
p57
I228
sS'content_cleaned'
p58
I01
sS'classes'
p59
(lp60
sS'loc_class'
p61
VPS: Language and Literatures: American and Canadian literature
p62
sS'n_authors'
p63
I1
sb.