ccopy_reg
_reconstructor
p0
(cdataset.Book
Book
p1
c__builtin__
object
p2
Ntp3
Rp4
(dp5
S'content_name'
p6
V28063.txt.utf-8
p7
sS'isbn'
p8
NsS'year'
p9
I1962
sS'author_name'
p10
VBen Bova
p11
sS'images_urls'
p12
(lp13
Vhttp://www.gutenberg.org/files/28063/28063-h/images/001.png
p14
aVhttp://www.gutenberg.org/files/28063/28063-h/images/002.png
p15
asS'language_code'
p16
NsS'images'
p17
(lp18
sS'id'
p19
I137
sS'category'
p20
VText
p21
sS'genres'
p22
(lp23
sS'copyright'
p24
VPublic domain in the USA.
p25
sS'title'
p26
VThe Next Logical Step
p27
sS'wikipedia'
p28
(dp29
S'found'
p30
I00
ssS'average_rating'
p31
F3.52
sS'rating_count'
p32
I47
sS'content_available'
p33
I01
sS'goodreads'
p34
(dp35
S'url'
p36
Vhttps://www.goodreads.com/book/show/6271743-the-next-logical-step
p37
sg30
I01
sS'year'
p38
I1962
ssS'similar_books'
p39
(lp40
sS'description'
p41
VOrdinarily the military least wants to have the others know the final details of their war plans. But, logically, there would be times--
p42
sS'format'
p43
NsS'gutenberg'
p44
(dp45
g36
Vhttp://www.gutenberg.org/ebooks/28063
p46
sS'num'
p47
I28063
ssS'authors'
p48
(lp49
I47
asS'pages'
p50
I10
sS'isbn13'
p51
NsS'language'
p52
VEnglish
p53
sS'countries'
p54
(lp55
I2
asS'release_date'
p56
S'2009-02-13T00:00:00'
p57
sS'author'
p58
I47
sS'content_cleaned'
p59
I01
sS'classes'
p60
(lp61
Vto-read
p62
aVscience-fiction
p63
aVsci-fi
p64
aVreviewed
p65
aVowned
p66
aVshort-stories
p67
aVebook
p68
aVfiction
p69
aVshort-stories-or-story
p70
aVfree-from-amazon
p71
aVsci-fi-fantasy
p72
aVshort-fiction
p73
aV20th-century
p74
aVsf
p75
aVshort-story
p76
aVe-book
p77
aVbooks-i-own
p78
aVpg
p79
aV2014-completed
p80
aVebook_only
p81
aV14
p82
aVreimport
p83
aVsciencefiction
p84
aVi-read
p85
aVscifi
p86
aVgenre
p87
aVfree-ebook
p88
aVben-bova
p89
aVreorganize
p90
aVshelved
p91
aVi-rd
p92
aVto-read-owned
p93
asS'loc_class'
p94
VPS: Language and Literatures: American and Canadian literature
p95
sS'n_authors'
p96
I1
sb.