ccopy_reg
_reconstructor
p0
(cdataset.Book
Book
p1
c__builtin__
object
p2
Ntp3
Rp4
(dp5
S'similar_books'
p6
(lp7
sS'genres'
p8
(lp9
sS'author'
p10
I302
sS'countries'
p11
(lp12
I2
asS'year'
p13
I1953
sS'title'
p14
VGalaxy Magazine November 1953
p15
sS'cover'
p16
Vhttps://ia600206.us.archive.org/BookReader/BookReaderImages.php?zip=/7/items/Galaxy_v07n02_1953-11/Galaxy_v07n02_1953-11_jp2.zip&file=Galaxy_v07n02_1953-11_jp2/Galaxy_v07n02_1953-11_0000.jp2&scale=0&rotate=0
p17
sS'cover_art'
p18
S'http://www.isfdb.org/wiki/images/f/f9/MLO4317.jpg'
p19
sS'author_name'
p20
VGalaxy Magazine
p21
sS'images_urls'
p22
(lp23
sS'authors'
p24
(lp25
I431
aI419
aI427
aI417
aI363
aI305
aI339
aI326
aI340
aI23
aI243
aI3
aI440
aI228
aI400
aI302
asS'images'
p26
(lp27
sS'id'
p28
I1010
sS'contents'
p29
(lp30
(dp31
g10
I431
sg14
VKeep Your Shape
p32
sa(dp33
g10
I419
sg14
VMr. President
p34
sa(dp35
g10
I427
sg14
VThe Book
p36
sa(dp37
g10
I427
sg14
VThe Book [2]
p38
sa(dp39
g10
I427
sg14
VThe Book [3]
p40
sa(dp41
g10
I431
sg14
VUnbegotten Child
p42
sa(dp43
g10
I417
sg14
VClean Break
p44
sa(dp45
g10
I363
sg14
VThe Caves of Steel (Part 2 of 3)
p46
sa(dp47
g10
I363
sg14
VThe Caves of Steel (Part 2 of 3) [2]
p48
sa(dp49
g10
I363
sg14
VThe Caves of Steel (Part 2 of 3) [3]
p50
sa(dp51
g10
I363
sg14
VThe Caves of Steel (Part 2 of 3) [4]
p52
sa(dp53
g10
I305
sg14
VThat's Life, Etc.
p54
sa(dp55
g10
I339
sg14
VFor Your Information: Is Artificial Life Possible?
p56
sa(dp57
g10
I326
sg14
VForecast (Galaxy, November 1953)
p58
sa(dp59
g10
I340
sg14
VGalaxy's 5 Star Shelf (Galaxy, November 1953)
p60
sa(dp61
g10
I23
sg14
VKeep Your Shape
p62
sa(dp63
g10
I243
sg14
VThe Book
p64
sa(dp65
g10
I3
sg14
VThe Caves of Steel (Part 2 of 3)
p66
sa(dp67
g10
I440
sg14
VMr. President
p68
sa(dp69
g10
I228
sg14
VUnbegotten Child
p70
sa(dp71
g10
I400
sg14
VClean Break
p72
sasb.