ccopy_reg
_reconstructor
p0
(cdataset.Book
Book
p1
c__builtin__
object
p2
Ntp3
Rp4
(dp5
S'content_name'
p6
V50668.txt.utf-8
p7
sS'isbn'
p8
NsS'year'
p9
I1960
sS'author_name'
p10
VJack Sharkey
p11
sS'images_urls'
p12
(lp13
Vhttp://www.gutenberg.org/files/50668/50668-h/images/cover.jpg
p14
aVhttp://www.gutenberg.org/files/50668/50668-h/images/illus.jpg
p15
asS'language_code'
p16
NsS'images'
p17
(lp18
sS'id'
p19
I722
sS'category'
p20
VText
p21
sS'genres'
p22
(lp23
sS'copyright'
p24
VPublic domain in the USA.
p25
sS'title'
p26
VThe Secret Martians
p27
sS'wikipedia'
p28
(dp29
S'found'
p30
I00
ssS'average_rating'
p31
F2.33
sS'rating_count'
p32
I5
sS'content_available'
p33
I01
sS'cover_art_url'
p34
S'http://www.gutenberg.org/cache/epub/50668/pg50668.cover.medium.jpg'
p35
sS'goodreads'
p36
(dp37
S'url'
p38
Vhttps://www.goodreads.com/book/show/8784340-the-secret-martians
p39
sg30
I01
sS'year'
p40
I2008
ssS'similar_books'
p41
(lp42
sS'description'
p43
NsS'gutenberg'
p44
(dp45
g38
Vhttp://www.gutenberg.org/ebooks/50668
p46
sS'num'
p47
I50668
ssS'authors'
p48
(lp49
I205
asS'isbn13'
p50
V2940000131244
p51
sS'language'
p52
VEnglish
p53
sS'countries'
p54
(lp55
I2
asS'release_date'
p56
S'2015-12-11T00:00:00'
p57
sS'author'
p58
I205
sS'content_cleaned'
p59
I01
sS'classes'
p60
(lp61
Vto-read
p62
aVcurrently-reading
p63
aV21st-century-lit
p64
aVscience-fiction
p65
aVadventure
p66
aVe-books
p67
aVsf
p68
asS'loc_class'
p69
S''
p70
sS'n_authors'
p71
I1
sb.