ccopy_reg
_reconstructor
p0
(cdataset.Book
Book
p1
c__builtin__
object
p2
Ntp3
Rp4
(dp5
S'content_name'
p6
V51148.txt.utf-8
p7
sS'isbn'
p8
V1515403831
p9
sS'year'
p10
I1951
sS'author_name'
p11
VJohn D. MacDonald
p12
sS'images_urls'
p13
(lp14
Vhttp://www.gutenberg.org/files/51148/51148-h/images/cover.jpg
p15
aVhttp://www.gutenberg.org/files/51148/51148-h/images/illus1.jpg
p16
aVhttp://www.gutenberg.org/files/51148/51148-h/images/illus2.jpg
p17
aVhttp://www.gutenberg.org/files/51148/51148-h/images/illus3.jpg
p18
asS'language_code'
p19
NsS'id'
p20
I423
sS'category'
p21
VText
p22
sS'genres'
p23
(lp24
sS'copyright'
p25
VPublic domain in the USA.
p26
sS'title'
p27
VCommon Denominator
p28
sS'wikipedia'
p29
(dp30
S'found'
p31
I00
ssS'average_rating'
p32
F4.5
sS'rating_count'
p33
I2
sS'content_available'
p34
I01
sS'cover_art_url'
p35
S'http://www.gutenberg.org/cache/epub/51148/pg51148.cover.medium.jpg'
p36
sS'goodreads'
p37
(dp38
S'url'
p39
S'https://www.goodreads.com/book/show/29277357-common-denominator'
p40
sS'found'
p41
I01
ssS'similar_books'
p42
(lp43
sS'description'
p44
VAdvanced races generally are eager to share their knowledge with primitive ones. In this case ... with Earthmen!
p45
sS'gutenberg'
p46
(dp47
S'url'
p48
Vhttp://www.gutenberg.org/ebooks/51148
p49
sS'num'
p50
I51148
ssS'authors'
p51
(lp52
I137
asS'pages'
p53
I10
sS'isbn13'
p54
V9781515403838
p55
sS'language'
p56
VEnglish
p57
sS'countries'
p58
(lp59
I2
asS'release_date'
p60
S'2016-02-08T00:00:00'
p61
sS'author'
p62
I137
sS'cover'
p63
Vhttps://s.gr-assets.com/assets/nophoto/book/111x148-bcc042a9c91a29c1d680899eff700a03.png
p64
sS'content_cleaned'
p65
I01
sS'classes'
p66
(lp67
Vcurrently-reading
p68
aVto-read
p69
aVbooks-to-order-from-guttenberg
p70
aVscience-fiction
p71
asS'loc_class'
p72
S''
p73
sS'n_authors'
p74
I1
sb.