ccopy_reg
_reconstructor
p0
(cdataset.Book
Book
p1
c__builtin__
object
p2
Ntp3
Rp4
(dp5
S'content_name'
p6
V24035.txt.utf-8
p7
sS'isbn'
p8
NsS'year'
p9
I1959
sS'author_name'
p10
VMurray Leinster
p11
sS'images_urls'
p12
(lp13
Vhttp://www.gutenberg.org/files/24035/24035-h/images/cover.jpg
p14
aVhttp://www.gutenberg.org/files/24035/24035-h/images/image-4.png
p15
aVhttp://www.gutenberg.org/files/24035/24035-h/images/image-5.png
p16
aVhttp://www.gutenberg.org/files/24035/24035-h/images/image-6.png
p17
aVhttp://www.gutenberg.org/files/24035/24035-h/images/image-7.png
p18
aVhttp://www.gutenberg.org/files/24035/24035-h/images/image-8.png
p19
aVhttp://www.gutenberg.org/files/24035/24035-h/images/image-9.png
p20
aVhttp://www.gutenberg.org/files/24035/24035-h/images/image-10.png
p21
aVhttp://www.gutenberg.org/files/24035/24035-h/images/image-11.png
p22
aVhttp://www.gutenberg.org/files/24035/24035-h/images/image-12.png
p23
aVhttp://www.gutenberg.org/files/24035/24035-h/images/image-13.png
p24
aVhttp://www.gutenberg.org/files/24035/24035-h/images/image-14.png
p25
aVhttp://www.gutenberg.org/files/24035/24035-h/images/image-15.png
p26
aVhttp://www.gutenberg.org/files/24035/24035-h/images/title.png
p27
asS'language_code'
p28
Veng
p29
sS'images'
p30
(lp31
Vhttps://upload.wikimedia.org/wikipedia/en/c/cc/The_Pirates_of_Zan.jpg
p32
asS'id'
p33
I179
sS'category'
p34
VText
p35
sS'plot'
p36
NsS'genres'
p37
(lp38
sS'copyright'
p39
VPublic domain in the USA.
p40
sS'title'
p41
VThe Pirates of Ersatz
p42
sS'wikipedia'
p43
(dp44
S'url'
p45
S'https://en.wikipedia.org/wiki/The_Pirates_of_Zan'
p46
sS'found'
p47
I01
sS'year'
p48
I-1
ssS'published_in'
p49
NsS'average_rating'
p50
F3.63
sS'rating_count'
p51
I84
sS'publisher_in'
p52
NsS'content_available'
p53
I01
sS'cover_art_url'
p54
S'http://www.gutenberg.org/cache/epub/24035/pg24035.cover.medium.jpg'
p55
sS'goodreads'
p56
(dp57
g45
Vhttps://www.goodreads.com/book/show/358766.The_Pirates_of_Ersatz
p58
sg47
I01
sg48
I1959
ssS'similar_books'
p59
(lp60
VThe Whole Man
p61
aVThe Enemy Stars
p62
aVThe Planet Buyer
p63
aVBrain Twister
p64
aVDay of the Minotaur
p65
aVWho?
p66
aVDavy
p67
aVThe Butterfly Kid
p68
aVDark Universe
p69
aVImmortality, Inc.
p70
aVStar Light
p71
aVPlanet of the Damned
p72
aVThorns
p73
aVThe Ragged Astronauts (Land and Overland Series, #1)
p74
aVTime Is the Simplest Thing
p75
aVPast Master
p76
aVVenus Plus X
p77
aVCourtship Rite
p78
asS'description'
p79
VBron is the offspring of infamous space pirates but instead of following in the family footsteps he decides to become an electronic engineer. Unfortunately, every time he tries to get out, something pulls him back in. This is a tongue-in-cheek space adventure along the lines of the Stainless Steel Rat by Harry Harrison. It was originally published in the FEB-APR issues of Astounding Science Fiction in 1959. <br />(Read by Elliott Miller)<br /><br />Approx. 6.25 hours
p80
sS'format'
p81
VAudiobook
p82
sS'gutenberg'
p83
(dp84
g45
Vhttp://www.gutenberg.org/ebooks/24035
p85
sS'num'
p86
I24035
ssS'authors'
p87
(lp88
I61
asS'publisher'
p89
NsS'isbn13'
p90
NsS'language'
p91
VEnglish
p92
sS'countries'
p93
(lp94
I2
asS'release_date'
p95
S'2007-12-26T00:00:00'
p96
sS'author'
p97
I61
sS'original_title'
p98
VThe Pirates of Zan
p99
sS'summary'
p100
VThe Pirates of Zan is a science fiction novel by Murray Leinster, originally serialized in Astounding Science Fiction in 1959 as "The Pirates of Ersatz". It was nominated for the 1960 Hugo Award for Best Novel. It first appeared in book form in 1959 as one component of an Ace Double, bound with Leinster's The Mutant Weapon; this edition was reissued in 1971. A German translation was issued in hardcover in 1962, an Italian translation appeared in 1968, and a Dutch translation was published in 1972. Bart Books published a stand-alone American paperback edition in 1989. and Baen Books included Pirates in a Leinster omnibus, A Logic Named Joe, in 2005.
p101
sS'content_cleaned'
p102
I01
sS'classes'
p103
(lp104
Vto-read
p105
aVscience-fiction
p106
aVsci-fi
p107
aVsf
p108
aVfiction
p109
aVscifi
p110
aVadventure
p111
aVpirates
p112
aVowned
p113
aVhugo-nominees
p114
aVhugo-award
p115
aVcurrently-reading
p116
aVto-read-sf
p117
aVaudiobooks
p118
aVhugo-award-nominees
p119
aVscience-fiction-fantasy
p120
aVfavorites
p121
aVlibrary
p122
aVfantasy-sf
p123
aVhugo-nominee
p124
aVnot-read
p125
aVhugo-award-nominee
p126
aVabandoned
p127
aV00-to-read-01
p128
aVridderhof-sf
p129
aVfantasy-scifi
p130
aV20th-century-lit
p131
aVshelf-l-authors
p132
aVgenre-syfi-fan-horr
p133
aVmurray-leinster-science-fiction-au
p134
aVebooks
p135
aVsff-to-read
p136
aVkindle-bookshelf
p137
aVspec-fic-sci-fi-space-opera
p138
aVspec-fic-sci-fi-planetary-romance
p139
aVhugo-nebula-plus-nominations
p140
aVto-read-sci-fi
p141
aVhumor
p142
aV02sftr
p143
aVdone
p144
aVhugo-nebula-nominees
p145
aVargonauta
p146
aVpg
p147
aVaward-winning-or-nominated
p148
aVmight-read
p149
aVhugo-nominee-1960
p150
aVrecommended-reading
p151
aVfeatured
p152
aVscience-fiction-space-opera
p153
aVto-be-verified
p154
aVnovella-novelette
p155
aVhumor-and-comedy
p156
aVnovels
p157
aVbooks-i-own
p158
aVhugo-nominated
p159
aVpapernl
p160
aVhugo-queue
p161
aVhugo
p162
aVactual-sci-fi
p163
aVto-read-on-kindle
p164
aVsf-nominees
p165
aVfrom-tbr
p166
aV100-200
p167
aVreviewed
p168
aVcollected-work
p169
aVclassics
p170
aVhugo-nebula
p171
aVspec-fic-sci-fi
p172
aVspec-fic-awd-hugo-nom
p173
aVspec-fic
p174
aVscience-fic-fantasy
p175
aVclassic
p176
aVawait-ebook-edition
p177
aVto-mull-over
p178
aVhugo-novel-finalist
p179
aVei-suom
p180
aVto-read-2e-sf-d
p181
aVenglish
p182
aVto-read-2-en-sf
p183
aVhugo-winners
p184
aVh
p185
aVc2-f-en
p186
aVyear-1959
p187
aVunread
p188
aVthree-stars
p189
aVrecommended
p190
aVread-in-2010
p191
aVread-as-an-adult
p192
aVpre-1982-read
p193
aVhugo_finalist
p194
aVhugo-winners-nominees
p195
aVaudio
p196
aV_-have-in-mag
p197
aV2011-past-sff-awards
p198
aVz-hugo-nominee
p199
aVpublic-domain-science-fiction
p200
aVgolden-age-science-fiction
p201
aVhugo-awards
p202
aV2013-completed
p203
aVsave-for-later
p204
asS'loc_class'
p205
VPS: Language and Literatures: American and Canadian literature
p206
sS'cover_artist'
p207
NsS'n_authors'
p208
I1
sb.