ccopy_reg
_reconstructor
p0
(cdataset.Book
Book
p1
c__builtin__
object
p2
Ntp3
Rp4
(dp5
S'content_name'
p6
V27013.txt.utf-8
p7
sS'isbn'
p8
V1604596686
p9
sS'year'
p10
I1932
sS'author_name'
p11
VClifford D. Simak
p12
sS'images_urls'
p13
(lp14
Vhttp://www.gutenberg.org/files/27013/27013-h/images/001.png
p15
aVhttp://www.gutenberg.org/files/27013/27013-page-images/f0001.png
p16
aVhttp://www.gutenberg.org/files/27013/27013-page-images/p0037.png
p17
aVhttp://www.gutenberg.org/files/27013/27013-page-images/p0038.png
p18
aVhttp://www.gutenberg.org/files/27013/27013-page-images/p0039.png
p19
aVhttp://www.gutenberg.org/files/27013/27013-page-images/p0040.png
p20
aVhttp://www.gutenberg.org/files/27013/27013-page-images/p0041.png
p21
aVhttp://www.gutenberg.org/files/27013/27013-page-images/p0042.png
p22
aVhttp://www.gutenberg.org/files/27013/27013-page-images/p0043.png
p23
aVhttp://www.gutenberg.org/files/27013/27013-page-images/p0044.png
p24
aVhttp://www.gutenberg.org/files/27013/27013-page-images/p0045.png
p25
aVhttp://www.gutenberg.org/files/27013/27013-page-images/p0046.png
p26
aVhttp://www.gutenberg.org/files/27013/27013-page-images/p0047.png
p27
aVhttp://www.gutenberg.org/files/27013/27013-page-images/p0048.png
p28
aVhttp://www.gutenberg.org/files/27013/27013-page-images/p0049.png
p29
aVhttp://www.gutenberg.org/files/27013/27013-page-images/p0050.png
p30
aVhttp://www.gutenberg.org/files/27013/27013-page-images/p0051.png
p31
aVhttp://www.gutenberg.org/files/27013/27013-page-images/p0052.png
p32
aVhttp://www.gutenberg.org/files/27013/27013-page-images/p0053.png
p33
asS'language_code'
p34
Veng
p35
sS'images'
p36
(lp37
sS'id'
p38
I203
sS'category'
p39
VText
p40
sS'genres'
p41
(lp42
sS'copyright'
p43
VPublic domain in the USA.
p44
sS'title'
p45
VHellhounds of the Cosmos
p46
sS'wikipedia'
p47
(dp48
S'found'
p49
I00
ssS'average_rating'
p50
F3.26
sS'rating_count'
p51
I75
sS'content_available'
p52
I01
sS'goodreads'
p53
(dp54
S'url'
p55
Vhttps://www.goodreads.com/book/show/6357069-hellhounds-of-the-cosmos
p56
sg49
I01
sS'year'
p57
I1932
ssS'similar_books'
p58
(lp59
sS'description'
p60
VThe paper had gone to press, graphically describing the latest of the many horrible events which had been enacted upon the Earth in the last six months. The headlines screamed that Six Corners, a little hamlet in Pennsylvania, had been wiped out by the Horror. Another front-page story told of a Terror in the Amazon Valley which had sent the natives down the river in babbling fear. Other stories told of deaths here and there, all attributable to the "Black Horror," as it was called.
p61
sS'gutenberg'
p62
(dp63
g55
Vhttp://www.gutenberg.org/ebooks/27013
p64
sS'num'
p65
I27013
ssS'authors'
p66
(lp67
I56
asS'pages'
p68
I52
sS'isbn13'
p69
V9781604596687
p70
sS'language'
p71
VEnglish
p72
sS'countries'
p73
(lp74
I2
asS'release_date'
p75
S'2008-10-24T00:00:00'
p76
sS'author'
p77
I56
sS'cover'
p78
Vhttps://s.gr-assets.com/assets/nophoto/book/111x148-bcc042a9c91a29c1d680899eff700a03.png
p79
sS'content_cleaned'
p80
I01
sS'classes'
p81
(lp82
Vto-read
p83
aVcurrently-reading
p84
aVscience-fiction
p85
aVsci-fi
p86
aVshort-story
p87
aVkindle
p88
aVsf
p89
aVshort-stories
p90
aVaudiobook
p91
aVaudiobooks-to-read
p92
aVowned-ebooks-unread
p93
aVno-audiobook-available
p94
aVapple-not-read
p95
aVscience-fiction-fantasy
p96
aVfun-and-quick
p97
aVowned
p98
aVfiction
p99
aV1-cloud
p100
aVdigital-copy
p101
aVclassic-sci-fi
p102
aVsci-fi-classics
p103
aVaudiobooks
p104
aVowned-pending-kindle-free-ebook
p105
aVkindle-free-ebook
p106
aVtbr
p107
aVend-of-the-world
p108
aValternate-dimensions
p109
aV4th-dimension
p110
aVebook
p111
aVcalibre
p112
aV15
p113
aVliterature-20th-century
p114
aVaudio-obtained
p115
aVfantasy
p116
aVfeedbooks-com
p117
aVcailbre
p118
aVsci-fi-or-speculative
p119
aVsyfy
p120
aVscience-ficton
p121
aVscience-fiction-times
p122
aVqueued
p123
aVdonated
p124
aVtranshumanism
p125
aVsoft_sci-fi
p126
aVlovecraftian
p127
aVgrotesque
p128
aVsci-fic
p129
aValternate-worlds
p130
aVpat-free-books-owned
p131
aVowned-to-read
p132
aVsearching-for
p133
aVscifi
p134
aVspeculative-fiction
p135
aVnovelette
p136
aVtype-short-story
p137
aVaudio-obtained-ss
p138
aVneed-to-get-2
p139
aVto-read-owned
p140
asS'loc_class'
p141
VPS: Language and Literatures: American and Canadian literature
p142
sS'n_authors'
p143
I1
sb.