ccopy_reg
_reconstructor
p0
(cdataset.Book
Book
p1
c__builtin__
object
p2
Ntp3
Rp4
(dp5
S'content_name'
p6
V39572.txt.utf-8
p7
sS'isbn'
p8
V1882968204
p9
sS'year'
p10
I1953
sS'author_name'
p11
VEdgar Pangborn
p12
sS'images_urls'
p13
(lp14
Vhttp://www.gutenberg.org/files/39572/39572-h/images/image_01.jpg
p15
aVhttp://www.gutenberg.org/files/39572/39572-h/images/image_02.jpg
p16
aVhttp://www.gutenberg.org/files/39572/39572-h/images/image_03.jpg
p17
aVhttp://www.gutenberg.org/files/39572/39572-h/images/image_04.jpg
p18
asS'language_code'
p19
Veng
p20
sS'images'
p21
(lp22
sS'id'
p23
I407
sS'category'
p24
VText
p25
sS'genres'
p26
(lp27
sS'copyright'
p28
VPublic domain in the USA.
p29
sS'title'
p30
VWest Of The Sun
p31
sS'wikipedia'
p32
(dp33
S'found'
p34
I00
ssS'average_rating'
p35
F3.87
sS'rating_count'
p36
I55
sS'content_available'
p37
I01
sS'goodreads'
p38
(dp39
S'url'
p40
S'https://www.goodreads.com/book/show/920964.West_of_the_Sun'
p41
sS'found'
p42
I01
ssS'similar_books'
p43
(lp44
sS'description'
p45
VAfter eleven years in space, the Argo landed... West of the Sun ...on the dangerous, unknown planet Lucifer. The crew faced an untamed world of huge, carnivorous birds with wolverine heads and flashing black teeth; furred, ten-foot-tall men; &amp; red-skinned, man-eating pygmies. They fought for mere survival, but\u2014their duty was to colonize and populate the planet\u2014four men and only two women.
p46
sS'gutenberg'
p47
(dp48
S'url'
p49
Vhttp://www.gutenberg.org/ebooks/39572
p50
sS'num'
p51
I39572
ssS'authors'
p52
(lp53
I132
asS'pages'
p54
I242
sS'isbn13'
p55
V9781882968206
p56
sS'language'
p57
VEnglish
p58
sS'countries'
p59
(lp60
I2
asS'release_date'
p61
S'2012-04-29T00:00:00'
p62
sS'author'
p63
I132
sS'cover'
p64
Vhttps://s.gr-assets.com/assets/nophoto/book/111x148-bcc042a9c91a29c1d680899eff700a03.png
p65
sS'content_cleaned'
p66
I01
sS'classes'
p67
(lp68
Vto-read
p69
aVscience-fiction
p70
aVcurrently-reading
p71
aVsf
p72
aVfiction
p73
aVsci-fi
p74
aVdefault
p75
aVsci-fi-fantasy
p76
aVsold
p77
aVpartially-read
p78
aVlibrary
p79
aVgenre-sci-fi
p80
aV1-own
p81
aVabenteuer
p82
aVkindle
p83
aVnew
p84
aVhard-copy-books-at-home
p85
aVscif-fi
p86
aVebook-kindle-own
p87
aVavailable
p88
aVunfiled-new-acqs
p89
aVother
p90
aVksr
p91
aVbin-010
p92
aVscifi-mod
p93
aVowned
p94
aVmy-kindle
p95
aV00000src-w-10-8-eginnpu
p96
aVscifi-all
p97
aVabandoned
p98
aVsf-fantasy
p99
aVurania
p100
aVlibr-bianca-camera
p101
aVfantascienza
p102
aVadded-060113-083113
p103
aV00000src-s-25-12-5-inits
p104
aV00000src-s-25-11-3-inits
p105
aVbegun-but-set-aside
p106
aV00000src-s-25-01-1-directions
p107
aVtaggare
p108
aVout-of-print-or-hard-to-find
p109
aVe3
p110
aV000000srcs-30-04-s1-springtime
p111
aVscience-fiction-times
p112
aVpaperback
p113
aVtype_fiction
p114
aVscifi
p115
aVpub_post-1945
p116
aValready-own
p117
aVp
p118
aVgiant-creatures
p119
aVcannibals
p120
aVadventure
p121
aV0000srcu-15-03-left
p122
aVyear-1953
p123
aVlibrary-1
p124
aVsf-kindle
p125
aVhd
p126
aVapocalyptic-fiction
p127
aVe-books
p128
aVread-for-mt-tbr-challenge
p129
aVshort-list
p130
aVebook
p131
aVscience
p132
aVcontact
p133
aVfirst
p134
aVafterthefall
p135
aVworldbuilders
p136
aVcurious
p137
aVtbr-mountain
p138
aVbooks-i-own
p139
aVunsorted-collection
p140
aVscifi-fantasy
p141
aVevaluated-no
p142
aVscifi-classic
p143
aV0000src-w-10-08-eginnpu
p144
aV0000src-s-25-12-5-inits
p145
aV0000src-s-25-11-3-inits
p146
aVword-in-title-lefthanded
p147
aV0000srcs-30-04-s1-springtime
p148
aVread-for-mt-tbr-challenges
p149
aVmt-tbr-owned
p150
aVto-read-owned
p151
asS'loc_class'
p152
VPS: Language and Literatures: American and Canadian literature
p153
sS'n_authors'
p154
I1
sb.