ccopy_reg
_reconstructor
p0
(cdataset.Book
Book
p1
c__builtin__
object
p2
Ntp3
Rp4
(dp5
S'content_name'
p6
V24302.txt.utf-8
p7
sS'isbn'
p8
NsS'year'
p9
I2008
sS'author_name'
p10
VRandall Garrett
p11
sS'images_urls'
p12
(lp13
Vhttp://www.gutenberg.org/files/24302/24302-h/images/001.jpg
p14
aVhttp://www.gutenberg.org/files/24302/24302-h/images/002.jpg
p15
aVhttp://www.gutenberg.org/files/24302/24302-h/images/003.jpg
p16
aVhttp://www.gutenberg.org/files/24302/24302-h/images/004.jpg
p17
aVhttp://www.gutenberg.org/files/24302/24302-h/images/005.jpg
p18
aVhttp://www.gutenberg.org/files/24302/24302-h/images/T.jpg
p19
aVhttp://www.gutenberg.org/files/24302/24302-h/images/cover.jpg
p20
asS'language_code'
p21
Veng
p22
sS'images'
p23
(lp24
sS'id'
p25
I401
sS'category'
p26
VText
p27
sS'genres'
p28
(lp29
sS'copyright'
p30
VPublic domain in the USA.
p31
sS'title'
p32
VThe Highest Treason
p33
sS'wikipedia'
p34
(dp35
S'found'
p36
I00
ssS'average_rating'
p37
F3.65
sS'rating_count'
p38
I29
sS'content_available'
p39
I01
sS'cover_art_url'
p40
S'http://www.gutenberg.org/cache/epub/24302/pg24302.cover.medium.jpg'
p41
sS'goodreads'
p42
(dp43
S'url'
p44
Vhttps://www.goodreads.com/book/show/6597732-the-highest-treason
p45
sg36
I01
sS'year'
p46
I2008
ssS'similar_books'
p47
(lp48
sS'description'
p49
VTRAITOR TO THE HUMAN RACE<br /><br />It was a space war on a massive scale against an alien enemy sworn to enslave mankind on Earth and all its colonies . . .<br /><br />But mankind's society had grown weak, forgetting the key component that had made it reach for the stars in the first place.<br /><br />Now it was mired in a bland, homogenized, politically-correct mess, bankrupt of values.<br /><br />Sebastian MacMaine, a master strategist, abandoned the Earth Empire to work for the Kerothi and their alien space fleets. His was the most startling mission in human history.<br /><br />His tactics?<br /><br />Ruthless.<br /><br />*<br /><br />Here is a shocking story of thrilling space battles. It is political and philosophical science fiction that you will never forget, by a master of the form.
p50
sS'format'
p51
NsS'gutenberg'
p52
(dp53
g44
Vhttp://www.gutenberg.org/ebooks/24302
p54
sS'num'
p55
I24302
ssS'authors'
p56
(lp57
I49
asS'isbn13'
p58
NsS'language'
p59
VEnglish
p60
sS'countries'
p61
(lp62
I2
asS'release_date'
p63
S'2008-01-15T00:00:00'
p64
sS'author'
p65
I49
sS'content_cleaned'
p66
I01
sS'classes'
p67
(lp68
Vto-read
p69
aVscience-fiction
p70
aVlibrivox
p71
aVfiction
p72
aVsci-fi
p73
aV21st-century-lit
p74
aVpartial
p75
aVclassics
p76
aVshort-stories
p77
aVaudiobooks
p78
aVcurrently-reading
p79
aVown-audiobook
p80
aVshelfari-fiction
p81
aVshelfari-english
p82
aVshelfari-e-book
p83
aVspace-travel
p84
aVliterature-20th-century
p85
aVestados-unidos
p86
aVtvtropes-read
p87
aVreviewed
p88
aVcleanreads
p89
aVfeedbooks-com
p90
aVshort-story
p91
aVmilitary-sf
p92
aVdystopia
p93
aValien-invasion
p94
aVwar
p95
aVstories
p96
aVscience
p97
aVfixme
p98
aVsf
p99
aVfixme-pages
p100
asS'loc_class'
p101
VPS: Language and Literatures: American and Canadian literature
p102
sS'n_authors'
p103
I1
sb.