ccopy_reg
_reconstructor
p0
(cdataset.Book
Book
p1
c__builtin__
object
p2
Ntp3
Rp4
(dp5
S'similar_books'
p6
(lp7
sS'genres'
p8
(lp9
sS'author'
p10
I302
sS'countries'
p11
(lp12
I2
asS'year'
p13
I1958
sS'title'
p14
VGalaxy Magazine May 1958
p15
sS'cover'
p16
Vhttps://ia600201.us.archive.org/BookReader/BookReaderImages.php?zip=/11/items/Galaxy_v16n01_1958-05/Galaxy_v16n01_1958-05_jp2.zip&file=Galaxy_v16n01_1958-05_jp2/Galaxy_v16n01_1958-05_0000.jp2&scale=0&rotate=0
p17
sS'cover_art'
p18
S'http://www.isfdb.org/wiki/images/6/62/MLO4450.jpg'
p19
sS'author_name'
p20
VGalaxy Magazine
p21
sS'images_urls'
p22
(lp23
sS'authors'
p24
(lp25
I506
aI533
aI419
aI525
aI519
aI305
aI339
aI326
aI483
aI498
aI50
aI514
aI487
aI217
aI302
asS'images'
p26
(lp27
sS'id'
p28
I1063
sS'contents'
p29
(lp30
(dp31
g10
I506
sg14
VNever Come Midnight
p32
sa(dp33
g10
I506
sg14
VNever Come Midnight [2]
p34
sa(dp35
g10
I506
sg14
VNever Come Midnight [3]
p36
sa(dp37
g10
I533
sg14
VOr All the Seas with Oysters
p38
sa(dp39
g10
I419
sg14
VPick a Crime
p40
sa(dp41
g10
I506
sg14
VBridle Shower
p42
sa(dp43
g10
I506
sg14
VBridle Shower [2]
p44
sa(dp45
g10
I506
sg14
VBridle Shower [3]
p46
sa(dp47
g10
I525
sg14
VThe Voice of the Diaphragm
p48
sa(dp49
g10
I519
sg14
VThe Iron Chancellor
p50
sa(dp51
g10
I519
sg14
VThe Iron Chancellor [2]
p52
sa(dp53
g10
I305
sg14
VFun 4 1 &Amp; All
p54
sa(dp55
g10
I339
sg14
VFor Your Information: Remnants of the Sarmatian Sea
p56
sa(dp57
g10
I326
sg14
VForecast (Galaxy, May 1958)
p58
sa(dp59
g10
I483
sg14
VGalaxy's 5 Star Shelf (Galaxy, May 1958)
p60
sa(dp61
g10
I498
sg14
VBridle Shower
p62
sa(dp63
g10
I50
sg14
VThe Iron Chancellor
p64
sa(dp65
g10
I305
sg14
VNever Come Midnight
p66
sa(dp67
g10
I514
sg14
VOr All the Seas with Oysters
p68
sa(dp69
g10
I487
sg14
VPick a Crime
p70
sa(dp71
g10
I217
sg14
VThe Voice of the Diaphragm
p72
sasb.