ccopy_reg
_reconstructor
p0
(cdataset.Book
Book
p1
c__builtin__
object
p2
Ntp3
Rp4
(dp5
S'content_name'
p6
V22881.txt.utf-8
p7
sS'isbn'
p8
NsS'year'
p9
I1963
sS'author_name'
p10
S'Alan E Nourse'
p11
sS'images_urls'
p12
(lp13
Vhttp://www.gutenberg.org/files/22881/22881-page-images/p106.png
p14
aVhttp://www.gutenberg.org/files/22881/22881-page-images/p107.png
p15
aVhttp://www.gutenberg.org/files/22881/22881-page-images/p108.png
p16
aVhttp://www.gutenberg.org/files/22881/22881-page-images/p109.png
p17
aVhttp://www.gutenberg.org/files/22881/22881-page-images/p110.png
p18
aVhttp://www.gutenberg.org/files/22881/22881-page-images/p111.png
p19
aVhttp://www.gutenberg.org/files/22881/22881-page-images/p112.png
p20
aVhttp://www.gutenberg.org/files/22881/22881-page-images/p113.png
p21
aVhttp://www.gutenberg.org/files/22881/22881-page-images/p114.png
p22
aVhttp://www.gutenberg.org/files/22881/22881-page-images/p115.png
p23
aVhttp://www.gutenberg.org/files/22881/22881-page-images/p116.png
p24
aVhttp://www.gutenberg.org/files/22881/22881-page-images/p117.png
p25
asS'language_code'
p26
NsS'id'
p27
I902
sS'category'
p28
VText
p29
sS'genres'
p30
(lp31
sS'copyright'
p32
VPublic domain in the USA.
p33
sS'title'
p34
VMy Friend Bobby
p35
sS'wikipedia'
p36
(dp37
S'found'
p38
I00
ssS'average_rating'
p39
F3.0
sS'rating_count'
p40
I8
sS'content_available'
p41
I01
sS'goodreads'
p42
(dp43
S'url'
p44
Vhttps://www.goodreads.com/book/show/9113639-my-friend-bobby
p45
sS'found'
p46
I01
sS'year'
p47
I1963
ssS'similar_books'
p48
(lp49
sS'description'
p50
NsS'gutenberg'
p51
(dp52
g44
Vhttp://www.gutenberg.org/ebooks/22881
p53
sS'num'
p54
I22881
ssS'authors'
p55
(lp56
I108
asS'isbn13'
p57
NsS'language'
p58
VEnglish
p59
sS'countries'
p60
(lp61
I2
asS'release_date'
p62
S'2007-10-03T00:00:00'
p63
sS'author'
p64
I108
sS'content_cleaned'
p65
I01
sS'classes'
p66
(lp67
Vto-read
p68
aVrandoms
p69
aVshort-story
p70
aV14
p71
aValan-e-nourse
p72
aVtype-short-story
p73
aVscience-fiction
p74
asS'loc_class'
p75
VPS: Language and Literatures: American and Canadian literature
p76
sS'n_authors'
p77
I1
sb.