ccopy_reg
_reconstructor
p0
(cdataset.Book
Book
p1
c__builtin__
object
p2
Ntp3
Rp4
(dp5
S'similar_books'
p6
(lp7
sS'genres'
p8
(lp9
sS'author'
p10
I302
sS'countries'
p11
(lp12
I2
asS'year'
p13
I1957
sS'title'
p14
VGalaxy Magazine October 1957
p15
sS'cover'
p16
Vhttps://ia600202.us.archive.org/BookReader/BookReaderImages.php?zip=/25/items/Galaxy_v14n06_1957-10/Galaxy_v14n06_1957-10_jp2.zip&file=Galaxy_v14n06_1957-10_jp2/Galaxy_v14n06_1957-10_0000.jp2&scale=0&rotate=0
p17
sS'cover_art'
p18
S'http://www.isfdb.org/wiki/images/9/9d/MLO4442.jpg'
p19
sS'author_name'
p20
VGalaxy Magazine
p21
sS'images_urls'
p22
(lp23
sS'authors'
p24
(lp25
I519
aI506
aI419
aI305
aI326
aI339
aI483
aI521
aI522
aI23
aI3
aI40
aI220
aI315
aI302
asS'images'
p26
(lp27
sS'id'
p28
I1056
sS'contents'
p29
(lp30
(dp31
g10
I519
sg14
VWolfbane (Part 1 of 2)
p32
sa(dp33
g10
I519
sg14
VWolfbane (Part 1 of 2) [2]
p34
sa(dp35
g10
I519
sg14
VWolfbane (Part 1 of 2) [3]
p36
sa(dp37
g10
I506
sg14
VShare Alike
p38
sa(dp39
g10
I506
sg14
VDouble Indemnity
p40
sa(dp41
g10
I506
sg14
VDouble Indemnity [2]
p42
sa(dp43
g10
I506
sg14
VDouble Indemnity [3]
p44
sa(dp45
g10
I419
sg14
VRobots Are Nice?
p46
sa(dp47
g10
I419
sg14
VIdeas Die Hard
p48
sa(dp49
g10
I419
sg14
VIdeas Die Hard [2]
p50
sa(dp51
g10
I305
sg14
VThe Richest Planet
p52
sa(dp53
g10
I326
sg14
VForecast (Galaxy, October 1957)
p54
sa(dp55
g10
I339
sg14
VFor Your Information: Hunting Down the Dodo
p56
sa(dp57
g10
I483
sg14
VGalaxy's 5 Star Shelf (Galaxy, October 1957)
p58
sa(dp59
g10
I521
sg14
VReview of the Nonfiction Work "the Underwater World"
p60
sa(dp61
g10
I522
sg14
VReview of the Nonfiction Work "the Pocket Guide to the Underwater World"
p62
sa(dp63
g10
I483
sg14
VReview of the Nonfiction Work "the Galathea Deep Sea Expedition"
p64
sa(dp65
g10
I23
sg14
VDouble Indemnity
p66
sa(dp67
g10
I3
sg14
VIdeas Die Hard
p68
sa(dp69
g10
I40
sg14
VWolfbane (Part 1 of 2)
p70
sa(dp71
g10
I220
sg14
VShare Alike
p72
sa(dp73
g10
I315
sg14
VRobots Are Nice?
p74
sasb.