ccopy_reg
_reconstructor
p0
(cdataset.Book
Book
p1
c__builtin__
object
p2
Ntp3
Rp4
(dp5
S'similar_books'
p6
(lp7
sS'genres'
p8
(lp9
sS'author'
p10
I302
sS'countries'
p11
(lp12
I2
asS'year'
p13
I1977
sS'title'
p14
VGalaxy Magazine April 1977
p15
sS'cover'
p16
Vhttps://ia601307.us.archive.org/BookReader/BookReaderImages.php?zip=/2/items/Galaxy_v38n02_1977-04/Galaxy_v38n02_1977-04_jp2.zip&file=Galaxy_v38n02_1977-04_jp2/Galaxy_v38n02_1977-04_0000.jp2&scale=0&rotate=0
p17
sS'cover_art'
p18
S'http://www.isfdb.org/wiki/images/d/d1/GALAPR77.jpg'
p19
sS'author_name'
p20
VGalaxy Magazine
p21
sS'images_urls'
p22
(lp23
sS'authors'
p24
(lp25
I778
aI499
aI742
aI806
aI734
aI326
aI770
aI772
aI741
aI816
aI817
aI302
asS'images'
p26
(lp27
sS'id'
p28
I1199
sS'contents'
p29
(lp30
(dp31
S'title'
p32
VSun-Planet
p33
sS'author'
p34
I778
sa(dp35
g32
VSun-Planet [2]
p36
sg34
I778
sa(dp37
g32
VSun-Planet [3]
p38
sg34
I778
sa(dp39
g32
VSun-Planet [4]
p40
sg34
I778
sa(dp41
g32
VKin to Kaspar Hauser
p42
sg34
I499
sa(dp43
g32
VKin to Kaspar Hauser [2]
p44
sg34
I499
sa(dp45
g32
VPassport for a Phoenix
p46
sg34
I742
sa(dp47
g32
VPassport for a Phoenix [2]
p48
sg34
I742
sa(dp49
g32
VNight Runners
p50
sg34
I742
sa(dp51
g32
VNight Runners [2]
p52
sg34
I742
sa(dp53
g32
VNight Runners [3]
p54
sg34
I742
sa(dp55
g32
VWhat Song the Sirens Sang
p56
sg34
I806
sa(dp57
g32
VWhat Song the Sirens Sang [2]
p58
sg34
I806
sa(dp59
g32
VShowcase (Galaxy, April 1977)
p60
sg34
I742
sa(dp61
g32
VThat Beautiful Gooney Bird
p62
sg34
I734
sa(dp63
g32
VStatement of Ownership (Galaxy, April 1977) (Circulation: 52,831)
p64
sg34
I326
sa(dp65
g32
VGalaxy Bookshelf (Galaxy, April 1977)
p66
sg34
I770
sa(dp67
g32
VDirections (Galaxy, April 1977)
p68
sg34
I326
sa(dp69
g32
VKin to Kaspar Hauser
p70
sg34
I772
sa(dp71
g32
VPassport for a Phoenix
p72
sg34
I741
sa(dp73
g32
VNight Runners
p74
sg34
I816
sa(dp75
g32
VWhat Song the Sirens Sang
p76
sg34
I817
sasb.