ccopy_reg
_reconstructor
p0
(cdataset.Book
Book
p1
c__builtin__
object
p2
Ntp3
Rp4
(dp5
S'content_name'
p6
V1353.txt.utf-8
p7
sS'isbn'
p8
V1548752614
p9
sS'year'
p10
I-1
sS'author_name'
p11
VJules Verne
p12
sS'images_urls'
p13
(lp14
sS'language_code'
p15
NsS'images'
p16
(lp17
sS'id'
p18
I112
sS'category'
p19
VText
p20
sS'genres'
p21
(lp22
sS'copyright'
p23
VPublic domain in the USA.
p24
sS'title'
p25
VOff on a Comet! a Journey through Planetary Space
p26
sS'wikipedia'
p27
(dp28
S'found'
p29
I00
ssS'average_rating'
p30
F0.0
sS'rating_count'
p31
I0
sS'content_available'
p32
I01
sS'goodreads'
p33
(dp34
S'url'
p35
Vhttps://www.goodreads.com/book/show/35745162-off-on-a-comet-a-journey-through-planetary-space
p36
sg29
I01
sS'year'
p37
I-1
ssS'similar_books'
p38
(lp39
sS'description'
p40
VOff on a Comet! a Journey through Planetary Space By Jules Verne
p41
sS'format'
p42
VPaperback
p43
sS'gutenberg'
p44
(dp45
g35
Vhttp://www.gutenberg.org/ebooks/1353
p46
sS'num'
p47
I1353
ssS'authors'
p48
(lp49
I6
asS'isbn13'
p50
V9781548752613
p51
sS'language'
p52
VEnglish
p53
sS'release_date'
p54
S'1998-06-01T00:00:00'
p55
sS'author'
p56
I6
sS'content_cleaned'
p57
I00
sS'classes'
p58
(lp59
sS'loc_class'
p60
VPQ: Language and Literatures: Romance literatures: French, Italian, Spanish, Portuguese
p61
sS'n_authors'
p62
I1
sb.