ccopy_reg
_reconstructor
p0
(cdataset.Book
Book
p1
c__builtin__
object
p2
Ntp3
Rp4
(dp5
S'content_name'
p6
V24965.txt.utf-8
p7
sS'isbn'
p8
NsS'year'
p9
I2014
sS'author_name'
p10
VWinston K. Marks
p11
sS'images_urls'
p12
(lp13
Vhttp://www.gutenberg.org/files/24965/24965-h/images/001.png
p14
asS'language_code'
p15
NsS'images'
p16
(lp17
sS'id'
p18
I810
sS'category'
p19
VText
p20
sS'genres'
p21
(lp22
sS'copyright'
p23
VPublic domain in the USA.
p24
sS'title'
p25
VThe Deadly Daughters
p26
sS'wikipedia'
p27
(dp28
S'found'
p29
I00
ssS'average_rating'
p30
F3.43
sS'rating_count'
p31
I77
sS'content_available'
p32
I01
sS'goodreads'
p33
(dp34
S'url'
p35
Vhttps://www.goodreads.com/book/show/23835504-the-deadly-daughter-in-law
p36
sg29
I01
sS'year'
p37
I2014
ssS'similar_books'
p38
(lp39
sS'description'
p40
NsS'format'
p41
NsS'gutenberg'
p42
(dp43
g35
Vhttp://www.gutenberg.org/ebooks/24965
p44
sS'num'
p45
I24965
ssS'authors'
p46
(lp47
I228
asS'isbn13'
p48
NsS'language'
p49
VEnglish
p50
sS'country'
p51
I3
sS'release_date'
p52
S'2008-03-30T00:00:00'
p53
sS'author'
p54
I228
sS'content_cleaned'
p55
I01
sS'classes'
p56
(lp57
Vcurrently-reading
p58
aVcrime-stories-murder
p59
aVdon-t-have-yet
p60
aVtrue-crime
p61
aVnotorious-usa
p62
aVjuly-2015
p63
aVc
p64
aV201507
p65
asS'loc_class'
p66
VPS: Language and Literatures: American and Canadian literature
p67
sS'n_authors'
p68
I1
sb.