ccopy_reg
_reconstructor
p0
(cdataset.Book
Book
p1
c__builtin__
object
p2
Ntp3
Rp4
(dp5
S'similar_books'
p6
(lp7
sS'genres'
p8
(lp9
sS'author'
p10
I302
sS'countries'
p11
(lp12
I2
asS'year'
p13
I1973
sS'title'
p14
VGalaxy Magazine July 1973
p15
sS'cover'
p16
Vhttps://ia601303.us.archive.org/BookReader/BookReaderImages.php?zip=/23/items/Galaxy_v33n07_1973-07/Galaxy_v33n07_1973-07_jp2.zip&file=Galaxy_v33n07_1973-07_jp2/Galaxy_v33n07_1973-07_0000.jp2&scale=0&rotate=0
p17
sS'cover_art'
p18
S'http://www.isfdb.org/wiki/images/8/89/GALJULAUG73.jpg'
p19
sS'author_name'
p20
VGalaxy Magazine
p21
sS'images_urls'
p22
(lp23
sS'authors'
p24
(lp25
I499
aI326
aI150
aI341
aI663
aI713
aI717
aI718
aI302
asS'images'
p26
(lp27
sS'id'
p28
I1164
sS'contents'
p29
(lp30
(dp31
g10
I499
sg14
VThe Doomsday Gene (Part 2 of 2)
p32
sa(dp33
g10
I326
sg14
VFrank Merriwell in the White House
p34
sa(dp35
g10
I499
sg14
VJust a Matter of Time
p36
sa(dp37
g10
I326
sg14
VA Voice and Bitter Weeping
p38
sa(dp39
g10
I499
sg14
VLuna One
p40
sa(dp41
g10
I150
sg14
VGalaxy Stars (Galaxy, July-August 1973)
p42
sa(dp43
g10
I341
sg14
VGalaxy Bookshelf (Galaxy, July-August 1973)
p44
sa(dp45
g10
I150
sg14
VFrank Merriwell in the White House
p46
sa(dp47
g10
I663
sg14
VLuna One
p48
sa(dp49
g10
I713
sg14
VThe Doomsday Gene (Part 2 of 2)
p50
sa(dp51
g10
I717
sg14
VJust a Matter of Time
p52
sa(dp53
g10
I718
sg14
VA Voice and Bitter Weeping
p54
sasb.