ccopy_reg
_reconstructor
p0
(cdataset.Book
Book
p1
c__builtin__
object
p2
Ntp3
Rp4
(dp5
S'content_name'
p6
V32847.txt.utf-8
p7
sS'isbn'
p8
V0545386985
p9
sS'year'
p10
I2013
sS'author_name'
p11
VEdmond Hamilton
p12
sS'images_urls'
p13
(lp14
Vhttp://www.gutenberg.org/files/32847/32847-h/images/cover.jpg
p15
aVhttp://www.gutenberg.org/files/32847/32847-h/images/illus.jpg
p16
asS'language_code'
p17
NsS'images'
p18
(lp19
sS'id'
p20
I251
sS'category'
p21
VText
p22
sS'genres'
p23
(lp24
sS'copyright'
p25
VPublic domain in the USA.
p26
sS'title'
p27
VThe Door into Infinity
p28
sS'wikipedia'
p29
(dp30
S'found'
p31
I00
ssS'average_rating'
p32
F4.03
sS'rating_count'
p33
I2219
sS'content_available'
p34
I01
sS'cover_art_url'
p35
S'http://www.gutenberg.org/cache/epub/32847/pg32847.cover.medium.jpg'
p36
sS'goodreads'
p37
(dp38
S'url'
p39
Vhttps://www.goodreads.com/book/show/13356176-the-trap-door
p40
sg31
I01
sS'year'
p41
I2013
ssS'similar_books'
p42
(lp43
VCurse of the Ancients (Infinity Ring #4)
p44
aVDivide and Conquer (Infinity Ring #2)
p45
aVCave of Wonders (Infinity Ring, #5)
p46
aVBehind Enemy Lines (Infinity Ring, #6)
p47
aVThe Iron Empire (Infinity Ring, #7)
p48
aVTrust No One (The 39 Clues: Cahills vs. Vespers, #5)
p49
aVThe Last Musketeer (The Last Musketeer, #1)
p50
aVSpymasters (The 39 Clues: The Cahill Files, #2-4)
p51
aVDay of Doom (The 39 Clues: Cahills vs. Vespers, #6)
p52
aVTime Pullers
p53
aVThe Pirate Kings (TimeRiders, #7)
p54
aVThe Triad of Finity (Oliver Nocturne, #6)
p55
aVLost Train of Thought (The Seems, #3)
p56
aVPotterwookiee (The Creature from My Closet, #2)
p57
aVThe Crimson Shard  (The Blackhope Enigma, #2)
p58
aVWill in Scarlet
p59
aVThe Cydonian Pyramid (The Klaatu Diskos, #2)
p60
aVShatterproof (The 39 Clues: Cahills vs. Vespers, #4)
p61
asS'description'
p62
VThe multi-platform adventure through time continues! Dak, Sera, and Riq return to the United States and walk immediately into a deadly trap. The year is 1850, and the nation is divided over the issue of slavery. In these dark days, the Underground Railroad provides a light of hope, helping runaway slaves escape to freedom. But the SQ has taken control of the Underground Railroad from within. Now Dak and Sera are left wondering who to trust... while Riq risks everything to save the life of a young boy.
p63
sS'format'
p64
VHardcover
p65
sS'gutenberg'
p66
(dp67
g39
Vhttp://www.gutenberg.org/ebooks/32847
p68
sS'num'
p69
I32847
ssS'authors'
p70
(lp71
I83
asS'pages'
p72
I192
sS'isbn13'
p73
V9780545386982
p74
sS'language'
p75
VEnglish
p76
sS'release_date'
p77
S'2010-06-17T00:00:00'
p78
sS'author'
p79
I83
sS'content_cleaned'
p80
I01
sS'classes'
p81
(lp82
Vto-read
p83
aVscience-fiction
p84
aVinfinity-ring
p85
aVcurrently-reading
p86
aVadventure
p87
aVtime-travel
p88
aVfantasy
p89
aVhistorical-fiction
p90
aVfiction
p91
aVseries
p92
aVmiddle-grade
p93
aVyoung-adult
p94
aVchildren
p95
aVowned
p96
aVsci-fi
p97
aVchildren-s
p98
aVbooks-i-own
p99
aVfavorites
p100
aVaction
p101
aVjuvenile
p102
aVhistorical
p103
aVkids
p104
aVya
p105
aVaudiobooks
p106
aVhardcover
p107
aVaudiobook
p108
aVchildrens
p109
aVdefault
p110
aVaudio-book
p111
aVaction-adventure
p112
aVlibrary
p113
aVto-buy
p114
aVseries-to-read
p115
aVchildren-s-books
p116
aVmystery
p117
aVclassroom-library
p118
aVlisa-mcmann
p119
aVdystopian
p120
aVall-books
p121
aVborrowed
p122
aVread-in-2015
p123
aVi-own
p124
aVbooks-i-have
p125
aVhistory
p126
aVscifi
p127
aVjuvenile-fiction
p128
aVmaybe-read
p129
aVread-2014
p130
aVfor-the-kids
p131
aVaudio-books
p132
aVmiddle-grades
p133
aVmy-shelf
p134
aVmiddle-school
p135
aVawesome
p136
aVslmta
p137
aVteen
p138
aVyouth
p139
aVmg-fantasy
p140
aVebook
p141
aVthe-39-clues
p142
aV3-stars
p143
aVread-2013
p144
aVslavery
p145
aVreviewed
p146
aVya-fiction
p147
aVread-2012
p148
aVarc
p149
aVdystopia
p150
aV2013-releases
p151
aVwish-list
p152
aVtamara
p153
aVbooks-in-english
p154
aVliteratura-juvenil
p155
aVjames-dashner
p156
aVto-read-2
p157
aVedie-s-books
p158
aV2017-audio
p159
aVpeter-2016-2017
p160
aVfriends-of-library-purchase
p161
aVdashner-james
p162
aV2017-additional-ya
p163
aVhard-copy-in-my-kids-home-library
p164
aVre-read
p165
aVwar
p166
aVmid-grade
p167
aVkindle
p168
aVculture
p169
aVbattle
p170
aVadult
p171
aVhome-chapter-books
p172
aV04-words-sb
p173
aVhellner
p174
aV04-words-s
p175
aVhard-back
p176
aV1-read-it
p177
aVya-series
p178
aVelem-library
p179
aV03-words-g
p180
aVsydney
p181
aVjames-dashner-infinity-ring
p182
asS'loc_class'
p183
VPS: Language and Literatures: American and Canadian literature
p184
sS'n_authors'
p185
I1
sb.