ccopy_reg
_reconstructor
p0
(cdataset.Book
Book
p1
c__builtin__
object
p2
Ntp3
Rp4
(dp5
S'similar_books'
p6
(lp7
sS'genres'
p8
(lp9
sS'author'
p10
I302
sS'countries'
p11
(lp12
I2
asS'year'
p13
I1951
sS'title'
p14
VGalaxy Magazine January 1951
p15
sS'cover'
p16
Vhttps://ia600205.us.archive.org/BookReader/BookReaderImages.php?zip=/0/items/Galaxy_v01n04_1951-01/Galaxy_v01n04_1951-01_jp2.zip&file=Galaxy_v01n04_1951-01_jp2/Galaxy_v01n04_1951-01_0000.jp2&scale=0&rotate=0
p17
sS'cover_art'
p18
S'http://www.isfdb.org/wiki/images/f/f8/GALJAN1951.jpg'
p19
sS'author_name'
p20
VGalaxy Magazine
p21
sS'images_urls'
p22
(lp23
sS'authors'
p24
(lp25
I348
aI351
aI352
aI353
aI347
aI342
aI305
aI340
aI326
aI341
aI218
aI354
aI3
aI58
aI137
aI302
asS'images'
p26
(lp27
sS'id'
p28
I977
sS'contents'
p29
(lp30
(dp31
S'title'
p32
VTyrann (Part 1 of 3)
p33
sS'author'
p34
I348
sa(dp35
g32
VTyrann (Part 1 of 3) [2]
p36
sg34
I348
sa(dp37
g32
VTyrann (Part 1 of 3) [3]
p38
sg34
I348
sa(dp39
g32
VTyrann (Part 1 of 3) [4]
p40
sg34
I348
sa(dp41
g32
VTyrann (Part 1 of 3) [5]
p42
sg34
I348
sa(dp43
g32
VTyrann (Part 1 of 3) [6]
p44
sg34
I348
sa(dp45
g32
VDark Interlude
p46
sg34
I351
sa(dp47
g32
VRule of Three
p48
sg34
I352
sa(dp49
g32
VRule of Three [2]
p50
sg34
I352
sa(dp51
g32
VRule of Three [3]
p52
sg34
I352
sa(dp53
g32
VMade to Measure
p54
sg34
I353
sa(dp55
g32
VMade to Measure [2]
p56
sg34
I353
sa(dp57
g32
VMade to Measure [3]
p58
sg34
I353
sa(dp59
g32
VMade to Measure [4]
p60
sg34
I353
sa(dp61
g32
VSusceptibility
p62
sg34
I347
sa(dp63
g32
VThe Reluctant Heroes
p64
sg34
I342
sa(dp65
g32
VThe Reluctant Heroes [2]
p66
sg34
I342
sa(dp67
g32
VThe Reluctant Heroes [3]
p68
sg34
I342
sa(dp69
g32
VOld Business and New
p70
sg34
I305
sa(dp71
g32
VGalaxy's 5 Star Shelf (Galaxy, January 1951)
p72
sg34
I340
sa(dp73
g32
VNext Month's Contents Page (Galaxy, January 1951)
p74
sg34
I326
sa(dp75
g32
VRule of Three
p76
sg34
I341
sa(dp77
g32
VMade to Measure
p78
sg34
I218
sa(dp79
g32
VThe Reluctant Heroes
p80
sg34
I354
sa(dp81
g32
VTyrann (Part 1 of 3)
p82
sg34
I3
sa(dp83
g32
VDark Interlude
p84
sg34
I58
sa(dp85
g32
VSusceptibility
p86
sg34
I137
sasb.