ccopy_reg
_reconstructor
p0
(cdataset.Book
Book
p1
c__builtin__
object
p2
Ntp3
Rp4
(dp5
S'content_name'
p6
V41027.txt.utf-8
p7
sS'isbn'
p8
NsS'year'
p9
I1932
sS'author_name'
p10
VRaymond Z. Gallun
p11
sS'images_urls'
p12
(lp13
Vhttp://www.gutenberg.org/files/41027/41027-h/images/author.jpg
p14
aVhttp://www.gutenberg.org/files/41027/41027-h/images/cover.jpg
p15
aVhttp://www.gutenberg.org/files/41027/41027-h/images/illus.jpg
p16
asS'language_code'
p17
NsS'images'
p18
(lp19
sS'id'
p20
I508
sS'category'
p21
VText
p22
sS'genres'
p23
(lp24
sS'copyright'
p25
VPublic domain in the USA.
p26
sS'title'
p27
VThe Revolt of the Star Men
p28
sS'wikipedia'
p29
(dp30
S'found'
p31
I00
ssS'average_rating'
p32
F3.29
sS'rating_count'
p33
I6
sS'content_available'
p34
I01
sS'cover_art_url'
p35
S'http://www.gutenberg.org/cache/epub/41027/pg41027.cover.medium.jpg'
p36
sS'goodreads'
p37
(dp38
S'url'
p39
Vhttps://www.goodreads.com/book/show/19295914-the-revolt-of-the-star-men
p40
sg31
I01
sS'year'
p41
I2012
ssS'similar_books'
p42
(lp43
sS'description'
p44
NsS'gutenberg'
p45
(dp46
g39
Vhttp://www.gutenberg.org/ebooks/41027
p47
sS'num'
p48
I41027
ssS'authors'
p49
(lp50
I148
asS'isbn13'
p51
NsS'language'
p52
VEnglish
p53
sS'countries'
p54
(lp55
I2
asS'release_date'
p56
S'2012-10-11T00:00:00'
p57
sS'author'
p58
I148
sS'cover'
p59
Vhttps://s.gr-assets.com/assets/nophoto/book/111x148-bcc042a9c91a29c1d680899eff700a03.png
p60
sS'content_cleaned'
p61
I01
sS'classes'
p62
(lp63
Vto-read
p64
aVcurrently-reading
p65
aV21st-century-lit
p66
aVscience-fiction
p67
aVpulp
p68
aVillustrated
p69
aVshelf-g-authors
p70
aVgenre-syfi-fan-horr
p71
aVsci-fi-classics
p72
aVpg
p73
aVshort-scifi-story
p74
asS'loc_class'
p75
VPS: Language and Literatures: American and Canadian literature
p76
sS'n_authors'
p77
I1
sb.