ccopy_reg
_reconstructor
p0
(cdataset.Book
Book
p1
c__builtin__
object
p2
Ntp3
Rp4
(dp5
S'similar_books'
p6
(lp7
sS'genres'
p8
(lp9
sS'author'
p10
I302
sS'countries'
p11
(lp12
I2
asS'year'
p13
I1957
sS'title'
p14
VGalaxy Magazine March 1957
p15
sS'cover'
p16
Vhttps://ia601300.us.archive.org/BookReader/BookReaderImages.php?zip=/4/items/Galaxy_v13n05_1957-03/Galaxy_v13n05_1957-03_jp2.zip&file=Galaxy_v13n05_1957-03_jp2/Galaxy_v13n05_1957-03_0000.jp2&scale=0&rotate=0
p17
sS'cover_art'
p18
S'http://www.isfdb.org/wiki/images/2/2a/MLO4435.jpg'
p19
sS'author_name'
p20
VGalaxy Magazine
p21
sS'images_urls'
p22
(lp23
sS'authors'
p24
(lp25
I506
aI472
aI499
aI305
aI326
aI339
aI483
aI172
aI507
aI204
aI341
aI508
aI30
aI302
asS'images'
p26
(lp27
sS'id'
p28
I1049
sS'contents'
p29
(lp30
(dp31
g10
I506
sg14
VThe Ignoble Savages
p32
sa(dp33
g10
I506
sg14
VThe Ignoble Savages [2]
p34
sa(dp35
g10
I506
sg14
VThe Ignoble Savages [3]
p36
sa(dp37
g10
I506
sg14
VThe Other Celia
p38
sa(dp39
g10
I506
sg14
VThe Deep One
p40
sa(dp41
g10
I472
sg14
VSurvival Type
p42
sa(dp43
g10
I472
sg14
VSurvival Type [2]
p44
sa(dp45
g10
I472
sg14
VSurvival Type [3]
p46
sa(dp47
g10
I506
sg14
VThe Light
p48
sa(dp49
g10
I499
sg14
VAn Eye for a What?
p50
sa(dp51
g10
I499
sg14
VAn Eye for a What? [2]
p52
sa(dp53
g10
I499
sg14
VAn Eye for a What? [3]
p54
sa(dp55
g10
I305
sg14
VPersonal Account
p56
sa(dp57
g10
I326
sg14
VForecast (Galaxy, March 1957)
p58
sa(dp59
g10
I339
sg14
VFor Your Information: The Great Pyramid, the Golden Section and Pi
p60
sa(dp61
g10
I483
sg14
VGalaxy's 5 Star Shelf (Galaxy, March 1957)
p62
sa(dp63
g10
I172
sg14
VThe Ignoble Savages
p64
sa(dp65
g10
I507
sg14
VSurvival Type
p66
sa(dp67
g10
I204
sg14
VAn Eye for a What?
p68
sa(dp69
g10
I341
sg14
VThe Other Celia
p70
sa(dp71
g10
I508
sg14
VThe Deep One
p72
sa(dp73
g10
I30
sg14
VThe Light
p74
sasb.