ccopy_reg
_reconstructor
p0
(cdataset.Book
Book
p1
c__builtin__
object
p2
Ntp3
Rp4
(dp5
S'content_name'
p6
V22966.txt.utf-8
p7
sS'isbn'
p8
NsS'year'
p9
I2009
sS'author_name'
p10
VHarry Harrison
p11
sS'images_urls'
p12
(lp13
Vhttp://www.gutenberg.org/files/22966/22966-h/images/001.png
p14
aVhttp://www.gutenberg.org/files/22966/22966-h/images/002.png
p15
aVhttp://www.gutenberg.org/files/22966/22966-h/images/003.png
p16
aVhttp://www.gutenberg.org/files/22966/22966-page-images/p056.png
p17
aVhttp://www.gutenberg.org/files/22966/22966-page-images/p057.png
p18
aVhttp://www.gutenberg.org/files/22966/22966-page-images/p058.png
p19
aVhttp://www.gutenberg.org/files/22966/22966-page-images/p059.png
p20
aVhttp://www.gutenberg.org/files/22966/22966-page-images/p060-image.png
p21
aVhttp://www.gutenberg.org/files/22966/22966-page-images/p060.png
p22
aVhttp://www.gutenberg.org/files/22966/22966-page-images/p061.png
p23
asS'language_code'
p24
NsS'images'
p25
(lp26
sS'id'
p27
I210
sS'category'
p28
VText
p29
sS'genres'
p30
(lp31
sS'copyright'
p32
VPublic domain in the USA.
p33
sS'title'
p34
VToy Shop
p35
sS'wikipedia'
p36
(dp37
S'found'
p38
I00
ssS'average_rating'
p39
F3.38
sS'rating_count'
p40
I90
sS'content_available'
p41
I01
sS'goodreads'
p42
(dp43
S'url'
p44
Vhttps://www.goodreads.com/book/show/6382690-toy-shop
p45
sg38
I01
sS'year'
p46
I2009
ssS'similar_books'
p47
(lp48
sS'description'
p49
NsS'format'
p50
NsS'gutenberg'
p51
(dp52
g44
Vhttp://www.gutenberg.org/ebooks/22966
p53
sS'num'
p54
I22966
ssS'authors'
p55
(lp56
I16
asS'pages'
p57
I18
sS'isbn13'
p58
NsS'language'
p59
VEnglish
p60
sS'countries'
p61
(lp62
I2
asS'release_date'
p63
S'2007-10-12T00:00:00'
p64
sS'author'
p65
I16
sS'content_cleaned'
p66
I01
sS'classes'
p67
(lp68
Vto-read
p69
aVscience-fiction
p70
aVsci-fi
p71
aVshort-stories
p72
aVshort-story
p73
aVfiction
p74
aVkindle
p75
aVshort
p76
aVcurrently-reading
p77
aVebook
p78
aVscifi
p79
aVscience-fiction-shelf
p80
aVfiction-without_romantic
p81
aVfiction-fantastic
p82
aVfavorite
p83
aVcompleted-books
p84
aV0-50pgs
p85
aVnook
p86
aVbp
p87
aVshort-fiction
p88
aVkindle-freebie
p89
aVshort-stories-or-novellas
p90
aVread-in-2011
p91
aV4-stories
p92
aVyoutube-audiobooks
p93
aV7-audiobook
p94
aVnot-owned
p95
aVaudio
p96
aVnarration
p97
aVaudiobooks
p98
aVbek_purc_amz_0
p99
aVhow-kindle
p100
aVaudio-obtained-lvss
p101
aVaudio-books-read
p102
aV3-stars
p103
aVother
p104
aVnook-59-sci-fi-classics
p105
aVscifi-and-horror
p106
aVscience-ficton
p107
aVebooks
p108
aVamazon
p109
aVfeedbooks-com
p110
aV2014-short-stories
p111
aVnot-read
p112
aVgenre-short-stories
p113
aVgenre-science-fiction
p114
aVe-reader
p115
aVfreebie
p116
aVharry-harrison
p117
aVaudiobook
p118
aVfantasy
p119
aVownebook
p120
aVtype-short-story
p121
aVaudio-obtained-ss
p122
aV3-novals
p123
asS'loc_class'
p124
VPS: Language and Literatures: American and Canadian literature
p125
sS'n_authors'
p126
I1
sb.