ccopy_reg
_reconstructor
p0
(cdataset.Book
Book
p1
c__builtin__
object
p2
Ntp3
Rp4
(dp5
S'similar_books'
p6
(lp7
sS'genres'
p8
(lp9
sS'author'
p10
I302
sS'countries'
p11
(lp12
I2
asS'year'
p13
I1957
sS'title'
p14
VGalaxy Magazine January 1957
p15
sS'cover'
p16
Vhttps://ia601300.us.archive.org/BookReader/BookReaderImages.php?zip=/17/items/Galaxy_v13n03_1957-01/Galaxy_v13n03_1957-01_jp2.zip&file=Galaxy_v13n03_1957-01_jp2/Galaxy_v13n03_1957-01_0000.jp2&scale=0&rotate=0
p17
sS'cover_art'
p18
S'http://www.isfdb.org/wiki/images/4/45/MLO4433.jpg'
p19
sS'author_name'
p20
VGalaxy Magazine
p21
sS'images_urls'
p22
(lp23
sS'authors'
p24
(lp25
I419
aI497
aI499
aI363
aI305
aI483
aI326
aI339
aI194
aI503
aI385
aI220
aI40
aI302
asS'images'
p26
(lp27
sS'id'
p28
I1047
sS'contents'
p29
(lp30
(dp31
S'title'
p32
VMoral Equivalent
p33
sS'author'
p34
I419
sa(dp35
g32
VMoral Equivalent [2]
p36
sg34
I419
sa(dp37
g32
VMoral Equivalent [3]
p38
sg34
I419
sa(dp39
g32
VAll Jackson's Children
p40
sg34
I497
sa(dp41
g32
VButterfly 9
p42
sg34
I499
sa(dp43
g32
VButterfly 9 [2]
p44
sg34
I499
sa(dp45
g32
VButterfly 9 [3]
p46
sg34
I499
sa(dp47
g32
VThe Haunted Corpse
p48
sg34
I499
sa(dp49
g32
VThe Stars My Destination (Part 4 of 4)
p50
sg34
I363
sa(dp51
g32
VThe Stars My Destination (Part 4 of 4) [2]
p52
sg34
I363
sa(dp53
g32
VThe Stars My Destination (Part 4 of 4) [3]
p54
sg34
I363
sa(dp55
g32
VThe Stars My Destination (Part 4 of 4) [4]
p56
sg34
I363
sa(dp57
g32
VTreasurer's Report
p58
sg34
I305
sa(dp59
g32
VGalaxy's 5 Star Shelf (Galaxy, January 1957)
p60
sg34
I483
sa(dp61
g32
VForecast (Galaxy, January 1957)
p62
sg34
I326
sa(dp63
g32
VFor Your Information: Tracking Down the Sea Serpent (Part Ii)
p64
sg34
I339
sa(dp65
g32
VMoral Equivalent
p66
sg34
I194
sa(dp67
g32
VButterfly 9
p68
sg34
I503
sa(dp69
g32
VThe Stars My Destination (Part 4 of 4)
p70
sg34
I385
sa(dp71
g32
VAll Jackson's Children
p72
sg34
I220
sa(dp73
g32
VThe Haunted Corpse
p74
sg34
I40
sasb.