ccopy_reg
_reconstructor
p0
(cdataset.Book
Book
p1
c__builtin__
object
p2
Ntp3
Rp4
(dp5
S'content_name'
p6
V51397.txt.utf-8
p7
sS'isbn'
p8
V1558749209
p9
sS'year'
p10
I1993
sS'author_name'
p11
VAlan Arkin
p12
sS'images_urls'
p13
(lp14
Vhttp://www.gutenberg.org/files/51397/51397-h/images/cover.jpg
p15
aVhttp://www.gutenberg.org/files/51397/51397-h/images/illus.jpg
p16
asS'language_code'
p17
Veng
p18
sS'images'
p19
(lp20
sS'id'
p21
I341
sS'category'
p22
VText
p23
sS'genres'
p24
(lp25
sS'copyright'
p26
VPublic domain in the USA.
p27
sS'title'
p28
VPeople Soup
p29
sS'wikipedia'
p30
(dp31
S'found'
p32
I00
ssS'average_rating'
p33
F3.94
sS'rating_count'
p34
I28710
sS'content_available'
p35
I01
sS'cover_art_url'
p36
S'http://www.gutenberg.org/cache/epub/51397/pg51397.cover.medium.jpg'
p37
sS'goodreads'
p38
(dp39
S'url'
p40
Vhttps://www.goodreads.com/book/show/801178.Chicken_Soup_for_the_Soul
p41
sg32
I01
sS'year'
p42
I1993
ssS'similar_books'
p43
(lp44
VLife's Little Instruction Book: 511 Suggestions, Observations, and Reminders on How to Live a Happy and Rewarding Life
p45
aVSelf Matters: Creating Your Life from the Inside Out
p46
aVFollow Your Heart
p47
aVStories for the Heart: Over 100 Stories to Encourage Your Soul
p48
aVExcuses Begone!: How to Change Lifelong, Self-Defeating Thinking Habits
p49
aVThe 7 Habits of Highly Effective Families
p50
aVThe Language of Letting Go: Daily Meditations on Codependency (Hazelden Meditation Series)
p51
aVThe Color Code: A New Way to See Yourself, Your Relationships, and Life
p52
aVYour Best Life Now: 7 Steps to Living at Your Full Potential
p53
aVChildren's Letters to God: The New Collection
p54
aVBuilding Mental Muscle: Conditioning Exercises for the Six Intelligence Zones
p55
aVHow to Mind Map: The Ultimate Thinking Tool That Will Change Your Life
p56
aVThe Personality Code
p57
aVAnyway: The Paradoxical Commandments: Finding Personal Meaning in a Crazy World
p58
aVWomen Who Love Too Much: When You Keep Wishing and Hoping He'll Change
p59
aV50 Prosperity Classics: Attract It, Create It, Manage It, Share It
p60
aVThe English Doctor's Baby (Westerling, #3)
p61
aVSolomon's Fine Featherless Friends (Sara, #2)
p62
asS'description'
p63
VRediscover the power of inspiration with timeless stories about the everyday miracles that illuminate the best of the human spirit. Whether you're discovering Chicken Soup for the first time or are a long time fan, this volume will inspire you to be a better person, reach for your highest potential, share your love and embrace the world around you.
p64
sS'format'
p65
NsS'gutenberg'
p66
(dp67
g40
Vhttp://www.gutenberg.org/ebooks/51397
p68
sS'num'
p69
I51397
ssS'authors'
p70
(lp71
I110
asS'pages'
p72
I428
sS'isbn13'
p73
V9781558749207
p74
sS'language'
p75
VEnglish
p76
sS'country'
p77
I2
sS'release_date'
p78
S'2016-03-08T00:00:00'
p79
sS'author'
p80
I110
sS'content_cleaned'
p81
I01
sS'classes'
p82
(lp83
Vto-read
p84
aVnon-fiction
p85
aVself-help
p86
aVcurrently-reading
p87
aVinspirational
p88
aVfavorites
p89
aVshort-stories
p90
aVchicken-soup
p91
aVbooks-i-own
p92
aVnonfiction
p93
aVowned
p94
aVdefault
p95
aVpsychology
p96
aVpersonal-development
p97
aVspirituality
p98
aVspiritual
p99
aVinspiration
p100
aVself-improvement
p101
aVfiction
p102
aVself-development
p103
aVmy-books
p104
aVto-buy
p105
aVchicken-soup-for-the-soul
p106
aVi-own
p107
aVessays
p108
aVphilosophy
p109
aVshort-story
p110
aVyoung-adult
p111
aVseries
p112
aVjack-canfield
p113
aVmotivational
p114
aV\u062a\u0646\u0645\u064a\u0629-\u0628\u0634\u0631\u064a\u0629
p115
aVlibrary
p116
aVebook
p117
aVchristian
p118
aVother
p119
aVfavorite
p120
aVmy-library
p121
aVebooks
p122
aVcollection
p123
aVadult
p124
aVpoetry
p125
aV1
p126
aVenglish
p127
aVhealth
p128
aVanthologies
p129
aVre-read
p130
aVlife
p131
aVmemoir
p132
aVown-it
p133
aVowned-books
p134
aVlife-lessons
p135
aVhome-library
p136
aVself
p137
aVmotivation
p138
aVpersonal
p139
aVanthology
p140
aVhappiness
p141
aVreligious
p142
aVadult-non-fiction
p143
aVmy-collection
p144
aVbooks-i-have
p145
aVhome
p146
aVfaith
p147
aVbooks
p148
aVcontemporary
p149
aVself-help-books
p150
aVchildhood
p151
aVmisc
p152
aVchristian-fiction
p153
aVin-my-library
p154
aVfeel-good
p155
aVwish-list
p156
aVinspiring
p157
aVselfhelp
p158
aVshelfari-favorites
p159
aVa
p160
aVwant-to-buy
p161
aVlifestyle
p162
aVpaperback
p163
aVamerican
p164
aVspiritual-books
p165
aVya
p166
aVgeneral
p167
aV\u0631\u0648\u0627\u064a\u0627\u062a
p168
aVchicken-soup-books
p169
aVchildhood-reads
p170
aVshort
p171
aVpsychology-self-help
p172
aVdid-not-finish
p173
aVpdf
p174
aVshort-story-collections
p175
aVfav
p176
aVlater
p177
aVhave
p178
aVread-non-fiction
p179
aVmust-reads
p180
aVinspire
p181
aVfinished
p182
aVmy-favorites
p183
asS'loc_class'
p184
S''
p185
sS'n_authors'
p186
I1
sb.