ccopy_reg
_reconstructor
p0
(cdataset.Book
Book
p1
c__builtin__
object
p2
Ntp3
Rp4
(dp5
S'content_name'
p6
V23592.txt.utf-8
p7
sS'isbn'
p8
NsS'year'
p9
I1955
sS'author_name'
p10
VStanley Gimble
p11
sS'images_urls'
p12
(lp13
Vhttp://www.gutenberg.org/files/23592/23592-h/images/asf195512059i.png
p14
aVhttp://www.gutenberg.org/files/23592/23592-page-images/p059-image.png
p15
aVhttp://www.gutenberg.org/files/23592/23592-page-images/p059.png
p16
aVhttp://www.gutenberg.org/files/23592/23592-page-images/p060.png
p17
aVhttp://www.gutenberg.org/files/23592/23592-page-images/p061.png
p18
aVhttp://www.gutenberg.org/files/23592/23592-page-images/p062.png
p19
aVhttp://www.gutenberg.org/files/23592/23592-page-images/p063.png
p20
asS'language_code'
p21
NsS'images'
p22
(lp23
sS'id'
p24
I832
sS'category'
p25
VText
p26
sS'genres'
p27
(lp28
sS'copyright'
p29
VPublic domain in the USA.
p30
sS'title'
p31
VBreakaway
p32
sS'wikipedia'
p33
(dp34
S'found'
p35
I00
ssS'average_rating'
p36
F3.55
sS'rating_count'
p37
I8
sS'content_available'
p38
I01
sS'goodreads'
p39
(dp40
S'url'
p41
S'https://www.goodreads.com/book/show/12075367-breakaway'
p42
sS'found'
p43
I01
ssS'similar_books'
p44
(lp45
sS'description'
p46
VThis work has been previously published and carefully edited by humans to be read digitally on your eReader. Please enjoy this historical and classic work. Also, if it is an illustrated work, you will be able to see all of the original images. This makes them the best quality classic works available for the lowest price. So enjoy this classic work as if it were the original book!
p47
sS'gutenberg'
p48
(dp49
S'url'
p50
Vhttp://www.gutenberg.org/ebooks/23592
p51
sS'num'
p52
I23592
ssS'authors'
p53
(lp54
I263
asS'isbn13'
p55
V2940011961236
p56
sS'language'
p57
VEnglish
p58
sS'countries'
p59
(lp60
I3
asS'release_date'
p61
S'2007-11-22T00:00:00'
p62
sS'author'
p63
I263
sS'content_cleaned'
p64
I01
sS'classes'
p65
(lp66
Vscience-fiction
p67
aV15
p68
aVshort-story
p69
aVto-read
p70
aVaudio-obtained
p71
aVtype-short-story
p72
aVaudio-obtained-ss
p73
asS'loc_class'
p74
VPS: Language and Literatures: American and Canadian literature
p75
sS'n_authors'
p76
I1
sb.