ccopy_reg
_reconstructor
p0
(cdataset.Book
Book
p1
c__builtin__
object
p2
Ntp3
Rp4
(dp5
S'content_name'
p6
V29271.txt.utf-8
p7
sS'isbn'
p8
NsS'year'
p9
I1960
sS'author_name'
p10
VJesse F. Bone
p11
sS'images_urls'
p12
(lp13
Vhttp://www.gutenberg.org/files/29271/29271-h/images/001-1.jpg
p14
aVhttp://www.gutenberg.org/files/29271/29271-h/images/001-2.jpg
p15
asS'language_code'
p16
NsS'images'
p17
(lp18
sS'id'
p19
I579
sS'category'
p20
VText
p21
sS'genres'
p22
(lp23
sS'copyright'
p24
VPublic domain in the USA.
p25
sS'title'
p26
VThe Issahar Artifacts
p27
sS'wikipedia'
p28
(dp29
S'found'
p30
I00
ssS'average_rating'
p31
F3.22
sS'rating_count'
p32
I13
sS'content_available'
p33
I01
sS'goodreads'
p34
(dp35
S'url'
p36
Vhttps://www.goodreads.com/book/show/8517856-the-issahar-artifacts
p37
sg30
I01
sS'year'
p38
I1960
ssS'similar_books'
p39
(lp40
sS'description'
p41
NsS'gutenberg'
p42
(dp43
g36
Vhttp://www.gutenberg.org/ebooks/29271
p44
sS'num'
p45
I29271
ssS'authors'
p46
(lp47
I68
asS'isbn13'
p48
NsS'language'
p49
VEnglish
p50
sS'countries'
p51
(lp52
I2
asS'release_date'
p53
S'2009-06-29T00:00:00'
p54
sS'author'
p55
I68
sS'cover'
p56
Vhttps://s.gr-assets.com/assets/nophoto/book/111x148-bcc042a9c91a29c1d680899eff700a03.png
p57
sS'content_cleaned'
p58
I01
sS'classes'
p59
(lp60
Vto-read
p61
aVscience-fiction
p62
aVshort-stories
p63
aVcurrently-reading
p64
aV20th-century-lit
p65
aVsci-fi
p66
aVpulp
p67
aVfiction
p68
aV20th-century
p69
aVshort-story
p70
aV1960s
p71
aVtype-short-story
p72
asS'loc_class'
p73
VPS: Language and Literatures: American and Canadian literature
p74
sS'n_authors'
p75
I1
sb.