ccopy_reg
_reconstructor
p0
(cdataset.Book
Book
p1
c__builtin__
object
p2
Ntp3
Rp4
(dp5
S'content_name'
p6
V23764.txt.utf-8
p7
sS'isbn'
p8
NsS'year'
p9
I1958
sS'author_name'
p10
VRandall Garrett
p11
sS'images_urls'
p12
(lp13
Vhttp://www.gutenberg.org/files/23764/23764-h/images/001.png
p14
aVhttp://www.gutenberg.org/files/23764/23764-page-images/p051.png
p15
aVhttp://www.gutenberg.org/files/23764/23764-page-images/p052.png
p16
aVhttp://www.gutenberg.org/files/23764/23764-page-images/p053.png
p17
aVhttp://www.gutenberg.org/files/23764/23764-page-images/p054.png
p18
aVhttp://www.gutenberg.org/files/23764/23764-page-images/p055.png
p19
aVhttp://www.gutenberg.org/files/23764/23764-page-images/p056.png
p20
aVhttp://www.gutenberg.org/files/23764/23764-page-images/p057.png
p21
aVhttp://www.gutenberg.org/files/23764/23764-page-images/p058.png
p22
aVhttp://www.gutenberg.org/files/23764/23764-page-images/p059-image.png
p23
aVhttp://www.gutenberg.org/files/23764/23764-page-images/p059.png
p24
aVhttp://www.gutenberg.org/files/23764/23764-page-images/p060.png
p25
aVhttp://www.gutenberg.org/files/23764/23764-page-images/p061.png
p26
aVhttp://www.gutenberg.org/files/23764/23764-page-images/p062.png
p27
aVhttp://www.gutenberg.org/files/23764/23764-page-images/p063.png
p28
aVhttp://www.gutenberg.org/files/23764/23764-page-images/p064.png
p29
aVhttp://www.gutenberg.org/files/23764/23764-page-images/p065.png
p30
aVhttp://www.gutenberg.org/files/23764/23764-page-images/p066.png
p31
aVhttp://www.gutenberg.org/files/23764/23764-page-images/p067.png
p32
asS'language_code'
p33
NsS'images'
p34
(lp35
sS'id'
p36
I471
sS'category'
p37
VText
p38
sS'genres'
p39
(lp40
sS'copyright'
p41
VPublic domain in the USA.
p42
sS'title'
p43
VThe Bramble Bush
p44
sS'wikipedia'
p45
(dp46
S'found'
p47
I00
ssS'average_rating'
p48
F2.45
sS'rating_count'
p49
I11
sS'content_available'
p50
I01
sS'goodreads'
p51
(dp52
S'url'
p53
Vhttps://www.goodreads.com/book/show/2319353.The_Bramble_Bush
p54
sg47
I01
sS'year'
p55
I1958
ssS'similar_books'
p56
(lp57
sS'description'
p58
NsS'format'
p59
VMass Market Paperback
p60
sS'gutenberg'
p61
(dp62
g53
Vhttp://www.gutenberg.org/ebooks/23764
p63
sS'num'
p64
I23764
ssS'authors'
p65
(lp66
I49
asS'pages'
p67
I312
sS'isbn13'
p68
NsS'language'
p69
VEnglish
p70
sS'country'
p71
I3
sS'release_date'
p72
S'2007-12-07T00:00:00'
p73
sS'author'
p74
I49
sS'content_cleaned'
p75
I01
sS'classes'
p76
(lp77
Vto-read
p78
aVcurrently-reading
p79
aVfiction
p80
aV2017-shortlist
p81
aVebook
p82
aVdiscard-dtb
p83
aVdead-tree
p84
aVsaga
p85
aVamerican-fiction
p86
aVfor-the-lolz
p87
aVfor-snarking-purposes
p88
aVrichard-burton-diaries
p89
aV20th-century-classics
p90
asS'loc_class'
p91
VPS: Language and Literatures: American and Canadian literature
p92
sS'n_authors'
p93
I1
sb.