ccopy_reg
_reconstructor
p0
(cdataset.Book
Book
p1
c__builtin__
object
p2
Ntp3
Rp4
(dp5
S'content_name'
p6
V10966.txt.utf-8
p7
sS'isbn'
p8
V1421925818
p9
sS'year'
p10
I1909
sS'author_name'
p11
VWilliam Hope Hodgson
p12
sS'images_urls'
p13
(lp14
sS'language_code'
p15
Veng
p16
sS'images'
p17
(lp18
sS'id'
p19
I79
sS'category'
p20
VText
p21
sS'genres'
p22
(lp23
sS'copyright'
p24
VPublic domain in the USA.
p25
sS'title'
p26
VThe Ghost Pirates
p27
sS'wikipedia'
p28
(dp29
S'url'
p30
Vhttps://en.wikipedia.org/wiki/The_Ghost_Pirates
p31
sS'found'
p32
I01
sS'year'
p33
I-1
ssS'published_in'
p34
NsS'average_rating'
p35
F3.57
sS'rating_count'
p36
I389
sS'content_available'
p37
I01
sS'goodreads'
p38
(dp39
g30
Vhttps://www.goodreads.com/book/show/634043.The_Ghost_Pirates
p40
sg32
I01
sg33
I1909
ssS'similar_books'
p41
(lp42
VBurn, Witch, Burn! (Burn Witch Burn #1)
p43
aVBrood of the Witch-Queen
p44
aVTo Walk the Night
p45
aVThe Empty House and Other Ghost Stories
p46
aVMore Ghost Stories of an Antiquary
p47
aVThe Hill of Dreams
p48
aVCollected Stories, Vol. 3
p49
aVThe Were-Wolf
p50
aVTerror by Night: Classic Ghost & Horror Stories
p51
aVFolk-Lore and Legends Scotland
p52
aVThe Witch Of Prague & Other Stories
p53
aVPigeons from Hell and Other Weird and Fantastic Adventures
p54
aVThe Lost Continent: The Story of Atlantis
p55
aVConjure Wife
p56
aVSunfall
p57
asS'description'
p58
V"The Ghost Pirates . . . is a powerful account of a doomed and haunted ship on its last voyage, and of the terrible sea-devils (of quasi-human aspect, and perhaps the spirits of bygone buccaneers) that besiege it and finally drag it down to an unknown fate. With its command of maritime knowledge, and its clever selection of hints and incidents suggestive of latent horrors in nature, this book at times reaches enviable peaks of power." -- H.P. Lovecraft
p59
sS'format'
p60
VPaperback
p61
sS'gutenberg'
p62
(dp63
g30
Vhttp://www.gutenberg.org/ebooks/10966
p64
sS'num'
p65
I10966
ssS'authors'
p66
(lp67
I11
asS'pages'
p68
I176
sS'isbn13'
p69
V9781421925813
p70
sS'language'
p71
VEnglish
p72
sS'release_date'
p73
S'2004-02-01T00:00:00'
p74
sS'author'
p75
I11
sS'original_title'
p76
VThe Ghost Pirates
p77
sS'summary'
p78
VThe Ghost Pirates is a novel by William Hope Hodgson, first published in 1909. The economic style of writing has led horror writer Robert Weinberg to describe The Ghost Pirates as "one of the finest examples of the tightly written novel ever published." \u000aIn it, Hodgson never describes in any remarkable details the ghosts - if this is indeed what they are, since their true nature is left ambiguous - he merely reports on their gradual commandeering of the ship.\u000a"The Ghost Pirates . . . is a powerful account of a doomed and haunted ship on its last voyage, and of the terrible sea-devils (of quasi-human aspect, and perhaps the spirits of bygone buccaneers) that besiege it and finally drag it down to an unknown fate. With its command of maritime knowledge, and its clever selection of hints and incidents suggestive of latent horrors in nature, this book at times reaches enviable peaks of power." \u2014 H.P. Lovecraft\u000a\u000a
p79
sS'content_cleaned'
p80
I01
sS'classes'
p81
(lp82
Vto-read
p83
aVhorror
p84
aVfiction
p85
aVcurrently-reading
p86
aVkindle
p87
aVclassics
p88
aVpirates
p89
aVebook
p90
aVfantasy
p91
aVweird-fiction
p92
aVghosts
p93
aVterror
p94
aVclassic-horror
p95
aVclassic
p96
aVsupernatural
p97
aVghost-stories
p98
aVkindle-books
p99
aVhistorical
p100
aVowned
p101
aVgothic
p102
aVebooks
p103
aVaudiobook
p104
aVparanormal
p105
aVmystery
p106
aVadventure
p107
aVnautical
p108
aVhistorical-fiction
p109
aVnovels
p110
aVwant
p111
aVaudiobooks
p112
aVtaggare
p113
aVwish-list
p114
aVto-be-read-i-own
p115
aVbooks-i-own
p116
aVscience-fiction
p117
aVeown
p118
aVunrated
p119
aVearly-20th-century
p120
aVkindle-cloud
p121
aVowned-books
p122
aVe-book
p123
aVsf
p124
aVsea
p125
aVlibrary
p126
aVhorror-and-supernatural
p127
aVterror-at-sea
p128
aVghosts-and-horror
p129
aVa-still-to-read
p130
aVgot-for-free
p131
aVbarcos
p132
aVmistero-soprannaturale
p133
aVmia-biblioteca
p134
aVscifi
p135
aV4-classics-eown
p136
aVsea-adventures
p137
aVdesde-2013
p138
aVgrimoire
p139
aV3-considering
p140
aVtbr-terror
p141
aVebook-own
p142
aVreveries
p143
aVletture-brevi
p144
aV20th-century-lit
p145
aVlibros-2017
p146
aVshort-story-novella
p147
aVfavourites
p148
aVshort-story-collections
p149
aVundecided
p150
aVtype_novel
p151
aVlibreria-7-narrativa
p152
aVweirdness
p153
aVf-classics
p154
aVq2-reading-log
p155
aVbookshelf
p156
aV1-classic-literature
p157
aVhistorical-nonsense
p158
aVfantasy-scifi
p159
aVclassic-gothic-atmospherical-books
p160
aVadv-pirate-sailor-privateer-captain
p161
aVadv-adventure
p162
aVshelved
p163
aVshort-stories
p164
aVpaperwhite
p165
aVengland-scotland-ireland-wales
p166
aVto-read-in-sepoctnov-halloween-basi
p167
aVengland
p168
aVbarrea-bookshelf
p169
aVhalloween-reads
p170
aVpast
p171
aVbritish-folk-horror
p172
aVlovecraft-supernatural-horror-in-li
p173
aVposseduti
p174
aVclassici
p175
aVclassic-horror-etc
p176
aVaudio
p177
aVstarted-but-put-down
p178
aVcheck-it-out
p179
aVe-books
p180
aVwishlist-fiction
p181
aVlibros-rese-ados
p182
asS'loc_class'
p183
VPR: Language and Literatures: English literature
p184
sS'n_authors'
p185
I1
sb.