ccopy_reg
_reconstructor
p0
(cdataset.Book
Book
p1
c__builtin__
object
p2
Ntp3
Rp4
(dp5
S'content_name'
p6
V50988.txt.utf-8
p7
sS'isbn'
p8
V0345466209
p9
sS'year'
p10
I1999
sS'author_name'
p11
VChristopher Grimm
p12
sS'images_urls'
p13
(lp14
Vhttp://www.gutenberg.org/files/50988/50988-h/images/cover.jpg
p15
aVhttp://www.gutenberg.org/files/50988/50988-h/images/illus1.jpg
p16
aVhttp://www.gutenberg.org/files/50988/50988-h/images/illus2.jpg
p17
aVhttp://www.gutenberg.org/files/50988/50988-h/images/illus3.jpg
p18
asS'language_code'
p19
NsS'images'
p20
(lp21
sS'id'
p22
I703
sS'category'
p23
VText
p24
sS'genres'
p25
(lp26
sS'copyright'
p27
VPublic domain in the USA.
p28
sS'title'
p29
VBodyguard
p30
sS'wikipedia'
p31
(dp32
S'found'
p33
I00
ssS'average_rating'
p34
F3.93
sS'rating_count'
p35
I3594
sS'content_available'
p36
I01
sS'cover_art_url'
p37
S'http://www.gutenberg.org/cache/epub/50988/pg50988.cover.medium.jpg'
p38
sS'goodreads'
p39
(dp40
S'url'
p41
Vhttps://www.goodreads.com/book/show/414658.Bodyguard
p42
sg33
I01
sS'year'
p43
I1999
ssS'similar_books'
p44
(lp45
VInto the Dark (The Bodyguards, #6)
p46
aVToo Far Gone (SEAL Team 12, #6)
p47
aVAll the Queen's Men (CIA Spies, #2)
p48
aVCrazy Cool (Steele Street, #2)
p49
aVKiss and Tell (T-FLAC, #2)
p50
aVTerms of Engagement (Alpha Squad #2)
p51
aVThen You Hide (Bullet Catcher, #5)
p52
aVNo Escape (Delta Force, #3)
p53
asS'description'
p54
VYOU CAN LOOK . . . <br /><br />Threatened by underworld boss Michael Trotta, Alessandra Lamont is nearly blown to pieces in a mob hit. The last thing she wants is to put what's left of her life into the hands of the sexy, loose-cannon federal agent who seems to look right through her yet won't let her out of his sight.<br /><br />BUT YOU BETTER NOT TOUCH . . .<br /><br />FBI agent Harry O'Dell's ex-wife and son were tragic casualties in his ongoing war against organized crime. He'll do whatever it takes to bring Trotta down--even if it means sticking like glue to this blonde bombshell who unwittingly married into the mob. She needs him if she wants to stay alive. But staying alive is nothing next to the explosive attraction that threatens to consume them both--and puts them into the greatest danger of all . . . falling in love.<br /><br /><br /><i>From the Paperback edition.</i>
p55
sS'format'
p56
VMass Market Paperback
p57
sS'gutenberg'
p58
(dp59
g41
Vhttp://www.gutenberg.org/ebooks/50988
p60
sS'num'
p61
I50988
ssS'authors'
p62
(lp63
I227
asS'pages'
p64
I384
sS'isbn13'
p65
V9780345466204
p66
sS'language'
p67
VEnglish
p68
sS'release_date'
p69
S'2016-01-21T00:00:00'
p70
sS'author'
p71
I227
sS'content_cleaned'
p72
I01
sS'classes'
p73
(lp74
Vto-read
p75
aVromance
p76
aVromantic-suspense
p77
aVsuzanne-brockmann
p78
aVsuspense
p79
aVcontemporary-romance
p80
aVcontemporary
p81
aVfiction
p82
aVbrockmann
p83
aVreto-rita-la-cantaora
p84
aVcurrently-reading
p85
aVromance-suspense
p86
aVfavorites
p87
aVaudiobook
p88
aVthriller
p89
aVmystery
p90
aVebook
p91
aVaudio
p92
aVcrime
p93
aVaction
p94
aVdefault
p95
aVbodyguard
p96
aVsuzanne-brockman
p97
aVadult
p98
aVbrockmann-suzanne
p99
aVowned
p100
aVromance-contemporary
p101
aVbooks-i-own
p102
aVreto-rita
p103
aVsuspense-romance
p104
aVmystery-suspense
p105
aVmodern
p106
aVm-f
p107
aVmf
p108
aVmilitary-romance
p109
aVpaperback
p110
aVaudible
p111
aVaudiobooks
p112
aVmilitary
p113
aVlibrary-books
p114
aVowned-books
p115
aVlibrary
p116
aVb
p117
aVaction-romance
p118
aVmy-library
p119
aVebooks
p120
aVromantic-suspence
p121
aVf-m
p122
aV3-stars
p123
aVlaw-enforcement
p124
aVmystery-thriller-suspense
p125
aVmysteries
p126
aVto-listen
p127
aVromantic
p128
aVmy-books
p129
aVbrockmann--suzanne
p130
aVfavoritos
p131
aVitunes
p132
aVon-the-run
p133
aVfamily
p134
aVre-read
p135
aVlibrary-ebook
p136
aVown-have
p137
aVwish-list
p138
aVseals
p139
aVfriendship
p140
aVrom-suspense
p141
aVhave-but-not-read
p142
aVfinished
p143
aVbooks
p144
aVmystery-crime
p145
aVromance-action
p146
aV2-stars
p147
aVto-buy
p148
aVread-in-2012
p149
aVromance-to-read
p150
aVbought
p151
aVread-years-ago
p152
aVromance-military
p153
aV4-stars
p154
aVrs
p155
aVi-own
p156
aVromantic-suspense-read
p157
aV2005
p158
aVseries
p159
aV2003
p160
aVthriller-suspense
p161
aVamerican
p162
aVfiction-
p163
aVtie-in
p164
aVmedia
p165
aVorganized
p166
aVromance-
p167
aVgeneral
p168
aVstates
p169
aVunited
p170
aVman-in-uniform
p171
aVaudio-i-ve-listened-to
p172
aVto-read-own
p173
aVfavorite-authors
p174
asS'loc_class'
p175
S''
p176
sS'n_authors'
p177
I1
sb.