ccopy_reg
_reconstructor
p0
(cdataset.Book
Book
p1
c__builtin__
object
p2
Ntp3
Rp4
(dp5
S'content_name'
p6
V12750.txt.utf-8
p7
sS'isbn'
p8
V1594160201
p9
sS'year'
p10
I1896
sS'author_name'
p11
VH. G. Wells
p12
sS'images_urls'
p13
(lp14
sS'language_code'
p15
NsS'images'
p16
(lp17
sS'id'
p18
I201
sS'category'
p19
VText
p20
sS'genres'
p21
(lp22
sS'copyright'
p23
VPublic domain in the USA.
p24
sS'title'
p25
VThe Stolen Bacillus and Other Incidents
p26
sS'wikipedia'
p27
(dp28
S'url'
p29
Vhttps://en.wikipedia.org/wiki/The_Stolen_Bacillus_and_Other_Incidents
p30
sS'found'
p31
I01
sS'year'
p32
I-1
ssS'published_in'
p33
NsS'average_rating'
p34
F3.69
sS'rating_count'
p35
I91
sS'content_available'
p36
I01
sS'goodreads'
p37
(dp38
g29
Vhttps://www.goodreads.com/book/show/1125499.The_Stolen_Bacillus_and_Other_Incidents
p39
sg31
I01
sg32
I1896
ssS'similar_books'
p40
(lp41
VFantasy Writer's Assistant and Other Stories
p42
aVThe Gods of Pegana
p43
aVDowntiming the Night Side
p44
aVHera (Elei's Chronicles, #0.5)
p45
aVThe Best of the Realms: The Stories of Elaine Cunningham (Forgotten Realms: The Best of the Realms, #3)
p46
aVThe Silver Ring
p47
aVA Plunder by Pilgrims (Garrison Gage, #0.5)
p48
aVPrincess
p49
aVThe Purchase of the North Pole
p50
aVFragile
p51
aVThe Son of Man
p52
aVHyperborea
p53
aVThe Nightwatchman's Occurrence Book: And Other Comic Inventions
p54
aVThe Donor
p55
aVThe Invisible Man (Great Illustrated Classics)
p56
aVCreatures That Once Were Men
p57
aVThe Mad King
p58
asS'description'
p59
VIncluded in this volume are "The Stolen Bacillus," "The Flowering of the Strange Orchid," "In the Avu Observatory," "The Triumphs of a Taxidermist," "A Deal in Ostriches," "Through a Window," "The Temptation of Harringay," "The Flying Man," "The Diamond Maker," "Aepyornis Island," "The Remarkable Case of Davidson's Eyes," "The Lord of the Dynamos," "The Hammerpond Park Burglary," "A Moth -- Genus Novo," and "The Treasure in the Forest."
p60
sS'format'
p61
VPaperback
p62
sS'gutenberg'
p63
(dp64
g29
Vhttp://www.gutenberg.org/ebooks/12750
p65
sS'num'
p66
I12750
ssS'authors'
p67
(lp68
I1
asS'pages'
p69
I224
sS'isbn13'
p70
V9781594160202
p71
sS'language'
p72
VEnglish
p73
sS'release_date'
p74
S'2004-06-26T00:00:00'
p75
sS'author'
p76
I1
sS'original_title'
p77
VThe Stolen Bacillus and Other Incidents
p78
sS'summary'
p79
VThe Stolen Bacillus and Other Incidents is a collection of fifteen fantasy and science fiction short stories written by the English author H. G. Wells between 1893 and 1895. It was first published by Methuen & Co. in 1895 and was Wells's first book of short stories. All of the stories had first been published in various weekly and monthly periodicals.
p80
sS'content_cleaned'
p81
I01
sS'classes'
p82
(lp83
Vscience-fiction
p84
aVfiction
p85
aVcurrently-reading
p86
aVshort-stories
p87
aVsci-fi
p88
aVclassics
p89
aVkindle
p90
aVh-g-wells
p91
aVto-read
p92
aVshort-story
p93
aVenglish-literature
p94
aV19th-century
p95
aVkindle-books
p96
aVpublic-domain
p97
aVsf
p98
aVbooks-i-own
p99
aVebook
p100
aVjunk
p101
aVclassic-literature
p102
aVmacher-library
p103
aVmacher-e-books
p104
aVuniversity
p105
aVown-e-copy
p106
aVclassics-modern-classics-etc
p107
aVbooks-i-own-kindle
p108
aV19th-century-lit
p109
aVwells-h-g
p110
aVown-to-be-read
p111
aVebook-kindle
p112
aVbookshout-library
p113
aVdropbox
p114
aV19th-century-fiction
p115
aVgutenberg
p116
aVdigital
p117
aVcollections
p118
aVbritish-literature
p119
aVedwardian
p120
aVkindle-bookshelf
p121
aVunowned-to-read
p122
aVto-read-maybe
p123
aVthe-final-frontier
p124
aVstarted-may-finish-some-day
p125
aVsf-classics
p126
aVread-from-20-to-25
p127
aVpurchased
p128
aVk2read
p129
aVf-sf-h
p130
aVebooks
p131
aVclassic-tbr
p132
aVclasscal-library
p133
aVanth-ss
p134
aV1-shorts-short-stories
p135
aV0-kindle
p136
aVclassic
p137
aVquick-read-mystery-adventure
p138
aVown-kindle
p139
aVauthors-male
p140
aV1800-1899
p141
aVschool
p142
aVcountry-uk
p143
aVkindle-shelf
p144
aV1-fiction
p145
aV0-all2
p146
aVe-books
p147
aVnext-ix
p148
aVmystery
p149
aVi-own-this
p150
aVliterature-world
p151
aVpriority-3
p152
aVnot-read
p153
aV_ita
p154
aVsteam
p155
aVscientific-romance
p156
aVebook-own
p157
aVweird-fiction
p158
aV1-classics
p159
aVlight-reading
p160
aVowned-books
p161
aVshort-story-collection
p162
aV1890s
p163
aVphysical-disability
p164
aVfirst-read-in-2013
p165
aVon-kindle
p166
aVto-reread
p167
aVit-wikipedia
p168
aVon-hold
p169
aVclassics-i-want-to-read
p170
aVspeculative-fiction
p171
aVproduct-of-its-time
p172
aVon-my-kindle
p173
aVown-ebook
p174
aVe-book
p175
aVanthologies
p176
aVfantasy-fiction
p177
aVshort-story-collections
p178
aVcollected-classics
p179
aVshort-stories-and-novellas
p180
aVownebook
p181
aVclassic-lit
p182
aVreviewed
p183
asS'loc_class'
p184
VPR: Language and Literatures: English literature
p185
sS'n_authors'
p186
I1
sb.