ccopy_reg
_reconstructor
p0
(cdataset.Book
Book
p1
c__builtin__
object
p2
Ntp3
Rp4
(dp5
S'similar_books'
p6
(lp7
sS'genres'
p8
(lp9
sS'author'
p10
I918
sS'countries'
p11
(lp12
I2
asS'year'
p13
I1954
sS'title'
p14
VIF Magazine October 1954
p15
sS'cover'
p16
Vhttps://ia800202.us.archive.org/BookReader/BookReaderImages.php?zip=/35/items/1954-10_IF/1954-10_IF_jp2.zip&file=1954-10_IF_jp2/1954-10_IF_0000.jp2&scale=0&rotate=0
p17
sS'cover_art'
p18
S'http://www.isfdb.org/wiki/images/6/63/WOFIFOCT1954.jpg'
p19
sS'author_name'
p20
VIF Magazine
p21
sS'images_urls'
p22
(lp23
sS'authors'
p24
(lp25
I326
aI956
aI363
aI412
aI948
aI144
aI992
aI365
aI153
aI359
aI414
aI993
aI49
aI387
aI994
aI918
asS'images'
p26
(lp27
sS'id'
p28
I1237
sS'contents'
p29
(lp30
(dp31
g10
I326
sg14
VPower From the Sun
p32
sa(dp33
g10
I956
sg14
VEscape Velocity
p34
sa(dp35
g10
I363
sg14
VQuickie
p36
sa(dp37
g10
I363
sg14
VMoney Is the Root of All Good
p38
sa(dp39
g10
I412
sg14
VA Pattern for Penelope
p40
sa(dp41
g10
I412
sg14
VThe Name of This City
p42
sa(dp43
g10
I956
sg14
VLittle Boy
p44
sa(dp45
g10
I363
sg14
VSpatial Delivery
p46
sa(dp47
g10
I948
sg14
VA Chat with the Editor (If, October 1954)
p48
sa(dp49
g10
I144
sg14
VEscape Velocity
p50
sa(dp51
g10
I992
sg14
VMoney Is the Root of All Good
p52
sa(dp53
g10
I365
sg14
VQuickie
p54
sa(dp55
g10
I153
sg14
VA Pattern for Penelope
p56
sa(dp57
g10
I359
sg14
VThe Name of This City
p58
sa(dp59
g10
I414
sg14
VLittle Boy
p60
sa(dp61
g10
I993
sg14
VMiracle
p62
sa(dp63
g10
I49
sg14
VSpatial Delivery
p64
sa(dp65
g10
I387
sg14
VUnwelcomed Visitor
p66
sa(dp67
g10
I994
sg14
VPeace
p68
sasb.