ccopy_reg
_reconstructor
p0
(cdataset.Book
Book
p1
c__builtin__
object
p2
Ntp3
Rp4
(dp5
S'content_name'
p6
V51397.txt.utf-8
p7
sS'isbn'
p8
V1558749209
p9
sS'year'
p10
I1958
sS'author_name'
p11
VAlan Arkin
p12
sS'images_urls'
p13
(lp14
Vhttp://www.gutenberg.org/files/51397/51397-h/images/cover.jpg
p15
aVhttp://www.gutenberg.org/files/51397/51397-h/images/illus.jpg
p16
asS'language_code'
p17
Veng
p18
sS'images'
p19
(lp20
sS'id'
p21
I341
sS'category'
p22
VText
p23
sS'genres'
p24
(lp25
sS'copyright'
p26
VPublic domain in the USA.
p27
sS'title'
p28
VPeople Soup
p29
sS'wikipedia'
p30
(dp31
S'found'
p32
I00
ssS'average_rating'
p33
F3.94
sS'rating_count'
p34
I28710
sS'content_available'
p35
I01
sS'cover_art_url'
p36
S'http://www.gutenberg.org/cache/epub/51397/pg51397.cover.medium.jpg'
p37
sS'goodreads'
p38
(dp39
S'url'
p40
Vhttps://www.goodreads.com/book/show/801178.Chicken_Soup_for_the_Soul
p41
sg32
I01
sS'year'
p42
I1993
ssS'similar_books'
p43
(lp44
VLife's Little Instruction Book: 511 Suggestions, Observations, and Reminders on How to Live a Happy and Rewarding Life
p45
aVSelf Matters: Creating Your Life from the Inside Out
p46
aVFollow Your Heart
p47
aVStories for the Heart: Over 100 Stories to Encourage Your Soul
p48
aVExcuses Begone!: How to Change Lifelong, Self-Defeating Thinking Habits
p49
aVThe 7 Habits of Highly Effective Families
p50
aVThe Language of Letting Go: Daily Meditations on Codependency (Hazelden Meditation Series)
p51
aVThe Color Code: A New Way to See Yourself, Your Relationships, and Life
p52
aVYour Best Life Now: 7 Steps to Living at Your Full Potential
p53
aVChildren's Letters to God: The New Collection
p54
aVBuilding Mental Muscle: Conditioning Exercises for the Six Intelligence Zones
p55
aVHow to Mind Map: The Ultimate Thinking Tool That Will Change Your Life
p56
aVThe Personality Code
p57
aVAnyway: The Paradoxical Commandments: Finding Personal Meaning in a Crazy World
p58
aVWomen Who Love Too Much: When You Keep Wishing and Hoping He'll Change
p59
aV50 Prosperity Classics: Attract It, Create It, Manage It, Share It
p60
aVThe English Doctor's Baby (Westerling, #3)
p61
aVSolomon's Fine Featherless Friends (Sara, #2)
p62
asS'description'
p63
VRediscover the power of inspiration with timeless stories about the everyday miracles that illuminate the best of the human spirit. Whether you're discovering Chicken Soup for the first time or are a long time fan, this volume will inspire you to be a better person, reach for your highest potential, share your love and embrace the world around you.
p64
sS'format'
p65
NsS'gutenberg'
p66
(dp67
g40
Vhttp://www.gutenberg.org/ebooks/51397
p68
sS'num'
p69
I51397
ssS'authors'
p70
(lp71
I110
asS'pages'
p72
I428
sS'isbn13'
p73
V9781558749207
p74
sS'language'
p75
VEnglish
p76
sS'countries'
p77
(lp78
I2
asS'release_date'
p79
S'2016-03-08T00:00:00'
p80
sS'author'
p81
I110
sS'content_cleaned'
p82
I01
sS'classes'
p83
(lp84
Vto-read
p85
aVnon-fiction
p86
aVself-help
p87
aVcurrently-reading
p88
aVinspirational
p89
aVfavorites
p90
aVshort-stories
p91
aVchicken-soup
p92
aVbooks-i-own
p93
aVnonfiction
p94
aVowned
p95
aVdefault
p96
aVpsychology
p97
aVpersonal-development
p98
aVspirituality
p99
aVspiritual
p100
aVinspiration
p101
aVself-improvement
p102
aVfiction
p103
aVself-development
p104
aVmy-books
p105
aVto-buy
p106
aVchicken-soup-for-the-soul
p107
aVi-own
p108
aVessays
p109
aVphilosophy
p110
aVshort-story
p111
aVyoung-adult
p112
aVseries
p113
aVjack-canfield
p114
aVmotivational
p115
aV\u062a\u0646\u0645\u064a\u0629-\u0628\u0634\u0631\u064a\u0629
p116
aVlibrary
p117
aVebook
p118
aVchristian
p119
aVother
p120
aVfavorite
p121
aVmy-library
p122
aVebooks
p123
aVcollection
p124
aVadult
p125
aVpoetry
p126
aV1
p127
aVenglish
p128
aVhealth
p129
aVanthologies
p130
aVre-read
p131
aVlife
p132
aVmemoir
p133
aVown-it
p134
aVowned-books
p135
aVlife-lessons
p136
aVhome-library
p137
aVself
p138
aVmotivation
p139
aVpersonal
p140
aVanthology
p141
aVhappiness
p142
aVreligious
p143
aVadult-non-fiction
p144
aVmy-collection
p145
aVbooks-i-have
p146
aVhome
p147
aVfaith
p148
aVbooks
p149
aVcontemporary
p150
aVself-help-books
p151
aVchildhood
p152
aVmisc
p153
aVchristian-fiction
p154
aVin-my-library
p155
aVfeel-good
p156
aVwish-list
p157
aVinspiring
p158
aVselfhelp
p159
aVshelfari-favorites
p160
aVa
p161
aVwant-to-buy
p162
aVlifestyle
p163
aVpaperback
p164
aVamerican
p165
aVspiritual-books
p166
aVya
p167
aVgeneral
p168
aV\u0631\u0648\u0627\u064a\u0627\u062a
p169
aVchicken-soup-books
p170
aVchildhood-reads
p171
aVshort
p172
aVpsychology-self-help
p173
aVdid-not-finish
p174
aVpdf
p175
aVshort-story-collections
p176
aVfav
p177
aVlater
p178
aVhave
p179
aVread-non-fiction
p180
aVmust-reads
p181
aVinspire
p182
aVfinished
p183
aVmy-favorites
p184
asS'loc_class'
p185
S''
p186
sS'n_authors'
p187
I1
sb.