ccopy_reg
_reconstructor
p0
(cdataset.Book
Book
p1
c__builtin__
object
p2
Ntp3
Rp4
(dp5
S'content_name'
p6
V30234.txt.utf-8
p7
sS'isbn'
p8
NsS'year'
p9
I1956
sS'author_name'
p10
VLester Del Rey
p11
sS'images_urls'
p12
(lp13
Vhttp://www.gutenberg.org/files/30234/30234-h/images/001.png
p14
aVhttp://www.gutenberg.org/files/30234/30234-h/images/002-1.jpg
p15
aVhttp://www.gutenberg.org/files/30234/30234-h/images/002-2.jpg
p16
asS'language_code'
p17
NsS'images'
p18
(lp19
sS'id'
p20
I240
sS'category'
p21
VText
p22
sS'genres'
p23
(lp24
sS'copyright'
p25
VPublic domain in the USA.
p26
sS'title'
p27
VDead Ringer
p28
sS'wikipedia'
p29
(dp30
S'found'
p31
I00
ssS'average_rating'
p32
F3.42
sS'rating_count'
p33
I57
sS'content_available'
p34
I01
sS'goodreads'
p35
(dp36
S'url'
p37
S'https://www.goodreads.com/book/show/11765564-dead-ringer'
p38
sS'found'
p39
I01
ssS'similar_books'
p40
(lp41
sS'description'
p42
VDead Ringer appeared in the November 1956 issue of Galaxy Science Fiction.<br /><br />There was nothing, especially on Earth, which could set him free--the truth least of all!
p43
sS'gutenberg'
p44
(dp45
S'url'
p46
Vhttp://www.gutenberg.org/ebooks/30234
p47
sS'num'
p48
I30234
ssS'authors'
p49
(lp50
I73
asS'isbn13'
p51
NsS'language'
p52
VEnglish
p53
sS'countries'
p54
(lp55
I2
asS'release_date'
p56
S'2009-10-11T00:00:00'
p57
sS'author'
p58
I73
sS'cover'
p59
Vhttps://s.gr-assets.com/assets/nophoto/book/111x148-bcc042a9c91a29c1d680899eff700a03.png
p60
sS'content_cleaned'
p61
I01
sS'classes'
p62
(lp63
Vto-read
p64
aVcurrently-reading
p65
aVscience-fiction
p66
aVshort-story
p67
aVshelfari
p68
aVsci-fi
p69
aVone-a-day-4
p70
aVone-book-a-day
p71
aVanthology
p72
aVsupernatural-horror
p73
aVgolden-age-scifi
p74
aV21st-century-lit
p75
aVbooks
p76
aVaudiobooks
p77
aVaudio
p78
aVbooks-i-own
p79
aVowned-pending-kindle-free-ebook
p80
aVkindle-free-ebook
p81
aVsf
p82
aVscifi-and-horror
p83
aVamazon
p84
aVreimport
p85
aVkindle
p86
aVebook
p87
aVtype-short-story
p88
aVreorganize2
p89
aVreorganize
p90
aVreimport2
p91
aV2013-reads
p92
asS'loc_class'
p93
VPS: Language and Literatures: American and Canadian literature
p94
sS'n_authors'
p95
I1
sb.