ccopy_reg
_reconstructor
p0
(cdataset.Book
Book
p1
c__builtin__
object
p2
Ntp3
Rp4
(dp5
S'similar_books'
p6
(lp7
sS'genres'
p8
(lp9
sS'author'
p10
I302
sS'countries'
p11
(lp12
I2
asS'year'
p13
I1951
sS'title'
p14
VGalaxy Magazine April 1951
p15
sS'cover'
p16
Vhttps://ia600205.us.archive.org/BookReader/BookReaderImages.php?zip=/34/items/Galaxy_v02n01_1951-04/Galaxy_v02n01_1951-04_jp2.zip&file=Galaxy_v02n01_1951-04_jp2/Galaxy_v02n01_1951-04_0000.jp2&scale=0&rotate=0
p17
sS'cover_art'
p18
S'http://www.isfdb.org/wiki/images/7/7b/GALAPR1951.jpg'
p19
sS'author_name'
p20
VGalaxy Magazine
p21
sS'images_urls'
p22
(lp23
sS'authors'
p24
(lp25
I357
aI336
aI347
aI360
aI342
aI305
aI340
aI30
aI361
aI51
aI32
aI98
aI362
aI302
asS'images'
p26
(lp27
sS'id'
p28
I980
sS'contents'
p29
(lp30
(dp31
g10
I357
sg14
VNice Girl with Five Husbands
p32
sa(dp33
g10
I357
sg14
VNice Girl with Five Husbands [2]
p34
sa(dp35
g10
I336
sg14
VInside Earth
p36
sa(dp37
g10
I336
sg14
VInside Earth [2]
p38
sa(dp39
g10
I336
sg14
VInside Earth [3]
p40
sa(dp41
g10
I336
sg14
VInside Earth [4]
p42
sa(dp43
g10
I347
sg14
VBetelgeuse Bridge
p44
sa(dp45
g10
I347
sg14
VBetelgeuse Bridge [2]
p46
sa(dp47
g10
I360
sg14
VI, the Unspeakable
p48
sa(dp49
g10
I360
sg14
VI, the Unspeakable [2]
p50
sa(dp51
g10
I360
sg14
VI, the Unspeakable [3]
p52
sa(dp53
g10
I347
sg14
VField Study
p54
sa(dp55
g10
I347
sg14
VField Study [2]
p56
sa(dp57
g10
I342
sg14
VThe Marching Morons
p58
sa(dp59
g10
I342
sg14
VThe Marching Morons [2]
p60
sa(dp61
g10
I342
sg14
VThe Marching Morons [3]
p62
sa(dp63
g10
I305
sg14
VTreasurer's Report
p64
sa(dp65
g10
I340
sg14
VGalaxy's Five-Star Shelf (Galaxy, April 1951)
p66
sa(dp67
g10
I30
sg14
VInside Earth
p68
sa(dp69
g10
I361
sg14
VI, the Unspeakable
p70
sa(dp71
g10
I51
sg14
VThe Marching Morons
p72
sa(dp73
g10
I32
sg14
VNice Girl with Five Husbands
p74
sa(dp75
g10
I98
sg14
VBetelgeuse Bridge
p76
sa(dp77
g10
I362
sg14
VField Study
p78
sasb.