ccopy_reg
_reconstructor
p0
(cdataset.Book
Book
p1
c__builtin__
object
p2
Ntp3
Rp4
(dp5
S'content_name'
p6
V50884.txt.utf-8
p7
sS'isbn'
p8
V1576739767
p9
sS'year'
p10
I2002
sS'author_name'
p11
VRoger D. Aycock
p12
sS'images_urls'
p13
(lp14
Vhttp://www.gutenberg.org/files/50884/50884-h/images/cover.jpg
p15
aVhttp://www.gutenberg.org/files/50884/50884-h/images/illus.jpg
p16
asS'language_code'
p17
NsS'images'
p18
(lp19
sS'id'
p20
I672
sS'category'
p21
VText
p22
sS'plot'
p23
V
p24
sS'genres'
p25
(lp26
sS'copyright'
p27
VPublic domain in the USA.
p28
sS'title'
p29
VToday is Forever
p30
sS'wikipedia'
p31
(dp32
S'url'
p33
Vhttps://en.wikipedia.org/wiki/Forever_Evil
p34
sS'found'
p35
I01
sS'year'
p36
I-1
ssS'published_in'
p37
NsS'average_rating'
p38
F4.05
sS'rating_count'
p39
I822
sS'content_available'
p40
I01
sS'cover_art_url'
p41
S'http://www.gutenberg.org/cache/epub/50884/pg50884.cover.medium.jpg'
p42
sS'goodreads'
p43
(dp44
g33
Vhttps://www.goodreads.com/book/show/798938.A_Life_God_Rewards
p45
sg35
I01
sg36
I2002
ssS'similar_books'
p46
(lp47
VLiving Beyond the Limits: A Life in Sync with God
p48
aVThe Life God Blesses: The Secret of Enjoying God's Favor
p49
aVMy Heart's Cry
p50
aVSafe in the Shepherd's Arms
p51
aVPeace with God: The Secret of Happiness
p52
aVFlying Closer to the Flame
p53
aVLoving God
p54
aVWhere To Find It In The Bible The Ultimate A To Z Resource Series
p55
aVPraying God's Will For Your Life: A Prayerful Walk To Spiritual Well Being
p56
aVFor Better or for Best: A Valuable Guide to Knowing, Understanding, and Loving Your Husband
p57
aVLiving the Extraordinary Life: Nine Principles to Discover It
p58
aVWith Christ in the School of Prayer
p59
aVLeap Over a Wall: Earthy Spirituality for Everyday Christians
p60
aVWhen, God, When?: Learning to Trust in God's Timing
p61
aVMind Siege: The Battle for the Truth
p62
aVThe Handbook for Spiritual Warfare
p63
asS'description'
p64
NsS'format'
p65
NsS'gutenberg'
p66
(dp67
g33
Vhttp://www.gutenberg.org/ebooks/50884
p68
sS'num'
p69
I50884
ssS'authors'
p70
(lp71
I162
asS'isbn13'
p72
V9781576739761
p73
sS'language'
p74
VEnglish
p75
sS'countries'
p76
(lp77
I2
asS'release_date'
p78
S'2016-01-09T00:00:00'
p79
sS'author'
p80
I162
sS'original_title'
p81
VForever Evil
p82
sS'summary'
p83
V"Forever Evil" is a 2013\u20132014 crossover comic book storyline published by DC Comics that began in September 2013 and ended in May 2014, consisting of an eponymous, central miniseries written by Geoff Johns and art by David Finch. It is the first line wide crossover since The New 52 reboot of the DC Universe, and focuses on all the villains of the DC Universe. The miniseries spins out of the events in "Trinity War". Johns revealed in August 2013, that the Crime Syndicate, an evil version of the Justice League from Earth-3 in the Multiverse, are the true villains of the event and not the previously thought Secret Society. The event was originally scheduled to end in March with Forever Evil #7, yet ended in May 2014, after the final issue got delayed to April, and eventually again to May. The final issue's delay was due to Johns realizing he needed more pages to conclude the story than originally intended.
p84
sS'content_cleaned'
p85
I01
sS'classes'
p86
(lp87
Vto-read
p88
aVchristian
p89
aVcurrently-reading
p90
aVdefault
p91
aVreligion
p92
aVchristianity
p93
aVfaith
p94
aVowned
p95
aVnon-fiction
p96
aVinspirational
p97
aVnonfiction
p98
aVchristian-living
p99
aVlibrary
p100
aVbruce-wilkinson
p101
aVspiritual
p102
aVfavorites
p103
aVspirituality
p104
aVhome
p105
aVchristian-nonfiction
p106
aVself-help
p107
aVbooks-i-own
p108
aVreligious
p109
aVchristian-non-fiction
p110
aVmy-library
p111
aVaudio-cd-s-cassettes
p112
aVtheology
p113
aVdevotional
p114
aVchristian-books
p115
aVchristian-life
p116
aVunread
p117
aVi-own
p118
aVnot-read
p119
aVliving
p120
aVchurch
p121
aVreligion-spirituality
p122
aVadult-non-fiction
p123
aV2006
p124
aVkindle
p125
aVbible-study
p126
aVgainesville-books
p127
aVkaci
p128
aVessays
p129
aVsearch-for-meaning
p130
aVperspective
p131
aVpersonal-growth
p132
aVmaybe-read
p133
aVchristen-books
p134
aVnls
p135
aVbookshare
p136
aVgave-away
p137
aVmy-books
p138
aVread-own
p139
aV2011-and-earlier
p140
aVchristian-praxis
p141
aVpurchased-books-but-not-read
p142
aVpersonaldevelop-psych
p143
aVinspirational-spiritual
p144
aVnonfiction-christianity
p145
aVread-in-2017
p146
aVlibrary-office
p147
aVbookcase-9-shelf-5
p148
aVbookshelf
p149
aVread-in-2016
p150
aV2016-non-fiction
p151
aV2016-five-star
p152
aVgoogle-play-books
p153
aVlife
p154
aVchristian-living-owned
p155
aVchristian-resources
p156
aV2-b-filed
p157
aVchristian-community
p158
aVbible-character-present-days
p159
aV2016a-library-itunes
p160
aVitunes
p161
aVdud
p162
aVfinancial-stewardship
p163
aV_library-professional
p164
aV_collection-at-office
p165
aVshelfari-christian
p166
aVchurch-living
p167
aVhardcover-leather
p168
aVhardback
p169
aV011
p170
aVpurchased
p171
aVfor-sale
p172
aVread-in-2002
p173
aVreligion-cults-spiritual
p174
aVw
p175
aVshelf-to-read
p176
aVlife-rhythm
p177
aVdisciplines-formation-warfare
p178
aVchristian-character
p179
aVdevelopment
p180
aVdad
p181
aVcfot
p182
aV410-spiritual-growth
p183
aVlight-reading
p184
aVshelved
p185
aVzz-guest-room
p186
aVowned-and-read
p187
asS'loc_class'
p188
S''
p189
sS'n_authors'
p190
I1
sb.