ccopy_reg
_reconstructor
p0
(cdataset.Book
Book
p1
c__builtin__
object
p2
Ntp3
Rp4
(dp5
S'content_name'
p6
V18814.txt.utf-8
p7
sS'isbn'
p8
V1443219975
p9
sS'year'
p10
I1950
sS'author_name'
p11
VH. Beam Piper
p12
sS'images_urls'
p13
(lp14
Vhttp://www.gutenberg.org/files/18814/18814-h/images/illus1.jpg
p15
aVhttp://www.gutenberg.org/files/18814/18814-h/images/illus3.jpg
p16
asS'language_code'
p17
Veng
p18
sS'id'
p19
I157
sS'category'
p20
VText
p21
sS'genres'
p22
(lp23
sS'copyright'
p24
VPublic domain in the USA.
p25
sS'title'
p26
VThe Mercenaries
p27
sS'wikipedia'
p28
(dp29
S'found'
p30
I00
ssS'average_rating'
p31
F3.99
sS'rating_count'
p32
I29
sS'content_available'
p33
I01
sS'goodreads'
p34
(dp35
S'url'
p36
S'https://www.goodreads.com/book/show/13498265-the-mercenaries'
p37
sS'found'
p38
I01
ssS'similar_books'
p39
(lp40
sS'description'
p41
VOnce, wars were won by maneuvering hired fighting men; now wars are different\u2014and the hired experts are different. But the human problems remain!
p42
sS'gutenberg'
p43
(dp44
S'url'
p45
Vhttp://www.gutenberg.org/ebooks/18814
p46
sS'num'
p47
I18814
ssS'authors'
p48
(lp49
I19
asS'pages'
p50
I22
sS'isbn13'
p51
V9781443219976
p52
sS'language'
p53
VEnglish
p54
sS'countries'
p55
(lp56
I2
asS'release_date'
p57
S'2006-07-12T00:00:00'
p58
sS'author'
p59
I19
sS'cover'
p60
Vhttps://images.gr-assets.com/books/1330073672l/13498265.jpg
p61
sS'content_cleaned'
p62
I00
sS'classes'
p63
(lp64
Vto-read
p65
aVcurrently-reading
p66
aVshort-stories
p67
aVscience-fiction
p68
aVscifi
p69
aVshort-story
p70
aVhave-but-not-read
p71
aV20th-century-lit
p72
aVebook
p73
aVsfpl
p74
aV15
p75
aVmy-books
p76
aVebooks
p77
aVon-disk
p78
aVsf-challenge
p79
aVsf
p80
aVfiction
p81
aVscifi-fantasy
p82
aVkindle
p83
asS'loc_class'
p84
VPS: Language and Literatures: American and Canadian literature
p85
sS'n_authors'
p86
I1
sb.