ccopy_reg
_reconstructor
p0
(cdataset.Book
Book
p1
c__builtin__
object
p2
Ntp3
Rp4
(dp5
S'content_name'
p6
V30015.txt.utf-8
p7
sS'isbn'
p8
NsS'year'
p9
I-1
sS'author_name'
p10
VRobert E. Gilbert
p11
sS'images_urls'
p12
(lp13
Vhttp://www.gutenberg.org/files/30015/30015-h/images/001.png
p14
aVhttp://www.gutenberg.org/files/30015/30015-h/images/002-1.jpg
p15
aVhttp://www.gutenberg.org/files/30015/30015-h/images/002-2.jpg
p16
asS'language_code'
p17
NsS'id'
p18
I564
sS'category'
p19
VText
p20
sS'genres'
p21
(lp22
sS'copyright'
p23
VPublic domain in the USA.
p24
sS'title'
p25
VStopover Planet
p26
sS'wikipedia'
p27
(dp28
S'found'
p29
I00
ssS'average_rating'
p30
F2.88
sS'rating_count'
p31
I7
sS'content_available'
p32
I01
sS'goodreads'
p33
(dp34
S'url'
p35
Vhttps://www.goodreads.com/book/show/12241295-stopover-planet
p36
sS'found'
p37
I01
sS'year'
p38
I2010
ssS'similar_books'
p39
(lp40
sS'description'
p41
VThis work has been previously published and carefully edited by humans to be read digitally on your eReader. Please enjoy this historical and classic work. All of our titles are only 99 cents and are formatted to work with the Nook. Also, if it is an illustrated work, you will be able to see all of the original images. This makes them the best quality classic works available for the lowest price. So enjoy this classic work as if it were the original book!
p42
sS'gutenberg'
p43
(dp44
g35
Vhttp://www.gutenberg.org/ebooks/30015
p45
sS'num'
p46
I30015
ssS'authors'
p47
(lp48
I188
asS'isbn13'
p49
V2940012116154
p50
sS'language'
p51
VEnglish
p52
sS'countries'
p53
(lp54
I3
asS'release_date'
p55
S'2009-09-17T00:00:00'
p56
sS'author'
p57
I188
sS'cover'
p58
Vhttps://s.gr-assets.com/assets/nophoto/book/111x148-bcc042a9c91a29c1d680899eff700a03.png
p59
sS'content_cleaned'
p60
I01
sS'classes'
p61
(lp62
Vscience-fiction
p63
aVshort-story
p64
aVbooks-i-reviewed
p65
aVaudio-obtained-lvss
p66
aVshort-stories
p67
aVscience-ficton
p68
aVtype-short-story
p69
aVaudio-obtained-ss
p70
asS'loc_class'
p71
VPS: Language and Literatures: American and Canadian literature
p72
sS'n_authors'
p73
I1
sb.