ccopy_reg
_reconstructor
p0
(cdataset.Book
Book
p1
c__builtin__
object
p2
Ntp3
Rp4
(dp5
S'similar_books'
p6
(lp7
sS'genres'
p8
(lp9
sS'author'
p10
I302
sS'countries'
p11
(lp12
I2
asS'year'
p13
I1975
sS'title'
p14
VGalaxy Magazine June 1975
p15
sS'cover'
p16
Vhttps://ia600205.us.archive.org/BookReader/BookReaderImages.php?zip=/7/items/Galaxy_v36n05_1975-06/Galaxy_v36n05_1975-06_jp2.zip&file=Galaxy_v36n05_1975-06_jp2/Galaxy_v36n05_1975-06_0000.jp2&scale=0&rotate=0
p17
sS'cover_art'
p18
S'http://www.isfdb.org/wiki/images/b/b1/GALJUN75.jpg'
p19
sS'author_name'
p20
VGalaxy Magazine
p21
sS'images_urls'
p22
(lp23
sS'authors'
p24
(lp25
I753
aI499
aI744
aI770
aI734
aI326
aI86
aI778
aI748
aI779
aI774
aI759
aI302
asS'images'
p26
(lp27
sS'id'
p28
I1184
sS'contents'
p29
(lp30
(dp31
g10
I753
sg14
VThe Eternity Engine
p32
sa(dp33
g10
I499
sg14
VElephant with Wooden Leg
p34
sa(dp35
g10
I499
sg14
VHelium (Part 2 of 3)
p36
sa(dp37
g10
I499
sg14
VHelium (Part 2 of 3) [2]
p38
sa(dp39
g10
I744
sg14
VThe Venging
p40
sa(dp41
g10
I499
sg14
VLet Darkness Fall
p42
sa(dp43
g10
I744
sg14
VThe Yidam
p44
sa(dp45
g10
I744
sg14
VCartoon: "Phalaxy?"
p46
sa(dp47
g10
I753
sg14
VShowcase (Galaxy, June 1975)
p48
sa(dp49
g10
I770
sg14
VBookshelf (Galaxy, June 1975)
p50
sa(dp51
g10
I734
sg14
VThe New Faces of Big Science
p52
sa(dp53
g10
I326
sg14
VDirections (Galaxy, June 1975)
p54
sa(dp55
g10
I86
sg14
VThe Eternity Engine
p56
sa(dp57
g10
I778
sg14
VThe Venging
p58
sa(dp59
g10
I748
sg14
VHelium (Part 2 of 3)
p60
sa(dp61
g10
I779
sg14
VElephant with Wooden Leg
p62
sa(dp63
g10
I774
sg14
VLet Darkness Fall
p64
sa(dp65
g10
I759
sg14
VThe Yidam
p66
sasb.