ccopy_reg
_reconstructor
p0
(cdataset.Book
Book
p1
c__builtin__
object
p2
Ntp3
Rp4
(dp5
S'content_name'
p6
V29848.txt.utf-8
p7
sS'isbn'
p8
NsS'year'
p9
I1930
sS'author_name'
p10
VVarious
p11
sS'images_urls'
p12
(lp13
Vhttp://www.gutenberg.org/files/29848/29848-h/images/cover.jpg
p14
aVhttp://www.gutenberg.org/files/29848/29848-h/images/image_001.jpg
p15
aVhttp://www.gutenberg.org/files/29848/29848-h/images/image_002.jpg
p16
aVhttp://www.gutenberg.org/files/29848/29848-h/images/image_003.jpg
p17
aVhttp://www.gutenberg.org/files/29848/29848-h/images/image_004.jpg
p18
aVhttp://www.gutenberg.org/files/29848/29848-h/images/image_005.jpg
p19
aVhttp://www.gutenberg.org/files/29848/29848-h/images/image_006.jpg
p20
aVhttp://www.gutenberg.org/files/29848/29848-h/images/image_007.jpg
p21
aVhttp://www.gutenberg.org/files/29848/29848-h/images/image_008.jpg
p22
aVhttp://www.gutenberg.org/files/29848/29848-h/images/image_009.jpg
p23
aVhttp://www.gutenberg.org/files/29848/29848-h/images/image_010.jpg
p24
aVhttp://www.gutenberg.org/files/29848/29848-h/images/image_011.jpg
p25
aVhttp://www.gutenberg.org/files/29848/29848-h/images/image_011_01.jpg
p26
aVhttp://www.gutenberg.org/files/29848/29848-h/images/image_011_02.jpg
p27
aVhttp://www.gutenberg.org/files/29848/29848-h/images/image_012.jpg
p28
aVhttp://www.gutenberg.org/files/29848/29848-h/images/image_013.jpg
p29
aVhttp://www.gutenberg.org/files/29848/29848-h/images/image_a.jpg
p30
aVhttp://www.gutenberg.org/files/29848/29848-h/images/image_a1.jpg
p31
aVhttp://www.gutenberg.org/files/29848/29848-h/images/image_b.jpg
p32
aVhttp://www.gutenberg.org/files/29848/29848-h/images/image_b1.jpg
p33
aVhttp://www.gutenberg.org/files/29848/29848-h/images/image_c.jpg
p34
aVhttp://www.gutenberg.org/files/29848/29848-h/images/image_d.jpg
p35
aVhttp://www.gutenberg.org/files/29848/29848-h/images/image_d1.jpg
p36
aVhttp://www.gutenberg.org/files/29848/29848-h/images/image_e.jpg
p37
aVhttp://www.gutenberg.org/files/29848/29848-h/images/image_e1.jpg
p38
aVhttp://www.gutenberg.org/files/29848/29848-h/images/image_f.jpg
p39
aVhttp://www.gutenberg.org/files/29848/29848-h/images/image_g.jpg
p40
aVhttp://www.gutenberg.org/files/29848/29848-h/images/image_g1.jpg
p41
aVhttp://www.gutenberg.org/files/29848/29848-h/images/image_h.jpg
p42
aVhttp://www.gutenberg.org/files/29848/29848-h/images/image_h1.jpg
p43
aVhttp://www.gutenberg.org/files/29848/29848-h/images/image_i.jpg
p44
aVhttp://www.gutenberg.org/files/29848/29848-h/images/image_i1.jpg
p45
aVhttp://www.gutenberg.org/files/29848/29848-h/images/image_j.jpg
p46
aVhttp://www.gutenberg.org/files/29848/29848-h/images/image_l.jpg
p47
aVhttp://www.gutenberg.org/files/29848/29848-h/images/image_l1.jpg
p48
aVhttp://www.gutenberg.org/files/29848/29848-h/images/image_m.jpg
p49
aVhttp://www.gutenberg.org/files/29848/29848-h/images/image_m1.jpg
p50
aVhttp://www.gutenberg.org/files/29848/29848-h/images/image_n.jpg
p51
aVhttp://www.gutenberg.org/files/29848/29848-h/images/image_n1.jpg
p52
aVhttp://www.gutenberg.org/files/29848/29848-h/images/image_o.jpg
p53
aVhttp://www.gutenberg.org/files/29848/29848-h/images/image_o1.jpg
p54
aVhttp://www.gutenberg.org/files/29848/29848-h/images/image_p.jpg
p55
aVhttp://www.gutenberg.org/files/29848/29848-h/images/image_p1.jpg
p56
aVhttp://www.gutenberg.org/files/29848/29848-h/images/image_r.jpg
p57
aVhttp://www.gutenberg.org/files/29848/29848-h/images/image_s.jpg
p58
aVhttp://www.gutenberg.org/files/29848/29848-h/images/image_s1.jpg
p59
aVhttp://www.gutenberg.org/files/29848/29848-h/images/image_t.jpg
p60
aVhttp://www.gutenberg.org/files/29848/29848-h/images/image_t1.jpg
p61
aVhttp://www.gutenberg.org/files/29848/29848-h/images/image_u.jpg
p62
aVhttp://www.gutenberg.org/files/29848/29848-h/images/image_w.jpg
p63
aVhttp://www.gutenberg.org/files/29848/29848-h/images/image_w1.jpg
p64
aVhttp://www.gutenberg.org/files/29848/29848-h/images/image_y.jpg
p65
aVhttp://www.gutenberg.org/files/29848/29848-h/images/image_y1.jpg
p66
asS'language_code'
p67
NsS'id'
p68
I84
sS'category'
p69
VText
p70
sS'genres'
p71
(lp72
sS'copyright'
p73
VPublic domain in the USA.
p74
sS'title'
p75
VAstounding Stories of Super-Science, June, 1930
p76
sS'wikipedia'
p77
(dp78
S'found'
p79
I00
ssS'average_rating'
p80
F3.36
sS'rating_count'
p81
I9
sS'content_available'
p82
I01
sS'cover_art_url'
p83
S'http://www.gutenberg.org/cache/epub/29848/pg29848.cover.medium.jpg'
p84
sS'goodreads'
p85
(dp86
S'url'
p87
Vhttps://www.goodreads.com/book/show/8882714-astounding-stories-of-super-science-june-1930
p88
sS'found'
p89
I01
sS'year'
p90
I2009
ssS'similar_books'
p91
(lp92
sS'description'
p93
VThis book was converted from its physical edition to the digital format by a community of volunteers. You may find it for free on the web. Purchase of the Kindle edition includes wireless delivery.
p94
sS'format'
p95
NsS'gutenberg'
p96
(dp97
g87
Vhttp://www.gutenberg.org/ebooks/29848
p98
sS'num'
p99
I29848
ssS'authors'
p100
(lp101
I17
asS'isbn13'
p102
NsS'language'
p103
VEnglish
p104
sS'countries'
p105
(lp106
I3
asS'release_date'
p107
S'2009-08-29T00:00:00'
p108
sS'author'
p109
I17
sS'content_cleaned'
p110
I01
sS'classes'
p111
(lp112
Vto-read
p113
aVsci-fi
p114
aVshort-stories
p115
aVpulp
p116
aVgutenberg-org
p117
aVscience-fiction
p118
aVgutenberg
p119
asS'loc_class'
p120
VPN: Language and Literatures: Literature: General, Criticism, Collections
p121
sS'n_authors'
p122
I1
sb.