ccopy_reg
_reconstructor
p0
(cdataset.Book
Book
p1
c__builtin__
object
p2
Ntp3
Rp4
(dp5
S'content_name'
p6
V29038.txt.utf-8
p7
sS'isbn'
p8
NsS'year'
p9
I2011
sS'author_name'
p10
VRoman Frederick Starzl
p11
sS'images_urls'
p12
(lp13
Vhttp://www.gutenberg.org/files/29038/29038-h/images/image_001.jpg
p14
asS'language_code'
p15
NsS'images'
p16
(lp17
sS'id'
p18
I538
sS'category'
p19
VText
p20
sS'genres'
p21
(lp22
sS'copyright'
p23
VPublic domain in the USA.
p24
sS'title'
p25
VIn the Orbit of Saturn
p26
sS'wikipedia'
p27
(dp28
S'found'
p29
I00
ssS'average_rating'
p30
F3.4
sS'rating_count'
p31
I5
sS'content_available'
p32
I01
sS'goodreads'
p33
(dp34
S'url'
p35
Vhttps://www.goodreads.com/book/show/20568421-in-the-orbit-of-saturn
p36
sg29
I01
sS'year'
p37
I2011
ssS'similar_books'
p38
(lp39
sS'description'
p40
NsS'format'
p41
NsS'gutenberg'
p42
(dp43
g35
Vhttp://www.gutenberg.org/ebooks/29038
p44
sS'num'
p45
I29038
ssS'authors'
p46
(lp47
I178
asS'isbn13'
p48
NsS'language'
p49
VEnglish
p50
sS'release_date'
p51
S'2009-06-04T00:00:00'
p52
sS'author'
p53
I178
sS'content_cleaned'
p54
I01
sS'classes'
p55
(lp56
Vshort-stories
p57
aVspce-opera
p58
aVpulp
p59
aVfiction
p60
aV20th-century
p61
aVsci-fi-classics
p62
aVcalibre
p63
aVto-read
p64
aVscifi
p65
asS'loc_class'
p66
VPS: Language and Literatures: American and Canadian literature
p67
sS'n_authors'
p68
I1
sb.