ccopy_reg
_reconstructor
p0
(cdataset.Book
Book
p1
c__builtin__
object
p2
Ntp3
Rp4
(dp5
S'content_name'
p6
V18261.txt.utf-8
p7
sS'isbn'
p8
NsS'year'
p9
I2011
sS'author_name'
p10
VH. Beam Piper
p11
sS'images_urls'
p12
(lp13
Vhttp://www.gutenberg.org/files/18261/18261-h/images/001_01.jpg
p14
aVhttp://www.gutenberg.org/files/18261/18261-h/images/001_02.jpg
p15
aVhttp://www.gutenberg.org/files/18261/18261-h/images/002_01.jpg
p16
aVhttp://www.gutenberg.org/files/18261/18261-h/images/002_03.jpg
p17
asS'language_code'
p18
NsS'images'
p19
(lp20
sS'id'
p21
I393
sS'category'
p22
VText
p23
sS'genres'
p24
(lp25
sS'copyright'
p26
VPublic domain in the USA.
p27
sS'title'
p28
VOperation R.S.V.P.
p29
sS'wikipedia'
p30
(dp31
S'found'
p32
I00
ssS'average_rating'
p33
F3.36
sS'rating_count'
p34
I20
sS'content_available'
p35
I01
sS'goodreads'
p36
(dp37
S'url'
p38
Vhttps://www.goodreads.com/book/show/19005416-operation-r-s-v-p
p39
sg32
I01
sS'year'
p40
I2011
ssS'similar_books'
p41
(lp42
sS'description'
p43
NsS'format'
p44
NsS'gutenberg'
p45
(dp46
g38
Vhttp://www.gutenberg.org/ebooks/18261
p47
sS'num'
p48
I18261
ssS'authors'
p49
(lp50
I19
asS'isbn13'
p51
NsS'language'
p52
VEnglish
p53
sS'release_date'
p54
S'2006-04-26T00:00:00'
p55
sS'author'
p56
I19
sS'content_cleaned'
p57
I01
sS'classes'
p58
(lp59
Vto-read
p60
aVscience-fiction
p61
aVshort-story
p62
aVscifi
p63
aVcurrently-reading
p64
aVaudiobooks
p65
aV15
p66
aVfiction
p67
aVkindle
p68
aVon-disk
p69
aVshort-stories
p70
aVsf-challenge
p71
aVsf
p72
aVtype-short-story
p73
asS'loc_class'
p74
VPS: Language and Literatures: American and Canadian literature
p75
sS'n_authors'
p76
I1
sb.