ccopy_reg
_reconstructor
p0
(cdataset.Book
Book
p1
c__builtin__
object
p2
Ntp3
Rp4
(dp5
S'isbn'
p6
NsS'year'
p7
I-1
sS'author_name'
p8
VEd M. Clinton
p9
sS'images_urls'
p10
(lp11
Vhttp://www.gutenberg.org/files/35759/35759-h/images/cover.jpg
p12
aVhttp://www.gutenberg.org/files/35759/35759-h/images/im1.png
p13
aVhttp://www.gutenberg.org/files/35759/35759-rst/images/cover.jpg
p14
aVhttp://www.gutenberg.org/files/35759/35759-rst/images/im1.png
p15
asS'language_code'
p16
NsS'id'
p17
I873
sS'category'
p18
VText
p19
sS'genres'
p20
(lp21
sS'copyright'
p22
VPublic domain in the USA.
p23
sS'title'
p24
VSecurity Risk
p25
sS'wikipedia'
p26
(dp27
S'found'
p28
I00
ssS'average_rating'
p29
F3.54
sS'rating_count'
p30
I27
sS'content_available'
p31
I00
sS'cover_art_url'
p32
S'http://www.gutenberg.org/cache/epub/35759/pg35759.cover.medium.jpg'
p33
sS'goodreads'
p34
(dp35
S'url'
p36
Vhttps://www.goodreads.com/book/show/11774880-security-risk
p37
sS'found'
p38
I01
sS'year'
p39
I2011
ssS'similar_books'
p40
(lp41
sS'description'
p42
NsS'format'
p43
NsS'gutenberg'
p44
(dp45
g36
Vhttp://www.gutenberg.org/ebooks/35759
p46
sS'num'
p47
I35759
ssS'authors'
p48
(lp49
I231
asS'isbn13'
p50
NsS'language'
p51
VEnglish
p52
sS'countries'
p53
(lp54
I2
asS'release_date'
p55
S'2011-04-02T00:00:00'
p56
sS'author'
p57
I231
sS'classes'
p58
(lp59
Vto-read
p60
aVpaige-tyler
p61
aVerotic
p62
aVbdsm
p63
aVcurrently-reading
p64
aVkindle
p65
aVcontemporary
p66
aVerotica
p67
aVkindle-books
p68
aVdl
p69
aVm
p70
aVquickies
p71
aVcontemp-romance
p72
aVbooks-i-own
p73
aVok
p74
aVhot
p75
aVspanking-specific
p76
aVerotic-and-contemporary
p77
aVromance-to-read
p78
aVmy-dropbox
p79
aVromance-erotica
p80
aVromance-contemporary
p81
aVromance
p82
aVcontemporary-erotica
p83
aVlaw-enforcement
p84
aVlend-me-books
p85
aVmen-in-uniform
p86
aVebook
p87
aVnon-nook-books
p88
aV2-romance-to-read
p89
aVmust-read
p90
asS'loc_class'
p91
VPS: Language and Literatures: American and Canadian literature
p92
sS'n_authors'
p93
I1
sb.