ccopy_reg
_reconstructor
p0
(cdataset.Book
Book
p1
c__builtin__
object
p2
Ntp3
Rp4
(dp5
S'content_name'
p6
V23160.txt.utf-8
p7
sS'isbn'
p8
NsS'year'
p9
I2010
sS'author_name'
p10
VWilliam Carroll
p11
sS'images_urls'
p12
(lp13
Vhttp://www.gutenberg.org/files/23160/23160-h/images/001.png
p14
aVhttp://www.gutenberg.org/files/23160/23160-page-images/p058.png
p15
aVhttp://www.gutenberg.org/files/23160/23160-page-images/p059.png
p16
aVhttp://www.gutenberg.org/files/23160/23160-page-images/p060.png
p17
aVhttp://www.gutenberg.org/files/23160/23160-page-images/p061.png
p18
aVhttp://www.gutenberg.org/files/23160/23160-page-images/p062.png
p19
aVhttp://www.gutenberg.org/files/23160/23160-page-images/p063.png
p20
aVhttp://www.gutenberg.org/files/23160/23160-page-images/p064.png
p21
aVhttp://www.gutenberg.org/files/23160/23160-page-images/p065.png
p22
aVhttp://www.gutenberg.org/files/23160/23160-page-images/p066.png
p23
aVhttp://www.gutenberg.org/files/23160/23160-page-images/p067.png
p24
asS'language_code'
p25
Veng
p26
sS'images'
p27
(lp28
sS'id'
p29
I604
sS'category'
p30
VText
p31
sS'genres'
p32
(lp33
sS'copyright'
p34
VPublic domain in the USA.
p35
sS'title'
p36
VSolomon's Orbit
p37
sS'wikipedia'
p38
(dp39
S'found'
p40
I00
ssS'average_rating'
p41
F3.14
sS'rating_count'
p42
I14
sS'content_available'
p43
I01
sS'goodreads'
p44
(dp45
S'url'
p46
Vhttps://www.goodreads.com/book/show/10171145-solomon-s-orbit
p47
sg40
I01
sS'year'
p48
I2010
ssS'similar_books'
p49
(lp50
sS'description'
p51
VShort science fiction classic by William Carroll
p52
sS'format'
p53
NsS'gutenberg'
p54
(dp55
g46
Vhttp://www.gutenberg.org/ebooks/23160
p56
sS'num'
p57
I23160
ssS'authors'
p58
(lp59
I202
asS'isbn13'
p60
V2940012547156
p61
sS'language'
p62
VEnglish
p63
sS'release_date'
p64
S'2007-10-24T00:00:00'
p65
sS'author'
p66
I202
sS'content_cleaned'
p67
I01
sS'classes'
p68
(lp69
Vscience-fiction
p70
aVshort-story
p71
aVfiction
p72
aVaudio
p73
aVaudio-obtained-lvss
p74
aVshort-stories
p75
aVto-read
p76
aV1960s
p77
aVlibrivox-short-scifi
p78
aVsci-fi
p79
aVtype-short-story
p80
aVaudio-obtained-ss
p81
aVsci-fi-fantasy
p82
asS'loc_class'
p83
VPS: Language and Literatures: American and Canadian literature
p84
sS'n_authors'
p85
I1
sb.