ccopy_reg
_reconstructor
p0
(cdataset.Book
Book
p1
c__builtin__
object
p2
Ntp3
Rp4
(dp5
S'content_name'
p6
V26843.txt.utf-8
p7
sS'isbn'
p8
NsS'year'
p9
I1960
sS'author_name'
p10
VJack Sharkey
p11
sS'images_urls'
p12
(lp13
Vhttp://www.gutenberg.org/files/26843/26843-h/images/001.png
p14
aVhttp://www.gutenberg.org/files/26843/26843-h/images/002.jpg
p15
aVhttp://www.gutenberg.org/files/26843/26843-h/images/003.png
p16
aVhttp://www.gutenberg.org/files/26843/26843-page-images/p0094-image1.png
p17
aVhttp://www.gutenberg.org/files/26843/26843-page-images/p0094.png
p18
aVhttp://www.gutenberg.org/files/26843/26843-page-images/p0095.png
p19
aVhttp://www.gutenberg.org/files/26843/26843-page-images/p0096.png
p20
aVhttp://www.gutenberg.org/files/26843/26843-page-images/p0097.png
p21
aVhttp://www.gutenberg.org/files/26843/26843-page-images/p0098-image1.png
p22
aVhttp://www.gutenberg.org/files/26843/26843-page-images/p0099.png
p23
aVhttp://www.gutenberg.org/files/26843/26843-page-images/p0100.png
p24
aVhttp://www.gutenberg.org/files/26843/26843-page-images/p0101.png
p25
aVhttp://www.gutenberg.org/files/26843/26843-page-images/p0102.png
p26
aVhttp://www.gutenberg.org/files/26843/26843-page-images/p0103.png
p27
aVhttp://www.gutenberg.org/files/26843/26843-page-images/p0104.png
p28
aVhttp://www.gutenberg.org/files/26843/26843-page-images/p0105.png
p29
aVhttp://www.gutenberg.org/files/26843/26843-page-images/p0106.png
p30
aVhttp://www.gutenberg.org/files/26843/26843-page-images/p0107-image1.png
p31
aVhttp://www.gutenberg.org/files/26843/26843-page-images/p0107.png
p32
asS'language_code'
p33
NsS'images'
p34
(lp35
sS'id'
p36
I869
sS'category'
p37
VText
p38
sS'genres'
p39
(lp40
sS'copyright'
p41
VPublic domain in the USA.
p42
sS'title'
p43
VThe Dope on Mars
p44
sS'wikipedia'
p45
(dp46
S'found'
p47
I00
ssS'average_rating'
p48
F3.41
sS'rating_count'
p49
I9
sS'content_available'
p50
I01
sS'goodreads'
p51
(dp52
S'url'
p53
Vhttps://www.goodreads.com/book/show/6363337-the-dope-on-mars
p54
sg47
I01
sS'year'
p55
I2008
ssS'similar_books'
p56
(lp57
sS'description'
p58
NsS'gutenberg'
p59
(dp60
g53
Vhttp://www.gutenberg.org/ebooks/26843
p61
sS'num'
p62
I26843
ssS'authors'
p63
(lp64
I205
asS'isbn13'
p65
NsS'language'
p66
VEnglish
p67
sS'countries'
p68
(lp69
I2
asS'release_date'
p70
S'2008-10-08T00:00:00'
p71
sS'author'
p72
I205
sS'cover'
p73
Vhttps://s.gr-assets.com/assets/nophoto/book/111x148-bcc042a9c91a29c1d680899eff700a03.png
p74
sS'content_cleaned'
p75
I01
sS'classes'
p76
(lp77
Vto-read
p78
aVscience-fiction
p79
aVfavorites
p80
aVcurrently-reading
p81
aVshort-stories
p82
aVhumor
p83
aVshort-fiction
p84
aVhumour
p85
aV05-stjerne
p86
aVsci-fi
p87
aVclassic-sci-fi
p88
asS'loc_class'
p89
VPS: Language and Literatures: American and Canadian literature
p90
sS'n_authors'
p91
I1
sb.