ccopy_reg
_reconstructor
p0
(cdataset.Book
Book
p1
c__builtin__
object
p2
Ntp3
Rp4
(dp5
S'similar_books'
p6
(lp7
sS'genres'
p8
(lp9
sS'author'
p10
I302
sS'countries'
p11
(lp12
I2
asS'year'
p13
I1956
sS'title'
p14
VGalaxy Magazine March 1956
p15
sS'cover'
p16
Vhttps://ia601305.us.archive.org/BookReader/BookReaderImages.php?zip=/1/items/Galaxy_v11n05_1956-03/Galaxy_v11n05_1956-03_jp2.zip&file=Galaxy_v11n05_1956-03_jp2/Galaxy_v11n05_1956-03_0000.jp2&scale=0&rotate=0
p17
sS'cover_art'
p18
S'http://www.isfdb.org/wiki/images/f/f6/MLO4387.jpg'
p19
sS'author_name'
p20
VGalaxy Magazine
p21
sS'images_urls'
p22
(lp23
sS'authors'
p24
(lp25
I363
aI486
aI402
aI481
aI305
aI339
aI483
aI326
aI345
aI161
aI40
aI315
aI153
aI302
asS'images'
p26
(lp27
sS'id'
p28
I1037
sS'contents'
p29
(lp30
(dp31
S'title'
p32
VA Gun for Dinosaur
p33
sS'author'
p34
I363
sa(dp35
g32
VA Gun for Dinosaur [2]
p36
sg34
I363
sa(dp37
g32
VA Gun for Dinosaur [3]
p38
sg34
I363
sa(dp39
g32
VFlat Tiger
p40
sg34
I486
sa(dp41
g32
VTsylana
p42
sg34
I402
sa(dp43
g32
VTsylana [2]
p44
sg34
I402
sa(dp45
g32
VTsylana [3]
p46
sg34
I402
sa(dp47
g32
VLittle Red Schoolhouse
p48
sg34
I481
sa(dp49
g32
VSlave Ship (Part 1 of 3)
p50
sg34
I363
sa(dp51
g32
VSlave Ship (Part 1 of 3) [2]
p52
sg34
I363
sa(dp53
g32
VSlave Ship (Part 1 of 3) [3]
p54
sg34
I363
sa(dp55
g32
VSlave Ship (Part 1 of 3) [4]
p56
sg34
I363
sa(dp57
g32
VLook Now!
p58
sg34
I305
sa(dp59
g32
VFor Your Information: The Hollow Earth
p60
sg34
I339
sa(dp61
g32
VGalaxy's Five Star Shelf (Galaxy, March 1956)
p62
sg34
I483
sa(dp63
g32
VForecast (Galaxy, March 1956)
p64
sg34
I326
sa(dp65
g32
VA Gun for Dinosaur
p66
sg34
I345
sa(dp67
g32
VTsylana
p68
sg34
I161
sa(dp69
g32
VSlave Ship (Part 1 of 3)
p70
sg34
I40
sa(dp71
g32
VFlat Tiger
p72
sg34
I315
sa(dp73
g32
VLittle Red Schoolhouse
p74
sg34
I153
sasb.