ccopy_reg
_reconstructor
p0
(cdataset.Book
Book
p1
c__builtin__
object
p2
Ntp3
Rp4
(dp5
S'content_name'
p6
V50988.txt.utf-8
p7
sS'isbn'
p8
V0345466209
p9
sS'year'
p10
I1999
sS'author_name'
p11
VChristopher Grimm
p12
sS'images_urls'
p13
(lp14
Vhttp://www.gutenberg.org/files/50988/50988-h/images/cover.jpg
p15
aVhttp://www.gutenberg.org/files/50988/50988-h/images/illus1.jpg
p16
aVhttp://www.gutenberg.org/files/50988/50988-h/images/illus2.jpg
p17
aVhttp://www.gutenberg.org/files/50988/50988-h/images/illus3.jpg
p18
asS'language_code'
p19
NsS'images'
p20
(lp21
sS'id'
p22
I703
sS'category'
p23
VText
p24
sS'genres'
p25
(lp26
sS'copyright'
p27
VPublic domain in the USA.
p28
sS'title'
p29
VBodyguard
p30
sS'wikipedia'
p31
(dp32
S'found'
p33
I00
ssS'average_rating'
p34
F3.93
sS'rating_count'
p35
I3594
sS'content_available'
p36
I01
sS'cover_art_url'
p37
S'http://www.gutenberg.org/cache/epub/50988/pg50988.cover.medium.jpg'
p38
sS'goodreads'
p39
(dp40
S'url'
p41
Vhttps://www.goodreads.com/book/show/414658.Bodyguard
p42
sg33
I01
sS'year'
p43
I1999
ssS'similar_books'
p44
(lp45
VInto the Dark (The Bodyguards, #6)
p46
aVToo Far Gone (SEAL Team 12, #6)
p47
aVAll the Queen's Men (CIA Spies, #2)
p48
aVCrazy Cool (Steele Street, #2)
p49
aVKiss and Tell (T-FLAC, #2)
p50
aVTerms of Engagement (Alpha Squad #2)
p51
aVThen You Hide (Bullet Catcher, #5)
p52
aVNo Escape (Delta Force, #3)
p53
asS'description'
p54
VYOU CAN LOOK . . . <br /><br />Threatened by underworld boss Michael Trotta, Alessandra Lamont is nearly blown to pieces in a mob hit. The last thing she wants is to put what's left of her life into the hands of the sexy, loose-cannon federal agent who seems to look right through her yet won't let her out of his sight.<br /><br />BUT YOU BETTER NOT TOUCH . . .<br /><br />FBI agent Harry O'Dell's ex-wife and son were tragic casualties in his ongoing war against organized crime. He'll do whatever it takes to bring Trotta down--even if it means sticking like glue to this blonde bombshell who unwittingly married into the mob. She needs him if she wants to stay alive. But staying alive is nothing next to the explosive attraction that threatens to consume them both--and puts them into the greatest danger of all . . . falling in love.<br /><br /><br /><i>From the Paperback edition.</i>
p55
sS'format'
p56
VMass Market Paperback
p57
sS'gutenberg'
p58
(dp59
g41
Vhttp://www.gutenberg.org/ebooks/50988
p60
sS'num'
p61
I50988
ssS'authors'
p62
(lp63
I227
asS'pages'
p64
I384
sS'isbn13'
p65
V9780345466204
p66
sS'language'
p67
VEnglish
p68
sS'country'
p69
I3
sS'release_date'
p70
S'2016-01-21T00:00:00'
p71
sS'author'
p72
I227
sS'content_cleaned'
p73
I01
sS'classes'
p74
(lp75
Vto-read
p76
aVromance
p77
aVromantic-suspense
p78
aVsuzanne-brockmann
p79
aVsuspense
p80
aVcontemporary-romance
p81
aVcontemporary
p82
aVfiction
p83
aVbrockmann
p84
aVreto-rita-la-cantaora
p85
aVcurrently-reading
p86
aVromance-suspense
p87
aVfavorites
p88
aVaudiobook
p89
aVthriller
p90
aVmystery
p91
aVebook
p92
aVaudio
p93
aVcrime
p94
aVaction
p95
aVdefault
p96
aVbodyguard
p97
aVsuzanne-brockman
p98
aVadult
p99
aVbrockmann-suzanne
p100
aVowned
p101
aVromance-contemporary
p102
aVbooks-i-own
p103
aVreto-rita
p104
aVsuspense-romance
p105
aVmystery-suspense
p106
aVmodern
p107
aVm-f
p108
aVmf
p109
aVmilitary-romance
p110
aVpaperback
p111
aVaudible
p112
aVaudiobooks
p113
aVmilitary
p114
aVlibrary-books
p115
aVowned-books
p116
aVlibrary
p117
aVb
p118
aVaction-romance
p119
aVmy-library
p120
aVebooks
p121
aVromantic-suspence
p122
aVf-m
p123
aV3-stars
p124
aVlaw-enforcement
p125
aVmystery-thriller-suspense
p126
aVmysteries
p127
aVto-listen
p128
aVromantic
p129
aVmy-books
p130
aVbrockmann--suzanne
p131
aVfavoritos
p132
aVitunes
p133
aVon-the-run
p134
aVfamily
p135
aVre-read
p136
aVlibrary-ebook
p137
aVown-have
p138
aVwish-list
p139
aVseals
p140
aVfriendship
p141
aVrom-suspense
p142
aVhave-but-not-read
p143
aVfinished
p144
aVbooks
p145
aVmystery-crime
p146
aVromance-action
p147
aV2-stars
p148
aVto-buy
p149
aVread-in-2012
p150
aVromance-to-read
p151
aVbought
p152
aVread-years-ago
p153
aVromance-military
p154
aV4-stars
p155
aVrs
p156
aVi-own
p157
aVromantic-suspense-read
p158
aV2005
p159
aVseries
p160
aV2003
p161
aVthriller-suspense
p162
aVamerican
p163
aVfiction-
p164
aVtie-in
p165
aVmedia
p166
aVorganized
p167
aVromance-
p168
aVgeneral
p169
aVstates
p170
aVunited
p171
aVman-in-uniform
p172
aVaudio-i-ve-listened-to
p173
aVto-read-own
p174
aVfavorite-authors
p175
asS'loc_class'
p176
S''
p177
sS'n_authors'
p178
I1
sb.