ccopy_reg
_reconstructor
p0
(cdataset.Book
Book
p1
c__builtin__
object
p2
Ntp3
Rp4
(dp5
S'content_name'
p6
V27491.txt.utf-8
p7
sS'isbn'
p8
V0452286700
p9
sS'year'
p10
I1949
sS'author_name'
p11
VRog Phillips
p12
sS'images_urls'
p13
(lp14
Vhttp://www.gutenberg.org/files/27491/27491-h/images/001.png
p15
aVhttp://www.gutenberg.org/files/27491/27491-page-images/p0034-image1.png
p16
aVhttp://www.gutenberg.org/files/27491/27491-page-images/p0035.png
p17
aVhttp://www.gutenberg.org/files/27491/27491-page-images/p0036.png
p18
aVhttp://www.gutenberg.org/files/27491/27491-page-images/p0037.png
p19
aVhttp://www.gutenberg.org/files/27491/27491-page-images/p0038.png
p20
aVhttp://www.gutenberg.org/files/27491/27491-page-images/p0039.png
p21
aVhttp://www.gutenberg.org/files/27491/27491-page-images/p0040.png
p22
aVhttp://www.gutenberg.org/files/27491/27491-page-images/p0041.png
p23
aVhttp://www.gutenberg.org/files/27491/27491-page-images/p0042.png
p24
aVhttp://www.gutenberg.org/files/27491/27491-page-images/p0043.png
p25
aVhttp://www.gutenberg.org/files/27491/27491-page-images/p0044.png
p26
aVhttp://www.gutenberg.org/files/27491/27491-page-images/p0045.png
p27
aVhttp://www.gutenberg.org/files/27491/27491-page-images/p0046.png
p28
aVhttp://www.gutenberg.org/files/27491/27491-page-images/p0047.png
p29
aVhttp://www.gutenberg.org/files/27491/27491-page-images/p0048.png
p30
aVhttp://www.gutenberg.org/files/27491/27491-page-images/p0049.png
p31
aVhttp://www.gutenberg.org/files/27491/27491-page-images/p0050.png
p32
aVhttp://www.gutenberg.org/files/27491/27491-page-images/p0051.png
p33
asS'language_code'
p34
Ven-US
p35
sS'images'
p36
(lp37
sS'id'
p38
I859
sS'category'
p39
VText
p40
sS'genres'
p41
(lp42
sS'copyright'
p43
VPublic domain in the USA.
p44
sS'title'
p45
VUnthinkable
p46
sS'wikipedia'
p47
(dp48
S'found'
p49
I00
ssS'average_rating'
p50
F3.51
sS'rating_count'
p51
I1725
sS'content_available'
p52
I01
sS'goodreads'
p53
(dp54
S'url'
p55
Vhttps://www.goodreads.com/book/show/79699.The_Unthinkable_Thoughts_of_Jacob_Green
p56
sg49
I01
sS'year'
p57
I2004
ssS'similar_books'
p58
(lp59
VThe Last Summer of Reason
p60
aVOne of Us: Conjoined Twins and the Future of Normal
p61
aVThis Bloody Mary is the Last Thing I Own: A Journey to the End of Boxing
p62
aVThe Untelling
p63
aVThe Golden Rule
p64
aVBoy Proof
p65
aVWill You Miss Me When I'm Gone?: The Carter Family and Their Legacy in American Music
p66
aVKendra
p67
aVThe Enormous Room
p68
aVThirsty
p69
aVShow Way
p70
aVFly on the Wall: How One Girl Saw Everything
p71
aVRegarding the Pain of Others
p72
aVRound Ireland with a Fridge
p73
aVThe Optimist's Daughter
p74
aV\u062a\u0644\u0643 \u0627\u0644\u0639\u062a\u0645\u0629 \u0627\u0644\u0628\u0627\u0647\u0631\u0629
p75
aVThe Blood of the Lamb
p76
aVThe Classic Ten: The True Story of the Little Black Dress and Nine Other Fashion Favorites
p77
asS'description'
p78
VIt's 1977. Jacob Green, a Jewish kid from suburban New Jersey, sits on the stairs during his family's housewarming party, waiting for his father, Abram--charming host, everyone's best friend, and amateur emcee--to introduce him to the crowd. Housewarming parties, <i>Annie Hall</i> parties, and bar mitzvah parties punctuate Jacob's childhood and require command performances by all the Green family members. But when the confetti settles and the drapes are drawn, the affable Abram Green becomes an egotistical tyrant whose emotional rages rupture the lives of his family.<br /><br />Jacob doesn't mean to disappoint his father, but he can't help thinking the most unthinkable (and very funny) thoughts about public-school humiliation, Hebrew-school disinclination, and in-home sex education (with the live-in nanny!). If only his mother hadn't started college at thirty-six (and fallen for her psychology professor). If only he were more like his rebellious older brother (suspended from Hebrew school for drawing the rabbi in a threesome with a lobster and a pig). If only Jacob could confront his overbearing father and tell him he doesn't want to sing in synagogue, attend est classes, write the perfect thank-you note, or even live in the same house with Abram Green. But, of course, he can't. That would be unthinkable.<br /><br />This self-assured, comic, yet piercing first novel deftly captures the struggle of an imperfect boy trying to become a suitable son.
p79
sS'format'
p80
NsS'gutenberg'
p81
(dp82
g55
Vhttp://www.gutenberg.org/ebooks/27491
p83
sS'num'
p84
I27491
ssS'authors'
p85
(lp86
I208
asS'isbn13'
p87
V9780452286702
p88
sS'language'
p89
VEnglish
p90
sS'countries'
p91
(lp92
I2
asS'release_date'
p93
S'2008-12-11T00:00:00'
p94
sS'author'
p95
I208
sS'content_cleaned'
p96
I01
sS'classes'
p97
(lp98
Vto-read
p99
aVfiction
p100
aVyoung-adult
p101
aVcurrently-reading
p102
aVhumor
p103
aVto-buy
p104
aVya
p105
aVfavorites
p106
aVcoming-of-age
p107
aVjewish
p108
aVjohn-green-recommends
p109
aVbooks-i-own
p110
aVcontemporary
p111
aV2006
p112
aVowned
p113
aVwish-list
p114
aVfunny
p115
aV2005
p116
aVadult
p117
aVjohn-green-recommendations
p118
aVshelfari-wishlist
p119
aVkindle
p120
aVrealistic-fiction
p121
aVrecommendations
p122
aVmaybe
p123
aVjohn-green
p124
aVliterature
p125
aVrecommended
p126
aVnovels
p127
aVbook-club
p128
aVteen
p129
aVdysfunctional-family
p130
aVya-to-read
p131
aVwant-to-read
p132
aVrecommended-by-john-green
p133
aVgeneral-fiction
p134
aVhumour
p135
aVunread
p136
aVowned-books
p137
aVdid-not-finish
p138
aVread-in-2005
p139
aVabuse
p140
aVi-own
p141
aVlater
p142
aVto-read-ya-fiction
p143
aVshelfari-favorites
p144
aVread-in-2015
p145
aVscribd
p146
aVsummer-2015
p147
aVstandalone
p148
aVbought
p149
aV2015-tbr
p150
aVfavourites
p151
aVcomedy
p152
aVjudaism
p153
aVto-read-ya
p154
aVto-read-fiction
p155
aVstand-alone
p156
aVto-get
p157
aVebooks
p158
aVread-in-2014
p159
aVon-my-kindle
p160
aVgrown-up-books
p161
aVliterary-fiction
p162
aVnerdfighteria
p163
aVto-check-out
p164
aVjohn-green-recommended
p165
aVwant
p166
aVrecommended-to-me
p167
aVjg-recommendations
p168
aVjohn-green-recomendations
p169
aVjohn-green-s-recs
p170
aVneed-to-buy
p171
aVmisc
p172
aVy-a
p173
aVnovel
p174
aVlibrary-book
p175
aVread-in-high-school
p176
aVadult-fiction
p177
aVborrowed
p178
aVbook-club-reads
p179
aVown-and-read
p180
aVlibrary
p181
aVdnf
p182
aVreligion
p183
aVfamily
p184
aVfamily-dynamics
p185
aVhoopla
p186
aVfrom-library
p187
aVto-read-greens-faves
p188
aVcute-contempories
p189
aVya-religion
p190
aVya-poc
p191
aVjewish-y
p192
aVepistolary
p193
aVnot-finished
p194
aVebook-tbr
p195
aVdiversity-bingo
p196
aVtbr-contemporary
p197
aVread-in-less-than-a-week
p198
asS'loc_class'
p199
VPS: Language and Literatures: American and Canadian literature
p200
sS'n_authors'
p201
I1
sb.