ccopy_reg
_reconstructor
p0
(cdataset.Book
Book
p1
c__builtin__
object
p2
Ntp3
Rp4
(dp5
S'content_name'
p6
V50766.txt.utf-8
p7
sS'isbn'
p8
V0061755710
p9
sS'year'
p10
I1952
sS'author_name'
p11
VKatherine MacLean
p12
sS'images_urls'
p13
(lp14
Vhttp://www.gutenberg.org/files/50766/50766-h/images/cover.jpg
p15
aVhttp://www.gutenberg.org/files/50766/50766-h/images/illus.jpg
p16
asS'language_code'
p17
Ven-US
p18
sS'images'
p19
(lp20
sS'id'
p21
I611
sS'category'
p22
VText
p23
sS'genres'
p24
(lp25
sS'copyright'
p26
VPublic domain in the USA.
p27
sS'title'
p28
VThe Snowball Effect
p29
sS'wikipedia'
p30
(dp31
S'found'
p32
I00
ssS'average_rating'
p33
F3.46
sS'rating_count'
p34
I275
sS'content_available'
p35
I01
sS'cover_art_url'
p36
S'http://www.gutenberg.org/cache/epub/50766/pg50766.cover.medium.jpg'
p37
sS'goodreads'
p38
(dp39
S'url'
p40
Vhttps://www.goodreads.com/book/show/6519000-the-snowball-effect
p41
sg32
I01
sS'year'
p42
I2009
ssS'similar_books'
p43
(lp44
VForget-Her-Nots
p45
aVInvisible Girl
p46
aVThe Life of Glass
p47
aVThe Deathday Letter
p48
aVScones and Sensibility
p49
aVStupid Cupid (Stupid Cupid, #1)
p50
aVHer and Me and You
p51
aVSo Many Boys (The Naughty List, #2)
p52
aVLosing Faith
p53
aVTagged
p54
aVReturn the Heart (Heart, #1)
p55
aVSwoon at Your Own Risk
p56
aVAn Off Year
p57
aVThe Alpha Bet
p58
aVSea (Sea #1)
p59
aVMy Invented Life
p60
aVChange of Heart
p61
aVStranded
p62
asS'description'
p63
VLainey Pike can tell you everything you need to know about the people in her family just by letting you know how they died. Her reckless stepfather drove his motorcycle off the highway and caused the biggest traffic jam in years. Her long-suffering grandmother lived through cancer and a heart attack before finally succumbing to a stroke. And Lainey's mother; well, Lainey's mother hanged herself in the basement just days after Lainey's high school graduation. Now Lainey's five-year-old brother is an orphan and her estranged older sister is moving back home to be his guardian. Meanwhile, Lainey's boyfriend is thinking about having a family of their own, and her best friends are always asking the wrong sorts of questions and giving advice Lainey doesn't want to hear. As she tries to pull away from everything familiar, Lainey meets an intriguing new guy who, through a series of Slurpees, burgers, and snowballs, helps her to make peace with a parent she never understood.
p64
sS'format'
p65
VHardcover
p66
sS'gutenberg'
p67
(dp68
g40
Vhttp://www.gutenberg.org/ebooks/50766
p69
sS'num'
p70
I50766
ssS'authors'
p71
(lp72
I36
asS'pages'
p73
I368
sS'isbn13'
p74
V9780061755712
p75
sS'language'
p76
VEnglish
p77
sS'countries'
p78
(lp79
I2
asS'release_date'
p80
S'2015-12-25T00:00:00'
p81
sS'author'
p82
I36
sS'content_cleaned'
p83
I01
sS'classes'
p84
(lp85
Vto-read
p86
aVyoung-adult
p87
aVya
p88
aVdeath
p89
aVcontemporary
p90
aVrealistic-fiction
p91
aVgrief
p92
aVteen
p93
aVwish-list
p94
aVlibrary
p95
aVread-in-2010
p96
aVfiction
p97
aVwant-to-read
p98
aVstandalones
p99
aVstand-alone
p100
aVfamily
p101
aVcontemporary-ya
p102
aVto-read-maybe
p103
aVbooks-to-buy
p104
aVreal-life
p105
aVsuicide
p106
aVsisters
p107
aVadoption
p108
aVbooks-i-own
p109
aVyoungadult
p110
aVcurrently-reading
p111
aVto-buy
p112
aVread2010
p113
aVpub-mar10
p114
aVmy-wishlist
p115
aVwant
p116
aVarc
p117
aVya-novels
p118
aVtenners
p119
aVamerica-and-canada
p120
aVnot-on-kindle
p121
aVrem
p122
aVto-read-ya
p123
aVto-read-2
p124
aVwanderlust-fuel
p125
aVgrief-loss-and-trauma
p126
aVdead-moms
p127
aVneed
p128
aVcover
p129
aVto-get-from-the-libray
p130
aVteen-drama-and-etc
p131
aVbookmarks
p132
aVyoung-at-heart
p133
aVstandalone
p134
aVread-in-2015
p135
aVin-the-future
p136
aVmaybe2read
p137
aVsummer
p138
aVremoved-from-to-read
p139
aVbusiness-books-not-yet-read
p140
aVgirly-books
p141
aVbooks-pertaining-to-death
p142
aVmoser-classroom
p143
aVibooks
p144
aVlow-average-rating
p145
aVmust-read-bruh
p146
aVbabbling
p147
aVcontemp
p148
aVrandom
p149
aVodd-books-i-liked
p150
aVnever-ever-read-again
p151
aVi-tried
p152
aVlove
p153
aVbeware-bad-rating
p154
aVwoah
p155
aVwanna-2014
p156
aV2014-books-read
p157
aVi-will-never-read
p158
aVfinished-copies-for-trade
p159
aVpublished-2010
p160
aVread-2013
p161
aV2-stars
p162
aVhere-on-shelf-tbr-ebook
p163
aVebook
p164
aV4-starred-brilliantness
p165
aVmaybe
p166
aVdid-not-finish
p167
aVromance-common-authors
p168
aVa-r-books
p169
aVstand-alone-novels
p170
aVtearjerkers
p171
aVfamily-dysfunction
p172
aVdrama
p173
aVromance
p174
aVdefault
p175
aVteenlit
p176
aVsomething-to-think-about
p177
aVe-book
p178
aVdnf
p179
aVreally-must-read
p180
aVchick-flick
p181
aV50-states-or-countries-of-ya
p182
aVto-buy-from-booktopia
p183
aVmadrigal
p184
aVtriangle
p185
asS'loc_class'
p186
S''
p187
sS'n_authors'
p188
I1
sb.