ccopy_reg
_reconstructor
p0
(cdataset.Book
Book
p1
c__builtin__
object
p2
Ntp3
Rp4
(dp5
S'content_name'
p6
V30884.txt.utf-8
p7
sS'isbn'
p8
NsS'year'
p9
I2011
sS'author_name'
p10
VRosel George Brown
p11
sS'images_urls'
p12
(lp13
Vhttp://www.gutenberg.org/files/30884/30884-h/images/image_001.jpg
p14
aVhttp://www.gutenberg.org/files/30884/30884-h/images/image_t.jpg
p15
asS'language_code'
p16
NsS'images'
p17
(lp18
sS'id'
p19
I872
sS'category'
p20
VText
p21
sS'genres'
p22
(lp23
sS'copyright'
p24
VPublic domain in the USA.
p25
sS'title'
p26
VStep IV
p27
sS'wikipedia'
p28
(dp29
S'found'
p30
I00
ssS'average_rating'
p31
F2.0
sS'rating_count'
p32
I1
sS'content_available'
p33
I01
sS'goodreads'
p34
(dp35
S'url'
p36
Vhttps://www.goodreads.com/book/show/22877852-step-iv
p37
sg30
I01
sS'year'
p38
I2011
ssS'similar_books'
p39
(lp40
sS'description'
p41
NsS'format'
p42
NsS'gutenberg'
p43
(dp44
g36
Vhttp://www.gutenberg.org/ebooks/30884
p45
sS'num'
p46
I30884
ssS'authors'
p47
(lp48
I182
asS'isbn13'
p49
NsS'language'
p50
VEnglish
p51
sS'release_date'
p52
S'2010-01-07T00:00:00'
p53
sS'author'
p54
I182
sS'content_cleaned'
p55
I01
sS'classes'
p56
(lp57
sS'loc_class'
p58
VPS: Language and Literatures: American and Canadian literature
p59
sS'n_authors'
p60
I1
sb.