ccopy_reg
_reconstructor
p0
(cdataset.Book
Book
p1
c__builtin__
object
p2
Ntp3
Rp4
(dp5
S'content_name'
p6
V51801.txt.utf-8
p7
sS'isbn'
p8
V1400052173
p9
sS'year'
p10
I2010
sS'author_name'
p11
VDavid Duncan
p12
sS'images_urls'
p13
(lp14
Vhttp://www.gutenberg.org/files/51801/51801-h/images/cover.jpg
p15
aVhttp://www.gutenberg.org/files/51801/51801-h/images/illus1.jpg
p16
aVhttp://www.gutenberg.org/files/51801/51801-h/images/illus2.jpg
p17
aVhttp://www.gutenberg.org/files/51801/51801-h/images/illus3.jpg
p18
asS'language_code'
p19
Veng
p20
sS'images'
p21
(lp22
sS'id'
p23
I316
sS'category'
p24
VText
p25
sS'genres'
p26
(lp27
sS'copyright'
p28
VPublic domain in the USA.
p29
sS'title'
p30
VThe Immortals
p31
sS'wikipedia'
p32
(dp33
S'found'
p34
I00
ssS'average_rating'
p35
F4.04
sS'rating_count'
p36
I378234
sS'content_available'
p37
I01
sS'cover_art_url'
p38
S'http://www.gutenberg.org/cache/epub/51801/pg51801.cover.medium.jpg'
p39
sS'goodreads'
p40
(dp41
S'url'
p42
Vhttps://www.goodreads.com/book/show/6493208-the-immortal-life-of-henrietta-lacks
p43
sg34
I01
sS'year'
p44
I2010
ssS'similar_books'
p45
(lp46
VThe Panic Virus: A True Story of Medicine, Science, and Fear
p47
aVThe Poisoner's Handbook: Murder and the Birth of Forensic Medicine in Jazz Age New York
p48
aVMost Dangerous: Daniel Ellsberg and the Secret History of the Vietnam War
p49
aVStrength in What Remains: A Journey of Remembrance and Forgiveness
p50
aVWoman: An Intimate Geography
p51
aVThe Demon Under the Microscope: From Battlefield Hospitals to Nazi Labs, One Doctor's Heroic Search for the World's First Miracle Drug
p52
aVThe Family That Couldn't Sleep: A Medical Mystery
p53
aVThe Warmth of Other Suns: The Epic Story of America's Great Migration
p54
aVMicrocosm: E. coli and the New Science of Life
p55
aVMy Own Country: A Doctor's Story
p56
aVThe Spirit Catches You and You Fall Down: A Hmong Child, Her American Doctors, and the Collision of Two Cultures
p57
aVUnnatural Selection: Choosing Boys over Girls and the Consequences of a World Full of Men
p58
aVThe Viral Storm: The Dawn of a New Pandemic Age
p59
aVThe Red Market: On the Trail of the World's Organ Brokers, Bone Thieves, Blood Farmers, and Child Traffickers
p60
aVThe Science of Kissing: What Our Lips Are Telling Us
p61
aVHow I Killed Pluto and Why It Had It Coming
p62
aVThe Big Burn: Teddy Roosevelt and the Fire that Saved America
p63
aVHalf the Sky: Turning Oppression into Opportunity for Women Worldwide
p64
asS'description'
p65
VHenrietta Lacks, as HeLa, is known to present-day scientists for her cells from cervical cancer. She was a poor Southern tobacco farmer who worked the same land as her slave ancestors, yet her cells were taken without her knowledge and still live decades after her death. Cells descended from her may weigh more than 50M metric tons. <br /><br />HeLa cells were vital for developing the polio vaccine; uncovered secrets of cancer, viruses, and the atom bomb\u2019s effects; helped lead to important advances like in vitro fertilization, cloning, and gene mapping; and have been bought and sold by the billions. Yet Henrietta Lacks was buried in an unmarked grave.<br /><br />The journey starts in the \u201ccolored\u201d ward of Johns Hopkins Hospital in the 1950s, her small, dying hometown of Clover, Virginia \u2014 wooden slave quarters, faith healings, and voodoo. Today are stark white laboratories with freezers full of HeLa cells, East Baltimore children and grandchildren live in obscurity, see no profits, and feel violated. The dark history of experimentation on African Americans helped lead to the birth of bioethics, and legal battles over whether we control the stuff we are made of.
p66
sS'format'
p67
VHardcover
p68
sS'gutenberg'
p69
(dp70
g42
Vhttp://www.gutenberg.org/ebooks/51801
p71
sS'num'
p72
I51801
ssS'authors'
p73
(lp74
I105
asS'pages'
p75
I370
sS'isbn13'
p76
V9781400052172
p77
sS'language'
p78
VEnglish
p79
sS'release_date'
p80
S'2016-04-19T00:00:00'
p81
sS'author'
p82
I105
sS'content_cleaned'
p83
I01
sS'classes'
p84
(lp85
Vto-read
p86
aVnon-fiction
p87
aVnonfiction
p88
aVscience
p89
aVbook-club
p90
aVbiography
p91
aVhistory
p92
aVfavorites
p93
aVmedicine
p94
aVbookclub
p95
aVaudiobook
p96
aVkindle
p97
aVmedical
p98
aVaudiobooks
p99
aVbooks-i-own
p100
aVaudio
p101
aVowned
p102
aVcurrently-reading
p103
aVhistorical
p104
aVlibrary
p105
aVadult
p106
aVafrican-american
p107
aVbiography-memoir
p108
aVbook-club-books
p109
aVbiographies
p110
aVbook-group
p111
aVhealth
p112
aVmemoir
p113
aVbiology
p114
aVbioethics
p115
aVrace
p116
aVebook
p117
aVread-in-2011
p118
aVcancer
p119
aVbook-club-reads
p120
aVto-buy
p121
aVaudio-books
p122
aVschool
p123
aVabandoned
p124
aVread-in-2012
p125
aVethics
p126
aVwomen
p127
aVaudio-book
p128
aVowned-books
p129
aVdidn-t-finish
p130
aVmemoir-biography
p131
aVdid-not-finish
p132
aVfiction
p133
aVamerican-history
p134
aVto-read-non-fiction
p135
aVread-in-2013
p136
aVnon-fic
p137
aVread-2011
p138
aVread-in-2015
p139
aVsocial-justice
p140
aVadult-non-fiction
p141
aVaudible
p142
aVebooks
p143
aVmemoirs
p144
aVread-in-2017
p145
aVadult-nonfiction
p146
aVread-in-2016
p147
aVamerican
p148
aVe-book
p149
aVwish-list
p150
aVread-in-2014
p151
aVto-read-nonfiction
p152
aVpublic-health
p153
aVbiography-autobiography
p154
aVfavourites
p155
aVunfinished
p156
aVcell-culture
p157
aVbook-club-selections
p158
aVbiographical
p159
aVcontemporary
p160
aVhenrietta-lacks
p161
aVrecommended
p162
aVread-in-2010
p163
aVfamily
p164
aVbio-memoir
p165
aVfemale-author
p166
aVmy-books
p167
aVlibrary-book
p168
aVhistorical-fiction
p169
aVpopular-science
p170
aVi-own
p171
aVborrowed
p172
aVbio
p173
aVgenetics
p174
aVread-for-school
p175
aVbook-club-read
p176
aVsociology
p177
aVown-it
p178
aVsocial-issues
p179
aVbook-club-selection
p180
aVnonfic
p181
aVall-time-favorites
p182
aVbiographies-memoirs
p183
aVnon-fiction-to-read
p184
aVread-2017
p185
asS'loc_class'
p186
S''
p187
sS'n_authors'
p188
I1
sb.