ccopy_reg
_reconstructor
p0
(cdataset.Book
Book
p1
c__builtin__
object
p2
Ntp3
Rp4
(dp5
S'content_name'
p6
V51493.txt.utf-8
p7
sS'isbn'
p8
V1880448122
p9
sS'year'
p10
I1992
sS'author_name'
p11
VFritz Leiber
p12
sS'images_urls'
p13
(lp14
Vhttp://www.gutenberg.org/files/51493/51493-h/images/cover.jpg
p15
aVhttp://www.gutenberg.org/files/51493/51493-h/images/illus1.jpg
p16
aVhttp://www.gutenberg.org/files/51493/51493-h/images/illus2.jpg
p17
aVhttp://www.gutenberg.org/files/51493/51493-h/images/illus3.jpg
p18
asS'language_code'
p19
NsS'images'
p20
(lp21
sS'id'
p22
I239
sS'category'
p23
VText
p24
sS'genres'
p25
(lp26
sS'copyright'
p27
VPublic domain in the USA.
p28
sS'title'
p29
VKreativity For Kats
p30
sS'wikipedia'
p31
(dp32
S'found'
p33
I00
ssS'average_rating'
p34
F3.43
sS'rating_count'
p35
I5
sS'content_available'
p36
I01
sS'cover_art_url'
p37
S'http://www.gutenberg.org/cache/epub/51493/pg51493.cover.medium.jpg'
p38
sS'goodreads'
p39
(dp40
S'url'
p41
Vhttps://www.goodreads.com/book/show/7622966-kreativity-for-kats
p42
sg33
I01
sS'year'
p43
I1992
ssS'similar_books'
p44
(lp45
sS'description'
p46
NsS'format'
p47
NsS'gutenberg'
p48
(dp49
g41
Vhttp://www.gutenberg.org/ebooks/51493
p50
sS'num'
p51
I51493
ssS'authors'
p52
(lp53
I32
asS'isbn13'
p54
V9781880448120
p55
sS'language'
p56
VEnglish
p57
sS'country'
p58
I3
sS'release_date'
p59
S'2016-03-18T00:00:00'
p60
sS'author'
p61
I32
sS'content_cleaned'
p62
I01
sS'classes'
p63
(lp64
Vto-read
p65
aVshort-stories
p66
aVsci-fi
p67
aVshorts
p68
aVscifi-fantasy
p69
aVowned
p70
aVfavorites
p71
aVanimals
p72
aVscience-fiction
p73
aVfiction
p74
aVaudiobooks-read
p75
aV4-stars
p76
aVaudiobooks
p77
aVaudio-books-to-read
p78
aVaudiobooks-to-read
p79
asS'loc_class'
p80
S''
p81
sS'n_authors'
p82
I1
sb.