ccopy_reg
_reconstructor
p0
(cdataset.Book
Book
p1
c__builtin__
object
p2
Ntp3
Rp4
(dp5
S'similar_books'
p6
(lp7
sS'genres'
p8
(lp9
sS'author'
p10
I302
sS'countries'
p11
(lp12
I2
asS'year'
p13
I1955
sS'title'
p14
VGalaxy Magazine October 1955
p15
sS'cover'
p16
Vhttps://ia600205.us.archive.org/BookReader/BookReaderImages.php?zip=/15/items/Galaxy_v11n01_1955-10/Galaxy_v11n01_1955-10_jp2.zip&file=Galaxy_v11n01_1955-10_jp2/Galaxy_v11n01_1955-10_0000.jp2&scale=0&rotate=0
p17
sS'cover_art'
p18
S'http://www.isfdb.org/wiki/images/d/db/MLO4384.jpg'
p19
sS'author_name'
p20
VGalaxy Magazine
p21
sS'images_urls'
p22
(lp23
sS'authors'
p24
(lp25
I471
aI476
aI474
aI477
aI427
aI305
aI326
aI339
aI340
aI23
aI393
aI172
aI98
aI478
aI479
aI302
asS'images'
p26
(lp27
sS'id'
p28
I1033
sS'contents'
p29
(lp30
(dp31
g10
I471
sg14
VA Ticket to Tranai
p32
sa(dp33
g10
I471
sg14
VA Ticket to Tranai [2]
p34
sa(dp35
g10
I471
sg14
VA Ticket to Tranai [3]
p36
sa(dp37
g10
I476
sg14
VThe Discovery of Morniel Mathaway
p38
sa(dp39
g10
I474
sg14
VBolden's Pets
p40
sa(dp41
g10
I471
sg14
VJack of No Trades
p42
sa(dp43
g10
I477
sg14
VThe Lights On Precipice Peak
p44
sa(dp45
g10
I427
sg14
VThe Game of Rat and Dragon
p46
sa(dp47
g10
I427
sg14
VThe Game of Rat and Dragon [2]
p48
sa(dp49
g10
I427
sg14
VThe Game of Rat and Dragon [3]
p50
sa(dp51
g10
I305
sg14
VHit or Myth?
p52
sa(dp53
g10
I326
sg14
VForecast (Galaxy, October 1955)
p54
sa(dp55
g10
I339
sg14
VFor Your Information: The How of Space Travel
p56
sa(dp57
g10
I340
sg14
VGalaxy's Five Star Shelf (Galaxy, October 1955)
p58
sa(dp59
g10
I23
sg14
VA Ticket to Tranai
p60
sa(dp61
g10
I393
sg14
VBolden's Pets
p62
sa(dp63
g10
I172
sg14
VJack of No Trades
p64
sa(dp65
g10
I98
sg14
VThe Discovery of Morniel Mathaway
p66
sa(dp67
g10
I478
sg14
VThe Lights On Precipice Peak
p68
sa(dp69
g10
I479
sg14
VThe Game of Rat and Dragon
p70
sasb.