ccopy_reg
_reconstructor
p0
(cdataset.Book
Book
p1
c__builtin__
object
p2
Ntp3
Rp4
(dp5
S'content_name'
p6
V51799.txt.utf-8
p7
sS'isbn'
p8
V0689852231
p9
sS'year'
p10
I2002
sS'author_name'
p11
VMack Reynolds
p12
sS'images_urls'
p13
(lp14
Vhttp://www.gutenberg.org/files/51799/51799-h/images/cover.jpg
p15
aVhttp://www.gutenberg.org/files/51799/51799-h/images/illus1.jpg
p16
aVhttp://www.gutenberg.org/files/51799/51799-h/images/illus2.jpg
p17
asS'language_code'
p18
Veng
p19
sS'images'
p20
(lp21
sS'id'
p22
I500
sS'category'
p23
VText
p24
sS'genres'
p25
(lp26
sS'copyright'
p27
VPublic domain in the USA.
p28
sS'title'
p29
VFarmer
p30
sS'wikipedia'
p31
(dp32
S'found'
p33
I00
ssS'average_rating'
p34
F4.1
sS'rating_count'
p35
I61683
sS'content_available'
p36
I01
sS'cover_art_url'
p37
S'http://www.gutenberg.org/cache/epub/51799/pg51799.cover.medium.jpg'
p38
sS'goodreads'
p39
(dp40
S'url'
p41
Vhttps://www.goodreads.com/book/show/13376.The_House_of_the_Scorpion
p42
sg33
I01
sS'year'
p43
I2002
ssS'similar_books'
p44
(lp45
VCarver: A Life in Poems
p46
aVLizzie Bright and the Buckminster Boy
p47
aVTrue Believer (Make Lemonade, #2)
p48
aVAfter Tupac and D Foster
p49
aVThe Voice That Challenged a Nation: Marian Anderson and the Struggle for Equal Rights
p50
aVMany Stones
p51
aVThe Dark-Thirty: Southern Tales of the Supernatural
p52
aVBlack Juice
p53
aVGraven Images
p54
aVThe Kingdom on the Waves (The Astonishing Life of Octavian Nothing, Traitor to the Nation, #2)
p55
aVSurviving Antarctica: Reality TV 2083
p56
aVThistle and Thyme: Tales and Legends from Scotland
p57
aVSugaring Time
p58
aVAn American Plague: The True and Terrifying Story of the Yellow Fever Epidemic of 1793
p59
aVDreamquake (The Dreamhunter Duet, #2)
p60
aVGodless
p61
aVVolcano: The Eruption and Healing of Mount St. Helens
p62
aVTruesight (Truesight, #1)
p63
asS'description'
p64
VMatteo Alacran was not born; he was harvested with the DNA from El Patron, lord of a country called Opium. Can a boy who was bred to guarantee another\u2019s survival find his own purpose in life? And can he ever be free?
p65
sS'format'
p66
VPaperback
p67
sS'gutenberg'
p68
(dp69
g41
Vhttp://www.gutenberg.org/ebooks/51799
p70
sS'num'
p71
I51799
ssS'authors'
p72
(lp73
I69
asS'pages'
p74
I380
sS'isbn13'
p75
V9780689852237
p76
sS'language'
p77
VEnglish
p78
sS'release_date'
p79
S'2016-04-19T00:00:00'
p80
sS'author'
p81
I69
sS'content_cleaned'
p82
I01
sS'classes'
p83
(lp84
Vto-read
p85
aVyoung-adult
p86
aVcurrently-reading
p87
aVfavorites
p88
aVscience-fiction
p89
aVya
p90
aVsci-fi
p91
aVdystopia
p92
aVdystopian
p93
aVfiction
p94
aVbooks-i-own
p95
aVfantasy
p96
aVowned
p97
aVteen
p98
aVseries
p99
aVadventure
p100
aVnewbery
p101
aVya-fiction
p102
aVschool
p103
aVscifi
p104
aVbook-club
p105
aVya-lit
p106
aVlibrary
p107
aVprintz
p108
aVsci-fi-fantasy
p109
aVto-buy
p110
aVyoung-adult-fiction
p111
aVmiddle-grade
p112
aVmiddle-school
p113
aVnational-book-award
p114
aVcoming-of-age
p115
aVnewbery-honor
p116
aVfavourites
p117
aVowned-books
p118
aVcloning
p119
aVchildhood
p120
aVaudiobook
p121
aVaudio
p122
aVfantasy-sci-fi
p123
aVchildrens
p124
aVdefault
p125
aVaward-winners
p126
aVall-time-favorites
p127
aVprintz-award
p128
aVteen-fiction
p129
aVre-read
p130
aVaward-winner
p131
aVkindle
p132
aVenglish-420
p133
aVscifi-fantasy
p134
aVspeculative-fiction
p135
aVya-books
p136
aVfor-school
p137
aVyoung-adult-lit
p138
aVread-for-school
p139
aVmaybe
p140
aVschool-books
p141
aVchildren-s
p142
aVfuturistic
p143
aVwish-list
p144
aVi-own
p145
aVprintz-honor
p146
aVyoungadult
p147
aVkids
p148
aVown-it
p149
aVclassroom-library
p150
aVsf
p151
aV40-book-challenge
p152
aVfavorite
p153
aVengl-420
p154
aVchildren
p155
aVdystopian-post-apocalyptic
p156
aVnovels
p157
aVaudiobooks
p158
aVclones
p159
aVchildren-s-books
p160
aVmexico
p161
aVdid-not-finish
p162
aVfuture
p163
aVya-fantasy
p164
aVmystery
p165
aVdystopias
p166
aVfavorite-books
p167
aVbooks
p168
aVthriller
p169
aVsummer-reading
p170
aVmy-books
p171
aVabandoned
p172
aVbattle-of-the-books
p173
aVya-dystopian
p174
aVhigh-school
p175
aVaward-winning
p176
aVread-in-2014
p177
aVebook
p178
aVchildhood-favorites
p179
aVdystopian-fiction
p180
aVscience-fiction-fantasy
p181
aVto-re-read
p182
aVdark
p183
aVmy-favorites
p184
asS'loc_class'
p185
S''
p186
sS'n_authors'
p187
I1
sb.