ccopy_reg
_reconstructor
p0
(cdataset.Book
Book
p1
c__builtin__
object
p2
Ntp3
Rp4
(dp5
S'content_name'
p6
V51549.txt.utf-8
p7
sS'isbn'
p8
V1515405966
p9
sS'year'
p10
I1962
sS'author_name'
p11
VFritz Leiber
p12
sS'images_urls'
p13
(lp14
Vhttp://www.gutenberg.org/files/51549/51549-h/images/cover.jpg
p15
asS'language_code'
p16
NsS'images'
p17
(lp18
sS'id'
p19
I318
sS'category'
p20
VText
p21
sS'genres'
p22
(lp23
sS'copyright'
p24
VPublic domain in the USA.
p25
sS'title'
p26
VThe Big Engine
p27
sS'wikipedia'
p28
(dp29
S'found'
p30
I00
ssS'average_rating'
p31
F3.92
sS'rating_count'
p32
I8
sS'content_available'
p33
I01
sS'cover_art_url'
p34
S'http://www.gutenberg.org/cache/epub/51549/pg51549.cover.medium.jpg'
p35
sS'goodreads'
p36
(dp37
S'url'
p38
S'https://www.goodreads.com/book/show/30004072-the-big-engine'
p39
sS'found'
p40
I01
ssS'similar_books'
p41
(lp42
sS'description'
p43
VHave you found out about the Big Engine? It's all around us, you know-can't you hear it even now?
p44
sS'gutenberg'
p45
(dp46
S'url'
p47
Vhttp://www.gutenberg.org/ebooks/51549
p48
sS'num'
p49
I51549
ssS'authors'
p50
(lp51
I32
asS'pages'
p52
I20
sS'isbn13'
p53
V9781515405962
p54
sS'language'
p55
VEnglish
p56
sS'countries'
p57
(lp58
I2
asS'release_date'
p59
S'2016-03-25T00:00:00'
p60
sS'author'
p61
I32
sS'content_cleaned'
p62
I01
sS'classes'
p63
(lp64
Vshort-stories
p65
aVsci-fi
p66
aVto-read
p67
aVscience-fiction
p68
aVfiction
p69
aVaudiobooks-read
p70
aV1-star
p71
aVaudiobooks
p72
aVfinished-2016
p73
asS'loc_class'
p74
S''
p75
sS'n_authors'
p76
I1
sb.