ccopy_reg
_reconstructor
p0
(cdataset.Book
Book
p1
c__builtin__
object
p2
Ntp3
Rp4
(dp5
S'content_name'
p6
V30901.txt.utf-8
p7
sS'isbn'
p8
V1463897030
p9
sS'year'
p10
I2010
sS'author_name'
p11
VH. B. Fyfe
p12
sS'images_urls'
p13
(lp14
Vhttp://www.gutenberg.org/files/30901/30901-h/images/image_001.jpg
p15
aVhttp://www.gutenberg.org/files/30901/30901-h/images/image_f.jpg
p16
asS'language_code'
p17
NsS'images'
p18
(lp19
sS'id'
p20
I510
sS'category'
p21
VText
p22
sS'genres'
p23
(lp24
sS'copyright'
p25
VPublic domain in the USA.
p26
sS'title'
p27
VFee of the Frontier
p28
sS'wikipedia'
p29
(dp30
S'found'
p31
I00
ssS'average_rating'
p32
F2.33
sS'rating_count'
p33
I3
sS'content_available'
p34
I01
sS'goodreads'
p35
(dp36
S'url'
p37
Vhttps://www.goodreads.com/book/show/14403001-fee-of-the-frontier
p38
sg31
I01
sS'year'
p39
I2010
ssS'similar_books'
p40
(lp41
sS'description'
p42
VThey didn't think of themselves as pioneers. They simply had a job to do. And if they had to give up money, or power, or love -- or life itself -- that was . . . the Fee of the Frontier.
p43
sS'format'
p44
VHardcover
p45
sS'gutenberg'
p46
(dp47
g37
Vhttp://www.gutenberg.org/ebooks/30901
p48
sS'num'
p49
I30901
ssS'authors'
p50
(lp51
I94
asS'pages'
p52
I28
sS'isbn13'
p53
V9781463897031
p54
sS'language'
p55
VEnglish
p56
sS'release_date'
p57
S'2010-01-09T00:00:00'
p58
sS'author'
p59
I94
sS'content_cleaned'
p60
I01
sS'classes'
p61
(lp62
Vto-read
p63
aVfree-from-amazon
p64
aVclassic
p65
asS'loc_class'
p66
VPS: Language and Literatures: American and Canadian literature
p67
sS'n_authors'
p68
I1
sb.