ccopy_reg
_reconstructor
p0
(cdataset.Book
Book
p1
c__builtin__
object
p2
Ntp3
Rp4
(dp5
S'content_name'
p6
V51351.txt.utf-8
p7
sS'isbn'
p8
NsS'year'
p9
I-1
sS'author_name'
p10
VJim Harmon
p11
sS'images_urls'
p12
(lp13
Vhttp://www.gutenberg.org/files/51351/51351-h/images/cover.jpg
p14
aVhttp://www.gutenberg.org/files/51351/51351-h/images/illus.jpg
p15
asS'language_code'
p16
NsS'images'
p17
(lp18
sS'id'
p19
I825
sS'category'
p20
VText
p21
sS'genres'
p22
(lp23
sS'copyright'
p24
VPublic domain in the USA.
p25
sS'title'
p26
VThe Spicy Sound of Success
p27
sS'wikipedia'
p28
(dp29
S'found'
p30
I00
ssS'average_rating'
p31
F0.0
sS'rating_count'
p32
I0
sS'content_available'
p33
I01
sS'cover_art_url'
p34
S'http://www.gutenberg.org/cache/epub/51351/pg51351.cover.medium.jpg'
p35
sS'goodreads'
p36
(dp37
S'url'
p38
Vhttps://www.goodreads.com/book/show/34325357-the-spicy-sound-of-success
p39
sg30
I01
sS'year'
p40
I-1
ssS'similar_books'
p41
(lp42
sS'description'
p43
NsS'format'
p44
NsS'gutenberg'
p45
(dp46
g38
Vhttp://www.gutenberg.org/ebooks/51351
p47
sS'num'
p48
I51351
ssS'authors'
p49
(lp50
I142
asS'isbn13'
p51
NsS'language'
p52
VEnglish
p53
sS'release_date'
p54
S'2016-03-03T00:00:00'
p55
sS'author'
p56
I142
sS'content_cleaned'
p57
I01
sS'classes'
p58
(lp59
sS'loc_class'
p60
S''
p61
sS'n_authors'
p62
I1
sb.