ccopy_reg
_reconstructor
p0
(cdataset.Book
Book
p1
c__builtin__
object
p2
Ntp3
Rp4
(dp5
S'content_name'
p6
V21988.txt.utf-8
p7
sS'isbn'
p8
V0802755526
p9
sS'year'
p10
I1953
sS'author_name'
p11
VJames E. Gunn
p12
sS'images_urls'
p13
(lp14
Vhttp://www.gutenberg.org/files/21988/21988-h/images/fp.png
p15
aVhttp://www.gutenberg.org/files/21988/21988-h/images/illo3.png
p16
aVhttp://www.gutenberg.org/files/21988/21988-h/images/illo4.png
p17
aVhttp://www.gutenberg.org/files/21988/21988-h/images/tp.png
p18
aVhttp://www.gutenberg.org/files/21988/21988-page-images/f001.jpg
p19
aVhttp://www.gutenberg.org/files/21988/21988-page-images/p007.jpg
p20
aVhttp://www.gutenberg.org/files/21988/21988-page-images/p008.png
p21
aVhttp://www.gutenberg.org/files/21988/21988-page-images/p009.png
p22
aVhttp://www.gutenberg.org/files/21988/21988-page-images/p010.png
p23
aVhttp://www.gutenberg.org/files/21988/21988-page-images/p011.png
p24
aVhttp://www.gutenberg.org/files/21988/21988-page-images/p012.png
p25
aVhttp://www.gutenberg.org/files/21988/21988-page-images/p013.png
p26
aVhttp://www.gutenberg.org/files/21988/21988-page-images/p014.png
p27
aVhttp://www.gutenberg.org/files/21988/21988-page-images/p015.png
p28
aVhttp://www.gutenberg.org/files/21988/21988-page-images/p016.png
p29
aVhttp://www.gutenberg.org/files/21988/21988-page-images/p017.png
p30
aVhttp://www.gutenberg.org/files/21988/21988-page-images/p018.png
p31
aVhttp://www.gutenberg.org/files/21988/21988-page-images/p019.png
p32
aVhttp://www.gutenberg.org/files/21988/21988-page-images/p020.png
p33
aVhttp://www.gutenberg.org/files/21988/21988-page-images/p021.png
p34
aVhttp://www.gutenberg.org/files/21988/21988-page-images/p022.png
p35
aVhttp://www.gutenberg.org/files/21988/21988-page-images/p023.png
p36
aVhttp://www.gutenberg.org/files/21988/21988-page-images/p024.png
p37
aVhttp://www.gutenberg.org/files/21988/21988-page-images/p025.png
p38
aVhttp://www.gutenberg.org/files/21988/21988-page-images/p026.png
p39
aVhttp://www.gutenberg.org/files/21988/21988-page-images/p027.jpg
p40
aVhttp://www.gutenberg.org/files/21988/21988-page-images/p028.png
p41
aVhttp://www.gutenberg.org/files/21988/21988-page-images/p029.png
p42
aVhttp://www.gutenberg.org/files/21988/21988-page-images/p030.png
p43
aVhttp://www.gutenberg.org/files/21988/21988-page-images/p031.png
p44
aVhttp://www.gutenberg.org/files/21988/21988-page-images/p032.png
p45
aVhttp://www.gutenberg.org/files/21988/21988-page-images/p033.png
p46
aVhttp://www.gutenberg.org/files/21988/21988-page-images/p034.png
p47
aVhttp://www.gutenberg.org/files/21988/21988-page-images/p035.png
p48
aVhttp://www.gutenberg.org/files/21988/21988-page-images/p036.png
p49
aVhttp://www.gutenberg.org/files/21988/21988-page-images/p037.png
p50
aVhttp://www.gutenberg.org/files/21988/21988-page-images/p038.png
p51
aVhttp://www.gutenberg.org/files/21988/21988-page-images/p039.png
p52
aVhttp://www.gutenberg.org/files/21988/21988-page-images/p040.png
p53
aVhttp://www.gutenberg.org/files/21988/21988-page-images/p041.jpg
p54
aVhttp://www.gutenberg.org/files/21988/21988-page-images/p042.png
p55
aVhttp://www.gutenberg.org/files/21988/21988-page-images/p043.png
p56
aVhttp://www.gutenberg.org/files/21988/21988-page-images/p044.png
p57
aVhttp://www.gutenberg.org/files/21988/21988-page-images/p045.png
p58
aVhttp://www.gutenberg.org/files/21988/21988-page-images/p046.png
p59
aVhttp://www.gutenberg.org/files/21988/21988-page-images/p047.png
p60
aVhttp://www.gutenberg.org/files/21988/21988-page-images/p048.png
p61
aVhttp://www.gutenberg.org/files/21988/21988-page-images/p049.png
p62
aVhttp://www.gutenberg.org/files/21988/21988-page-images/p050.png
p63
asS'language_code'
p64
Veng
p65
sS'id'
p66
I585
sS'category'
p67
VText
p68
sS'genres'
p69
(lp70
sS'copyright'
p71
VPublic domain in the USA.
p72
sS'title'
p73
VBreaking Point
p74
sS'wikipedia'
p75
(dp76
S'found'
p77
I00
ssS'average_rating'
p78
F3.97
sS'rating_count'
p79
I16
sS'content_available'
p80
I01
sS'goodreads'
p81
(dp82
S'url'
p83
S'https://www.goodreads.com/book/show/3902474-breaking-point'
p84
sS'found'
p85
I01
ssS'similar_books'
p86
(lp87
sS'description'
p88
VContents:<br /><br />Introduction (essay)<br />Breaking Point (novelette<br />A Monster Named Smith<br />Cinderella Story<br />Teddy Bear<br />The Man Who Owned Tomorrow<br />Green Thumb<br />The Power and the Glory<br />The Listeners (novelette)<br />Translations (essay)
p89
sS'gutenberg'
p90
(dp91
S'url'
p92
Vhttp://www.gutenberg.org/ebooks/21988
p93
sS'num'
p94
I21988
ssS'authors'
p95
(lp96
I161
asS'isbn13'
p97
V9780802755520
p98
sS'language'
p99
VEnglish
p100
sS'countries'
p101
(lp102
I2
asS'release_date'
p103
S'2007-07-02T00:00:00'
p104
sS'author'
p105
I161
sS'content_cleaned'
p106
I00
sS'classes'
p107
(lp108
Vto-read
p109
aVscience-fiction
p110
aVowned
p111
aVcurrently-reading
p112
aVmass-market
p113
aVinvestigate
p114
aVaudiobooks
p115
aVsomewhere-out-there
p116
aVshelf-g-authors
p117
aVa-pending-placement
p118
aV2016-must-read
p119
aVpg
p120
aVle-fantastique-a-h
p121
aVtub-012
p122
aVshort-story-collection
p123
aVs-f
p124
aVsf
p125
aVcollection
p126
aVsci-fi_general
p127
aVshort-stories-novellas
p128
aVto-be-read
p129
aVp-mass-mkt-paperback
p130
aVall-paper
p131
aVsci-fi-fantasy
p132
aVe-bay-purchase
p133
aVshort
p134
asS'loc_class'
p135
VPS: Language and Literatures: American and Canadian literature
p136
sS'n_authors'
p137
I1
sb.