ccopy_reg
_reconstructor
p0
(cdataset.Book
Book
p1
c__builtin__
object
p2
Ntp3
Rp4
(dp5
S'content_name'
p6
V32705.txt.utf-8
p7
sS'isbn'
p8
V0385513534
p9
sS'year'
p10
I1953
sS'author_name'
p11
VPaul W. Fairman
p12
sS'images_urls'
p13
(lp14
Vhttp://www.gutenberg.org/files/32705/32705-h/images/cover.jpg
p15
aVhttp://www.gutenberg.org/files/32705/32705-h/images/illus1.jpg
p16
aVhttp://www.gutenberg.org/files/32705/32705-h/images/illus2.jpg
p17
asS'language_code'
p18
Veng
p19
sS'id'
p20
I893
sS'category'
p21
VText
p22
sS'genres'
p23
(lp24
sS'copyright'
p25
VPublic domain in the USA.
p26
sS'title'
p27
VDeadly City
p28
sS'wikipedia'
p29
(dp30
S'found'
p31
I00
ssS'average_rating'
p32
F3.86
sS'rating_count'
p33
I46105
sS'content_available'
p34
I01
sS'cover_art_url'
p35
S'http://www.gutenberg.org/cache/epub/32705/pg32705.cover.medium.jpg'
p36
sS'goodreads'
p37
(dp38
S'url'
p39
Vhttps://www.goodreads.com/book/show/3398625-the-lost-city-of-z
p40
sS'found'
p41
I01
sS'year'
p42
I2009
ssS'similar_books'
p43
(lp44
VRiver of Darkness: Francisco Orellana's Legendary Voyage of Death and Discovery Down the Amazon
p45
aVThe Unconquered: In Search of the Amazon's Last Uncontacted Tribes
p46
aVInto the Silence: The Great War, Mallory and the Conquest of Everest
p47
aVSkeletons on the Zahara: A True Story of Survival
p48
aVFordlandia: The Rise and Fall of Henry Ford's Forgotten Jungle City
p49
aVA Voyage Long and Strange: Rediscovering the New World
p50
aVBlind Descent: The Quest to Discover the Deepest Place on Earth
p51
aVThrough the Brazilian Wilderness
p52
aVExploration Fawcett
p53
aVBrazilian Adventure
p54
aVA Land So Strange: The Epic Journey of Cabeza de Vaca
p55
aVTravels in Siberia
p56
aVThe White Rock
p57
aVThe Fourth Part of the World: The Race to the Ends of the Earth, and the Epic Story of the Map That Gave America Its Name
p58
aVBrutal Journey: The Epic Story of the First Crossing of North America
p59
aVInto Africa: The Epic Adventures of Stanley and Livingstone
p60
aVMawson's Will: The Greatest Polar Survival Story Ever Written
p61
aVThe Worst Journey in the World
p62
asS'description'
p63
VA grand mystery reaching back centuries. A sensational disappearance that made headlines around the world. A quest for truth that leads to death, madness or disappearance for those who seek to solve it. <i>The Lost City of Z</i> is a blockbuster adventure narrative about what lies beneath the impenetrable jungle canopy of the Amazon.<br /><br />After stumbling upon a hidden trove of diaries, New Yorker writer David Grann set out to solve "the greatest exploration mystery of the 20th century": What happened to the British explorer Percy Fawcett &amp; his quest for the Lost City of Z?<br /><br />In 1925, Fawcett ventured into the Amazon to find an ancient civilization, hoping to make one of the most important discoveries in history. For centuries Europeans believed the world's largest jungle concealed the glittering kingdom of El Dorado. Thousands had died looking for it, leaving many scientists convinced that the Amazon was truly inimical to humans. But Fawcett, whose daring expeditions inspired Conan Doyle's <i>The Lost World</i>, had spent years building his scientific case. Captivating the imagination of millions round the globe, Fawcett embarked with his 21-year-old son, determined to prove that this ancient civilisation--which he dubbed Z--existed. Then his expedition vanished. Fawcett's fate, &amp; the tantalizing clues he left behind about Z, became an obsession for hundreds who followed him into the uncharted wilderness. <br /><br />For decades scientists &amp; adventurers have searched for evidence of Fawcett's party &amp; the lost City of Z. Countless have perished, been captured by tribes or gone mad. As Grann delved ever deeper into the mystery surrounding Fawcett's quest, &amp; the greater mystery of what lies within the Amazon, he found himself, like the generations who preceded him, being irresistibly drawn into the jungle's green hell. His quest for the truth &amp; discoveries about Fawcett's fate &amp; Z form the heart of this complexly enthralling narrative.
p64
sS'format'
p65
VHardcover
p66
sS'gutenberg'
p67
(dp68
g39
Vhttp://www.gutenberg.org/ebooks/32705
p69
sS'num'
p70
I32705
ssS'authors'
p71
(lp72
I221
asS'pages'
p73
I351
sS'isbn13'
p74
V9780385513531
p75
sS'language'
p76
VEnglish
p77
sS'countries'
p78
(lp79
I2
asS'release_date'
p80
S'2010-06-05T00:00:00'
p81
sS'author'
p82
I221
sS'content_cleaned'
p83
I01
sS'classes'
p84
(lp85
Vto-read
p86
aVcurrently-reading
p87
aVnon-fiction
p88
aVhistory
p89
aVnonfiction
p90
aVadventure
p91
aVtravel
p92
aVbiography
p93
aVfavorites
p94
aVbook-club
p95
aVexploration
p96
aVmystery
p97
aVhistorical
p98
aVaudiobooks
p99
aVaudiobook
p100
aVsouth-america
p101
aVowned
p102
aVlibrary
p103
aVbooks-i-own
p104
aVaudio
p105
aVfiction
p106
aVkindle
p107
aVamazon
p108
aVscience
p109
aVlatin-america
p110
aVanthropology
p111
aVsurvival
p112
aVadult
p113
aVebook
p114
aVbiography-memoir
p115
aVbrazil
p116
aVto-buy
p117
aVaudio-books
p118
aVhistorical-fiction
p119
aVnon-fic
p120
aVnature
p121
aVto-read-non-fiction
p122
aVread-in-2017
p123
aVmemoir
p124
aVabandoned
p125
aVaudio-book
p126
aVarchaeology
p127
aVjournalism
p128
aVbookclub
p129
aVexplorers
p130
aVebooks
p131
aVwish-list
p132
aVnon-fiction-to-read
p133
aVread-in-2016
p134
aVtravel-adventure
p135
aVmy-library
p136
aVowned-books
p137
aVread-in-2010
p138
aVbiographies
p139
aVto-read-nonfiction
p140
aVdefault
p141
aVdid-not-finish
p142
aVread-in-2015
p143
aVread-in-2011
p144
aVhistorical-non-fiction
p145
aVbook-to-movie
p146
aVadult-non-fiction
p147
aVgeography
p148
aVnarrative-nonfiction
p149
aVfawcett
p150
aVaction-adventure
p151
aVread-2017
p152
aVoutdoors
p153
aVunfinished
p154
aVtrue-adventure
p155
aVnonfiction-to-read
p156
aVmy-books
p157
aVread-in-2009
p158
aV2017-reads
p159
aVneed-to-buy
p160
aVmemoir-biography
p161
aVpercy-fawcett
p162
aVenglish
p163
aVread-2010
p164
aVclsc
p165
aVdidn-t-finish
p166
aVmemoirs
p167
aVmovies
p168
aV2000s
p169
aVborrowed
p170
aVbiography-autobiography
p171
aVgeneral-nonfiction
p172
aVlibrary-books
p173
aVmaybe
p174
aVfavourites
p175
aVhome-library
p176
aVautobiography
p177
aVnon-fiction-history
p178
aVlistened-to
p179
aVamerican
p180
aVlibrary-book
p181
aVworld-history
p182
aVadventure-travel
p183
aVread-2014
p184
aVbooks-to-movies
p185
asS'loc_class'
p186
VPS: Language and Literatures: American and Canadian literature
p187
sS'n_authors'
p188
I1
sb.