ccopy_reg
_reconstructor
p0
(cdataset.Book
Book
p1
c__builtin__
object
p2
Ntp3
Rp4
(dp5
S'similar_books'
p6
(lp7
sS'genres'
p8
(lp9
sS'author'
p10
I302
sS'countries'
p11
(lp12
I2
asS'year'
p13
I1979
sS'title'
p14
VGalaxy Magazine March 1979
p15
sS'cover'
p16
Vhttps://ia601302.us.archive.org/BookReader/BookReaderImages.php?zip=/8/items/Galaxy_v39n09_1979-03/Galaxy_v39n09_1979-03_jp2.zip&file=Galaxy_v39n09_1979-03_jp2/Galaxy_v39n09_1979-03_0000.jp2&scale=0&rotate=0
p17
sS'cover_art'
p18
S'http://www.isfdb.org/wiki/images/c/c5/GALMARAPR79.jpg'
p19
sS'author_name'
p20
VGalaxy Magazine
p21
sS'images_urls'
p22
(lp23
sS'authors'
p24
(lp25
I881
aI744
aI882
aI883
aI884
aI885
aI843
aI767
aI844
aI326
aI886
aI384
aI40
aI887
aI888
aI889
aI302
asS'images'
p26
(lp27
sS'id'
p28
I1214
sS'contents'
p29
(lp30
(dp31
S'title'
p32
VParasite
p33
sS'author'
p34
I881
sa(dp35
g32
VParasite [2]
p36
sg34
I881
sa(dp37
g32
VParasite [3]
p38
sg34
I881
sa(dp39
g32
VDuet
p40
sg34
I744
sa(dp41
g32
VDuet [2]
p42
sg34
I881
sa(dp43
g32
VJem (Part 2 of 5)
p44
sg34
I882
sa(dp45
g32
VThe World of God
p46
sg34
I883
sa(dp47
g32
VThe World of God [2]
p48
sg34
I883
sa(dp49
g32
VA Scientific Fact
p50
sg34
I884
sa(dp51
g32
VSomeone to Talk To
p52
sg34
I885
sa(dp53
g32
VSomeone to Talk to [2]
p54
sg34
I885
sa(dp55
g32
VGalaxy Bookshelf (Galaxy, March-April 1979)
p56
sg34
I843
sa(dp57
g32
VThe Alien Viewpoint (Galaxy, March-April 1979)
p58
sg34
I767
sa(dp59
g32
VDirections (Galaxy, March-April 1979)
p60
sg34
I844
sa(dp61
g32
VThings to Come (Galaxy, March-April 1979)
p62
sg34
I326
sa(dp63
g32
VParasite
p64
sg34
I886
sa(dp65
g32
VThe World of God
p66
sg34
I384
sa(dp67
g32
VJem (Part 2 of 5)
p68
sg34
I40
sa(dp69
g32
VDuet
p70
sg34
I887
sa(dp71
g32
VA Scientific Fact
p72
sg34
I888
sa(dp73
g32
VSomeone to Talk To
p74
sg34
I889
sasb.