ccopy_reg
_reconstructor
p0
(cdataset.Book
Book
p1
c__builtin__
object
p2
Ntp3
Rp4
(dp5
S'similar_books'
p6
(lp7
sS'genres'
p8
(lp9
sS'author'
p10
I918
sS'countries'
p11
(lp12
I2
asS'year'
p13
I1957
sS'title'
p14
VIF Magazine April 1957
p15
sS'cover'
p16
Vhttps://ia600204.us.archive.org/BookReader/BookReaderImages.php?zip=/14/items/1957-04_IF/1957-04_IF_jp2.zip&file=1957-04_IF_jp2/1957-04_IF_0000.jp2&scale=0&rotate=0
p17
sS'cover_art'
p18
S'http://www.isfdb.org/wiki/images/b/bd/WOFIFAPR1957.jpg'
p19
sS'author_name'
p20
VIF Magazine
p21
sS'images_urls'
p22
(lp23
sS'authors'
p24
(lp25
I497
aI956
aI363
aI948
aI326
aI50
aI59
aI161
aI144
aI1032
aI630
aI1033
aI918
asS'images'
p26
(lp27
sS'id'
p28
I1256
sS'contents'
p29
(lp30
(dp31
g10
I497
sg14
VGreen Thumb
p32
sa(dp33
g10
I497
sg14
VHidden Talent
p34
sa(dp35
g10
I956
sg14
VBrainchild
p36
sa(dp37
g10
I363
sg14
VA Case of Sunburn
p38
sa(dp39
g10
I956
sg14
VFilthy Rich
p40
sa(dp41
g10
I363
sg14
VThe Maze
p42
sa(dp43
g10
I363
sg14
VOperation Boomerang
p44
sa(dp45
g10
I948
sg14
VEditor's Report (If, April 1957)
p46
sa(dp47
g10
I326
sg14
VWhat Is Your Science I. Q.? (If, April 1957)
p48
sa(dp49
g10
I326
sg14
VScience Briefs (If, April 1957)
p50
sa(dp51
g10
I326
sg14
VHue and Cry (If, April 1957)
p52
sa(dp53
g10
I50
sg14
VHidden Talent
p54
sa(dp55
g10
I59
sg14
VBrainchild
p56
sa(dp57
g10
I161
sg14
VGreen Thumb
p58
sa(dp59
g10
I144
sg14
VA Case of Sunburn
p60
sa(dp61
g10
I1032
sg14
VFilthy Rich
p62
sa(dp63
g10
I630
sg14
VThe Maze
p64
sa(dp65
g10
I1033
sg14
VOperation Boomerang
p66
sasb.