ccopy_reg
_reconstructor
p0
(cdataset.Book
Book
p1
c__builtin__
object
p2
Ntp3
Rp4
(dp5
S'content_name'
p6
V51028.txt.utf-8
p7
sS'isbn'
p8
V1523821175
p9
sS'year'
p10
I1951
sS'author_name'
p11
VBetsy Curtis
p12
sS'images_urls'
p13
(lp14
Vhttp://www.gutenberg.org/files/51028/51028-h/images/cover.jpg
p15
aVhttp://www.gutenberg.org/files/51028/51028-h/images/illus.jpg
p16
asS'language_code'
p17
NsS'images'
p18
(lp19
sS'id'
p20
I773
sS'category'
p21
VText
p22
sS'genres'
p23
(lp24
sS'copyright'
p25
VPublic domain in the USA.
p26
sS'title'
p27
VThe Protector
p28
sS'wikipedia'
p29
(dp30
S'found'
p31
I00
ssS'average_rating'
p32
F3.87
sS'rating_count'
p33
I1
sS'content_available'
p34
I01
sS'cover_art_url'
p35
S'http://www.gutenberg.org/cache/epub/51028/pg51028.cover.medium.jpg'
p36
sS'goodreads'
p37
(dp38
S'url'
p39
S'https://www.goodreads.com/book/show/29062380-the-protector'
p40
sS'found'
p41
I01
ssS'similar_books'
p42
(lp43
sS'description'
p44
VThis collection of literature attempts to compile many of the classic works that have stood the test of time and offer them at a reduced, affordable price, in an attractive volume so that everyone can enjoy them.
p45
sS'gutenberg'
p46
(dp47
S'url'
p48
Vhttp://www.gutenberg.org/ebooks/51028
p49
sS'num'
p50
I51028
ssS'authors'
p51
(lp52
I247
asS'pages'
p53
I26
sS'isbn13'
p54
V9781523821174
p55
sS'language'
p56
VEnglish
p57
sS'countries'
p58
(lp59
I2
asS'release_date'
p60
S'2016-01-24T00:00:00'
p61
sS'author'
p62
I247
sS'content_cleaned'
p63
I01
sS'classes'
p64
(lp65
sS'loc_class'
p66
S''
p67
sS'n_authors'
p68
I1
sb.