ccopy_reg
_reconstructor
p0
(cdataset.Book
Book
p1
c__builtin__
object
p2
Ntp3
Rp4
(dp5
S'similar_books'
p6
(lp7
sS'genres'
p8
(lp9
sS'author'
p10
I302
sS'countries'
p11
(lp12
I2
asS'year'
p13
I1957
sS'title'
p14
VGalaxy Magazine January 1957
p15
sS'cover'
p16
Vhttps://ia601300.us.archive.org/BookReader/BookReaderImages.php?zip=/17/items/Galaxy_v13n03_1957-01/Galaxy_v13n03_1957-01_jp2.zip&file=Galaxy_v13n03_1957-01_jp2/Galaxy_v13n03_1957-01_0000.jp2&scale=0&rotate=0
p17
sS'cover_art'
p18
S'http://www.isfdb.org/wiki/images/4/45/MLO4433.jpg'
p19
sS'author_name'
p20
VGalaxy Magazine
p21
sS'images_urls'
p22
(lp23
sS'authors'
p24
(lp25
I419
aI497
aI499
aI363
aI305
aI483
aI326
aI339
aI194
aI503
aI385
aI220
aI40
aI302
asS'images'
p26
(lp27
sS'id'
p28
I1047
sS'contents'
p29
(lp30
(dp31
g10
I419
sg14
VMoral Equivalent
p32
sa(dp33
g10
I419
sg14
VMoral Equivalent [2]
p34
sa(dp35
g10
I419
sg14
VMoral Equivalent [3]
p36
sa(dp37
g10
I497
sg14
VAll Jackson's Children
p38
sa(dp39
g10
I499
sg14
VButterfly 9
p40
sa(dp41
g10
I499
sg14
VButterfly 9 [2]
p42
sa(dp43
g10
I499
sg14
VButterfly 9 [3]
p44
sa(dp45
g10
I499
sg14
VThe Haunted Corpse
p46
sa(dp47
g10
I363
sg14
VThe Stars My Destination (Part 4 of 4)
p48
sa(dp49
g10
I363
sg14
VThe Stars My Destination (Part 4 of 4) [2]
p50
sa(dp51
g10
I363
sg14
VThe Stars My Destination (Part 4 of 4) [3]
p52
sa(dp53
g10
I363
sg14
VThe Stars My Destination (Part 4 of 4) [4]
p54
sa(dp55
g10
I305
sg14
VTreasurer's Report
p56
sa(dp57
g10
I483
sg14
VGalaxy's 5 Star Shelf (Galaxy, January 1957)
p58
sa(dp59
g10
I326
sg14
VForecast (Galaxy, January 1957)
p60
sa(dp61
g10
I339
sg14
VFor Your Information: Tracking Down the Sea Serpent (Part Ii)
p62
sa(dp63
g10
I194
sg14
VMoral Equivalent
p64
sa(dp65
g10
I503
sg14
VButterfly 9
p66
sa(dp67
g10
I385
sg14
VThe Stars My Destination (Part 4 of 4)
p68
sa(dp69
g10
I220
sg14
VAll Jackson's Children
p70
sa(dp71
g10
I40
sg14
VThe Haunted Corpse
p72
sasb.