ccopy_reg
_reconstructor
p0
(cdataset.Book
Book
p1
c__builtin__
object
p2
Ntp3
Rp4
(dp5
S'similar_books'
p6
(lp7
sS'genres'
p8
(lp9
sS'author'
p10
I918
sS'countries'
p11
(lp12
I2
asS'year'
p13
I1958
sS'title'
p14
VIF Magazine April 1958
p15
sS'cover'
p16
Vhttps://ia600203.us.archive.org/BookReader/BookReaderImages.php?zip=/2/items/1958-04_IF/1958-04_IF_jp2.zip&file=1958-04_IF_jp2/1958-04_IF_0000.jp2&scale=0&rotate=0
p17
sS'cover_art'
p18
S'http://www.isfdb.org/wiki/images/c/c0/WOFIFAPR1958.jpg'
p19
sS'author_name'
p20
VIF Magazine
p21
sS'images_urls'
p22
(lp23
sS'authors'
p24
(lp25
I363
aI497
aI956
aI948
aI326
aI161
aI1008
aI1039
aI144
aI50
aI1030
aI630
aI918
asS'images'
p26
(lp27
sS'id'
p28
I1262
sS'contents'
p29
(lp30
(dp31
g10
I363
sg14
VPowder Keg
p32
sa(dp33
g10
I497
sg14
VA Question of Identity
p34
sa(dp35
g10
I363
sg14
VHomecoming
p36
sa(dp37
g10
I956
sg14
VConservation
p38
sa(dp39
g10
I956
sg14
VPassport to Sirius
p40
sa(dp41
g10
I497
sg14
VThe Raider
p42
sa(dp43
g10
I956
sg14
VThe Bureaucrat
p44
sa(dp45
g10
I948
sg14
VEditor's Report (If, April 1958)
p46
sa(dp47
g10
I326
sg14
VHue and Cry (If, April 1958)
p48
sa(dp49
g10
I161
sg14
VPowder Keg
p50
sa(dp51
g10
I1008
sg14
VA Question of Identity
p52
sa(dp53
g10
I1039
sg14
VHomecoming
p54
sa(dp55
g10
I144
sg14
VConservation
p56
sa(dp57
g10
I50
sg14
VPassport to Sirius
p58
sa(dp59
g10
I1030
sg14
VThe Raider
p60
sa(dp61
g10
I630
sg14
VThe Bureaucrat
p62
sasb.