ccopy_reg
_reconstructor
p0
(cdataset.Book
Book
p1
c__builtin__
object
p2
Ntp3
Rp4
(dp5
S'content_name'
p6
V29142.txt.utf-8
p7
sS'isbn'
p8
V1622665678
p9
sS'year'
p10
I2014
sS'author_name'
p11
VFredric Brown
p12
sS'images_urls'
p13
(lp14
Vhttp://www.gutenberg.org/files/29142/29142-h/images/001.png
p15
aVhttp://www.gutenberg.org/files/29142/29142-h/images/002-1.jpg
p16
aVhttp://www.gutenberg.org/files/29142/29142-h/images/002-2.jpg
p17
asS'language_code'
p18
NsS'images'
p19
(lp20
sS'id'
p21
I271
sS'category'
p22
VText
p23
sS'genres'
p24
(lp25
sS'copyright'
p26
VPublic domain in the USA.
p27
sS'title'
p28
VKeep Out
p29
sS'wikipedia'
p30
(dp31
S'url'
p32
Vhttps://en.wikipedia.org/wiki/Honeymoon_in_Hell
p33
sS'found'
p34
I01
sS'year'
p35
I-1
ssS'published_in'
p36
NsS'average_rating'
p37
F3.76
sS'rating_count'
p38
I1403
sS'content_available'
p39
I01
sS'goodreads'
p40
(dp41
g32
Vhttps://www.goodreads.com/book/show/21805608-his-to-keep
p42
sg34
I01
sg35
I2014
ssS'similar_books'
p43
(lp44
VCaptive Cowboy (Captured Hearts, #2)
p45
aVFalling for the Marine (McCade Brothers, #2)
p46
aVTempted by the Soldier (Falling for You, #2)
p47
aVPuss in Boots (Timeless Fairy Tales, #6)
p48
aVWolf at the Door (Snowdonia Wolves #1)
p49
aVSunburn (Greek God, #3)
p50
aVOut of Control (Babysitting a Billionaire, #2)
p51
aVWilde for Her (Wilde Security, #2)
p52
aVTake Me if You Dare (Birthday Dare, #1)
p53
aVRecipe for Seduction (Madewood Brothers, #3)
p54
aVMr. Virile and the Girl Next Door
p55
aVDare to Resist (Wedding Dare, #0.5)
p56
aVBeautiful Salvation (Blood Prince, #5)
p57
aVPlaying Doctor
p58
aVMarine for Hire (Front and Center, #1)
p59
aVDream Nights with the CEO (Secret Desires, #1)
p60
aVUnravel Me
p61
aVGame for Trouble (Game for It, #2)
p62
asS'description'
p63
V<b>A sexy category romance from Entangled's Brazen imprint...</b><br /><br /><i>He\u2019s always wanted her. Now\u2019s his chance to claim what\u2019s his.</i><br /><br />School teacher Marceline Bellini gave up everything\u2014men, sex, anything resembling a social life\u2014to raise her young daughter. To be the perfect parent. But when she attends an engagement party in her standard <i>stick-in-the-mud</i> mode, her friends begin plying Marcy with shots. Just enough to convince her that a little fun doesn't sound like a bad idea... and having some naughty fun is an even <i>better</i> one.<br /><br />Like finding herself deliciously pressed against a dark alley wall by the very familiar and very <i>hot</i> body of her best friend's older brother.<br /><br />After years of waiting in painful silence, police officer Aaron Robinson finally has Marcy\u2019s attention. And <i>man</i>, does he have it. But nothing could have prepared either of them for the rush of fiery lust between them. So he\u2019ll just have to convince Marcy he\u2019s for real. And that a rainy, lust-fuelled romp is the first step to a lifetime of completely <i>imperfect</i> happiness\u2026
p64
sS'format'
p65
Vebook
p66
sS'gutenberg'
p67
(dp68
g32
Vhttp://www.gutenberg.org/ebooks/29142
p69
sS'num'
p70
I29142
ssS'authors'
p71
(lp72
I58
asS'pages'
p73
I100
sS'isbn13'
p74
V9781622665679
p75
sS'language'
p76
VEnglish
p77
sS'release_date'
p78
S'2009-06-17T00:00:00'
p79
sS'author'
p80
I58
sS'original_title'
p81
VHoneymoon in Hell
p82
sS'summary'
p83
VHoneymoon in Hell is a science fiction short story by Fredric Brown, first published in 1950. In 1958, this was the title story of a short story anthology.\u000a\u000a
p84
sS'content_cleaned'
p85
I01
sS'classes'
p86
(lp87
Vto-read
p88
aVromance
p89
aVcontemporary-romance
p90
aVkindle
p91
aVcontemporary
p92
aVcurrently-reading
p93
aVnovella
p94
aVseries
p95
aVentangled
p96
aVbrazen
p97
aVebook
p98
aVerotica
p99
aVadult
p100
aVmilitary
p101
aVentangled-brazen
p102
aVnovellas
p103
aVshort-stories
p104
aVfriends-to-lovers
p105
aVarc
p106
aVfree
p107
aVfavorites
p108
aVmen-in-uniform
p109
aVfiction
p110
aVread-in-2014
p111
aVread-in-2015
p112
aVebooks
p113
aVshort-story
p114
aVshort
p115
aVe-book
p116
aVnetgalley
p117
aVfreebies
p118
aVown-kindle
p119
aVerotic-romance
p120
aVbrazen-collection
p121
aVsexy
p122
aV2014-read
p123
aVteacher
p124
aVnew-adult
p125
aVowned
p126
aVentangled-publishing
p127
aVbooks-i-own
p128
aVcop
p129
aVout-of-uniform
p130
aVsteamy-romance
p131
aVpart-of-a-series
p132
aVkindle-freebies
p133
aVfreebie
p134
aVon-kindle
p135
aVcops
p136
aVsweet
p137
aVteacher-professor
p138
aVowned-books
p139
aVhero-cop
p140
aVibooks
p141
aVbook-boyfriend
p142
aV3-stars
p143
aVsteamy
p144
aVbrazen-series
p145
aValpha-males
p146
aVkatee-robert
p147
aVdual-pov
p148
aVdownloaded
p149
aValpha-male
p150
aVsingle-parent
p151
aVepub
p152
aVread-2014
p153
aVromance-contemporary
p154
aV2014-books
p155
aVone-night-stand
p156
aVread-in-2016
p157
aV2016-reads
p158
aVown-it
p159
aVfree-books
p160
aVread-2015
p161
aV2015-read
p162
aVowned-to-read
p163
aVpurchased
p164
aVfree-ebook
p165
aVown-not-read
p166
aVlaw-enforcement
p167
aVto-read-own
p168
aVsweet-guys
p169
aV2015-reads
p170
aVamazon
p171
aVe-books
p172
aVm-f
p173
aVhave-to-read
p174
aVkindle-books
p175
aVsmall-town
p176
aVquickie
p177
aVneed-to-download
p178
aVcalibre
p179
aVcomplete-series
p180
aVadult-romance
p181
aVown-tbr
p182
aVtoo-short-novella
p183
aVentangled-books
p184
aVstandalone-series
p185
aVlibrary
p186
aVdirty-talk
p187
asS'loc_class'
p188
VPS: Language and Literatures: American and Canadian literature
p189
sS'n_authors'
p190
I1
sb.