ccopy_reg
_reconstructor
p0
(cdataset.Book
Book
p1
c__builtin__
object
p2
Ntp3
Rp4
(dp5
S'similar_books'
p6
(lp7
sS'genres'
p8
(lp9
sS'author'
p10
I302
sS'countries'
p11
(lp12
I2
asS'year'
p13
I1980
sS'title'
p14
VGalaxy Magazine July 1980
p15
sS'cover'
p16
Vhttps://ia600203.us.archive.org/BookReader/BookReaderImages.php?zip=/13/items/Galaxy_v40n01_1980-07/Galaxy_v40n01_1980-07_jp2.zip&file=Galaxy_v40n01_1980-07_jp2/Galaxy_v40n01_1980-07_0000.jp2&scale=0&rotate=0
p17
sS'cover_art'
p18
S'http://www.philsp.com/data/images/g/galaxy_198007.jpg'
p19
sS'author_name'
p20
VGalaxy Magazine
p21
sS'images_urls'
p22
(lp23
sS'authors'
p24
(lp25
I903
aI904
aI905
aI906
aI907
aI908
aI909
aI326
aI910
aI911
aI912
aI913
aI914
aI915
aI916
aI40
aI741
aI917
aI889
aI302
asS'images'
p26
(lp27
sS'id'
p28
I1217
sS'contents'
p29
(lp30
(dp31
S'title'
p32
VFamous Events of the Future: The Jovian Sky Party
p33
sS'author'
p34
I903
sa(dp35
g32
VIn the Shubbi Arms
p36
sg34
I904
sa(dp37
g32
VThe Colony
p38
sg34
I905
sa(dp39
g32
VThe Night Machine
p40
sg34
I904
sa(dp41
g32
VIn the Days of the Steam Wars
p42
sg34
I906
sa(dp43
g32
VIn the Days of the Steam Wars [2]
p44
sg34
I906
sa(dp45
g32
VIn the Days of the Steam Wars [3]
p46
sg34
I906
sa(dp47
g32
VIn the Days of the Steam Wars [4]
p48
sg34
I906
sa(dp49
g32
VIn the Days of the Steam Wars [5]
p50
sg34
I906
sa(dp51
g32
VJem
p52
sg34
I905
sa(dp53
g32
VJem
p54
sg34
I907
sa(dp55
g32
VMapping the Island in Images
p56
sg34
I905
sa(dp57
g32
VPages From the Sketchbook of Michael Kaluta
p58
sg34
I908
sa(dp59
g32
VPages From the Sketchbook of Michael Kaluta [2]
p60
sg34
I908
sa(dp61
g32
VPages From the Sketchbook of Michael Kaluta [3]
p62
sg34
I908
sa(dp63
g32
VPages From the Sketchbook of Michael Kaluta [4]
p64
sg34
I908
sa(dp65
g32
VPages From the Sketchbook of Michael Kaluta [5]
p66
sg34
I908
sa(dp67
g32
V"Who Knows What Evil Lurks in the Hearts of Men?"
p68
sg34
I904
sa(dp69
g32
VEditorial: Oh, No! They've Changed It!
p70
sg34
I909
sa(dp71
g32
VYou'll Never Find It in Galaxy
p72
sg34
I326
sa(dp73
g32
VSon of Calculator and the Electronic Lifestyle
p74
sg34
I910
sa(dp75
g32
VMovers and Shakers
p76
sg34
I911
sa(dp77
g32
VYour Car and Its Computer
p78
sg34
I911
sa(dp79
g32
VWords
p80
sg34
I326
sa(dp81
g32
VIf You Don't Talk to Your Stereo, I Will
p82
sg34
I912
sa(dp83
g32
VDefending the Empire: Intelligent Games
p84
sg34
I911
sa(dp85
g32
VCareers
p86
sg34
I911
sa(dp87
g32
VReviews (Galaxy, July 1980)
p88
sg34
I913
sa(dp89
g32
VMichael Kaluta: Storytelling Fantasy Artist
p90
sg34
I909
sa(dp91
g32
VPotter On Books
p92
sg34
I914
sa(dp93
g32
VProjections
p94
sg34
I915
sa(dp95
g32
VMapping the Island in Images
p96
sg34
I916
sa(dp97
g32
VJem (Part 5 of 5)
p98
sg34
I40
sa(dp99
g32
VIn the Shubbi Arms
p100
sg34
I741
sa(dp101
g32
VThe Colony
p102
sg34
I917
sa(dp103
g32
VThe Night Machine
p104
sg34
I889
sa(dp105
g32
VIn the Days of the Steam Wars
p106
sg34
I914
sa(dp107
g32
VFamous Events of the Future: The Jovian Sky Party
p108
sg34
I326
sasb.