ccopy_reg
_reconstructor
p0
(cdataset.Book
Book
p1
c__builtin__
object
p2
Ntp3
Rp4
(dp5
S'content_name'
p6
V30770.txt.utf-8
p7
sS'isbn'
p8
V1634762177
p9
sS'year'
p10
I2015
sS'author_name'
p11
VJohn Berryman
p12
sS'images_urls'
p13
(lp14
Vhttp://www.gutenberg.org/files/30770/30770-h/images/image_001.jpg
p15
aVhttp://www.gutenberg.org/files/30770/30770-h/images/image_002.jpg
p16
aVhttp://www.gutenberg.org/files/30770/30770-h/images/image_003.jpg
p17
aVhttp://www.gutenberg.org/files/30770/30770-h/images/image_004.jpg
p18
asS'language_code'
p19
Veng
p20
sS'images'
p21
(lp22
sS'id'
p23
I406
sS'category'
p24
VText
p25
sS'genres'
p26
(lp27
sS'copyright'
p28
VPublic domain in the USA.
p29
sS'title'
p30
VThe Right Time
p31
sS'wikipedia'
p32
(dp33
S'found'
p34
I00
ssS'average_rating'
p35
F4.01
sS'rating_count'
p36
I609
sS'content_available'
p37
I01
sS'goodreads'
p38
(dp39
S'url'
p40
Vhttps://www.goodreads.com/book/show/25311219-the-right-time
p41
sg34
I01
sS'year'
p42
I2015
ssS'similar_books'
p43
(lp44
VPersonal Changes (Personal, #2)
p45
aVHeaven Can't Wait
p46
aVKnight of Ocean Avenue (Love in Laguna, #1)
p47
aVKage (Kage Trilogy, #1)
p48
aVLonely Hearts (Love Lessons, #3)
p49
aVRise & Fall (THIRDS, #4)
p50
aVSummer Son
p51
aVI Can See For Miles
p52
aVBonds of Denial (Wicked Play, #5)
p53
aVCriminal Pleasures
p54
aVPower Play (Scoring Chances, #3)
p55
aVCrashing the Net (Crashing, #1)
p56
aVStrong Enough (Family, #2)
p57
aVOffside Chance (Southern Scrimmage #3)
p58
aVNothing Ventured
p59
aVClarity of Lines (Thomas Elkin, #2)
p60
aVFoolish Me (The Light in Your Eye #2)
p61
asS'description'
p62
VWorkaholic Nate Erickson is a successful real estate developer who thrives on long hours and stress. When a Los Angeles project prompts him to relocate to Santa Monica, he welcomes the change of scenery. Nate has always considered romantic entanglements trouble, but his sexy next-door neighbor isn\u2019t easy to ignore. Which makes no sense, because Nate is straight\u2026 or so he\u2019s always thought.<br /><br />Alex Reyes is a retired professional soccer player turned West Hollywood business owner with an insatiable lust for life. He loves his family, friends, and work. But there\u2019s one life challenge left to accomplish: coming out publicly. Respect for traditional Latino values has kept him in the closet, but Alex begins to think he and his new neighbor might help one another combat their fears. As Alex and Nate forge a strong friendship, they soon realize facing their personal demons will take more courage than either man bargained. The reward is immeasurable\u2026 if the timing is right.
p63
sS'format'
p64
Vebook
p65
sS'gutenberg'
p66
(dp67
g40
Vhttp://www.gutenberg.org/ebooks/30770
p68
sS'num'
p69
I30770
ssS'authors'
p70
(lp71
I78
asS'pages'
p72
I220
sS'isbn13'
p73
V9781634762175
p74
sS'language'
p75
VEnglish
p76
sS'country'
p77
I2
sS'release_date'
p78
S'2009-12-27T00:00:00'
p79
sS'author'
p80
I78
sS'content_cleaned'
p81
I01
sS'classes'
p82
(lp83
Vto-read
p84
aVm-m
p85
aVmm
p86
aVseries
p87
aVcontemporary
p88
aVm-m-romance
p89
aVromance
p90
aVcurrently-reading
p91
aVmm-romance
p92
aVsports
p93
aVfriends-to-lovers
p94
aVpart-of-a-series
p95
aVcoming-out
p96
aVfavorites
p97
aVathletes
p98
aVcontemporary-romance
p99
aVaudiobook
p100
aVgay-for-you
p101
aVlane-hayes
p102
aVkindle
p103
aVgfy-ofy
p104
aVin-the-closet
p105
aVlgbt
p106
aVhurt-comfort
p107
aVaudible
p108
aVaudio
p109
aVaudiobooks
p110
aVgay
p111
aVkindle-lendable
p112
aVg-contemporary
p113
aVmm-contemporary-romance
p114
aVsteamy
p115
aVsexy-athletes
p116
aVebook
p117
aVmm-contemporary
p118
aVm-m-tbr
p119
aVm-m-read
p120
aVcover-lust
p121
aVdreamspinner-press
p122
aVe-book
p123
aVm-m-to-read
p124
aVcalibre
p125
aV2016-books
p126
aVread-m-m
p127
aVread-kindle
p128
aVread-adult
p129
aVgrief
p130
aVbi-sexual
p131
aVmale-male-romance
p132
aVromance-contemporary
p133
aVbisexual-gay-for-you
p134
aVwhite-collar
p135
aVfiction
p136
aVavailable-at-library
p137
aVromance-mm
p138
aVsport
p139
aVrecommended
p140
aVfamily
p141
aVwant-to-read
p142
aVmm-series
p143
aVebooks
p144
aVread-2015
p145
aVmm-sports
p146
aVlgbtq
p147
aVm-m-coming-out
p148
aVseries-to-continue
p149
aVgenre-romance
p150
aVofy
p151
aVinterracial
p152
aVangst
p153
aVsexy
p154
aVdirty-talk
p155
aV4-stars
p156
aVangsty
p157
aVgfy
p158
aV2015-reads
p159
aVloved
p160
aVjune-2015
p161
aVscribd
p162
aVtr-mm
p163
aVglbt
p164
aVmm-read
p165
aVto-read-mm-romance
p166
aVcannot-wait-salivating-2-read
p167
aVfeel-good
p168
aVto-buy
p169
aVm-m-books
p170
aVdnf-will-finish-later
p171
aV2017-read
p172
aVlibrary
p173
aV001-library
p174
aVmm-mmm
p175
aVbooks-i-want
p176
aVreview-copy
p177
aVchallenge-to-be-read
p178
aVboarding-lounge
p179
aVyear-2011-to-2015
p180
aV_sh-to-read-shelf
p181
aVread-in-english
p182
aVnew-adult-and-adult
p183
asS'loc_class'
p184
VPS: Language and Literatures: American and Canadian literature
p185
sS'n_authors'
p186
I1
sb.