ccopy_reg
_reconstructor
p0
(cdataset.Book
Book
p1
c__builtin__
object
p2
Ntp3
Rp4
(dp5
S'content_name'
p6
V50959.txt.utf-8
p7
sS'isbn'
p8
NsS'year'
p9
I1985
sS'author_name'
p10
VF. L. Wallace
p11
sS'images_urls'
p12
(lp13
Vhttp://www.gutenberg.org/files/50959/50959-h/images/cover.jpg
p14
aVhttp://www.gutenberg.org/files/50959/50959-h/images/illus.jpg
p15
asS'language_code'
p16
Veng
p17
sS'images'
p18
(lp19
sS'id'
p20
I900
sS'category'
p21
VText
p22
sS'genres'
p23
(lp24
sS'copyright'
p25
VPublic domain in the USA.
p26
sS'title'
p27
VEnd as a World
p28
sS'wikipedia'
p29
(dp30
S'url'
p31
Vhttps://en.wikipedia.org/wiki/Not_the_End_of_the_World_(McCaughrean_novel)
p32
sS'found'
p33
I01
sS'year'
p34
I-1
ssS'published_in'
p35
NsS'average_rating'
p36
F4.15
sS'rating_count'
p37
I63896
sS'content_available'
p38
I01
sS'cover_art_url'
p39
S'http://www.gutenberg.org/cache/epub/50959/pg50959.cover.medium.jpg'
p40
sS'goodreads'
p41
(dp42
g31
Vhttps://www.goodreads.com/book/show/10374.Hard_Boiled_Wonderland_and_the_End_of_the_World
p43
sg33
I01
sg34
I1985
ssS'similar_books'
p44
(lp45
VThe Collected Poems
p46
aVPalm-of-the-Hand Stories
p47
aVThe Ark Sakura
p48
aVHaruki Murakami and the Music of Words
p49
aVThe Changeling
p50
aVNaomi
p51
aVDear Diary
p52
aV69
p53
aVMy Misspent Youth: Essays
p54
aVRunaway Horses
p55
aVAlien vs. Predator
p56
aVQuicksand and Passing
p57
aVThe Oxford Book of Japanese Short Stories
p58
aVOut
p59
aVSanshir\u014d
p60
aVKappa
p61
asS'description'
p62
V'A narrative particle accelerator that zooms between Wild Turkey Whiskey and Bob Dylan, unicorn skulls and voracious librarians, John Coltrane and <i>Lord Jim</i>. Science fiction, detective story and post-modern manifesto all rolled into one rip-roaring novel, <i>Hard-Boiled Wonderland and the End of the World</i> is the tour de force that expanded Haruki Murakami's international following. Tracking one man's descent into the Kafkaesque underworld of contemporary Tokyo, Murakami unites East and West, tragedy and farce, compassion and detachment, slang and philosophy.'
p63
sS'format'
p64
VPaperback
p65
sS'gutenberg'
p66
(dp67
g31
Vhttp://www.gutenberg.org/ebooks/50959
p68
sS'num'
p69
I50959
ssS'authors'
p70
(lp71
I138
asS'pages'
p72
I400
sS'isbn13'
p73
NsS'language'
p74
VEnglish
p75
sS'country'
p76
I1
sS'release_date'
p77
S'2016-01-18T00:00:00'
p78
sS'author'
p79
I138
sS'original_title'
p80
VNot the End of the World (McCaughrean novel)
p81
sS'summary'
p82
VThis article is about Geraldine McCaughrean's young adult novel. For Christopher Brookmyre's crime novel, see Not the End of the World (Brookmyre novel); for Kate Atkinson's book of short stories, see Not the End of the World (short story collection)\u000aNot the End of the World is a young adult novel by Geraldine McCaughrean. It retells the Biblical story of Noah's Ark. The main character is Noah's thirteen-year-old daughter, Timna. The story is also relayed from the points of view of the animals. The novel was first published in 2004 and was the winner of the 2004 Whitbread Children's Book Award.
p83
sS'content_cleaned'
p84
I01
sS'classes'
p85
(lp86
Vto-read
p87
aVfiction
p88
aVfantasy
p89
aVjapan
p90
aVcurrently-reading
p91
aVjapanese
p92
aVmagical-realism
p93
aVscience-fiction
p94
aVfavorites
p95
aVmurakami
p96
aVsci-fi
p97
aVowned
p98
aVjapanese-literature
p99
aVliterature
p100
aVcontemporary
p101
aVharuki-murakami
p102
aVnovels
p103
aVbooks-i-own
p104
aVfavourites
p105
aVjapanese-lit
p106
aVto-buy
p107
aVnovel
p108
aVbook-club
p109
aVmystery
p110
aVliterary-fiction
p111
aVlibrary
p112
aVowned-books
p113
aVcontemporary-fiction
p114
aVasia
p115
aVscifi
p116
aVtranslated
p117
aVjapanese-fiction
p118
aVmagic-realism
p119
aVkindle
p120
aVasian
p121
aVsurrealism
p122
aVebook
p123
aV20th-century
p124
aVsci-fi-fantasy
p125
aVasian-literature
p126
aVwish-list
p127
aVdefault
p128
aVsurreal
p129
aVto-read-fiction
p130
aVabandoned
p131
aVaudiobook
p132
aVliterary
p133
aVgeneral-fiction
p134
aVadult
p135
aVspeculative-fiction
p136
aVdystopia
p137
aVtranslation
p138
aVadult-fiction
p139
aVmy-books
p140
aVre-read
p141
aVbooks
p142
aVfinished
p143
aVaudio
p144
aVaudiobooks
p145
aVweird
p146
aVjapanese-authors
p147
aVdystopian
p148
aVsf
p149
aVin-translation
p150
aVread-in-2013
p151
aVebooks
p152
aVenglish
p153
aVrecommended
p154
aVpostmodern
p155
aVfavorite-books
p156
aVfavorite
p157
aVshelfari-favorites
p158
aVread-in-2015
p159
aVbooks-to-read-in-your-20s
p160
aVon-hold
p161
aVlit
p162
aV1980s
p163
aVunfinished
p164
aVi-own
p165
aVbookclub
p166
aVread-in-2014
p167
aVphilosophy
p168
aVmodern
p169
aVwant
p170
aVmodern-fiction
p171
aVforeign
p172
aVfantasy-sci-fi
p173
aVread-in-2016
p174
aV65-books-to-read-in-your-20s
p175
aVmurakami-haruki
p176
aVall-time-favorites
p177
aVtranslations
p178
aVread-2016
p179
aVfavourite
p180
aVgiappone
p181
aVasian-lit
p182
aVromance
p183
aVfaves
p184
aVclassics
p185
aVe-book
p186
asS'loc_class'
p187
S''
p188
sS'n_authors'
p189
I1
sb.