ccopy_reg
_reconstructor
p0
(cdataset.Book
Book
p1
c__builtin__
object
p2
Ntp3
Rp4
(dp5
S'similar_books'
p6
(lp7
sS'genres'
p8
(lp9
sS'author'
p10
I918
sS'countries'
p11
(lp12
I2
asS'year'
p13
I1967
sS'title'
p14
VIF Magazine April 1967
p15
sS'cover'
p16
Vhttps://ia600206.us.archive.org/BookReader/BookReaderImages.php?zip=/16/items/1967-04_IF/1967-04_IF_jp2.zip&file=1967-04_IF_jp2/1967-04_IF_0000.jp2&scale=0&rotate=0
p17
sS'cover_art'
p18
S'http://www.isfdb.org/wiki/images/d/d2/WOFIFAPR1967.jpg'
p19
sS'author_name'
p20
VIF Magazine
p21
sS'images_urls'
p22
(lp23
sS'authors'
p24
(lp25
I545
aI499
aI593
aI40
aI1125
aI67
aI604
aI630
aI91
aI616
aI1144
aI1145
aI1146
aI918
asS'images'
p26
(lp27
sS'id'
p28
I1330
sS'contents'
p29
(lp30
(dp31
g10
I545
sg14
VThe Road to the Rim (Part 1 of 2)
p32
sa(dp33
g10
I499
sg14
VRetief, War Criminal
p34
sa(dp35
g10
I593
sg14
VThe Ethics of Madness
p36
sa(dp37
g10
I545
sg14
VThe Iron Thorn (Part 4 of 4)
p38
sa(dp39
g10
I40
sg14
VThree Brave Men
p40
sa(dp41
g10
I1125
sg14
VIt's New York in '67!
p42
sa(dp43
g10
I40
sg14
VHue and Cry (If, April 1967)
p44
sa(dp45
g10
I67
sg14
VRetief, War Criminal
p46
sa(dp47
g10
I604
sg14
VThe Ethics of Madness
p48
sa(dp49
g10
I630
sg14
VThe Road to the Rim (Part 1 of 2)
p50
sa(dp51
g10
I91
sg14
VThe Iron Thorn (Part 4 of 4)
p52
sa(dp53
g10
I616
sg14
VThe Fantasque
p54
sa(dp55
g10
I1144
sg14
VIt Takes All Kinds
p56
sa(dp57
g10
I1145
sg14
VThe Accomplice
p58
sa(dp59
g10
I1146
sg14
VThe Purpose of It All
p60
sasb.