ccopy_reg
_reconstructor
p0
(cdataset.Book
Book
p1
c__builtin__
object
p2
Ntp3
Rp4
(dp5
S'similar_books'
p6
(lp7
sS'genres'
p8
(lp9
sS'author'
p10
I302
sS'countries'
p11
(lp12
I2
asS'year'
p13
I1977
sS'title'
p14
VGalaxy Magazine December 1977
p15
sS'cover'
p16
Vhttps://ia600201.us.archive.org/BookReader/BookReaderImages.php?zip=/20/items/Galaxy_v39n01_1978-01/Galaxy_v39n01_1978-01_jp2.zip&file=Galaxy_v39n01_1978-01_jp2/Galaxy_v39n01_1978-01_0000.jp2&scale=0&rotate=0
p17
sS'cover_art'
p18
S'http://www.isfdb.org/wiki/images/c/c4/GALDECJAN77.jpg'
p19
sS'author_name'
p20
VGalaxy Magazine
p21
sS'images_urls'
p22
(lp23
sS'authors'
p24
(lp25
I848
aI849
aI842
aI850
aI326
aI734
aI843
aI767
aI844
aI714
aI591
aI851
aI852
aI853
aI854
aI302
asS'images'
p26
(lp27
sS'id'
p28
I1207
sS'contents'
p29
(lp30
(dp31
S'title'
p32
VShowcase (Galaxy, December 1977-January 1978)
p33
sS'author'
p34
I848
sa(dp35
g32
VMemo to the Leader
p36
sg34
I849
sa(dp37
g32
VMemo to the Leader [2]
p38
sg34
I849
sa(dp39
g32
VMemo to the Leader [3]
p40
sg34
I849
sa(dp41
g32
VMemo to the Leader [4]
p42
sg34
I849
sa(dp43
g32
VMemo to the Leader [5]
p44
sg34
I849
sa(dp45
g32
VThe Road to God
p46
sg34
I849
sa(dp47
g32
VThe Road to God [2]
p48
sg34
I849
sa(dp49
g32
VCome Again
p50
sg34
I842
sa(dp51
g32
VThe Courts of Chaos (Part 2 of 3)
p52
sg34
I850
sa(dp53
g32
VThe Courts of Chaos (Part 2 of 3) [2]
p54
sg34
I850
sa(dp55
g32
VThe Courts of Chaos (Part 2 of 3) [3]
p56
sg34
I850
sa(dp57
g32
VThe Courts of Chaos (Part 2 of 3) [4]
p58
sg34
I850
sa(dp59
g32
VThe Courts of Chaos (Part 2 of 3) [5]
p60
sg34
I850
sa(dp61
g32
VJohn Henry and the Ultra-Media Experience Machine
p62
sg34
I326
sa(dp63
g32
VWith Clean Hands
p64
sg34
I842
sa(dp65
g32
VWith Clean Hands [2]
p66
sg34
I842
sa(dp67
g32
VE. F. Schumacher, Rip
p68
sg34
I734
sa(dp69
g32
VGalaxy Bookshelf (Galaxy, December 1977-January 1978)
p70
sg34
I843
sa(dp71
g32
VThe Alien Viewpoint (Galaxy, December 1977-January 1978)
p72
sg34
I767
sa(dp73
g32
VDirections (Galaxy, December 1977-January 1978)
p74
sg34
I844
sa(dp75
g32
VStatement of Ownership (Galaxy, December 1977-January 1978) (Circulation: 81,035)
p76
sg34
I326
sa(dp77
g32
VMemo to the Leader
p78
sg34
I714
sa(dp79
g32
VThe Courts of Chaos (Part 2 of 3)
p80
sg34
I591
sa(dp81
g32
VThe Road to God
p82
sg34
I851
sa(dp83
g32
VCome Again
p84
sg34
I852
sa(dp85
g32
VJohn Henry and the Ultra-Media Experience Machine
p86
sg34
I853
sa(dp87
g32
VWith Clean Hands
p88
sg34
I854
sasb.