ccopy_reg
_reconstructor
p0
(cdataset.Book
Book
p1
c__builtin__
object
p2
Ntp3
Rp4
(dp5
S'similar_books'
p6
(lp7
sS'genres'
p8
(lp9
sS'author'
p10
I302
sS'countries'
p11
(lp12
I2
asS'year'
p13
I1970
sS'title'
p14
VGalaxy Magazine June 1970
p15
sS'cover'
p16
Vhttps://ia601309.us.archive.org/BookReader/BookReaderImages.php?zip=/28/items/Galaxy_v30n03_1970-06/Galaxy_v30n03_1970-06_jp2.zip&file=Galaxy_v30n03_1970-06_jp2/Galaxy_v30n03_1970-06_0000.jp2&scale=0&rotate=0
p17
sS'cover_art'
p18
S'http://www.isfdb.org/wiki/images/5/54/GALJUN70.jpg'
p19
sS'author_name'
p20
VGalaxy Magazine
p21
sS'images_urls'
p22
(lp23
sS'authors'
p24
(lp25
I499
aI326
aI677
aI667
aI91
aI50
aI678
aI546
aI602
aI679
aI680
aI302
asS'images'
p26
(lp27
sS'id'
p28
I1142
sS'contents'
p29
(lp30
(dp31
g10
I499
sg14
VThe Player at Yellow Silence
p32
sa(dp33
g10
I499
sg14
VThe Player at Yellow Silence [2]
p34
sa(dp35
g10
I326
sg14
VOut of Mindshot
p36
sa(dp37
g10
I499
sg14
VShip Me Tomorrow
p38
sa(dp39
g10
I326
sg14
VOil-Mad Bug-Eyed Monsters
p40
sa(dp41
g10
I326
sg14
VThe Moon of Thin Reality
p42
sa(dp43
g10
I499
sg14
VThe Tower of Glass (Part 3 of 3)
p44
sa(dp45
g10
I326
sg14
VChildren's Crusade
p46
sa(dp47
g10
I499
sg14
VThe Tower of Glass (Part 3 of 3) [2]
p48
sa(dp49
g10
I499
sg14
VThe Tower of Glass (Part 3 of 3) [3]
p50
sa(dp51
g10
I499
sg14
VThe Tower of Glass (Part 3 of 3) [4]
p52
sa(dp53
g10
I499
sg14
VThe Tower of Glass (Part 3 of 3) [5]
p54
sa(dp55
g10
I677
sg14
VGalaxy Stars (Galaxy, June 1970)
p56
sa(dp57
g10
I667
sg14
VI Will Fear No Evil
p58
sa(dp59
g10
I91
sg14
VGalaxy Book Shelf (Galaxy, June 1970)
p60
sa(dp61
g10
I50
sg14
VThe Tower of Glass (Part 3 of 3)
p62
sa(dp63
g10
I678
sg14
VThe Player at Yellow Silence
p64
sa(dp65
g10
I546
sg14
VOut of Mindshot
p66
sa(dp67
g10
I677
sg14
VShip Me Tomorrow
p68
sa(dp69
g10
I602
sg14
VOil-Mad Bug-Eyed Monsters
p70
sa(dp71
g10
I679
sg14
VThe Moon of Thin Reality
p72
sa(dp73
g10
I680
sg14
VChildren's Crusade
p74
sasb.