ccopy_reg
_reconstructor
p0
(cdataset.Book
Book
p1
c__builtin__
object
p2
Ntp3
Rp4
(dp5
S'similar_books'
p6
(lp7
sS'genres'
p8
(lp9
sS'author'
p10
I302
sS'countries'
p11
(lp12
I2
asS'year'
p13
I1960
sS'title'
p14
VGalaxy Magazine December 1960
p15
sS'cover'
p16
Vhttps://ia600305.us.archive.org/BookReader/BookReaderImages.php?zip=/27/items/Galaxy_v19n02_1960-12/Galaxy_v19n02_1960-12_jp2.zip&file=Galaxy_v19n02_1960-12_jp2/Galaxy_v19n02_1960-12_0000.jp2&scale=0&rotate=0
p17
sS'cover_art'
p18
S'http://www.isfdb.org/wiki/images/b/b1/GALDEC1960.jpg'
p19
sS'author_name'
p20
VGalaxy Magazine
p21
sS'images_urls'
p22
(lp23
sS'authors'
p24
(lp25
I497
aI552
aI326
aI395
aI559
aI519
aI504
aI419
aI305
aI339
aI483
aI384
aI74
aI94
aI220
aI192
aI121
aI225
aI142
aI260
aI302
asS'images'
p26
(lp27
sS'id'
p28
I1082
sS'contents'
p29
(lp30
(dp31
S'title'
p32
VThe Wrong World
p33
sS'author'
p34
I497
sa(dp35
g32
VThe Wrong World [2]
p36
sg34
I497
sa(dp37
g32
VThe Wrong World [3]
p38
sg34
I497
sa(dp39
g32
VJamieson
p40
sg34
I552
sa(dp41
g32
VMetamorphosis
p42
sg34
I326
sa(dp43
g32
VMetamorphosis [2]
p44
sg34
I326
sa(dp45
g32
VSnuffles
p46
sg34
I395
sa(dp47
g32
VSnuffles [2]
p48
sg34
I395
sa(dp49
g32
VSubject to Change
p50
sg34
I559
sa(dp51
g32
VSubject to Change [2]
p52
sg34
I559
sa(dp53
g32
VRound-and-Round Trip
p54
sg34
I519
sa(dp55
g32
VBlueblood
p56
sg34
I519
sa(dp57
g32
VBlueblood [2]
p58
sg34
I519
sa(dp59
g32
VBad Memory
p60
sg34
I504
sa(dp61
g32
VFighting Spirit
p62
sg34
I419
sa(dp63
g32
VFighting Spirit [2]
p64
sg34
I419
sa(dp65
g32
VReactions
p66
sg34
I305
sa(dp67
g32
VFor Your Information: The Moon Worm
p68
sg34
I339
sa(dp69
g32
VGalaxy's 5 Star Shelf (Galaxy, December 1960)
p70
sg34
I483
sa(dp71
g32
VForecast (Galaxy, December 1960)
p72
sg34
I326
sa(dp73
g32
VThe Wrong World
p74
sg34
I384
sa(dp75
g32
VSnuffles
p76
sg34
I74
sa(dp77
g32
VRound-and-Round Trip
p78
sg34
I94
sa(dp79
g32
VFighting Spirit
p80
sg34
I220
sa(dp81
g32
VJamieson
p82
sg34
I192
sa(dp83
g32
VMetamorphosis
p84
sg34
I121
sa(dp85
g32
VSubject to Change
p86
sg34
I225
sa(dp87
g32
VBlueblood
p88
sg34
I142
sa(dp89
g32
VBad Memory
p90
sg34
I260
sasb.