ccopy_reg
_reconstructor
p0
(cdataset.Book
Book
p1
c__builtin__
object
p2
Ntp3
Rp4
(dp5
S'content_name'
p6
V16921.txt.utf-8
p7
sS'isbn'
p8
V0441062911
p9
sS'cover'
p10
Vhttps://s.gr-assets.com/assets/nophoto/book/111x148-bcc042a9c91a29c1d680899eff700a03.png
p11
sS'year'
p12
I1956
sS'author_name'
p13
VAndre Norton
p14
sS'images_urls'
p15
(lp16
Vhttp://www.gutenberg.org/files/16921/16921-page-images/16921-page-images/anps001.jpg
p17
aVhttp://www.gutenberg.org/files/16921/16921-page-images/16921-page-images/anps002.png
p18
aVhttp://www.gutenberg.org/files/16921/16921-page-images/16921-page-images/anps003.png
p19
aVhttp://www.gutenberg.org/files/16921/16921-page-images/16921-page-images/anps004.png
p20
aVhttp://www.gutenberg.org/files/16921/16921-page-images/16921-page-images/anps005.png
p21
aVhttp://www.gutenberg.org/files/16921/16921-page-images/16921-page-images/anps006.png
p22
aVhttp://www.gutenberg.org/files/16921/16921-page-images/16921-page-images/anps007.png
p23
aVhttp://www.gutenberg.org/files/16921/16921-page-images/16921-page-images/anps008.png
p24
aVhttp://www.gutenberg.org/files/16921/16921-page-images/16921-page-images/anps009.png
p25
aVhttp://www.gutenberg.org/files/16921/16921-page-images/16921-page-images/anps010.png
p26
aVhttp://www.gutenberg.org/files/16921/16921-page-images/16921-page-images/anps011.png
p27
aVhttp://www.gutenberg.org/files/16921/16921-page-images/16921-page-images/anps012.png
p28
aVhttp://www.gutenberg.org/files/16921/16921-page-images/16921-page-images/anps013.png
p29
aVhttp://www.gutenberg.org/files/16921/16921-page-images/16921-page-images/anps014.png
p30
aVhttp://www.gutenberg.org/files/16921/16921-page-images/16921-page-images/anps015.png
p31
aVhttp://www.gutenberg.org/files/16921/16921-page-images/16921-page-images/anps016.png
p32
aVhttp://www.gutenberg.org/files/16921/16921-page-images/16921-page-images/anps017.png
p33
aVhttp://www.gutenberg.org/files/16921/16921-page-images/16921-page-images/anps018.png
p34
aVhttp://www.gutenberg.org/files/16921/16921-page-images/16921-page-images/anps019.png
p35
aVhttp://www.gutenberg.org/files/16921/16921-page-images/16921-page-images/anps020.png
p36
aVhttp://www.gutenberg.org/files/16921/16921-page-images/16921-page-images/anps021.png
p37
aVhttp://www.gutenberg.org/files/16921/16921-page-images/16921-page-images/anps022.png
p38
aVhttp://www.gutenberg.org/files/16921/16921-page-images/16921-page-images/anps023.png
p39
aVhttp://www.gutenberg.org/files/16921/16921-page-images/16921-page-images/anps024.png
p40
aVhttp://www.gutenberg.org/files/16921/16921-page-images/16921-page-images/anps025.png
p41
aVhttp://www.gutenberg.org/files/16921/16921-page-images/16921-page-images/anps026.png
p42
aVhttp://www.gutenberg.org/files/16921/16921-page-images/16921-page-images/anps027.png
p43
aVhttp://www.gutenberg.org/files/16921/16921-page-images/16921-page-images/anps028.png
p44
aVhttp://www.gutenberg.org/files/16921/16921-page-images/16921-page-images/anps029.png
p45
aVhttp://www.gutenberg.org/files/16921/16921-page-images/16921-page-images/anps030.png
p46
aVhttp://www.gutenberg.org/files/16921/16921-page-images/16921-page-images/anps031.png
p47
aVhttp://www.gutenberg.org/files/16921/16921-page-images/16921-page-images/anps032.png
p48
aVhttp://www.gutenberg.org/files/16921/16921-page-images/16921-page-images/anps033.png
p49
aVhttp://www.gutenberg.org/files/16921/16921-page-images/16921-page-images/anps034.png
p50
aVhttp://www.gutenberg.org/files/16921/16921-page-images/16921-page-images/anps035.png
p51
aVhttp://www.gutenberg.org/files/16921/16921-page-images/16921-page-images/anps036.png
p52
aVhttp://www.gutenberg.org/files/16921/16921-page-images/16921-page-images/anps037.png
p53
aVhttp://www.gutenberg.org/files/16921/16921-page-images/16921-page-images/anps038.png
p54
aVhttp://www.gutenberg.org/files/16921/16921-page-images/16921-page-images/anps039.png
p55
aVhttp://www.gutenberg.org/files/16921/16921-page-images/16921-page-images/anps040.png
p56
aVhttp://www.gutenberg.org/files/16921/16921-page-images/16921-page-images/anps041.png
p57
aVhttp://www.gutenberg.org/files/16921/16921-page-images/16921-page-images/anps042.png
p58
aVhttp://www.gutenberg.org/files/16921/16921-page-images/16921-page-images/anps043.png
p59
aVhttp://www.gutenberg.org/files/16921/16921-page-images/16921-page-images/anps044.png
p60
aVhttp://www.gutenberg.org/files/16921/16921-page-images/16921-page-images/anps045.png
p61
aVhttp://www.gutenberg.org/files/16921/16921-page-images/16921-page-images/anps046.png
p62
aVhttp://www.gutenberg.org/files/16921/16921-page-images/16921-page-images/anps047.png
p63
aVhttp://www.gutenberg.org/files/16921/16921-page-images/16921-page-images/anps048.png
p64
aVhttp://www.gutenberg.org/files/16921/16921-page-images/16921-page-images/anps049.png
p65
aVhttp://www.gutenberg.org/files/16921/16921-page-images/16921-page-images/anps050.png
p66
aVhttp://www.gutenberg.org/files/16921/16921-page-images/16921-page-images/anps051.png
p67
aVhttp://www.gutenberg.org/files/16921/16921-page-images/16921-page-images/anps052.png
p68
aVhttp://www.gutenberg.org/files/16921/16921-page-images/16921-page-images/anps053.png
p69
aVhttp://www.gutenberg.org/files/16921/16921-page-images/16921-page-images/anps054.png
p70
aVhttp://www.gutenberg.org/files/16921/16921-page-images/16921-page-images/anps055.png
p71
aVhttp://www.gutenberg.org/files/16921/16921-page-images/16921-page-images/anps056.png
p72
aVhttp://www.gutenberg.org/files/16921/16921-page-images/16921-page-images/anps057.png
p73
aVhttp://www.gutenberg.org/files/16921/16921-page-images/16921-page-images/anps058.png
p74
aVhttp://www.gutenberg.org/files/16921/16921-page-images/16921-page-images/anps059.png
p75
aVhttp://www.gutenberg.org/files/16921/16921-page-images/16921-page-images/anps060.png
p76
aVhttp://www.gutenberg.org/files/16921/16921-page-images/16921-page-images/anps061.png
p77
aVhttp://www.gutenberg.org/files/16921/16921-page-images/16921-page-images/anps062.png
p78
aVhttp://www.gutenberg.org/files/16921/16921-page-images/16921-page-images/anps063.png
p79
aVhttp://www.gutenberg.org/files/16921/16921-page-images/16921-page-images/anps064.png
p80
aVhttp://www.gutenberg.org/files/16921/16921-page-images/16921-page-images/anps065.png
p81
aVhttp://www.gutenberg.org/files/16921/16921-page-images/16921-page-images/anps066.png
p82
aVhttp://www.gutenberg.org/files/16921/16921-page-images/16921-page-images/anps067.png
p83
aVhttp://www.gutenberg.org/files/16921/16921-page-images/16921-page-images/anps068.png
p84
aVhttp://www.gutenberg.org/files/16921/16921-page-images/16921-page-images/anps069.png
p85
aVhttp://www.gutenberg.org/files/16921/16921-page-images/16921-page-images/anps070.png
p86
aVhttp://www.gutenberg.org/files/16921/16921-page-images/16921-page-images/anps071.png
p87
aVhttp://www.gutenberg.org/files/16921/16921-page-images/16921-page-images/anps072.png
p88
aVhttp://www.gutenberg.org/files/16921/16921-page-images/16921-page-images/anps073.png
p89
aVhttp://www.gutenberg.org/files/16921/16921-page-images/16921-page-images/anps074.png
p90
aVhttp://www.gutenberg.org/files/16921/16921-page-images/16921-page-images/anps075.png
p91
aVhttp://www.gutenberg.org/files/16921/16921-page-images/16921-page-images/anps076.png
p92
aVhttp://www.gutenberg.org/files/16921/16921-page-images/16921-page-images/anps077.png
p93
aVhttp://www.gutenberg.org/files/16921/16921-page-images/16921-page-images/anps078.png
p94
aVhttp://www.gutenberg.org/files/16921/16921-page-images/16921-page-images/anps079.png
p95
aVhttp://www.gutenberg.org/files/16921/16921-page-images/16921-page-images/anps080.png
p96
aVhttp://www.gutenberg.org/files/16921/16921-page-images/16921-page-images/anps081.png
p97
aVhttp://www.gutenberg.org/files/16921/16921-page-images/16921-page-images/anps082.png
p98
aVhttp://www.gutenberg.org/files/16921/16921-page-images/16921-page-images/anps083.png
p99
aVhttp://www.gutenberg.org/files/16921/16921-page-images/16921-page-images/anps084.png
p100
aVhttp://www.gutenberg.org/files/16921/16921-page-images/16921-page-images/anps085.png
p101
aVhttp://www.gutenberg.org/files/16921/16921-page-images/16921-page-images/anps086.png
p102
aVhttp://www.gutenberg.org/files/16921/16921-page-images/16921-page-images/anps087.png
p103
aVhttp://www.gutenberg.org/files/16921/16921-page-images/16921-page-images/anps088.png
p104
aVhttp://www.gutenberg.org/files/16921/16921-page-images/16921-page-images/anps089.png
p105
aVhttp://www.gutenberg.org/files/16921/16921-page-images/16921-page-images/anps090.png
p106
aVhttp://www.gutenberg.org/files/16921/16921-page-images/16921-page-images/anps091.png
p107
aVhttp://www.gutenberg.org/files/16921/16921-page-images/16921-page-images/anps092.png
p108
aVhttp://www.gutenberg.org/files/16921/16921-page-images/16921-page-images/anps093.png
p109
aVhttp://www.gutenberg.org/files/16921/16921-page-images/16921-page-images/anps094.png
p110
aVhttp://www.gutenberg.org/files/16921/16921-page-images/16921-page-images/anps095.png
p111
aVhttp://www.gutenberg.org/files/16921/16921-page-images/16921-page-images/anps096.png
p112
aVhttp://www.gutenberg.org/files/16921/16921-page-images/16921-page-images/anps097.png
p113
aVhttp://www.gutenberg.org/files/16921/16921-page-images/16921-page-images/anps098.png
p114
aVhttp://www.gutenberg.org/files/16921/16921-page-images/16921-page-images/anps099.png
p115
aVhttp://www.gutenberg.org/files/16921/16921-page-images/16921-page-images/anps100.png
p116
aVhttp://www.gutenberg.org/files/16921/16921-page-images/16921-page-images/anps101.png
p117
aVhttp://www.gutenberg.org/files/16921/16921-page-images/16921-page-images/anps102.png
p118
aVhttp://www.gutenberg.org/files/16921/16921-page-images/16921-page-images/anps103.png
p119
aVhttp://www.gutenberg.org/files/16921/16921-page-images/16921-page-images/anps104.png
p120
aVhttp://www.gutenberg.org/files/16921/16921-page-images/16921-page-images/anps105.png
p121
aVhttp://www.gutenberg.org/files/16921/16921-page-images/16921-page-images/anps106.png
p122
aVhttp://www.gutenberg.org/files/16921/16921-page-images/16921-page-images/anps107.png
p123
aVhttp://www.gutenberg.org/files/16921/16921-page-images/16921-page-images/anps108.png
p124
aVhttp://www.gutenberg.org/files/16921/16921-page-images/16921-page-images/anps109.png
p125
aVhttp://www.gutenberg.org/files/16921/16921-page-images/16921-page-images/anps110.png
p126
aVhttp://www.gutenberg.org/files/16921/16921-page-images/16921-page-images/anps111.png
p127
aVhttp://www.gutenberg.org/files/16921/16921-page-images/16921-page-images/anps112.png
p128
aVhttp://www.gutenberg.org/files/16921/16921-page-images/16921-page-images/anps113.png
p129
aVhttp://www.gutenberg.org/files/16921/16921-page-images/16921-page-images/anps114.png
p130
aVhttp://www.gutenberg.org/files/16921/16921-page-images/16921-page-images/anps115.png
p131
aVhttp://www.gutenberg.org/files/16921/16921-page-images/16921-page-images/anps116.png
p132
aVhttp://www.gutenberg.org/files/16921/16921-page-images/16921-page-images/anps117.png
p133
aVhttp://www.gutenberg.org/files/16921/16921-page-images/16921-page-images/anps118.png
p134
aVhttp://www.gutenberg.org/files/16921/16921-page-images/16921-page-images/anps119.png
p135
aVhttp://www.gutenberg.org/files/16921/16921-page-images/16921-page-images/anps120.png
p136
aVhttp://www.gutenberg.org/files/16921/16921-page-images/16921-page-images/anps121.png
p137
aVhttp://www.gutenberg.org/files/16921/16921-page-images/16921-page-images/anps122.png
p138
aVhttp://www.gutenberg.org/files/16921/16921-page-images/16921-page-images/anps123.png
p139
aVhttp://www.gutenberg.org/files/16921/16921-page-images/16921-page-images/anps124.png
p140
aVhttp://www.gutenberg.org/files/16921/16921-page-images/16921-page-images/anps125.png
p141
aVhttp://www.gutenberg.org/files/16921/16921-page-images/16921-page-images/anps126.png
p142
aVhttp://www.gutenberg.org/files/16921/16921-page-images/16921-page-images/anps127.png
p143
aVhttp://www.gutenberg.org/files/16921/16921-page-images/16921-page-images/anps128.png
p144
aVhttp://www.gutenberg.org/files/16921/16921-page-images/16921-page-images/anps129.png
p145
aVhttp://www.gutenberg.org/files/16921/16921-page-images/16921-page-images/anps130.png
p146
aVhttp://www.gutenberg.org/files/16921/16921-page-images/16921-page-images/anps131.png
p147
aVhttp://www.gutenberg.org/files/16921/16921-page-images/16921-page-images/anps132.png
p148
aVhttp://www.gutenberg.org/files/16921/16921-page-images/16921-page-images/anps133.png
p149
aVhttp://www.gutenberg.org/files/16921/16921-page-images/16921-page-images/anps134.png
p150
aVhttp://www.gutenberg.org/files/16921/16921-page-images/16921-page-images/anps135.png
p151
aVhttp://www.gutenberg.org/files/16921/16921-page-images/16921-page-images/anps136.png
p152
aVhttp://www.gutenberg.org/files/16921/16921-page-images/16921-page-images/anps137.png
p153
aVhttp://www.gutenberg.org/files/16921/16921-page-images/16921-page-images/anps138.png
p154
aVhttp://www.gutenberg.org/files/16921/16921-page-images/16921-page-images/anps139.png
p155
aVhttp://www.gutenberg.org/files/16921/16921-page-images/16921-page-images/anps140.png
p156
aVhttp://www.gutenberg.org/files/16921/16921-page-images/16921-page-images/anps141.png
p157
aVhttp://www.gutenberg.org/files/16921/16921-page-images/16921-page-images/anps142.png
p158
aVhttp://www.gutenberg.org/files/16921/16921-page-images/16921-page-images/anps143.png
p159
aVhttp://www.gutenberg.org/files/16921/16921-page-images/16921-page-images/anps144.png
p160
aVhttp://www.gutenberg.org/files/16921/16921-page-images/16921-page-images/anps145.png
p161
aVhttp://www.gutenberg.org/files/16921/16921-page-images/16921-page-images/anps146.png
p162
aVhttp://www.gutenberg.org/files/16921/16921-page-images/16921-page-images/anps147.png
p163
aVhttp://www.gutenberg.org/files/16921/16921-page-images/16921-page-images/anps148.png
p164
aVhttp://www.gutenberg.org/files/16921/16921-page-images/16921-page-images/anps149.png
p165
aVhttp://www.gutenberg.org/files/16921/16921-page-images/16921-page-images/anps150.png
p166
aVhttp://www.gutenberg.org/files/16921/16921-page-images/16921-page-images/anps151.png
p167
aVhttp://www.gutenberg.org/files/16921/16921-page-images/16921-page-images/anps152.png
p168
aVhttp://www.gutenberg.org/files/16921/16921-page-images/16921-page-images/anps153.png
p169
aVhttp://www.gutenberg.org/files/16921/16921-page-images/16921-page-images/anps154.png
p170
aVhttp://www.gutenberg.org/files/16921/16921-page-images/16921-page-images/anps155.png
p171
aVhttp://www.gutenberg.org/files/16921/16921-page-images/16921-page-images/anps156.png
p172
aVhttp://www.gutenberg.org/files/16921/16921-page-images/16921-page-images/anps157.png
p173
aVhttp://www.gutenberg.org/files/16921/16921-page-images/16921-page-images/anps158.png
p174
aVhttp://www.gutenberg.org/files/16921/16921-page-images/16921-page-images/anps159.png
p175
aVhttp://www.gutenberg.org/files/16921/16921-page-images/16921-page-images/anps160.png
p176
aVhttp://www.gutenberg.org/files/16921/16921-page-images/16921-page-images/anps161.png
p177
aVhttp://www.gutenberg.org/files/16921/16921-page-images/16921-page-images/anps162.png
p178
aVhttp://www.gutenberg.org/files/16921/16921-page-images/16921-page-images/anps163.png
p179
aVhttp://www.gutenberg.org/files/16921/16921-page-images/16921-page-images/anps164.png
p180
aVhttp://www.gutenberg.org/files/16921/16921-page-images/16921-page-images/anps165.png
p181
aVhttp://www.gutenberg.org/files/16921/16921-page-images/16921-page-images/anps166.png
p182
aVhttp://www.gutenberg.org/files/16921/16921-page-images/16921-page-images/anps167.png
p183
aVhttp://www.gutenberg.org/files/16921/16921-page-images/16921-page-images/anps168.png
p184
aVhttp://www.gutenberg.org/files/16921/16921-page-images/16921-page-images/anps169.png
p185
aVhttp://www.gutenberg.org/files/16921/16921-page-images/16921-page-images/anps170.png
p186
aVhttp://www.gutenberg.org/files/16921/16921-page-images/16921-page-images/anps171.png
p187
aVhttp://www.gutenberg.org/files/16921/16921-page-images/16921-page-images/anps172.png
p188
aVhttp://www.gutenberg.org/files/16921/16921-page-images/16921-page-images/anps173.png
p189
aVhttp://www.gutenberg.org/files/16921/16921-page-images/16921-page-images/anps174.png
p190
aVhttp://www.gutenberg.org/files/16921/16921-page-images/16921-page-images/anps175.png
p191
aVhttp://www.gutenberg.org/files/16921/16921-page-images/16921-page-images/anps176.png
p192
aVhttp://www.gutenberg.org/files/16921/16921-page-images/16921-page-images/anps177.png
p193
aVhttp://www.gutenberg.org/files/16921/16921-page-images/16921-page-images/anps178.png
p194
aVhttp://www.gutenberg.org/files/16921/16921-page-images/16921-page-images/anps179.png
p195
aVhttp://www.gutenberg.org/files/16921/16921-page-images/16921-page-images/anps180.png
p196
aVhttp://www.gutenberg.org/files/16921/16921-page-images/16921-page-images/anps181.png
p197
aVhttp://www.gutenberg.org/files/16921/16921-page-images/16921-page-images/anps182.png
p198
aVhttp://www.gutenberg.org/files/16921/16921-page-images/16921-page-images/anps183.png
p199
aVhttp://www.gutenberg.org/files/16921/16921-page-images/16921-page-images/anps184.png
p200
aVhttp://www.gutenberg.org/files/16921/16921-page-images/16921-page-images/anps185.png
p201
aVhttp://www.gutenberg.org/files/16921/16921-page-images/16921-page-images/anps186.png
p202
aVhttp://www.gutenberg.org/files/16921/16921-page-images/16921-page-images/anps187.png
p203
aVhttp://www.gutenberg.org/files/16921/16921-page-images/16921-page-images/anps188.png
p204
aVhttp://www.gutenberg.org/files/16921/16921-page-images/16921-page-images/anps189.png
p205
aVhttp://www.gutenberg.org/files/16921/16921-page-images/16921-page-images/anps190.png
p206
aVhttp://www.gutenberg.org/files/16921/16921-page-images/16921-page-images/anps191.png
p207
aVhttp://www.gutenberg.org/files/16921/16921-page-images/16921-page-images/anps192.png
p208
aVhttp://www.gutenberg.org/files/16921/16921-page-images/16921-page-images/anps193.png
p209
aVhttp://www.gutenberg.org/files/16921/16921-page-images/16921-page-images/anps194.png
p210
aVhttp://www.gutenberg.org/files/16921/16921-page-images/16921-page-images/anps195.png
p211
aVhttp://www.gutenberg.org/files/16921/16921-page-images/16921-page-images/anps196.png
p212
aVhttp://www.gutenberg.org/files/16921/16921-page-images/16921-page-images/anps197.png
p213
aVhttp://www.gutenberg.org/files/16921/16921-page-images/16921-page-images/anps198.png
p214
aVhttp://www.gutenberg.org/files/16921/16921-page-images/16921-page-images/anps199.png
p215
aVhttp://www.gutenberg.org/files/16921/16921-page-images/16921-page-images/anps200.png
p216
aVhttp://www.gutenberg.org/files/16921/16921-page-images/16921-page-images/anps201.png
p217
aVhttp://www.gutenberg.org/files/16921/16921-page-images/16921-page-images/anps202.png
p218
aVhttp://www.gutenberg.org/files/16921/16921-page-images/16921-page-images/anps203.png
p219
aVhttp://www.gutenberg.org/files/16921/16921-page-images/16921-page-images/anps204.png
p220
aVhttp://www.gutenberg.org/files/16921/16921-page-images/16921-page-images/anps205.png
p221
aVhttp://www.gutenberg.org/files/16921/16921-page-images/16921-page-images/anps206.png
p222
aVhttp://www.gutenberg.org/files/16921/16921-page-images/16921-page-images/anps207.png
p223
aVhttp://www.gutenberg.org/files/16921/16921-page-images/16921-page-images/anps208.png
p224
asS'language_code'
p225
NsS'images'
p226
(lp227
Vhttps://upload.wikimedia.org/wikipedia/en/a/a3/Plague_ship.jpg
p228
asS'id'
p229
I91
sS'category'
p230
VText
p231
sS'plot'
p232
VThe main protagonist of the novel is Dane Thorson, Cargo-master-apprentice on the Free Trader rocket ship the Solar Queen. Free Traders take on trading contracts on remote and recently discovered planets, which can be dangerous and unpredictable.\u000aThe Solar Queen has recently obtained a valuable trading contract on the planet Sargol and are building a relationship with one of the races on the planet, the cat-like Salariki. The process goes slowly till the Salariki discover that the Solar Queen is carrying catnip and other plants from Terra that are unknown on Sargol. The traders exchange what little of the plants they have for the rare and valuable Koros stones and collect a native red-colored wood to exchange at home. At the last minute the storm priests of the Salariki demand that the Solar Queen take a pre-paid contract to return within 6 months with more plants.\u000aA few days after leaving the planet, several members of the crew suffer from attacks, which start with severe headaches and end in a semi-coma state. Only 4 of the younger members of the crew are unaffected, including Dane Thorson. Upon exiting hyperspace on return to the vicinity of Terra, the crew discovers that they are pariah and have been declared a plague ship.\u000aOn the short hop to earth, the crew discovers that pests have invaded the ship and are the cause of the illness. In a final bid to prove their case they kidnap a medic and present his evidence by video to a solar-system-wide audience, which is successful.\u000aIn the meantime the rest of the crew have recovered, and after a final effort of negotiation the Solar Queen preserves its reputation by selling the contract with the Salariki to a large intergalactic trading company in exchange for credits and a quiet inter-solar mail route, which should lead to no more trouble.
p233
sS'genres'
p234
(lp235
sS'copyright'
p236
VPublic domain in the USA.
p237
sS'title'
p238
VPlague Ship
p239
sS'wikipedia'
p240
(dp241
S'url'
p242
Vhttps://en.wikipedia.org/wiki/Plague_Ship
p243
sS'found'
p244
I01
sS'year'
p245
I-1
ssS'published_in'
p246
NsS'average_rating'
p247
F4.02
sS'rating_count'
p248
I1139
sS'content_available'
p249
I01
sS'goodreads'
p250
(dp251
S'url'
p252
S'https://www.goodreads.com/book/show/961291.Plague_Ship'
p253
sS'found'
p254
I01
ssS'similar_books'
p255
(lp256
VThe Colors of Space
p257
aVFour Day Planet
p258
aVPolice Your Planet
p259
aVBroken Bulbs
p260
aVTNT: Telzey Amberdon & Trigger Argee Together
p261
aVThe Skylark of Space (Skylark #1)
p262
aVBeginning Operations: A Sector General Omnibus (Sector General, #1-3)
p263
aVBlack Projects, White Knights: The Company Dossiers (The Company, #4.5)
p264
aVCity at World's End
p265
aVFury
p266
aVA Plague of Demons & Other Stories
p267
aVThe Humanoid Touch (Humanoids, #2)
p268
aVPath of the Fury
p269
aVOtherness
p270
aVThe Survivors (Ragnarok, #1)
p271
aVDinosaur Planet Survivors (Dinosaur Planet, #2)
p272
asS'description'
p273
VLured by exotic gems and valuable oils, the crew of the space trader Solar Queen landed on the newly discovered planet Sargol, only to find their most ruthless competitor there ahead of them. Still they tried for fair trade, even according to the sly rules of the feline natives-- whose beauty and grace were equalled only by their determination to drive a hard bargain.<br /><br />But after satisfactory trading and uneventful take-off, the Solar Queen discovered a plague on board, the treacherous work of someone who'd been on Sargol. Now they are forbidden by Federation rules from landing on any inhabited planet - and their supplies are running dangerously low!
p274
sS'gutenberg'
p275
(dp276
g242
Vhttp://www.gutenberg.org/ebooks/16921
p277
sS'num'
p278
I16921
ssS'authors'
p279
(lp280
I28
asS'pages'
p281
I182
sS'isbn13'
p282
V9780441062911
p283
sS'language'
p284
VEnglish
p285
sS'countries'
p286
(lp287
I2
asS'release_date'
p288
S'2005-10-23T00:00:00'
p289
sS'author'
p290
I28
sS'original_title'
p291
VPlague Ship
p292
sS'summary'
p293
VPlague Ship is a science fiction novel by author Andrew North (pseudonym of Alice Mary Norton, also known as Andre Norton). It was published in 1956 by Gnome Press in an edition of 5,000 copies. The book is the second volume of the author's Solar Queen series.\u000a\u000a
p294
sS'content_cleaned'
p295
I01
sS'classes'
p296
(lp297
Vscience-fiction
p298
aVto-read
p299
aVcurrently-reading
p300
aVsci-fi
p301
aVfiction
p302
aVsf
p303
aVscifi
p304
aVkindle
p305
aVowned
p306
aVandre-norton
p307
aVebook
p308
aVnorton-andre
p309
aVfantasy
p310
aVebooks
p311
aVdefault
p312
aVspace-opera
p313
aVaudiobook
p314
aVe-books
p315
aVaudio
p316
aVadventure
p317
aVscience
p318
aVscifi-fantasy
p319
aVsci-fi-fantasy
p320
aVowned-books
p321
aVspace
p322
aVsolar-queen
p323
aVscience-fiction-fantasy
p324
aVsf-fantasy
p325
aVwish-list
p326
aVcalibre
p327
aVsold
p328
aVlibrivox
p329
aVdigital
p330
aVspace-science-fiction
p331
aVbooks-i-own
p332
aVmine
p333
aVfantasy-sci-fi
p334
aVenglish
p335
aVe-book
p336
aVkindle-books
p337
aValiens
p338
aVaudio-books
p339
aVfavorites
p340
aVaudiobooks
p341
aVliterary
p342
aVgeneral
p343
aVlistened-to
p344
aVother
p345
aVsci-fi-and-fantasy
p346
aVlibrary
p347
aVfiction-science
p348
aVbook-series
p349
aVdone
p350
aVsci-fi-or-fantasy
p351
aVkindlecollection
p352
aV1954
p353
aVhave-audio
p354
aVon-calibre-to-read
p355
aVreadathon_sfwomen
p356
aVmy-ebooks
p357
aVeown
p358
aVactually-own
p359
aVsf-classics
p360
aVfemale-author
p361
aVurgent-to-read
p362
aVon-deck
p363
aVdnf
p364
aVa-norton
p365
aVur-owned
p366
aV20th-century-lit
p367
aVwant-to-read-later
p368
aVmystery
p369
aVbest
p370
aVadult
p371
aVdrama
p372
aVfree-read
p373
aVaudio-books-to-read
p374
aVavailable-at-scpl
p375
aVclassics
p376
aVown-kindle
p377
aVunsorted-read
p378
aVkindle-tbr
p379
aVfantasy-and-sci-fi
p380
aV1
p381
aVon-phone
p382
aVdropbox
p383
aV2016ebook
p384
aVfinish-52-books-in-2016
p385
aVkindle-books-i-own
p386
aVfuture-sci-fi
p387
aVappendix-n
p388
aVclassic-science-fiction
p389
aVown-audiobook
p390
aVtbr
p391
aVclassic-literature-tbr
p392
aVowned-pending-kindle-free-ebook
p393
aVavailable
p394
aVmy-youth
p395
aVclasscal-literature
p396
aVhome-library
p397
asS'loc_class'
p398
VPS: Language and Literatures: American and Canadian literature
p399
sS'n_authors'
p400
I1
sb.