ccopy_reg
_reconstructor
p0
(cdataset.Book
Book
p1
c__builtin__
object
p2
Ntp3
Rp4
(dp5
S'similar_books'
p6
(lp7
sS'genres'
p8
(lp9
sS'author'
p10
I302
sS'countries'
p11
(lp12
I2
asS'year'
p13
I1972
sS'title'
p14
VGalaxy Magazine November 1972
p15
sS'cover'
p16
Vhttps://ia601309.us.archive.org/BookReader/BookReaderImages.php?zip=/13/items/Galaxy_v33n03_1972-11/Galaxy_v33n03_1972-11_jp2.zip&file=Galaxy_v33n03_1972-11_jp2/Galaxy_v33n03_1972-11_0000.jp2&scale=0&rotate=0
p17
sS'cover_art'
p18
S'http://www.isfdb.org/wiki/images/2/23/GALNOVDEC72.jpg'
p19
sS'author_name'
p20
VGalaxy Magazine
p21
sS'images_urls'
p22
(lp23
sS'authors'
p24
(lp25
I326
aI499
aI667
aI341
aI577
aI630
aI663
aI63
aI660
aI112
aI302
asS'images'
p26
(lp27
sS'id'
p28
I1160
sS'contents'
p29
(lp30
(dp31
g10
I326
sg14
VProject 40 (Part 1 of 3)
p32
sa(dp33
g10
I499
sg14
V26 Days On Earth
p34
sa(dp35
g10
I499
sg14
VNoepti-Noe
p36
sa(dp37
g10
I326
sg14
VThe Dutchman
p38
sa(dp39
g10
I499
sg14
VMayflower I
p40
sa(dp41
g10
I499
sg14
VJourney
p42
sa(dp43
g10
I326
sg14
VDirections (Galaxy, November-December 1972)
p44
sa(dp45
g10
I667
sg14
VEditor's Column: The Naked Dream
p46
sa(dp47
g10
I341
sg14
VGalaxy Bookshelf (Galaxy, November-December 1972)
p48
sa(dp49
g10
I577
sg14
VNoepti-Noe
p50
sa(dp51
g10
I630
sg14
VThe Dutchman
p52
sa(dp53
g10
I663
sg14
VMayflower I
p54
sa(dp55
g10
I63
sg14
VProject 40 (Part 1 of 3)
p56
sa(dp57
g10
I660
sg14
V26 Days On Earth
p58
sa(dp59
g10
I112
sg14
VJourney
p60
sasb.