ccopy_reg
_reconstructor
p0
(cdataset.Book
Book
p1
c__builtin__
object
p2
Ntp3
Rp4
(dp5
S'content_name'
p6
V30427.txt.utf-8
p7
sS'isbn'
p8
NsS'year'
p9
I2010
sS'author_name'
p10
VPauline Ashwell
p11
sS'images_urls'
p12
(lp13
Vhttp://www.gutenberg.org/files/30427/30427-h/images/image_001_01.jpg
p14
aVhttp://www.gutenberg.org/files/30427/30427-h/images/image_001_02.jpg
p15
aVhttp://www.gutenberg.org/files/30427/30427-h/images/image_001_03.jpg
p16
aVhttp://www.gutenberg.org/files/30427/30427-h/images/image_002.jpg
p17
aVhttp://www.gutenberg.org/files/30427/30427-h/images/image_003.jpg
p18
aVhttp://www.gutenberg.org/files/30427/30427-h/images/image_004.jpg
p19
aVhttp://www.gutenberg.org/files/30427/30427-h/images/image_005.jpg
p20
aVhttp://www.gutenberg.org/files/30427/30427-h/images/image_006.jpg
p21
aVhttp://www.gutenberg.org/files/30427/30427-h/images/image_i.jpg
p22
asS'language_code'
p23
NsS'images'
p24
(lp25
sS'id'
p26
I321
sS'category'
p27
VText
p28
sS'genres'
p29
(lp30
sS'copyright'
p31
VPublic domain in the USA.
p32
sS'title'
p33
VThe Lost Kafoozalum
p34
sS'wikipedia'
p35
(dp36
S'found'
p37
I00
ssS'average_rating'
p38
F3.0
sS'rating_count'
p39
I6
sS'content_available'
p40
I01
sS'goodreads'
p41
(dp42
S'url'
p43
Vhttps://www.goodreads.com/book/show/8269517-the-lost-kafoozalum
p44
sg37
I01
sS'year'
p45
I2010
ssS'similar_books'
p46
(lp47
sS'description'
p48
VOne of the beautiful things about a delusion is that no matter how mad someone gets at it ... he can't do it any harm. Therefore a delusion can be a fine thing for prodding angry belligerents.... Notice: This Book is published by Historical Books Limited (<a target="_blank" href="http://www.publicdomain.org.uk" rel="nofollow">www.publicdomain.org.uk</a>) as a Public Domain Book, if you have any inquiries, requests or need any help you can just send an email to publications@publicdomain.org.uk This book is found as a public domain and free book based on various online catalogs, if you think there are any problems regard copyright issues please contact us immediately via DMCA@publicdomain.org.uk
p49
sS'format'
p50
NsS'gutenberg'
p51
(dp52
g43
Vhttp://www.gutenberg.org/ebooks/30427
p53
sS'num'
p54
I30427
ssS'authors'
p55
(lp56
I106
asS'isbn13'
p57
NsS'language'
p58
VEnglish
p59
sS'country'
p60
I3
sS'release_date'
p61
S'2009-11-08T00:00:00'
p62
sS'author'
p63
I106
sS'content_cleaned'
p64
I01
sS'classes'
p65
(lp66
Vto-read
p67
aVscience-fiction
p68
aV21st-century-lit
p69
aVnovella
p70
aVsci-fi
p71
aVebook
p72
aVrequest_ill
p73
aVpg
p74
aVei-suom
p75
aVhugo-novella
p76
aVto-read-2e-sf-c
p77
aVenglish
p78
aVto-read-2-en-sf
p79
aVc2-f-en
p80
aVh-sf
p81
aVhugo-short-fiction
p82
aVto-read-2e-sf
p83
aVto-read-2-en
p84
asS'loc_class'
p85
VPR: Language and Literatures: English literature
p86
sS'n_authors'
p87
I1
sb.