ccopy_reg
_reconstructor
p0
(cdataset.Book
Book
p1
c__builtin__
object
p2
Ntp3
Rp4
(dp5
S'content_name'
p6
V22623.txt.utf-8
p7
sS'isbn'
p8
NsS'year'
p9
I-1
sS'author_name'
p10
VJoseph Samachson
p11
sS'images_urls'
p12
(lp13
Vhttp://www.gutenberg.org/files/22623/22623-h/images/001.png
p14
aVhttp://www.gutenberg.org/files/22623/22623-page-images/p098.png
p15
aVhttp://www.gutenberg.org/files/22623/22623-page-images/p099.png
p16
aVhttp://www.gutenberg.org/files/22623/22623-page-images/p100.png
p17
aVhttp://www.gutenberg.org/files/22623/22623-page-images/p101.png
p18
aVhttp://www.gutenberg.org/files/22623/22623-page-images/p102.png
p19
aVhttp://www.gutenberg.org/files/22623/22623-page-images/p103.png
p20
aVhttp://www.gutenberg.org/files/22623/22623-page-images/p104.png
p21
aVhttp://www.gutenberg.org/files/22623/22623-page-images/p105.png
p22
aVhttp://www.gutenberg.org/files/22623/22623-page-images/p106.png
p23
aVhttp://www.gutenberg.org/files/22623/22623-page-images/p107.png
p24
aVhttp://www.gutenberg.org/files/22623/22623-page-images/p108.png
p25
aVhttp://www.gutenberg.org/files/22623/22623-page-images/p109.png
p26
aVhttp://www.gutenberg.org/files/22623/22623-page-images/p110.png
p27
aVhttp://www.gutenberg.org/files/22623/22623-page-images/p111.png
p28
aVhttp://www.gutenberg.org/files/22623/22623-page-images/p112.png
p29
aVhttp://www.gutenberg.org/files/22623/22623-page-images/p113.png
p30
aVhttp://www.gutenberg.org/files/22623/22623-page-images/p114.png
p31
asS'language_code'
p32
Veng
p33
sS'images'
p34
(lp35
sS'id'
p36
I962
sS'category'
p37
VText
p38
sS'genres'
p39
(lp40
sS'copyright'
p41
VPublic domain in the USA.
p42
sS'title'
p43
VDivinity
p44
sS'wikipedia'
p45
(dp46
S'found'
p47
I00
ssS'average_rating'
p48
F3.64
sS'rating_count'
p49
I112
sS'content_available'
p50
I01
sS'goodreads'
p51
(dp52
S'url'
p53
Vhttps://www.goodreads.com/book/show/13596160-divinity
p54
sg47
I01
sS'year'
p55
I2012
ssS'similar_books'
p56
(lp57
VA Multitude of Sins
p58
aVOnce Upon A Temptation
p59
aVStarlight (Starlight Trilogy, #1)
p60
aVLive In Position
p61
aVGrave Refrain
p62
aVThe Golden Apple of Discord (The Discord Trilogy, #1)
p63
aVThe Way That You Play It
p64
aVBlack and White
p65
aVFourteen
p66
aVLiving Backwards
p67
aVLife, Liberty, and Pursuit
p68
aVWeight of the World (Old Wounds, #3)
p69
aVWelcome to Drama Academy
p70
aVconTEXTual roMANce
p71
aVThe Billionaire Bum
p72
aVMagic at Macy's
p73
aVThree Daves
p74
aVThe Darkness of Perfection
p75
asS'description'
p76
V<i>Demons.<br /><br />They\u2019re everywhere, hiding in plain sight. Chances are, you\u2019ve interacted with one or two of them in your lifetime without even realizing it...</i> <br /><br />Demon hunter Evelyn Brighton saves unsuspecting humans from the malevolent creatures masquerading around them every day. Working under the Lebriga Corporation\u2019s direction, she never fails to bring her A-game with her keen skill, fiercely independent spirit, and the best weapon in her arsenal: the Divinity blade.<br /><br />Evelyn\u2019s world is turned on its ear, however, when she is ordered to train cocky new recruit Daniel Summers. They both feel an instinctive pull drawing them to one another, the ancient spells tattooed into their skin illuminating whenever the two hunters come into contact. But with evil looming over the city of Los Angeles, Evelyn and Daniel\u2019s mutual competitiveness and sense of duty to Lebriga and all humankind forces them to hold back their desires. Will their restraint be enough to keep them focused and save southern California, or will the dark forces prevail?<br /><br />Set in modern-day Los Angeles, <i>Divinity</i> is an action-filled, fast-paced marriage of urban fantasy and paranormal romance. Edgy, witty, and sexy, it will bind you in its spell.
p77
sS'format'
p78
VPaperback
p79
sS'gutenberg'
p80
(dp81
g53
Vhttp://www.gutenberg.org/ebooks/22623
p82
sS'num'
p83
I22623
ssS'authors'
p84
(lp85
I157
asS'pages'
p86
I200
sS'isbn13'
p87
V9781623429072
p88
sS'language'
p89
VEnglish
p90
sS'countries'
p91
(lp92
I2
asS'release_date'
p93
S'2007-09-16T00:00:00'
p94
sS'author'
p95
I157
sS'content_cleaned'
p96
I01
sS'classes'
p97
(lp98
Vto-read
p99
aVparanormal-romance
p100
aVparanormal
p101
aVurban-fantasy
p102
aVromance
p103
aVp2p
p104
aVdemons
p105
aVfantasy
p106
aVangels
p107
aVmaybe
p108
aVfanfiction
p109
aVfanfic
p110
aVwish-list
p111
aVdemon-hunters
p112
aVkindle
p113
aVmagic
p114
aVcurrently-reading
p115
aVmaybe-to-read
p116
aVrewritten-fanfic
p117
aVdownloaded
p118
aVbooks
p119
aVnot-for-me
p120
aVarc
p121
aVfanfiction-books
p122
aVamazon-to-buy
p123
aVtemp-shelf-sorting-queue
p124
aVd-series
p125
aVsort
p126
aVba-continuaciones
p127
aVnope
p128
aVx-lib
p129
aVown-as-book
p130
aVgothic
p131
aVnovels
p132
aVown-tbr
p133
aVz2013-earlier
p134
aVya-fiction
p135
aVunread-angel-or-demon-books
p136
aVdon-t-plan-on-reading
p137
aVfirst-in-series
p138
aVcomics
p139
aVparanormal-magic
p140
aVowned
p141
aVown-as-kindle
p142
aVstarted-in-fanfic
p143
aVnext-to-read
p144
aVadult-fantasy
p145
aVwtr-urban-fantasy
p146
aVwtr-guilty-pleasures
p147
aVlacking
p148
aVseries-1st
p149
aVnot-found
p150
aVomnific-riffic
p151
aVin-the-process
p152
aVangels-and-demons
p153
aV2014-reads
p154
aVunread-paranormal-books
p155
aVsandra-hated-it
p156
aVinterested
p157
aVpnr-to-read
p158
aVsummer-read
p159
aVreviewed
p160
aVreview-exchange
p161
aVquick-read
p162
aVadult-content
p163
aV4-stars
p164
aVfree-from-conference
p165
aVorder-from-library
p166
aVmaybe-books
p167
aVsupernatural-book-series
p168
aVseptember
p169
aVwishlisted
p170
aVkick-ass-girl
p171
aVread-sample
p172
aV1st-in-series
p173
aVto-check-out
p174
aVserie
p175
aVhalos-or-horns
p176
aVfantasy-urban
p177
aVsupernatural-science-fiction-and-fa
p178
aVpaperback
p179
aVown_tbr
p180
aVwanna-read-next
p181
aValready-released
p182
aVnew-series-want-to-read
p183
aVseries-2012
p184
aVeoa-continuaciones
p185
aVeoa
p186
aVabandoned-series
p187
aVneed-to-read
p188
aVnew-series
p189
aVa-published-fanfic
p190
aVreview-on-blog
p191
aVfavorites
p192
aVreview
p193
aVreview-for-tour
p194
aVoctober-2013
p195
aV2013-new-book-release
p196
aV2013-must-read
p197
aVr2r-paranormal
p198
asS'loc_class'
p199
VPS: Language and Literatures: American and Canadian literature
p200
sS'n_authors'
p201
I1
sb.