ccopy_reg
_reconstructor
p0
(cdataset.Book
Book
p1
c__builtin__
object
p2
Ntp3
Rp4
(dp5
S'content_name'
p6
V32651.txt.utf-8
p7
sS'isbn'
p8
NsS'year'
p9
I2010
sS'author_name'
p10
VIrving E. Cox
p11
sS'images_urls'
p12
(lp13
Vhttp://www.gutenberg.org/files/32651/32651-h/images/cover.jpg
p14
aVhttp://www.gutenberg.org/files/32651/32651-h/images/illus.jpg
p15
asS'language_code'
p16
NsS'images'
p17
(lp18
sS'id'
p19
I478
sS'category'
p20
VText
p21
sS'plot'
p22
VThe main character is a young girl named Jeanette, who is adopted by evangelists from the Elim Pentecostal Church. She believes she is destined to become a missionary. The book depicts religious enthusiasm as an exploration of the power of love. As an adolescent, Jeanette finds herself attracted to another girl, and her mother's group of religious friends subject her and her partner to exorcisms.
p23
sS'genres'
p24
(lp25
sS'copyright'
p26
VPublic domain in the USA.
p27
sS'title'
p28
VAdolescents Only
p29
sS'wikipedia'
p30
(dp31
S'url'
p32
Vhttps://en.wikipedia.org/wiki/Oranges_Are_Not_the_Only_Fruit
p33
sS'found'
p34
I01
sS'year'
p35
I-1
ssS'published_in'
p36
NsS'average_rating'
p37
F3.67
sS'rating_count'
p38
I7
sS'content_available'
p39
I01
sS'cover_art_url'
p40
S'http://www.gutenberg.org/cache/epub/32651/pg32651.cover.medium.jpg'
p41
sS'goodreads'
p42
(dp43
g32
Vhttps://www.goodreads.com/book/show/12492875-adolescents-only
p44
sg34
I01
sg35
I2010
ssS'similar_books'
p45
(lp46
sS'description'
p47
NsS'format'
p48
NsS'gutenberg'
p49
(dp50
g32
Vhttp://www.gutenberg.org/ebooks/32651
p51
sS'num'
p52
I32651
ssS'authors'
p53
(lp54
I160
asS'isbn13'
p55
NsS'language'
p56
VEnglish
p57
sS'country'
p58
I1
sS'release_date'
p59
S'2010-06-02T00:00:00'
p60
sS'author'
p61
I160
sS'original_title'
p62
VOranges Are Not the Only Fruit
p63
sS'summary'
p64
VOranges Are Not the Only Fruit is a novel by Jeanette Winterson published in 1985, which she subsequently adapted into a BBC television drama of the same name. It is a coming-of-age story about a lesbian girl who grows up in an English Pentecostal community. Key themes of the book include transition from youth to adulthood, complex family relationships, same sex relationships, and religion.\u000aIn England and Wales, it has been included on both GCSE and A Level curriculums, such as the OCR English Literature A Level, Literature Post 1900.
p65
sS'content_cleaned'
p66
I01
sS'classes'
p67
(lp68
Vto-read
p69
aVscience-fiction
p70
aV21st-century-lit
p71
aVebook-epub
p72
aVnovella
p73
aVbooks
p74
aVowned
p75
aVentertainment
p76
aVgot-it
p77
asS'loc_class'
p78
VPS: Language and Literatures: American and Canadian literature
p79
sS'n_authors'
p80
I1
sb.