ccopy_reg
_reconstructor
p0
(cdataset.Book
Book
p1
c__builtin__
object
p2
Ntp3
Rp4
(dp5
S'content_name'
p6
V32684.txt.utf-8
p7
sS'isbn'
p8
V1423169492
p9
sS'year'
p10
I2015
sS'author_name'
p11
VAlfred Coppel
p12
sS'images_urls'
p13
(lp14
Vhttp://www.gutenberg.org/files/32684/32684-h/images/cover.jpg
p15
aVhttp://www.gutenberg.org/files/32684/32684-h/images/illus.jpg
p16
asS'language_code'
p17
Veng
p18
sS'images'
p19
(lp20
sS'id'
p21
I797
sS'category'
p22
VText
p23
sS'genres'
p24
(lp25
sS'copyright'
p26
VPublic domain in the USA.
p27
sS'title'
p28
VThe Invader
p29
sS'wikipedia'
p30
(dp31
S'found'
p32
I00
ssS'average_rating'
p33
F4.0
sS'rating_count'
p34
I5349
sS'content_available'
p35
I01
sS'cover_art_url'
p36
S'http://www.gutenberg.org/cache/epub/32684/pg32684.cover.medium.jpg'
p37
sS'goodreads'
p38
(dp39
S'url'
p40
Vhttps://www.goodreads.com/book/show/17316770-invaded
p41
sg32
I01
sS'year'
p42
I2015
ssS'similar_books'
p43
(lp44
VThis Shattered World (Starbound, #2)
p45
aVUnchanged (Unremembered, #3)
p46
aVCollide (The Taking, #3)
p47
aVReborn (Altered, #3)
p48
aVUnleashed (Uninvited, #2)
p49
aVCrash (The Game, #3)
p50
aVForged (Taken, #3)
p51
aVUnmade (Entangled #2)
p52
aVInvisible (The Twixt, #2)
p53
aVThe Eternity Key (Into the Dark, #2)
p54
aVStrange Skies (Burn Out, #2)
p55
aVPublic Enemies (Immortal Game, #2)
p56
aVPolaris (Avalon, #2)
p57
aVSoulprint
p58
aVTwist (Loop, #2)
p59
aVUntitled (Denazen, #5)
p60
aVAstray (Gated, #2)
p61
aVCatalyst (Control, #2)
p62
asS'description'
p63
VThe romantic sequel to Alienated takes long-distance relationships to a new level as Cara and Aelyx long for each other from opposite ends of the universe...until a threat to both their worlds reunites them. <br /><br />Cara always knew life on planet L\u2019eihr would be an adjustment. With Aelyx, her L\u2019eihr boyfriend, back on Earth, working to mend the broken alliance between their two planets, Cara is left to fend for herself at a new school, surrounded by hostile alien clones. Even the weird dorm pet hates her.<br /><br />Things look up when Cara is appointed as human representative to a panel preparing for a human colony on L\u2019eihr. A society melding their two cultures is a place where Cara and Aelyx could one day make a life together. But with L\u2019eihr leaders balking at granting even the most basic freedoms, Cara begins to wonder if she could ever be happy on this planet, even with Aelyx by her side.<br /><br />Meanwhile, on Earth, Aelyx, finds himself thrown into a full-scale PR campaign to improve human-L\u2019eihr relations. Humans don\u2019t know that their very survival depends on this alliance: only Aelyx\u2019s people have the technology to fix the deadly contamination in the global water supply that human governments are hiding. Yet despite their upper hand, the leaders of his world suddenly seem desperate to get humans on their side, and hardly bat an eye at extremists\u2019 multiple attempts on Aelyx\u2019s life.<br /><br />The Way clearly needs humans\u2019 help . . . but with what? And what will they ask for in return?
p64
sS'format'
p65
VHardcover
p66
sS'gutenberg'
p67
(dp68
g40
Vhttp://www.gutenberg.org/ebooks/32684
p69
sS'num'
p70
I32684
ssS'authors'
p71
(lp72
I166
asS'pages'
p73
I356
sS'isbn13'
p74
V9781423169499
p75
sS'language'
p76
VEnglish
p77
sS'countries'
p78
(lp79
I2
asS'release_date'
p80
S'2010-06-04T00:00:00'
p81
sS'author'
p82
I166
sS'content_cleaned'
p83
I01
sS'classes'
p84
(lp85
Vto-read
p86
aVyoung-adult
p87
aVsci-fi
p88
aVcurrently-reading
p89
aVromance
p90
aValiens
p91
aVscience-fiction
p92
aVfavorites
p93
aVya
p94
aVbooks-i-own
p95
aVseries
p96
aVfantasy
p97
aVread-in-2015
p98
aVto-buy
p99
aV2015-releases
p100
aVparanormal
p101
aVowned
p102
aV2015-reads
p103
aVowned-books
p104
aVread-2015
p105
aVwish-list
p106
aV2015-release
p107
aVaudiobook
p108
aValien
p109
aVdystopian
p110
aVfiction
p111
aVspace
p112
aVscifi
p113
aVdystopia
p114
aVtbr
p115
aVebook
p116
aVarc
p117
aVread-in-2016
p118
aVlibrary
p119
aVdnf
p120
aVteen
p121
aVsequels
p122
aVparanormal-romance
p123
aValienated
p124
aVebooks
p125
aVwant
p126
aVmaybe
p127
aVmy-books
p128
aVsupernatural
p129
aVneed-to-buy
p130
aVseries-to-finish
p131
aVfebruary-2015
p132
aVaudio
p133
aVsigned
p134
aVcontemporary
p135
aVya-sci-fi
p136
aVsequel
p137
aVaudiobooks
p138
aVread-2016
p139
aVfuturistic
p140
aVcover-love
p141
aVnot-interested
p142
aVseries-i-need-to-finish
p143
aVtrilogy
p144
aV2015-publication
p145
aV2015-books
p146
aVdisney-hyperion
p147
aVmelissa-landers
p148
aVya-fiction
p149
aVhave
p150
aVown-it
p151
aVlibrary-books
p152
aVreviewed
p153
aV4-stars
p154
aVe-books
p155
aVpart-of-a-series
p156
aVhigh-school
p157
aVreally-want-to-read
p158
aVunfinished-series
p159
aVya-romance
p160
aVaudio-books
p161
aVon-my-shelf
p162
aVebooks-i-own
p163
aVfantasy-sci-fi
p164
aVtbr-pile
p165
aVbooks-to-buy
p166
aVya-books
p167
aVseries-to-read
p168
aV2016-reads
p169
aVfavourites
p170
aVbookshelf
p171
aVhardcover
p172
aVi-own
p173
aVbook-boyfriends
p174
aVkindle
p175
aVenglish-books
p176
aVadventure
p177
aVto-read-2015
p178
aVgiveaways
p179
aVmost-anticipated-2015
p180
aV2015-read
p181
aVya-fantasy
p182
aVbeautiful-covers
p183
aVfebruary
p184
aVcan-t-wait
p185
asS'loc_class'
p186
VPS: Language and Literatures: American and Canadian literature
p187
sS'n_authors'
p188
I1
sb.