ccopy_reg
_reconstructor
p0
(cdataset.Book
Book
p1
c__builtin__
object
p2
Ntp3
Rp4
(dp5
S'content_name'
p6
V36867.txt.utf-8
p7
sS'isbn'
p8
NsS'year'
p9
I2011
sS'author_name'
p10
VAlex Apostolides
p11
sS'images_urls'
p12
(lp13
Vhttp://www.gutenberg.org/files/36867/36867-h/images/002.png
p14
aVhttp://www.gutenberg.org/files/36867/36867-h/images/cover.jpg
p15
aVhttp://www.gutenberg.org/files/36867/36867-h/images/end_piece.jpg
p16
asS'language_code'
p17
Veng
p18
sS'images'
p19
(lp20
sS'id'
p21
I736
sS'category'
p22
VText
p23
sS'genres'
p24
(lp25
sS'copyright'
p26
VPublic domain in the USA.
p27
sS'title'
p28
VProgress Report
p29
sS'wikipedia'
p30
(dp31
S'found'
p32
I00
ssS'average_rating'
p33
F3.4
sS'rating_count'
p34
I5
sS'content_available'
p35
I01
sS'cover_art_url'
p36
S'http://www.gutenberg.org/cache/epub/36867/pg36867.cover.medium.jpg'
p37
sS'goodreads'
p38
(dp39
S'url'
p40
Vhttps://www.goodreads.com/book/show/20501431-progress-report
p41
sg32
I01
sS'year'
p42
I2011
ssS'similar_books'
p43
(lp44
sS'description'
p45
VThis book was converted from its physical edition to the digital format by a community of volunteers. You may find it for free on the web. Purchase of the Kindle edition includes wireless delivery.
p46
sS'format'
p47
NsS'gutenberg'
p48
(dp49
g40
Vhttp://www.gutenberg.org/ebooks/36867
p50
sS'num'
p51
I36867
ssS'authors'
p52
(lp53
I238
aI236
asS'isbn13'
p54
NsS'language'
p55
VEnglish
p56
sS'countries'
p57
(lp58
I2
asS'release_date'
p59
S'2011-07-27T00:00:00'
p60
sS'author'
p61
I238
sS'content_cleaned'
p62
I01
sS'classes'
p63
(lp64
Vto-read
p65
aVscience-fiction
p66
aV16
p67
aVtog_bookclub
p68
asS'loc_class'
p69
VPS: Language and Literatures: American and Canadian literature
p70
sS'n_authors'
p71
I2
sb.