ccopy_reg
_reconstructor
p0
(cdataset.Book
Book
p1
c__builtin__
object
p2
Ntp3
Rp4
(dp5
S'similar_books'
p6
(lp7
sS'genres'
p8
(lp9
sS'author'
p10
I302
sS'countries'
p11
(lp12
I2
asS'year'
p13
I1978
sS'title'
p14
VGalaxy Magazine March 1978
p15
sS'cover'
p16
Vhttps://ia601302.us.archive.org/BookReader/BookReaderImages.php?zip=/26/items/Galaxy_v39n03_1978-03/Galaxy_v39n03_1978-03_jp2.zip&file=Galaxy_v39n03_1978-03_jp2/Galaxy_v39n03_1978-03_0000.jp2&scale=0&rotate=0
p17
sS'cover_art'
p18
S'http://www.isfdb.org/wiki/images/4/42/GALMAR78.jpg'
p19
sS'author_name'
p20
VGalaxy Magazine
p21
sS'images_urls'
p22
(lp23
sS'authors'
p24
(lp25
I860
aI848
aI849
aI842
aI326
aI734
aI843
aI767
aI844
aI861
aI857
aI862
aI714
aI817
aI302
asS'images'
p26
(lp27
sS'id'
p28
I1209
sS'contents'
p29
(lp30
(dp31
g10
I860
sg14
VShowcase (Galaxy, March 1978)
p32
sa(dp33
g10
I848
sg14
VMoonless Night
p34
sa(dp35
g10
I848
sg14
VMoonless Night [2]
p36
sa(dp37
g10
I849
sg14
VBugs
p38
sa(dp39
g10
I849
sg14
VBugs [2]
p40
sa(dp41
g10
I842
sg14
VThe Exchange
p42
sa(dp43
g10
I842
sg14
VThe Exchange [2]
p44
sa(dp45
g10
I842
sg14
VThe Exchange [3]
p46
sa(dp47
g10
I849
sg14
VThe Norns' Loom
p48
sa(dp49
g10
I849
sg14
VThe Norns' Loom [2]
p50
sa(dp51
g10
I849
sg14
VKilling Vector
p52
sa(dp53
g10
I849
sg14
VKilling Vector [2]
p54
sa(dp55
g10
I849
sg14
VKilling Vector [3]
p56
sa(dp57
g10
I842
sg14
VThe Faded Sun: Kesrith (Part 2 of 4)
p58
sa(dp59
g10
I842
sg14
VThe Faded Sun: Kesrith (Part 2 of 4) [2]
p60
sa(dp61
g10
I842
sg14
VThe Faded Sun: Kesrith (Part 2 of 4) [3]
p62
sa(dp63
g10
I842
sg14
VThe Faded Sun: Kesrith (Part 2 of 4) [4]
p64
sa(dp65
g10
I842
sg14
VThe Faded Sun: Kesrith (Part 2 of 4) [5]
p66
sa(dp67
g10
I326
sg14
VForecast (Galaxy, March 1978)
p68
sa(dp69
g10
I734
sg14
VThe Moral Equivalent of War
p70
sa(dp71
g10
I843
sg14
VGalaxy Bookshelf (Galaxy, March 1978)
p72
sa(dp73
g10
I767
sg14
VThe Alien Viewpoint (Galaxy, March 1978)
p74
sa(dp75
g10
I844
sg14
VWho's Minding the Store?
p76
sa(dp77
g10
I844
sg14
VDirections (Galaxy, March 1978)
p78
sa(dp79
g10
I861
sg14
VThe Exchange
p80
sa(dp81
g10
I857
sg14
VThe Faded Sun: Kesrith (Part 2 of 4)
p82
sa(dp83
g10
I862
sg14
VMoonless Night
p84
sa(dp85
g10
I843
sg14
VBugs
p86
sa(dp87
g10
I714
sg14
VThe Norns' Loom
p88
sa(dp89
g10
I817
sg14
VKilling Vector
p90
sasb.