ccopy_reg
_reconstructor
p0
(cdataset.Book
Book
p1
c__builtin__
object
p2
Ntp3
Rp4
(dp5
S'similar_books'
p6
(lp7
sS'genres'
p8
(lp9
sS'author'
p10
I302
sS'countries'
p11
(lp12
I2
asS'year'
p13
I1964
sS'title'
p14
VGalaxy Magazine June 1964
p15
sS'cover'
p16
Vhttps://ia600201.us.archive.org/BookReader/BookReaderImages.php?zip=/14/items/Galaxy_v22n05_1964-06_modified/Galaxy_v22n05_1964-06_modified_jp2.zip&file=Galaxy_v22n05_1964-06_modified_jp2/Galaxy_v22n05_1964-06_modified_0000.jp2&scale=0&rotate=0
p17
sS'cover_art'
p18
S'http://www.isfdb.org/wiki/images/a/aa/GALJUN1964.jpg'
p19
sS'author_name'
p20
VGalaxy Magazine
p21
sS'images_urls'
p22
(lp23
sS'authors'
p24
(lp25
I545
aI578
aI499
aI581
aI563
aI40
aI339
aI326
aI443
aI204
aI590
aI30
aI588
aI315
aI591
aI16
aI47
aI302
asS'images'
p26
(lp27
sS'id'
p28
I1101
sS'contents'
p29
(lp30
(dp31
S'title'
p32
VTo Build a World
p33
sS'author'
p34
I545
sa(dp35
g32
VTo Build a World [2]
p36
sg34
I545
sa(dp37
g32
VTo Build a World [3]
p38
sg34
I545
sa(dp39
g32
VTo Build a World [4]
p40
sg34
I545
sa(dp41
g32
VThe Man From Earth
p42
sg34
I578
sa(dp43
g32
VThe Well-Trained Heroes
p44
sg34
I499
sa(dp45
g32
VThe Well-Trained Heroes [2]
p46
sg34
I499
sa(dp47
g32
VThe Many Dooms
p48
sg34
I581
sa(dp49
g32
VAn Ancient Madness
p50
sg34
I578
sa(dp51
g32
VAn Ancient Madness [2]
p52
sg34
I578
sa(dp53
g32
VThe Sincerest Form
p54
sg34
I563
sa(dp55
g32
VAll We Unemployed
p56
sg34
I40
sa(dp57
g32
VFor Your Information: Anyone Else for Space?
p58
sg34
I339
sa(dp59
g32
VForecast (Galaxy, June 1964)
p60
sg34
I326
sa(dp61
g32
VThe Well-Trained Heroes
p62
sg34
I443
sa(dp63
g32
VAn Ancient Madness
p64
sg34
I204
sa(dp65
g32
VThe Sincerest Form
p66
sg34
I590
sa(dp67
g32
VTo Build a World
p68
sg34
I30
sa(dp69
g32
VThe King of the Beasts
p70
sg34
I588
sa(dp71
g32
VThe Man From Earth
p72
sg34
I315
sa(dp73
g32
VCollector's Fever
p74
sg34
I591
sa(dp75
g32
VThe Many Dooms
p76
sg34
I16
sa(dp77
g32
VMen of Good Will
p78
sg34
I47
sasb.