ccopy_reg
_reconstructor
p0
(cdataset.Book
Book
p1
c__builtin__
object
p2
Ntp3
Rp4
(dp5
S'content_name'
p6
V30497.txt.utf-8
p7
sS'isbn'
p8
NsS'year'
p9
I2010
sS'author_name'
p10
VRandall Garrett
p11
sS'images_urls'
p12
(lp13
Vhttp://www.gutenberg.org/files/30497/30497-h/images/image_001.jpg
p14
aVhttp://www.gutenberg.org/files/30497/30497-h/images/image_002.jpg
p15
aVhttp://www.gutenberg.org/files/30497/30497-h/images/image_003.jpg
p16
aVhttp://www.gutenberg.org/files/30497/30497-h/images/image_004.jpg
p17
aVhttp://www.gutenberg.org/files/30497/30497-h/images/image_005.jpg
p18
asS'language_code'
p19
NsS'images'
p20
(lp21
sS'id'
p22
I533
sS'category'
p23
VText
p24
sS'genres'
p25
(lp26
sS'copyright'
p27
VPublic domain in the USA.
p28
sS'title'
p29
VThe Foreign Hand Tie
p30
sS'wikipedia'
p31
(dp32
S'found'
p33
I00
ssS'average_rating'
p34
F3.0
sS'rating_count'
p35
I4
sS'content_available'
p36
I01
sS'goodreads'
p37
(dp38
S'url'
p39
Vhttps://www.goodreads.com/book/show/12570362-the-foreign-hand-tie
p40
sg33
I01
sS'year'
p41
I2010
ssS'similar_books'
p42
(lp43
sS'description'
p44
NsS'format'
p45
NsS'gutenberg'
p46
(dp47
g39
Vhttp://www.gutenberg.org/ebooks/30497
p48
sS'num'
p49
I30497
ssS'authors'
p50
(lp51
I49
asS'isbn13'
p52
V2940012506702
p53
sS'language'
p54
VEnglish
p55
sS'countries'
p56
(lp57
I2
asS'release_date'
p58
S'2009-11-18T00:00:00'
p59
sS'author'
p60
I49
sS'content_cleaned'
p61
I01
sS'classes'
p62
(lp63
Vto-read
p64
aVfree-from-amazon
p65
aVclassic
p66
aVamazon-ebooks
p67
aVscifi
p68
aVspy
p69
aVsci-fi
p70
asS'loc_class'
p71
VPS: Language and Literatures: American and Canadian literature
p72
sS'n_authors'
p73
I1
sb.