ccopy_reg
_reconstructor
p0
(cdataset.Book
Book
p1
c__builtin__
object
p2
Ntp3
Rp4
(dp5
S'content_name'
p6
V51615.txt.utf-8
p7
sS'isbn'
p8
NsS'year'
p9
I1962
sS'author_name'
p10
VJack Sharkey
p11
sS'images_urls'
p12
(lp13
Vhttp://www.gutenberg.org/files/51615/51615-h/images/cover.jpg
p14
aVhttp://www.gutenberg.org/files/51615/51615-h/images/illus.jpg
p15
asS'language_code'
p16
NsS'images'
p17
(lp18
sS'id'
p19
I777
sS'category'
p20
VText
p21
sS'genres'
p22
(lp23
sS'copyright'
p24
VPublic domain in the USA.
p25
sS'title'
p26
VA Matter of Protocol
p27
sS'wikipedia'
p28
(dp29
S'found'
p30
I00
ssS'average_rating'
p31
F4.0
sS'rating_count'
p32
I1
sS'content_available'
p33
I01
sS'cover_art_url'
p34
S'http://www.gutenberg.org/cache/epub/51615/pg51615.cover.medium.jpg'
p35
sS'goodreads'
p36
(dp37
S'url'
p38
Vhttps://www.goodreads.com/book/show/29979783-a-matter-of-protocol
p39
sg30
I01
sS'year'
p40
I-1
ssS'similar_books'
p41
(lp42
sS'description'
p43
NsS'format'
p44
NsS'gutenberg'
p45
(dp46
g38
Vhttp://www.gutenberg.org/ebooks/51615
p47
sS'num'
p48
I51615
ssS'authors'
p49
(lp50
I205
asS'isbn13'
p51
NsS'language'
p52
VEnglish
p53
sS'countries'
p54
(lp55
I2
asS'release_date'
p56
S'2016-04-01T00:00:00'
p57
sS'author'
p58
I205
sS'content_cleaned'
p59
I01
sS'classes'
p60
(lp61
sS'loc_class'
p62
S''
p63
sS'n_authors'
p64
I1
sb.