ccopy_reg
_reconstructor
p0
(cdataset.Book
Book
p1
c__builtin__
object
p2
Ntp3
Rp4
(dp5
S'similar_books'
p6
(lp7
sS'genres'
p8
(lp9
sS'author'
p10
I302
sS'countries'
p11
(lp12
I2
asS'year'
p13
I1969
sS'title'
p14
VGalaxy Magazine January 1969
p15
sS'cover'
p16
Vhttps://ia600207.us.archive.org/BookReader/BookReaderImages.php?zip=/7/items/Galaxy_v27n06_1969-01/Galaxy_v27n06_1969-01_jp2.zip&file=Galaxy_v27n06_1969-01_jp2/Galaxy_v27n06_1969-01_0000.jp2&scale=0&rotate=0
p17
sS'cover_art'
p18
S'http://www.isfdb.org/wiki/images/e/e8/GALJAN69.jpg'
p19
sS'author_name'
p20
VGalaxy Magazine
p21
sS'images_urls'
p22
(lp23
sS'authors'
p24
(lp25
I640
aI644
aI499
aI40
aI326
aI339
aI91
aI47
aI645
aI604
aI67
aI569
aI546
aI302
asS'images'
p26
(lp27
sS'id'
p28
I1129
sS'contents'
p29
(lp30
(dp31
g10
I640
sg14
VFoeman, Where Do You Flee?
p32
sa(dp33
g10
I640
sg14
VFoeman, Where Do You Flee? [2]
p34
sa(dp35
g10
I640
sg14
VFoeman, Where Do You Flee? [3]
p36
sa(dp37
g10
I640
sg14
VFoeman, Where Do You Flee? [4]
p38
sa(dp39
g10
I640
sg14
VFoeman, Where Do You Flee? [5]
p40
sa(dp41
g10
I640
sg14
VFoeman, Where Do You Flee? [6]
p42
sa(dp43
g10
I644
sg14
VParimutuel Planet
p44
sa(dp45
g10
I644
sg14
VParimutuel Planet [2]
p46
sa(dp47
g10
I499
sg14
VDunderbird
p48
sa(dp49
g10
I499
sg14
VDunderbird [2]
p50
sa(dp51
g10
I499
sg14
VDunderbird [3]
p52
sa(dp53
g10
I499
sg14
VThe Organleggers
p54
sa(dp55
g10
I499
sg14
VThe Organleggers [2]
p56
sa(dp57
g10
I499
sg14
VThe Organleggers [3]
p58
sa(dp59
g10
I40
sg14
VTricks and Treats
p60
sa(dp61
g10
I326
sg14
VForecast (Galaxy, January 1969)
p62
sa(dp63
g10
I339
sg14
VFor Your Information: The Written Word
p64
sa(dp65
g10
I326
sg14
VStatement of Ownership (Galaxy, January 1969) (Circulation:75,300)
p66
sa(dp67
g10
I91
sg14
VGalaxy Bookshelf (Galaxy, January 1969)
p68
sa(dp69
g10
I326
sg14
VGalaxy's Stars (Galaxy, January 1969)
p70
sa(dp71
g10
I47
sg14
VFoeman, Where Do You Flee?
p72
sa(dp73
g10
I645
sg14
VParimutuel Planet
p74
sa(dp75
g10
I604
sg14
VThe Organleggers
p76
sa(dp77
g10
I67
sg14
VDunderbird
p78
sa(dp79
g10
I569
sg14
VWelcome Centaurians
p80
sa(dp81
g10
I546
sg14
VThe Thing-of-the-Month Clubs
p82
sasb.