ccopy_reg
_reconstructor
p0
(cdataset.Book
Book
p1
c__builtin__
object
p2
Ntp3
Rp4
(dp5
S'content_name'
p6
V50924.txt.utf-8
p7
sS'isbn'
p8
V0224097377
p9
sS'year'
p10
I2012
sS'author_name'
p11
VRobert F. Young
p12
sS'images_urls'
p13
(lp14
Vhttp://www.gutenberg.org/files/50924/50924-h/images/cover.jpg
p15
aVhttp://www.gutenberg.org/files/50924/50924-h/images/illus.jpg
p16
asS'language_code'
p17
Veng
p18
sS'images'
p19
(lp20
sS'id'
p21
I674
sS'category'
p22
VText
p23
sS'genres'
p24
(lp25
sS'copyright'
p26
VPublic domain in the USA.
p27
sS'title'
p28
VSweet Tooth
p29
sS'wikipedia'
p30
(dp31
S'found'
p32
I00
ssS'average_rating'
p33
F3.4
sS'rating_count'
p34
I32670
sS'content_available'
p35
I01
sS'cover_art_url'
p36
S'http://www.gutenberg.org/cache/epub/50924/pg50924.cover.medium.jpg'
p37
sS'goodreads'
p38
(dp39
S'url'
p40
Vhttps://www.goodreads.com/book/show/13562049-sweet-tooth
p41
sg32
I01
sS'year'
p42
I2012
ssS'similar_books'
p43
(lp44
VWaiting for Sunrise
p45
aVThe Confidant
p46
aVA Delicate Truth
p47
aVAll That Is
p48
aVThe Heart Broke In
p49
aVLevels of Life
p50
aVIn Sunlight and in Shadow
p51
aVGods Without Men
p52
aVAt Last (Patrick Melrose #5)
p53
aVSkios
p54
aVWish You Were Here
p55
aVFobbit
p56
aVThe Stranger's Child
p57
aVThe Lighthouse
p58
aVThe Red and the Green (Vintage Classics)
p59
aVAncient Light
p60
aVThe Chemistry of Tears
p61
aVA Partial History of Lost Causes
p62
asS'description'
p63
VIan McEwan's mastery dazzles us in this superbly deft and witty story of betrayal and intrigue, love and the invented self.<br /><br />In this stunning new novel, Ian McEwan's first female protagonist since Atonement is about to learn that espionage is the ultimate seduction. <br /><br />Cambridge student Serena Frome's beauty and intelligence make her the ideal recruit for MI5. The year is 1972. The Cold War is far from over. England's legendary intelligence agency is determined to manipulate the cultural conversation by funding writers whose politics align with those of the government. The operation is code named "Sweet Tooth." <br /><br />Serena, a compulsive reader of novels, is the perfect candidate to infiltrate the literary circle of a promising young writer named Tom Haley. At first, she loves his stories. Then she begins to love the man. How long can she conceal her undercover life? To answer that question, Serena must abandon the first rule of espionage: trust no one. <br /><br />Once again, Ian McEwan's mastery dazzles us in this superbly deft and witty story of betrayal and intrigue, love and the invented self.
p64
sS'format'
p65
VHardcover
p66
sS'gutenberg'
p67
(dp68
g40
Vhttp://www.gutenberg.org/ebooks/50924
p69
sS'num'
p70
I50924
ssS'authors'
p71
(lp72
I153
asS'pages'
p73
I320
sS'isbn13'
p74
V9780224097376
p75
sS'language'
p76
VEnglish
p77
sS'country'
p78
I3
sS'release_date'
p79
S'2016-01-14T00:00:00'
p80
sS'author'
p81
I153
sS'content_cleaned'
p82
I01
sS'classes'
p83
(lp84
Vto-read
p85
aVcurrently-reading
p86
aVfiction
p87
aVhistorical-fiction
p88
aVbook-club
p89
aVmystery
p90
aVbritish
p91
aVliterary-fiction
p92
aVespionage
p93
aVkindle
p94
aVfavorites
p95
aVowned
p96
aVread-in-2013
p97
aVromance
p98
aVcontemporary
p99
aVbooks-i-own
p100
aVhistorical
p101
aVlibrary
p102
aVabandoned
p103
aVebook
p104
aVengland
p105
aVread-2013
p106
aVliterature
p107
aVcontemporary-fiction
p108
aVbritish-literature
p109
aVnovels
p110
aVdid-not-finish
p111
aVaudiobook
p112
aVian-mcewan
p113
aVthriller
p114
aVaudiobooks
p115
aVadult
p116
aVadult-fiction
p117
aVdidn-t-finish
p118
aVspy
p119
aVto-buy
p120
aVbookclub
p121
aVenglish
p122
aVspies
p123
aV2013-reads
p124
aVread-in-2012
p125
aVliterary
p126
aVnovel
p127
aVaudio
p128
aVread-in-2014
p129
aVcouldn-t-finish
p130
aVgeneral-fiction
p131
aVowned-books
p132
aVbook-group
p133
aVwish-list
p134
aV1970s
p135
aVuk
p136
aVdefault
p137
aVcold-war
p138
aVaudible
p139
aVunfinished
p140
aV21st-century
p141
aVlondon
p142
aVaudio-books
p143
aVsuspense
p144
aVe-book
p145
aVmaybe
p146
aVnever-finished
p147
aV2013-books
p148
aVe-books
p149
aVlibrary-book
p150
aVread-2014
p151
aVbooks-about-books
p152
aVbook-club-books
p153
aVdnf
p154
aVgave-up-on
p155
aVebooks
p156
aVbritain
p157
aVaudio-book
p158
aVbrit-lit
p159
aVmodern-fiction
p160
aVread-in-2015
p161
aVgave-up
p162
aVborrowed
p163
aVto-read-fiction
p164
aVhistory
p165
aVdrama
p166
aVspy-thriller
p167
aVeurope
p168
aVread-2012
p169
aVcrime
p170
aVstopped-reading
p171
aVcould-not-finish
p172
aVlibrary-books
p173
aVmystery-thriller
p174
aVmysteries
p175
aVfavourites
p176
aVmy-books
p177
aV2013-read
p178
aVbooks-read-in-2013
p179
aVfirst-reads
p180
aVmy-library
p181
aVread-in-english
p182
aVmcewan
p183
aV2012-books
p184
asS'loc_class'
p185
S''
p186
sS'n_authors'
p187
I1
sb.