ccopy_reg
_reconstructor
p0
(cdataset.Book
Book
p1
c__builtin__
object
p2
Ntp3
Rp4
(dp5
S'similar_books'
p6
(lp7
sS'genres'
p8
(lp9
sS'author'
p10
I302
sS'countries'
p11
(lp12
I2
asS'year'
p13
I1965
sS'title'
p14
VGalaxy Magazine April 1965
p15
sS'cover'
p16
Vhttps://ia601301.us.archive.org/BookReader/BookReaderImages.php?zip=/2/items/Galaxy_v23n04_1965-04/Galaxy_v23n04_1965-04_jp2.zip&file=Galaxy_v23n04_1965-04_jp2/Galaxy_v23n04_1965-04_0000.jp2&scale=0&rotate=0
p17
sS'cover_art'
p18
S'http://www.isfdb.org/wiki/images/b/bd/GALAPR65.jpg'
p19
sS'author_name'
p20
VGalaxy Magazine
p21
sS'images_urls'
p22
(lp23
sS'authors'
p24
(lp25
I581
aI499
aI545
aI40
aI339
aI326
aI91
aI598
aI599
aI600
aI601
aI602
aI315
aI603
aI67
aI63
aI604
aI546
aI74
aI111
aI302
asS'images'
p26
(lp27
sS'id'
p28
I1106
sS'contents'
p29
(lp30
(dp31
S'title'
p32
VCommittee of the Whole
p33
sS'author'
p34
I581
sa(dp35
g32
VCommittee of the Whole [2]
p36
sg34
I581
sa(dp37
g32
VDeath and Birth of the Angakok
p38
sg34
I499
sa(dp39
g32
VDeath and Birth of the Angakok [2]
p40
sg34
I499
sa(dp41
g32
VDeath and Birth of the Angakok [3]
p42
sg34
I499
sa(dp43
g32
VA Wobble in Wockii Futures
p44
sg34
I545
sa(dp45
g32
VA Wobble in Wockii Futures [2]
p46
sg34
I545
sa(dp47
g32
VA Wobble in Wockii Futures [3]
p48
sg34
I545
sa(dp49
g32
VThe Decision Makers
p50
sg34
I499
sa(dp51
g32
VThe Decision Makers [2]
p52
sg34
I499
sa(dp53
g32
VWar Against the Yukks
p54
sg34
I545
sa(dp55
g32
VWar Against the Yukks [2]
p56
sg34
I545
sa(dp57
g32
VWar Against the Yukks [3]
p58
sg34
I545
sa(dp59
g32
VWar Against the Yukks [4]
p60
sg34
I545
sa(dp61
g32
VWar Against the Yukks [5]
p62
sg34
I545
sa(dp63
g32
VHere Are the Stars
p64
sg34
I40
sa(dp65
g32
VFor Your Information: Symbolically Speaking
p66
sg34
I339
sa(dp67
g32
VForecast (Galaxy, April 1965)
p68
sg34
I326
sa(dp69
g32
VGalaxy Bookshelf (Galaxy, April 1965)
p70
sg34
I91
sa(dp71
g32
VReview of the Nonfiction Work "Alone Through the Dark Sea"
p72
sg34
I598
sa(dp73
g32
VReview of the Nonfiction Work "Star Names: Their Lore and Meaning"
p74
sg34
I599
sa(dp75
g32
VReview of the Nonfiction Work "the Binary Stars"
p76
sg34
I600
sa(dp77
g32
VReview of the Nonfiction Work "the Friendly Stars"
p78
sg34
I601
sa(dp79
g32
VDeath and Birth of the Angakok
p80
sg34
I602
sa(dp81
g32
VA Wobble in Wockii Futures
p82
sg34
I315
sa(dp83
g32
VThe Decision Makers
p84
sg34
I603
sa(dp85
g32
VWar Against the Yukks
p86
sg34
I67
sa(dp87
g32
VCommittee of the Whole
p88
sg34
I63
sa(dp89
g32
VWrong-Way Street
p90
sg34
I604
sa(dp91
g32
VWasted On the Young
p92
sg34
I546
sa(dp93
g32
VSlow Tuesday Night
p94
sg34
I74
sa(dp95
g32
VSculptor
p96
sg34
I111
sasb.