ccopy_reg
_reconstructor
p0
(cdataset.Book
Book
p1
c__builtin__
object
p2
Ntp3
Rp4
(dp5
S'content_name'
p6
V51741.txt.utf-8
p7
sS'isbn'
p8
V0688099866
p9
sS'year'
p10
I1983
sS'author_name'
p11
VH. B. Fyfe
p12
sS'images_urls'
p13
(lp14
Vhttp://www.gutenberg.org/files/51741/51741-h/images/cover.jpg
p15
aVhttp://www.gutenberg.org/files/51741/51741-h/images/illus1.jpg
p16
aVhttp://www.gutenberg.org/files/51741/51741-h/images/illus2.jpg
p17
asS'language_code'
p18
Ven-GB
p19
sS'images'
p20
(lp21
sS'id'
p22
I603
sS'category'
p23
VText
p24
sS'genres'
p25
(lp26
sS'copyright'
p27
VPublic domain in the USA.
p28
sS'title'
p29
VRound-and-Round Trip
p30
sS'wikipedia'
p31
(dp32
S'found'
p33
I00
ssS'average_rating'
p34
F4.23
sS'rating_count'
p35
I854
sS'content_available'
p36
I01
sS'cover_art_url'
p37
S'http://www.gutenberg.org/cache/epub/51741/pg51741.cover.medium.jpg'
p38
sS'goodreads'
p39
(dp40
S'url'
p41
Vhttps://www.goodreads.com/book/show/1430728.Round_Trip
p42
sg33
I01
sS'year'
p43
I1983
ssS'similar_books'
p44
(lp45
VPeter Spier's Rain
p46
aVRainstorm
p47
aVRe-Zoom
p48
aVAnno's Journey
p49
aVYou Can't Take a Balloon into the Metropolitan Museum
p50
aVSouth
p51
aVSpots, Feathers, and Curly Tails
p52
aVThe Turn-Around, Upside-Down Alphabet Book
p53
aVWave
p54
aVHome
p55
aVA Picture for Harold's Room
p56
aVUn-Brella
p57
aVHenry Hikes to Fitchburg
p58
aVAlong a Long Road
p59
aVArmadillo Rodeo
p60
aVBlack Cat
p61
aVDahlia
p62
aVThe Secret Circus
p63
asS'description'
p64
VBlack and white illustrations and text record the sights on a day trip to the city and back home again to the country. The trip to the city is read from front to back and the return trip from back to front, upside down.
p65
sS'format'
p66
VPaperback
p67
sS'gutenberg'
p68
(dp69
g41
Vhttp://www.gutenberg.org/ebooks/51741
p70
sS'num'
p71
I51741
ssS'authors'
p72
(lp73
I94
asS'pages'
p74
I32
sS'isbn13'
p75
V9780688099862
p76
sS'language'
p77
VEnglish
p78
sS'release_date'
p79
S'2016-04-12T00:00:00'
p80
sS'author'
p81
I94
sS'content_cleaned'
p82
I01
sS'classes'
p83
(lp84
Vto-read
p85
aVpicture-books
p86
aVcreativity
p87
aVpicture-book
p88
aVchildren-s-books
p89
aVchildren-s-lit
p90
aVchildrens
p91
aV04-realistic-fiction
p92
aVchildren
p93
aVchildren-s-literature
p94
aVchildren-s
p95
aVrealistic-fiction
p96
aVart
p97
aVmarch
p98
aV18-creativity
p99
aVfiction
p100
aVpicturebooks
p101
aVtravel
p102
aVfavorites
p103
aVchildrens-books
p104
aVchildrens-lit
p105
aVwordless
p106
aVmath
p107
aVpreschool
p108
aVkids
p109
aVgolden-sower
p110
aVchild-lit
p111
aVstory-time
p112
aVinteractive
p113
aVread-aloud
p114
aVchildren-s-picture-books
p115
aVcurrently-reading
p116
aVpicture
p117
aVdefault
p118
aV17-creativity
p119
aVchildrens-literature
p120
aVchildren-books
p121
aVchildhood-favorites
p122
aV100-books
p123
aVi-own
p124
aVchildrens-picture-books
p125
aVkids-books
p126
aVkiddos
p127
aVengineered
p128
aVread-alouds
p129
aVpicturebook
p130
aVgraphic-novel
p131
aVeng-355
p132
aVenglish-355
p133
aVseamons-eng-355-children-s-lit-f14
p134
aVpicture-books-to-buy
p135
aVarts
p136
aVbooks-i-own
p137
aVchildren-ya
p138
aVshapes
p139
aVpreschool-storytime
p140
aVece-3601
p141
aVkindergarten
p142
aVpost-modern
p143
aVtransportation
p144
aVowned
p145
aVchildrens-fiction
p146
aVschool
p147
aVpostmodern-picturebooks
p148
aVmeta
p149
aVpicture-books-read
p150
aVelementary
p151
aVchildhood
p152
aVchildren-s-book
p153
aVto-buy
p154
aVreading-rainbow
p155
aVreadalouds
p156
aVe
p157
aVgreat-picture-book-illustrations
p158
aVcycle-3
p159
aVpub-harper-collins
p160
aVpub-greenwillow
p161
aVpicture-book-pb
p162
aVcover-art-pb
p163
aVbooks-for-the-boys
p164
aVmath-read-alouds
p165
aVcleverness
p166
aVelementary-school
p167
aVc-read-himself
p168
aVc-read
p169
aVfor-my-classroom
p170
aVchildren-s-bookcase
p171
aVbedtime-stories-for-my-spawn
p172
aVzachary-s-books
p173
aVbooks-of-2017
p174
aVbooks-for-my-students
p175
aVshd
p176
aVjbf
p177
aV1000-books-before-kindergarten
p178
aVstorage-unit
p179
aVart-project
p180
aVto-read-picturebook
p181
aVlili-s-lifetime-reads
p182
aVrequired-books-1-12
p183
aVsimon-s-1000-books
p184
asS'loc_class'
p185
S''
p186
sS'n_authors'
p187
I1
sb.