ccopy_reg
_reconstructor
p0
(cdataset.Book
Book
p1
c__builtin__
object
p2
Ntp3
Rp4
(dp5
S'content_name'
p6
V22966.txt.utf-8
p7
sS'isbn'
p8
NsS'year'
p9
I2009
sS'author_name'
p10
VHarry Harrison
p11
sS'images_urls'
p12
(lp13
Vhttp://www.gutenberg.org/files/22966/22966-h/images/001.png
p14
aVhttp://www.gutenberg.org/files/22966/22966-h/images/002.png
p15
aVhttp://www.gutenberg.org/files/22966/22966-h/images/003.png
p16
aVhttp://www.gutenberg.org/files/22966/22966-page-images/p056.png
p17
aVhttp://www.gutenberg.org/files/22966/22966-page-images/p057.png
p18
aVhttp://www.gutenberg.org/files/22966/22966-page-images/p058.png
p19
aVhttp://www.gutenberg.org/files/22966/22966-page-images/p059.png
p20
aVhttp://www.gutenberg.org/files/22966/22966-page-images/p060-image.png
p21
aVhttp://www.gutenberg.org/files/22966/22966-page-images/p060.png
p22
aVhttp://www.gutenberg.org/files/22966/22966-page-images/p061.png
p23
asS'language_code'
p24
NsS'images'
p25
(lp26
sS'id'
p27
I210
sS'category'
p28
VText
p29
sS'genres'
p30
(lp31
sS'copyright'
p32
VPublic domain in the USA.
p33
sS'title'
p34
VToy Shop
p35
sS'wikipedia'
p36
(dp37
S'found'
p38
I00
ssS'average_rating'
p39
F3.38
sS'rating_count'
p40
I90
sS'content_available'
p41
I01
sS'goodreads'
p42
(dp43
S'url'
p44
Vhttps://www.goodreads.com/book/show/6382690-toy-shop
p45
sg38
I01
sS'year'
p46
I2009
ssS'similar_books'
p47
(lp48
sS'description'
p49
NsS'format'
p50
NsS'gutenberg'
p51
(dp52
g44
Vhttp://www.gutenberg.org/ebooks/22966
p53
sS'num'
p54
I22966
ssS'authors'
p55
(lp56
I16
asS'pages'
p57
I18
sS'isbn13'
p58
NsS'language'
p59
VEnglish
p60
sS'release_date'
p61
S'2007-10-12T00:00:00'
p62
sS'author'
p63
I16
sS'content_cleaned'
p64
I01
sS'classes'
p65
(lp66
Vto-read
p67
aVscience-fiction
p68
aVsci-fi
p69
aVshort-stories
p70
aVshort-story
p71
aVfiction
p72
aVkindle
p73
aVshort
p74
aVcurrently-reading
p75
aVebook
p76
aVscifi
p77
aVscience-fiction-shelf
p78
aVfiction-without_romantic
p79
aVfiction-fantastic
p80
aVfavorite
p81
aVcompleted-books
p82
aV0-50pgs
p83
aVnook
p84
aVbp
p85
aVshort-fiction
p86
aVkindle-freebie
p87
aVshort-stories-or-novellas
p88
aVread-in-2011
p89
aV4-stories
p90
aVyoutube-audiobooks
p91
aV7-audiobook
p92
aVnot-owned
p93
aVaudio
p94
aVnarration
p95
aVaudiobooks
p96
aVbek_purc_amz_0
p97
aVhow-kindle
p98
aVaudio-obtained-lvss
p99
aVaudio-books-read
p100
aV3-stars
p101
aVother
p102
aVnook-59-sci-fi-classics
p103
aVscifi-and-horror
p104
aVscience-ficton
p105
aVebooks
p106
aVamazon
p107
aVfeedbooks-com
p108
aV2014-short-stories
p109
aVnot-read
p110
aVgenre-short-stories
p111
aVgenre-science-fiction
p112
aVe-reader
p113
aVfreebie
p114
aVharry-harrison
p115
aVaudiobook
p116
aVfantasy
p117
aVownebook
p118
aVtype-short-story
p119
aVaudio-obtained-ss
p120
aV3-novals
p121
asS'loc_class'
p122
VPS: Language and Literatures: American and Canadian literature
p123
sS'n_authors'
p124
I1
sb.