ccopy_reg
_reconstructor
p0
(cdataset.Book
Book
p1
c__builtin__
object
p2
Ntp3
Rp4
(dp5
S'similar_books'
p6
(lp7
sS'genres'
p8
(lp9
sS'author'
p10
I918
sS'countries'
p11
(lp12
I2
asS'year'
p13
I1972
sS'title'
p14
VIF Magazine November 1972
p15
sS'cover'
p16
Vhttps://ia600205.us.archive.org/BookReader/BookReaderImages.php?zip=/12/items/1972-12_IF/1972-12_IF_jp2.zip&file=1972-12_IF_jp2/1972-12_IF_0000.jp2&scale=0&rotate=0
p17
sS'cover_art'
p18
S'http://www.isfdb.org/wiki/images/5/5c/WOFIFNOVDEC1972.jpg'
p19
sS'author_name'
p20
VIF Magazine
p21
sS'images_urls'
p22
(lp23
sS'authors'
p24
(lp25
I499
aI326
aI356
aI1222
aI1223
aI667
aI1224
aI617
aI635
aI153
aI1219
aI1225
aI651
aI722
aI918
asS'images'
p26
(lp27
sS'id'
p28
I1380
sS'contents'
p29
(lp30
(dp31
g10
I499
sg14
VThe Wizard of Anharitte (Part 1 of 3)
p32
sa(dp33
g10
I499
sg14
VWhom the Gods Love
p34
sa(dp35
g10
I326
sg14
V9
p36
sa(dp37
g10
I499
sg14
VTeratohippus
p38
sa(dp39
g10
I499
sg14
VShausta
p40
sa(dp41
g10
I499
sg14
VHurdle
p42
sa(dp43
g10
I499
sg14
VThe Executive Rat
p44
sa(dp45
g10
I326
sg14
VEmpty Eden
p46
sa(dp47
g10
I326
sg14
VSf Calendar (If, November-December 1972)
p48
sa(dp49
g10
I356
sg14
VReading Room (If, November-December 1972)
p50
sa(dp51
g10
I1222
sg14
VReview of the Nonfiction Work "Cybernetics"
p52
sa(dp53
g10
I1223
sg14
VReview of the Nonfiction Work "Electronics"
p54
sa(dp55
g10
I667
sg14
VHue and Cry (If, November-December 1972)
p56
sa(dp57
g10
I1224
sg14
VTeratohippus
p58
sa(dp59
g10
I617
sg14
VHurdle
p60
sa(dp61
g10
I635
sg14
VThe Wizard of Anharitte (Part 1 of 3)
p62
sa(dp63
g10
I153
sg14
VWhom the Gods Love
p64
sa(dp65
g10
I1219
sg14
g36
sa(dp66
g10
I1225
sg14
VShausta
p67
sa(dp68
g10
I651
sg14
VThe Executive Rat
p69
sa(dp70
g10
I722
sg14
VEmpty Eden
p71
sasb.