ccopy_reg
_reconstructor
p0
(cdataset.Book
Book
p1
c__builtin__
object
p2
Ntp3
Rp4
(dp5
S'content_name'
p6
V30029.txt.utf-8
p7
sS'isbn'
p8
NsS'year'
p9
I1961
sS'author_name'
p10
VLaurence M. Janifer
p11
sS'images_urls'
p12
(lp13
Vhttp://www.gutenberg.org/files/30029/30029-h/images/image_001.jpg
p14
aVhttp://www.gutenberg.org/files/30029/30029-h/images/image_t.jpg
p15
asS'language_code'
p16
NsS'images'
p17
(lp18
sS'id'
p19
I665
sS'category'
p20
VText
p21
sS'genres'
p22
(lp23
sS'copyright'
p24
VPublic domain in the USA.
p25
sS'title'
p26
VLost in Translation
p27
sS'wikipedia'
p28
(dp29
S'found'
p30
I00
ssS'average_rating'
p31
F3.64
sS'rating_count'
p32
I4
sS'content_available'
p33
I01
sS'goodreads'
p34
(dp35
S'url'
p36
S'https://www.goodreads.com/book/show/11551243-lost-in-translation'
p37
sS'found'
p38
I01
ssS'similar_books'
p39
(lp40
sS'description'
p41
NsS'gutenberg'
p42
(dp43
S'url'
p44
Vhttp://www.gutenberg.org/ebooks/30029
p45
sS'num'
p46
I30029
ssS'authors'
p47
(lp48
I64
asS'isbn13'
p49
NsS'language'
p50
VEnglish
p51
sS'countries'
p52
(lp53
I2
asS'release_date'
p54
S'2009-09-19T00:00:00'
p55
sS'author'
p56
I64
sS'cover'
p57
Vhttps://s.gr-assets.com/assets/nophoto/book/111x148-bcc042a9c91a29c1d680899eff700a03.png
p58
sS'content_cleaned'
p59
I01
sS'classes'
p60
(lp61
Vscience-fiction
p62
aVto-read
p63
aV2017-2018
p64
asS'loc_class'
p65
VPS: Language and Literatures: American and Canadian literature
p66
sS'n_authors'
p67
I1
sb.