ccopy_reg
_reconstructor
p0
(cdataset.Book
Book
p1
c__builtin__
object
p2
Ntp3
Rp4
(dp5
S'content_name'
p6
V18105.txt.utf-8
p7
sS'isbn'
p8
NsS'year'
p9
I1951
sS'author_name'
p10
VH. Beam Piper
p11
sS'images_urls'
p12
(lp13
sS'language_code'
p14
NsS'id'
p15
I284
sS'category'
p16
VText
p17
sS'genres'
p18
(lp19
sS'copyright'
p20
VPublic domain in the USA.
p21
sS'title'
p22
VGenesis
p23
sS'wikipedia'
p24
(dp25
S'found'
p26
I00
ssS'average_rating'
p27
F3.85
sS'rating_count'
p28
I48
sS'content_available'
p29
I01
sS'goodreads'
p30
(dp31
S'url'
p32
S'https://www.goodreads.com/book/show/6477402-genesis'
p33
sS'found'
p34
I01
ssS'similar_books'
p35
(lp36
sS'description'
p37
VWas this ill-fated expedition the end of a proud, old race--or the beginning of a new one? There are strange gaps in our records of the past. We find traces of man-like things--but, suddenly, man appears, far too much developed to be the "next step" in a well-linked chain of evolutionary evidence. Perhaps something like the events of this story furnishes the answer to the riddle.
p38
sS'gutenberg'
p39
(dp40
S'url'
p41
Vhttp://www.gutenberg.org/ebooks/18105
p42
sS'num'
p43
I18105
ssS'authors'
p44
(lp45
I19
asS'isbn13'
p46
NsS'language'
p47
VEnglish
p48
sS'countries'
p49
(lp50
I2
asS'release_date'
p51
S'2006-04-02T00:00:00'
p52
sS'author'
p53
I19
sS'content_cleaned'
p54
I01
sS'classes'
p55
(lp56
Vto-read
p57
aVsci-fi
p58
aVcurrently-reading
p59
aVscience-fiction
p60
aVkindle
p61
aVscifi
p62
aVfiction
p63
aVshort-story
p64
aVh-beam-piper
p65
aVtbr-and-have
p66
aV20th-century-lit
p67
aVmisc-scifi
p68
aVun-read
p69
aVowned-pending-kindle-free-ebook
p70
aVamazon-ebooks
p71
aV15
p72
aVmy-books
p73
aVebooks
p74
aVsuitable-for-young-people
p75
aVereader
p76
aVsf-mans-orgin
p77
aVebook-yes
p78
aVshort-stories
p79
aVsf-challenge
p80
aVsf
p81
aVreligion
p82
aVacquired
p83
aVscience-ficiton
p84
aVto-read-on-nook
p85
aVsci-fi-or-speculative
p86
aVnovella
p87
aVclassic-lit
p88
aVcollected-classics
p89
aVbooks-on-kindle
p90
aVtbr-own-ebook
p91
aVpiper-h-beam
p92
asS'loc_class'
p93
VPS: Language and Literatures: American and Canadian literature
p94
sS'n_authors'
p95
I1
sb.