ccopy_reg
_reconstructor
p0
(cdataset.Book
Book
p1
c__builtin__
object
p2
Ntp3
Rp4
(dp5
S'content_name'
p6
V29133.txt.utf-8
p7
sS'isbn'
p8
NsS'year'
p9
I1954
sS'author_name'
p10
VEando Binder
p11
sS'images_urls'
p12
(lp13
Vhttp://www.gutenberg.org/files/29133/29133-h/images/001-1.jpg
p14
aVhttp://www.gutenberg.org/files/29133/29133-h/images/001-2.jpg
p15
asS'language_code'
p16
NsS'images'
p17
(lp18
sS'id'
p19
I287
sS'category'
p20
VText
p21
sS'genres'
p22
(lp23
sS'copyright'
p24
VPublic domain in the USA.
p25
sS'title'
p26
VShipwreck in the Sky
p27
sS'wikipedia'
p28
(dp29
S'found'
p30
I00
ssS'average_rating'
p31
F2.97
sS'rating_count'
p32
I26
sS'content_available'
p33
I01
sS'goodreads'
p34
(dp35
S'url'
p36
Vhttps://www.goodreads.com/book/show/8544753-shipwreck-in-the-sky
p37
sg30
I01
sS'year'
p38
I1954
ssS'similar_books'
p39
(lp40
sS'description'
p41
NsS'format'
p42
NsS'gutenberg'
p43
(dp44
g36
Vhttp://www.gutenberg.org/ebooks/29133
p45
sS'num'
p46
I29133
ssS'authors'
p47
(lp48
I92
asS'isbn13'
p49
NsS'language'
p50
VEnglish
p51
sS'release_date'
p52
S'2009-06-15T00:00:00'
p53
sS'author'
p54
I92
sS'content_cleaned'
p55
I01
sS'classes'
p56
(lp57
Vto-read
p58
aVscience-fiction
p59
aVshort-stories
p60
aVsci-fi
p61
aVkindle
p62
aVowned
p63
aVshorts
p64
aVshort-story
p65
aVaudio-obtained-lvss
p66
aVread-2015
p67
aVsf-fantasy
p68
aV1950s
p69
aV13
p70
aVbinder-eando
p71
aVe-book
p72
aVtype-short-story
p73
aVaudio-obtained-ss
p74
asS'loc_class'
p75
VPS: Language and Literatures: American and Canadian literature
p76
sS'n_authors'
p77
I1
sb.