ccopy_reg
_reconstructor
p0
(cdataset.Book
Book
p1
c__builtin__
object
p2
Ntp3
Rp4
(dp5
S'content_name'
p6
V18492.txt.utf-8
p7
sS'isbn'
p8
NsS'year'
p9
I1959
sS'author_name'
p10
VAlan Edward Nourse
p11
sS'images_urls'
p12
(lp13
Vhttp://www.gutenberg.org/files/18492/18492-h/images/titlepage.jpg
p14
aVhttp://www.gutenberg.org/files/18492/18492-page-images/anss002.png
p15
aVhttp://www.gutenberg.org/files/18492/18492-page-images/anss003.png
p16
aVhttp://www.gutenberg.org/files/18492/18492-page-images/anss004.png
p17
aVhttp://www.gutenberg.org/files/18492/18492-page-images/anss005.png
p18
aVhttp://www.gutenberg.org/files/18492/18492-page-images/anss006.png
p19
aVhttp://www.gutenberg.org/files/18492/18492-page-images/anss007.png
p20
aVhttp://www.gutenberg.org/files/18492/18492-page-images/anss008.png
p21
aVhttp://www.gutenberg.org/files/18492/18492-page-images/anss009.png
p22
aVhttp://www.gutenberg.org/files/18492/18492-page-images/anss010.png
p23
aVhttp://www.gutenberg.org/files/18492/18492-page-images/anss011.png
p24
aVhttp://www.gutenberg.org/files/18492/18492-page-images/anss012.png
p25
aVhttp://www.gutenberg.org/files/18492/18492-page-images/anss013.png
p26
aVhttp://www.gutenberg.org/files/18492/18492-page-images/anss014.png
p27
aVhttp://www.gutenberg.org/files/18492/18492-page-images/anss015.png
p28
aVhttp://www.gutenberg.org/files/18492/18492-page-images/anss016.png
p29
aVhttp://www.gutenberg.org/files/18492/18492-page-images/anss017.png
p30
aVhttp://www.gutenberg.org/files/18492/18492-page-images/anss018.png
p31
aVhttp://www.gutenberg.org/files/18492/18492-page-images/anss019.png
p32
aVhttp://www.gutenberg.org/files/18492/18492-page-images/anss020.png
p33
aVhttp://www.gutenberg.org/files/18492/18492-page-images/anss021.png
p34
aVhttp://www.gutenberg.org/files/18492/18492-page-images/anss022.png
p35
aVhttp://www.gutenberg.org/files/18492/18492-page-images/anss023.png
p36
aVhttp://www.gutenberg.org/files/18492/18492-page-images/anss024.png
p37
aVhttp://www.gutenberg.org/files/18492/18492-page-images/anss025.png
p38
aVhttp://www.gutenberg.org/files/18492/18492-page-images/anss026.png
p39
aVhttp://www.gutenberg.org/files/18492/18492-page-images/anss027.png
p40
aVhttp://www.gutenberg.org/files/18492/18492-page-images/anss028.png
p41
aVhttp://www.gutenberg.org/files/18492/18492-page-images/anss029.png
p42
aVhttp://www.gutenberg.org/files/18492/18492-page-images/anss030.png
p43
aVhttp://www.gutenberg.org/files/18492/18492-page-images/anss031.png
p44
aVhttp://www.gutenberg.org/files/18492/18492-page-images/anss032.png
p45
aVhttp://www.gutenberg.org/files/18492/18492-page-images/anss033.png
p46
aVhttp://www.gutenberg.org/files/18492/18492-page-images/anss034.png
p47
aVhttp://www.gutenberg.org/files/18492/18492-page-images/anss035.png
p48
aVhttp://www.gutenberg.org/files/18492/18492-page-images/anss036.png
p49
aVhttp://www.gutenberg.org/files/18492/18492-page-images/anss037.png
p50
aVhttp://www.gutenberg.org/files/18492/18492-page-images/anss038.png
p51
aVhttp://www.gutenberg.org/files/18492/18492-page-images/anss039.png
p52
aVhttp://www.gutenberg.org/files/18492/18492-page-images/anss040.png
p53
aVhttp://www.gutenberg.org/files/18492/18492-page-images/anss041.png
p54
aVhttp://www.gutenberg.org/files/18492/18492-page-images/anss042.png
p55
aVhttp://www.gutenberg.org/files/18492/18492-page-images/anss043.png
p56
aVhttp://www.gutenberg.org/files/18492/18492-page-images/anss044.png
p57
aVhttp://www.gutenberg.org/files/18492/18492-page-images/anss045.png
p58
aVhttp://www.gutenberg.org/files/18492/18492-page-images/anss046.png
p59
aVhttp://www.gutenberg.org/files/18492/18492-page-images/anss047.png
p60
aVhttp://www.gutenberg.org/files/18492/18492-page-images/anss048.png
p61
aVhttp://www.gutenberg.org/files/18492/18492-page-images/anss049.png
p62
aVhttp://www.gutenberg.org/files/18492/18492-page-images/anss050.png
p63
aVhttp://www.gutenberg.org/files/18492/18492-page-images/anss051.png
p64
aVhttp://www.gutenberg.org/files/18492/18492-page-images/anss052.png
p65
aVhttp://www.gutenberg.org/files/18492/18492-page-images/anss053.png
p66
aVhttp://www.gutenberg.org/files/18492/18492-page-images/anss054.png
p67
aVhttp://www.gutenberg.org/files/18492/18492-page-images/anss055.png
p68
aVhttp://www.gutenberg.org/files/18492/18492-page-images/anss056.png
p69
aVhttp://www.gutenberg.org/files/18492/18492-page-images/anss057.png
p70
aVhttp://www.gutenberg.org/files/18492/18492-page-images/anss058.png
p71
aVhttp://www.gutenberg.org/files/18492/18492-page-images/anss059.png
p72
aVhttp://www.gutenberg.org/files/18492/18492-page-images/anss060.png
p73
aVhttp://www.gutenberg.org/files/18492/18492-page-images/anss061.png
p74
aVhttp://www.gutenberg.org/files/18492/18492-page-images/anss062.png
p75
aVhttp://www.gutenberg.org/files/18492/18492-page-images/anss063.png
p76
aVhttp://www.gutenberg.org/files/18492/18492-page-images/anss064.png
p77
aVhttp://www.gutenberg.org/files/18492/18492-page-images/anss065.png
p78
aVhttp://www.gutenberg.org/files/18492/18492-page-images/anss066.png
p79
aVhttp://www.gutenberg.org/files/18492/18492-page-images/anss067.png
p80
aVhttp://www.gutenberg.org/files/18492/18492-page-images/anss068.png
p81
aVhttp://www.gutenberg.org/files/18492/18492-page-images/anss069.png
p82
aVhttp://www.gutenberg.org/files/18492/18492-page-images/anss070.png
p83
aVhttp://www.gutenberg.org/files/18492/18492-page-images/anss071.png
p84
aVhttp://www.gutenberg.org/files/18492/18492-page-images/anss072.png
p85
aVhttp://www.gutenberg.org/files/18492/18492-page-images/anss073.png
p86
aVhttp://www.gutenberg.org/files/18492/18492-page-images/anss074.png
p87
aVhttp://www.gutenberg.org/files/18492/18492-page-images/anss075.png
p88
aVhttp://www.gutenberg.org/files/18492/18492-page-images/anss076.png
p89
aVhttp://www.gutenberg.org/files/18492/18492-page-images/anss077.png
p90
aVhttp://www.gutenberg.org/files/18492/18492-page-images/anss078.png
p91
aVhttp://www.gutenberg.org/files/18492/18492-page-images/anss079.png
p92
aVhttp://www.gutenberg.org/files/18492/18492-page-images/anss080.png
p93
aVhttp://www.gutenberg.org/files/18492/18492-page-images/anss081.png
p94
aVhttp://www.gutenberg.org/files/18492/18492-page-images/anss082.png
p95
aVhttp://www.gutenberg.org/files/18492/18492-page-images/anss083.png
p96
aVhttp://www.gutenberg.org/files/18492/18492-page-images/anss084.png
p97
aVhttp://www.gutenberg.org/files/18492/18492-page-images/anss085.png
p98
aVhttp://www.gutenberg.org/files/18492/18492-page-images/anss086.png
p99
aVhttp://www.gutenberg.org/files/18492/18492-page-images/anss087.png
p100
aVhttp://www.gutenberg.org/files/18492/18492-page-images/anss088.png
p101
aVhttp://www.gutenberg.org/files/18492/18492-page-images/anss089.png
p102
aVhttp://www.gutenberg.org/files/18492/18492-page-images/anss090.png
p103
aVhttp://www.gutenberg.org/files/18492/18492-page-images/anss091.png
p104
aVhttp://www.gutenberg.org/files/18492/18492-page-images/anss092.png
p105
aVhttp://www.gutenberg.org/files/18492/18492-page-images/anss093.png
p106
aVhttp://www.gutenberg.org/files/18492/18492-page-images/anss094.png
p107
aVhttp://www.gutenberg.org/files/18492/18492-page-images/anss095.png
p108
aVhttp://www.gutenberg.org/files/18492/18492-page-images/anss096.png
p109
aVhttp://www.gutenberg.org/files/18492/18492-page-images/anss097.png
p110
aVhttp://www.gutenberg.org/files/18492/18492-page-images/anss098.png
p111
aVhttp://www.gutenberg.org/files/18492/18492-page-images/anss099.png
p112
aVhttp://www.gutenberg.org/files/18492/18492-page-images/anss100.png
p113
aVhttp://www.gutenberg.org/files/18492/18492-page-images/anss101.png
p114
aVhttp://www.gutenberg.org/files/18492/18492-page-images/anss102.png
p115
aVhttp://www.gutenberg.org/files/18492/18492-page-images/anss103.png
p116
aVhttp://www.gutenberg.org/files/18492/18492-page-images/anss104.png
p117
aVhttp://www.gutenberg.org/files/18492/18492-page-images/anss105.png
p118
aVhttp://www.gutenberg.org/files/18492/18492-page-images/anss106.png
p119
aVhttp://www.gutenberg.org/files/18492/18492-page-images/anss107.png
p120
aVhttp://www.gutenberg.org/files/18492/18492-page-images/anss108.png
p121
aVhttp://www.gutenberg.org/files/18492/18492-page-images/anss109.png
p122
aVhttp://www.gutenberg.org/files/18492/18492-page-images/anss110.png
p123
aVhttp://www.gutenberg.org/files/18492/18492-page-images/anss111.png
p124
aVhttp://www.gutenberg.org/files/18492/18492-page-images/anss112.png
p125
aVhttp://www.gutenberg.org/files/18492/18492-page-images/anss113.png
p126
aVhttp://www.gutenberg.org/files/18492/18492-page-images/anss114.png
p127
aVhttp://www.gutenberg.org/files/18492/18492-page-images/anss115.png
p128
aVhttp://www.gutenberg.org/files/18492/18492-page-images/anss116.png
p129
aVhttp://www.gutenberg.org/files/18492/18492-page-images/anss117.png
p130
aVhttp://www.gutenberg.org/files/18492/18492-page-images/anss118.png
p131
aVhttp://www.gutenberg.org/files/18492/18492-page-images/anss119.png
p132
aVhttp://www.gutenberg.org/files/18492/18492-page-images/anss120.png
p133
aVhttp://www.gutenberg.org/files/18492/18492-page-images/anss121.png
p134
aVhttp://www.gutenberg.org/files/18492/18492-page-images/anss122.png
p135
aVhttp://www.gutenberg.org/files/18492/18492-page-images/anss123.png
p136
aVhttp://www.gutenberg.org/files/18492/18492-page-images/anss124.png
p137
aVhttp://www.gutenberg.org/files/18492/18492-page-images/anss125.png
p138
aVhttp://www.gutenberg.org/files/18492/18492-page-images/anss126.png
p139
aVhttp://www.gutenberg.org/files/18492/18492-page-images/anss127.png
p140
aVhttp://www.gutenberg.org/files/18492/18492-page-images/anss128.png
p141
aVhttp://www.gutenberg.org/files/18492/18492-page-images/anss129.png
p142
aVhttp://www.gutenberg.org/files/18492/18492-page-images/anss130.png
p143
aVhttp://www.gutenberg.org/files/18492/18492-page-images/anss131.png
p144
aVhttp://www.gutenberg.org/files/18492/18492-page-images/anss132.png
p145
aVhttp://www.gutenberg.org/files/18492/18492-page-images/anss133.png
p146
aVhttp://www.gutenberg.org/files/18492/18492-page-images/anss134.png
p147
aVhttp://www.gutenberg.org/files/18492/18492-page-images/anss135.png
p148
aVhttp://www.gutenberg.org/files/18492/18492-page-images/anss136.png
p149
aVhttp://www.gutenberg.org/files/18492/18492-page-images/anss137.png
p150
aVhttp://www.gutenberg.org/files/18492/18492-page-images/anss138.png
p151
aVhttp://www.gutenberg.org/files/18492/18492-page-images/anss139.png
p152
aVhttp://www.gutenberg.org/files/18492/18492-page-images/anss140.png
p153
aVhttp://www.gutenberg.org/files/18492/18492-page-images/anss141.png
p154
aVhttp://www.gutenberg.org/files/18492/18492-page-images/anss142.png
p155
aVhttp://www.gutenberg.org/files/18492/18492-page-images/anss143.png
p156
aVhttp://www.gutenberg.org/files/18492/18492-page-images/anss144.png
p157
aVhttp://www.gutenberg.org/files/18492/18492-page-images/anss145.png
p158
aVhttp://www.gutenberg.org/files/18492/18492-page-images/anss146.png
p159
aVhttp://www.gutenberg.org/files/18492/18492-page-images/anss147.png
p160
aVhttp://www.gutenberg.org/files/18492/18492-page-images/anss148.png
p161
aVhttp://www.gutenberg.org/files/18492/18492-page-images/anss149.png
p162
aVhttp://www.gutenberg.org/files/18492/18492-page-images/anss150.png
p163
aVhttp://www.gutenberg.org/files/18492/18492-page-images/anss151.png
p164
aVhttp://www.gutenberg.org/files/18492/18492-page-images/anss152.png
p165
aVhttp://www.gutenberg.org/files/18492/18492-page-images/anss153.png
p166
aVhttp://www.gutenberg.org/files/18492/18492-page-images/anss154.png
p167
aVhttp://www.gutenberg.org/files/18492/18492-page-images/anss155.png
p168
aVhttp://www.gutenberg.org/files/18492/18492-page-images/anss156.png
p169
aVhttp://www.gutenberg.org/files/18492/18492-page-images/anss157.png
p170
aVhttp://www.gutenberg.org/files/18492/18492-page-images/anss158.png
p171
aVhttp://www.gutenberg.org/files/18492/18492-page-images/anss159.png
p172
aVhttp://www.gutenberg.org/files/18492/18492-page-images/anss160.png
p173
aVhttp://www.gutenberg.org/files/18492/18492-page-images/anss161.png
p174
aVhttp://www.gutenberg.org/files/18492/18492-page-images/anss162.png
p175
aVhttp://www.gutenberg.org/files/18492/18492-page-images/anss163.png
p176
aVhttp://www.gutenberg.org/files/18492/18492-page-images/anss164.png
p177
aVhttp://www.gutenberg.org/files/18492/18492-page-images/anss165.png
p178
aVhttp://www.gutenberg.org/files/18492/18492-page-images/anss166.png
p179
aVhttp://www.gutenberg.org/files/18492/18492-page-images/anss167.png
p180
aVhttp://www.gutenberg.org/files/18492/18492-page-images/anss168.png
p181
aVhttp://www.gutenberg.org/files/18492/18492-page-images/anss169.png
p182
aVhttp://www.gutenberg.org/files/18492/18492-page-images/anss170.png
p183
aVhttp://www.gutenberg.org/files/18492/18492-page-images/anss171.png
p184
aVhttp://www.gutenberg.org/files/18492/18492-page-images/anss172.png
p185
aVhttp://www.gutenberg.org/files/18492/18492-page-images/anss173.png
p186
aVhttp://www.gutenberg.org/files/18492/18492-page-images/anss174.png
p187
aVhttp://www.gutenberg.org/files/18492/18492-page-images/anss175.png
p188
aVhttp://www.gutenberg.org/files/18492/18492-page-images/anss176.png
p189
aVhttp://www.gutenberg.org/files/18492/18492-page-images/anss177.png
p190
aVhttp://www.gutenberg.org/files/18492/18492-page-images/anss178.png
p191
aVhttp://www.gutenberg.org/files/18492/18492-page-images/anss179.png
p192
aVhttp://www.gutenberg.org/files/18492/18492-page-images/anss180.png
p193
aVhttp://www.gutenberg.org/files/18492/18492-page-images/anss181.png
p194
aVhttp://www.gutenberg.org/files/18492/18492-page-images/anss182.png
p195
aVhttp://www.gutenberg.org/files/18492/18492-page-images/anss183.png
p196
aVhttp://www.gutenberg.org/files/18492/18492-page-images/anss184.png
p197
aVhttp://www.gutenberg.org/files/18492/18492-page-images/anss185.png
p198
aVhttp://www.gutenberg.org/files/18492/18492-page-images/anss186.png
p199
aVhttp://www.gutenberg.org/files/18492/18492-page-images/anss187.png
p200
asS'language_code'
p201
NsS'images'
p202
(lp203
sS'id'
p204
I335
sS'category'
p205
VText
p206
sS'genres'
p207
(lp208
sS'copyright'
p209
VPublic domain in the USA.
p210
sS'title'
p211
VStar Surgeon
p212
sS'wikipedia'
p213
(dp214
S'found'
p215
I00
ssS'average_rating'
p216
F3.8
sS'rating_count'
p217
I196
sS'content_available'
p218
I01
sS'cover_art_url'
p219
S'http://www.gutenberg.org/cache/epub/18492/pg18492.cover.medium.jpg'
p220
sS'goodreads'
p221
(dp222
S'url'
p223
Vhttps://www.goodreads.com/book/show/1695601.Star_Surgeon
p224
sg215
I01
sS'year'
p225
I1959
ssS'similar_books'
p226
(lp227
VVoodoo Planet / Star Hunter
p228
aVMen, Martians and Machines
p229
aVSnug Ship
p230
aVThe Red Hawk (Moon Trilogy #3)
p231
aVHal Spacejock 2: Second Course
p232
aVMirror Friend, Mirror Foe
p233
aVThe Pirates of Ersatz
p234
aVThe Hidden Worlds (The Hidden Worlds #1)
p235
aVBlood Born
p236
aVLegacy
p237
aVKingdom of Cages
p238
aVFaith Creation, All Lies Revealed
p239
aVRed Rain (Unacccepted, #1)
p240
aVKnight Crusader (Carey Family, #1)
p241
aVThe Cold Equations and Other Stories
p242
aVHunting the Corrigan's Blood (Cadence Drake, #1)
p243
aVThe Skylark of Space (Skylark #1)
p244
asS'description'
p245
VDal Timgar had always wanted to be a doctor. As a Garvian and the first non-human to study medicine on Hospital Earth, he must face enormous adversity from classmates, professors, and some of the highest ranking physicians on all of Earth. Will his efforts be enough to earn him the Silver Star of a Star Surgeon? <br /><br />Approx. 5.5 hours<br /><br /><em>"Alan E. Nourse sure knew how to write! This is a peppy little novel, that though first published nearly 50 years ago, still crackles with energy. It plays out like a typical Heinleinian juvenile, minus the lectures... one of those rare novels that tells its story from the perspective of an alien... I\u2019m pleased to be able to recommend it as a listen to just about anyone.<br /><br />Scott Farquhar reads the novel with a clinical precision, he enunciates each word loud and clear... Amateur narrators looking for a role model, should look towards Farquhar!"</em> - SFFaudio
p246
sS'format'
p247
VAudiobook
p248
sS'gutenberg'
p249
(dp250
g223
Vhttp://www.gutenberg.org/ebooks/18492
p251
sS'num'
p252
I18492
ssS'authors'
p253
(lp254
I108
asS'isbn13'
p255
NsS'language'
p256
VEnglish
p257
sS'country'
p258
I3
sS'release_date'
p259
S'2006-06-02T00:00:00'
p260
sS'author'
p261
I108
sS'content_cleaned'
p262
I01
sS'classes'
p263
(lp264
Vto-read
p265
aVscience-fiction
p266
aVcurrently-reading
p267
aVsci-fi
p268
aVsf
p269
aVaudiobooks
p270
aVfiction
p271
aVfavorites
p272
aVkindle
p273
aVdefault
p274
aVscifi
p275
aVgone
p276
aVaudio
p277
aVya
p278
aVread-in-2008
p279
aVebook
p280
aVa-owned
p281
aVsmall
p282
aV00-to-read-01
p283
aVgot
p284
aVsoonish
p285
aV20th-century-lit
p286
aVdnf
p287
aVto-read-sci-fic-fantasy
p288
aVto-read-open-library
p289
aVyoung-adult-fantasy-and-sf
p290
aVyear-1959
p291
aVy2016
p292
aVy-pre-2011
p293
aVscience-fiction-space-opera
p294
aVrecommended
p295
aVquit
p296
aVpnr-uf-sf
p297
aVowned_yes
p298
aVowned_ebook_only
p299
aVnouvelles-novellas
p300
aVn
p301
aVmain-sf-fantasy
p302
aVlen-novella-ette
p303
aVfmt-ebook
p304
aVfant-scifi
p305
aVcoverx-transportation
p306
aVcan-t-wait-to-read
p307
aValliteration
p308
aValiens
p309
aVa_to-be-read_pile
p310
aV1950s-60s-70s
p311
aV10-genre-scifi
p312
aV02-to-read-speculative-fiction
p313
aVnon-serial-novels
p314
aVi-own
p315
aVkindle-e-book
p316
aVsolo
p317
aVs32-fiction-misc
p318
aVown-audiobook
p319
aV16
p320
aVnovels
p321
aVclassics
p322
aVchildrens
p323
aVdate-read
p324
aVwant-don-t-own
p325
aVbin-009
p326
aVall_non-trek_unread
p327
aVin-english
p328
aVchildren
p329
aVread-in-2015
p330
aVaudiobook
p331
aVtwo-word-title
p332
aVfree-from-amazon
p333
aVdone
p334
aVowned
p335
aVb-list
p336
aVpersonal-favorites
p337
aVwish-list
p338
aVe-book
p339
aVread-2014
p340
aVfrom-overdrive
p341
aVscience-fiction-times
p342
aVscifi-2-old-school
p343
aVhardback
p344
aVaudible
p345
aV40-before-40
p346
aVaudio-books
p347
aVpb
p348
aVspaceships
p349
aVhavedeadtree
p350
aV_miscor2do
p351
aVunread-books-on-nook
p352
aVbrowse-to-read-someday
p353
aVmedical-fiction
p354
aV2012-books
p355
aVtext
p356
aVyoung-adult
p357
aVfantasy
p358
aVmy-ebooks
p359
aVgolden-age-science-fiction
p360
aVe-books
p361
aVchildren-s
p362
aVspace-setting
p363
aVfriendship-and-families
p364
asS'loc_class'
p365
VPS: Language and Literatures: American and Canadian literature
p366
sS'n_authors'
p367
I1
sb.