ccopy_reg
_reconstructor
p0
(cdataset.Book
Book
p1
c__builtin__
object
p2
Ntp3
Rp4
(dp5
S'content_name'
p6
V27393.txt.utf-8
p7
sS'isbn'
p8
V1496966260
p9
sS'year'
p10
I2015
sS'author_name'
p11
VMack Reynolds
p12
sS'images_urls'
p13
(lp14
Vhttp://www.gutenberg.org/files/27393/27393-h/images/001.png
p15
aVhttp://www.gutenberg.org/files/27393/27393-page-images/p072.png
p16
aVhttp://www.gutenberg.org/files/27393/27393-page-images/p073.png
p17
aVhttp://www.gutenberg.org/files/27393/27393-page-images/p074.png
p18
aVhttp://www.gutenberg.org/files/27393/27393-page-images/p075.png
p19
aVhttp://www.gutenberg.org/files/27393/27393-page-images/p076.png
p20
aVhttp://www.gutenberg.org/files/27393/27393-page-images/p077.png
p21
aVhttp://www.gutenberg.org/files/27393/27393-page-images/p078.png
p22
aVhttp://www.gutenberg.org/files/27393/27393-page-images/p079.png
p23
aVhttp://www.gutenberg.org/files/27393/27393-page-images/p080.png
p24
aVhttp://www.gutenberg.org/files/27393/27393-page-images/p081.png
p25
aVhttp://www.gutenberg.org/files/27393/27393-page-images/p082.png
p26
aVhttp://www.gutenberg.org/files/27393/27393-page-images/p083.png
p27
aVhttp://www.gutenberg.org/files/27393/27393-page-images/p084.png
p28
aVhttp://www.gutenberg.org/files/27393/27393-page-images/p085.png
p29
aVhttp://www.gutenberg.org/files/27393/27393-page-images/p086.png
p30
aVhttp://www.gutenberg.org/files/27393/27393-page-images/p087.png
p31
aVhttp://www.gutenberg.org/files/27393/27393-page-images/p088.png
p32
aVhttp://www.gutenberg.org/files/27393/27393-page-images/p089.png
p33
aVhttp://www.gutenberg.org/files/27393/27393-page-images/p090.png
p34
aVhttp://www.gutenberg.org/files/27393/27393-page-images/p091.png
p35
aVhttp://www.gutenberg.org/files/27393/27393-page-images/p092.png
p36
aVhttp://www.gutenberg.org/files/27393/27393-page-images/p093.png
p37
aVhttp://www.gutenberg.org/files/27393/27393-page-images/p094.png
p38
aVhttp://www.gutenberg.org/files/27393/27393-page-images/p095.png
p39
aVhttp://www.gutenberg.org/files/27393/27393-page-images/p096.png
p40
aVhttp://www.gutenberg.org/files/27393/27393-page-images/p097.png
p41
aVhttp://www.gutenberg.org/files/27393/27393-page-images/p098.png
p42
asS'language_code'
p43
Veng
p44
sS'images'
p45
(lp46
sS'id'
p47
I587
sS'category'
p48
VText
p49
sS'genres'
p50
(lp51
sS'copyright'
p52
VPublic domain in the USA.
p53
sS'title'
p54
VMedal of Honor
p55
sS'wikipedia'
p56
(dp57
S'found'
p58
I00
ssS'average_rating'
p59
F4.67
sS'rating_count'
p60
I9
sS'content_available'
p61
I01
sS'goodreads'
p62
(dp63
S'url'
p64
Vhttps://www.goodreads.com/book/show/24988008-medal-of-honor
p65
sg58
I01
sS'year'
p66
I2015
ssS'similar_books'
p67
(lp68
VLive For This
p69
aVDinosaur Isle
p70
aVChance Maybe and the Galactic Glitch
p71
aVThis Marlowe
p72
aVWalking Point: From the Ashes of the Vietnam War
p73
aVBiographical Sketches of New York's First 21 Governors: The Revolutionary War Through the Civil War
p74
aVRaulin: Rise of the Forest King
p75
aVDivided We Fall
p76
aVThe Weekend Warriors
p77
aVMen of War: The American Soldier in Combat at Bunker Hill, Gettysburg, and Iwo Jima
p78
aVPreston Tucker and His Battle to Build the Car of Tomorrow
p79
aVMarked for Death: The First War in the Air
p80
aVSuburban Love Song (Burnouts #1)
p81
aVThe Last of the Wild West Cowgirls: A True Story
p82
aVLethal Intent
p83
aVOn a Midnight Clear
p84
aVDonovan's Devils: OSS Commandos Behind Enemy Lines\u2014Europe, World War II
p85
aVRunning Man
p86
asS'description'
p87
VThe courage of the soldiers and warriors at Custers' last stand. The newest data about the clash of a Stone Age culture with the US Government in 1876.
p88
sS'format'
p89
VPaperback
p90
sS'gutenberg'
p91
(dp92
g64
Vhttp://www.gutenberg.org/ebooks/27393
p93
sS'num'
p94
I27393
ssS'authors'
p95
(lp96
I69
asS'pages'
p97
I76
sS'isbn13'
p98
V9781496966261
p99
sS'language'
p100
VEnglish
p101
sS'country'
p102
I3
sS'release_date'
p103
S'2008-12-02T00:00:00'
p104
sS'author'
p105
I69
sS'content_cleaned'
p106
I01
sS'classes'
p107
(lp108
Vto-read
p109
aVgiveaways-entered
p110
aVhistory-american-indian
p111
aVwon
p112
aVnon-fiction
p113
aVactually-want-to-read
p114
aVnew
p115
aVya-young-adult-literature
p116
aVlost
p117
aVhistory
p118
aVcurrently-reading
p119
aVa-first-reads-entry
p120
aVgiveaway-books
p121
aVfavorites
p122
aVmaybe
p123
aVevaluated-no
p124
asS'loc_class'
p125
VPS: Language and Literatures: American and Canadian literature
p126
sS'n_authors'
p127
I1
sb.