ccopy_reg
_reconstructor
p0
(cdataset.Book
Book
p1
c__builtin__
object
p2
Ntp3
Rp4
(dp5
S'similar_books'
p6
(lp7
sS'genres'
p8
(lp9
sS'author'
p10
I918
sS'countries'
p11
(lp12
I2
asS'year'
p13
I1954
sS'title'
p14
VIF Magazine December 1954
p15
sS'cover'
p16
Vhttps://ia600202.us.archive.org/BookReader/BookReaderImages.php?zip=/22/items/1954-12_IF_modified/1954-12_IF_modified_jp2.zip&file=1954-12_IF_modified_jp2/1954-12_IF_modified_0000.jp2&scale=0&rotate=0
p17
sS'cover_art'
p18
S'http://www.isfdb.org/wiki/images/4/4a/WOFIFDEC1954.jpg'
p19
sS'author_name'
p20
VIF Magazine
p21
sS'images_urls'
p22
(lp23
sS'authors'
p24
(lp25
I326
aI988
aI956
aI999
aI412
aI948
aI942
aI549
aI176
aI1000
aI166
aI365
aI1001
aI918
asS'images'
p26
(lp27
sS'id'
p28
I1239
sS'contents'
p29
(lp30
(dp31
g10
I326
sg14
VLanding On Hermes
p32
sa(dp33
g10
I988
sg14
VThe Jungle
p34
sa(dp35
g10
I956
sg14
VAnd Gone Tomorrow
p36
sa(dp37
g10
I999
sg14
VElliptic Orbit
p38
sa(dp39
g10
I412
sg14
VCommunity Property
p40
sa(dp41
g10
I956
sg14
VThe Gun Runners
p42
sa(dp43
g10
I412
sg14
VA Cold Night for Crying
p44
sa(dp45
g10
I326
sg14
VLes Machines
p46
sa(dp47
g10
I948
sg14
VA Chat with the Editor (If, December 1954)
p48
sa(dp49
g10
I326
sg14
VWhat Is Your Science I. Q.? (If, December 1954)
p50
sa(dp51
g10
I326
sg14
VScience Briefs (If, December 1954)
p52
sa(dp53
g10
I326
sg14
VWorth Citing (If, December 1954)
p54
sa(dp55
g10
I942
sg14
VThe Jungle
p56
sa(dp57
g10
I549
sg14
VAnd Gone Tomorrow
p58
sa(dp59
g10
I176
sg14
VThe Gun Runners
p60
sa(dp61
g10
I1000
sg14
VFirst Stage: Moon
p62
sa(dp63
g10
I166
sg14
VCommunity Property
p64
sa(dp65
g10
I365
sg14
VA Cold Night for Crying
p66
sa(dp67
g10
I1001
sg14
VLes Machines
p68
sasb.