ccopy_reg
_reconstructor
p0
(cdataset.Book
Book
p1
c__builtin__
object
p2
Ntp3
Rp4
(dp5
S'content_name'
p6
V33016.txt.utf-8
p7
sS'isbn'
p8
NsS'year'
p9
I2011
sS'author_name'
p10
VVarious
p11
sS'images_urls'
p12
(lp13
Vhttp://www.gutenberg.org/files/33016/33016-h/images/cover.jpg
p14
aVhttp://www.gutenberg.org/files/33016/33016-h/images/image_001.jpg
p15
aVhttp://www.gutenberg.org/files/33016/33016-h/images/image_002.jpg
p16
aVhttp://www.gutenberg.org/files/33016/33016-h/images/image_003.jpg
p17
aVhttp://www.gutenberg.org/files/33016/33016-h/images/image_004.jpg
p18
aVhttp://www.gutenberg.org/files/33016/33016-h/images/image_005.jpg
p19
aVhttp://www.gutenberg.org/files/33016/33016-h/images/image_006.jpg
p20
aVhttp://www.gutenberg.org/files/33016/33016-h/images/image_007.jpg
p21
aVhttp://www.gutenberg.org/files/33016/33016-h/images/image_008.jpg
p22
aVhttp://www.gutenberg.org/files/33016/33016-h/images/image_009.jpg
p23
aVhttp://www.gutenberg.org/files/33016/33016-h/images/image_010.jpg
p24
aVhttp://www.gutenberg.org/files/33016/33016-h/images/image_011.jpg
p25
aVhttp://www.gutenberg.org/files/33016/33016-h/images/image_012.jpg
p26
aVhttp://www.gutenberg.org/files/33016/33016-h/images/image_013.jpg
p27
aVhttp://www.gutenberg.org/files/33016/33016-h/images/image_a.jpg
p28
aVhttp://www.gutenberg.org/files/33016/33016-h/images/image_a1.jpg
p29
aVhttp://www.gutenberg.org/files/33016/33016-h/images/image_b.jpg
p30
aVhttp://www.gutenberg.org/files/33016/33016-h/images/image_b1.jpg
p31
aVhttp://www.gutenberg.org/files/33016/33016-h/images/image_c.jpg
p32
aVhttp://www.gutenberg.org/files/33016/33016-h/images/image_d.jpg
p33
aVhttp://www.gutenberg.org/files/33016/33016-h/images/image_e.jpg
p34
aVhttp://www.gutenberg.org/files/33016/33016-h/images/image_f.jpg
p35
aVhttp://www.gutenberg.org/files/33016/33016-h/images/image_g.jpg
p36
aVhttp://www.gutenberg.org/files/33016/33016-h/images/image_h.jpg
p37
aVhttp://www.gutenberg.org/files/33016/33016-h/images/image_h1.jpg
p38
aVhttp://www.gutenberg.org/files/33016/33016-h/images/image_h2.jpg
p39
aVhttp://www.gutenberg.org/files/33016/33016-h/images/image_i.jpg
p40
aVhttp://www.gutenberg.org/files/33016/33016-h/images/image_i1.jpg
p41
aVhttp://www.gutenberg.org/files/33016/33016-h/images/image_i2.jpg
p42
aVhttp://www.gutenberg.org/files/33016/33016-h/images/image_j.jpg
p43
aVhttp://www.gutenberg.org/files/33016/33016-h/images/image_l.jpg
p44
aVhttp://www.gutenberg.org/files/33016/33016-h/images/image_m.jpg
p45
aVhttp://www.gutenberg.org/files/33016/33016-h/images/image_n.jpg
p46
aVhttp://www.gutenberg.org/files/33016/33016-h/images/image_o.jpg
p47
aVhttp://www.gutenberg.org/files/33016/33016-h/images/image_s.jpg
p48
aVhttp://www.gutenberg.org/files/33016/33016-h/images/image_s1.jpg
p49
aVhttp://www.gutenberg.org/files/33016/33016-h/images/image_t.jpg
p50
aVhttp://www.gutenberg.org/files/33016/33016-h/images/image_t1.jpg
p51
aVhttp://www.gutenberg.org/files/33016/33016-h/images/image_v.jpg
p52
aVhttp://www.gutenberg.org/files/33016/33016-h/images/image_w.jpg
p53
aVhttp://www.gutenberg.org/files/33016/33016-h/images/image_w1.jpg
p54
aVhttp://www.gutenberg.org/files/33016/33016-h/images/image_w2.jpg
p55
aVhttp://www.gutenberg.org/files/33016/33016-h/images/image_y.jpg
p56
aVhttp://www.gutenberg.org/files/33016/33016-h/images/image_y1.jpg
p57
asS'language_code'
p58
NsS'images'
p59
(lp60
sS'id'
p61
I131
sS'category'
p62
VText
p63
sS'genres'
p64
(lp65
sS'copyright'
p66
VPublic domain in the USA.
p67
sS'title'
p68
VAstounding Stories,  August, 1931
p69
sS'wikipedia'
p70
(dp71
S'url'
p72
Vhttps://en.wikipedia.org/wiki/Science_Fiction_of_the_Thirties
p73
sS'found'
p74
I01
sS'year'
p75
I-1
ssS'published_in'
p76
NsS'average_rating'
p77
F3.0
sS'rating_count'
p78
I1
sS'content_available'
p79
I01
sS'cover_art_url'
p80
S'http://www.gutenberg.org/cache/epub/33016/pg33016.cover.medium.jpg'
p81
sS'goodreads'
p82
(dp83
g72
Vhttps://www.goodreads.com/book/show/18756000-astounding-stories-august-1931
p84
sg74
I01
sg75
I2011
ssS'similar_books'
p85
(lp86
sS'description'
p87
NsS'format'
p88
NsS'gutenberg'
p89
(dp90
g72
Vhttp://www.gutenberg.org/ebooks/33016
p91
sS'num'
p92
I33016
ssS'authors'
p93
(lp94
I17
asS'isbn13'
p95
NsS'language'
p96
VEnglish
p97
sS'release_date'
p98
S'2010-06-28T00:00:00'
p99
sS'author'
p100
I17
sS'original_title'
p101
VScience Fiction of the Thirties
p102
sS'summary'
p103
VScience Fiction of the Thirties is an anthology of science fiction short stories edited by Damon Knight. It was first published in hardcover by Bobbs-Merrill in January 1976; a book club edition was issued simultaneously by the same publisher together with the Science Fiction Book Club, and a trade paperback edition by Avon Books in March 1977.\u000aThe book collects eighteen tales by various authors originally published in the 1930s and exemplifying American magazine science fiction of that decade, together with a foreword and three essays on the period by the editor, and a bibliography. The stories were originally published in Astounding Stories and Amazing Stories, the premier science fiction magazines of the time. The book reproduces period illustrations that accompanied the stories' original appearances by H. W. Wesso, Leo Morey, Paul Orban, Howard V. Brown, Elliott Dold, Jr., Thompson, and Charles Schneeman.
p104
sS'content_cleaned'
p105
I01
sS'classes'
p106
(lp107
Vto-read
p108
aVchucked
p109
aVgutenberg
p110
aVcurrently-reading
p111
asS'loc_class'
p112
VPN: Language and Literatures: Literature: General, Criticism, Collections
p113
sS'n_authors'
p114
I1
sb.