ccopy_reg
_reconstructor
p0
(cdataset.Book
Book
p1
c__builtin__
object
p2
Ntp3
Rp4
(dp5
S'content_name'
p6
V20728.txt.utf-8
p7
sS'isbn'
p8
V0441777848
p9
sS'year'
p10
I1962
sS'author_name'
p11
VH. Beam Piper
p12
sS'images_urls'
p13
(lp14
Vhttp://www.gutenberg.org/files/20728/20728-h/images/illus-back.jpg
p15
aVhttp://www.gutenberg.org/files/20728/20728-h/images/illus-front.jpg
p16
aVhttp://www.gutenberg.org/files/20728/20728-h/images/image001.jpg
p17
aVhttp://www.gutenberg.org/files/20728/20728-h/images/image002-3.png
p18
aVhttp://www.gutenberg.org/files/20728/20728-h/images/image010-11.jpg
p19
aVhttp://www.gutenberg.org/files/20728/20728-h/images/image020-21.png
p20
aVhttp://www.gutenberg.org/files/20728/20728-h/images/image030-31.jpg
p21
aVhttp://www.gutenberg.org/files/20728/20728-h/images/image040-41.jpg
p22
aVhttp://www.gutenberg.org/files/20728/20728-h/images/image049.jpg
p23
aVhttp://www.gutenberg.org/files/20728/20728-h/images/image054.jpg
p24
aVhttp://www.gutenberg.org/files/20728/20728-h/images/image062-63.jpg
p25
aVhttp://www.gutenberg.org/files/20728/20728-h/images/image071.jpg
p26
aVhttp://www.gutenberg.org/files/20728/20728-h/images/image080.jpg
p27
aVhttp://www.gutenberg.org/files/20728/20728-h/images/image089-90.jpg
p28
aVhttp://www.gutenberg.org/files/20728/20728-h/images/image096.jpg
p29
aVhttp://www.gutenberg.org/files/20728/20728-h/images/image105.jpg
p30
aVhttp://www.gutenberg.org/files/20728/20728-h/images/image114.jpg
p31
aVhttp://www.gutenberg.org/files/20728/20728-h/images/image123.jpg
p32
aVhttp://www.gutenberg.org/files/20728/20728-h/images/image130-31.jpg
p33
aVhttp://www.gutenberg.org/files/20728/20728-h/images/image136.jpg
p34
aVhttp://www.gutenberg.org/files/20728/20728-h/images/image144.jpg
p35
aVhttp://www.gutenberg.org/files/20728/20728-h/images/image153.jpg
p36
aVhttp://www.gutenberg.org/files/20728/20728-h/images/image162.jpg
p37
aVhttp://www.gutenberg.org/files/20728/20728-h/images/image168.jpg
p38
asS'language_code'
p39
Veng
p40
sS'images'
p41
(lp42
sS'id'
p43
I68
sS'category'
p44
VText
p45
sS'plot'
p46
V
p47
sS'genres'
p48
(lp49
sS'copyright'
p50
VPublic domain in the USA.
p51
sS'title'
p52
VSpace Viking
p53
sS'wikipedia'
p54
(dp55
S'url'
p56
Vhttps://en.wikipedia.org/wiki/Space_Viking
p57
sS'found'
p58
I01
sS'year'
p59
I-1
ssS'published_in'
p60
NsS'average_rating'
p61
F3.76
sS'rating_count'
p62
I1013
sS'content_available'
p63
I01
sS'goodreads'
p64
(dp65
g56
Vhttps://www.goodreads.com/book/show/676237.Space_Viking
p66
sg58
I01
sg59
I1962
ssS'similar_books'
p67
(lp68
VSinister Barrier
p69
aVShield
p70
aVBarsoom: The Third Omnibus (Barsoom, #6-7)
p71
aVIceworld
p72
aVIn Paul Klee's Enchanted Garden
p73
aVPrivateer (The Flight Engineer, #2)
p74
aVInvid Invasion (#10)
p75
aVThe Dorsai Companion (Childe Cycle, #8)
p76
aVGolden Witchbreed
p77
aVDesign for Great-Day
p78
aVBy Any Other Name
p79
aVPandora's Legions
p80
asS'description'
p81
V<i>Vengeance is a strange human motivation -- it can drive a man to do things which he neither would nor could achieve without it... and because of that it lies behind some of the greatest sagas of human literature!</i><br /><br />After a galaxy-wide war had left the planetary federation in ruins, every surviving civilized world was on its own. And that was a perfect setup for the marauders from the far-out rim.<br /><br />Trask was one of those dreaded Space Vikings, a warrior spaceman with a crew and a ship that struck terror to a thousand worlds. But Trask had a special personal interest in scourging the stars -- he wanted to draw upon himself the fire of a certain enemy -- a renegade planet-wrecker with a yen for galactic empire building....<br /><br />This text, taken from <i>Analog</i> November 1962 through February 1963, is Piper's original novel.
p82
sS'format'
p83
VPaperback
p84
sS'gutenberg'
p85
(dp86
g56
Vhttp://www.gutenberg.org/ebooks/20728
p87
sS'num'
p88
I20728
ssS'authors'
p89
(lp90
I19
asS'pages'
p91
I243
sS'isbn13'
p92
V9780441777846
p93
sS'language'
p94
VEnglish
p95
sS'country'
p96
I2
sS'release_date'
p97
S'2007-03-03T00:00:00'
p98
sS'author'
p99
I19
sS'original_title'
p100
VSpace Viking
p101
sS'summary'
p102
VSpace Viking is a science fiction novel by American writer H. Beam Piper, set in his Terro-Human future history. It tells the story of one man's search for his wife's murderer and its unexpected consequences. The story was originally serialized in Analog magazine (November 1962 \u2013 February 1963), then published by Ace Books in 1963.
p103
sS'content_cleaned'
p104
I01
sS'classes'
p105
(lp106
Vto-read
p107
aVscience-fiction
p108
aVcurrently-reading
p109
aVsci-fi
p110
aVfiction
p111
aVsf
p112
aVscifi
p113
aVdefault
p114
aVowned
p115
aVspace-opera
p116
aVkindle
p117
aVfantasy
p118
aVscience
p119
aVfavorites
p120
aVaudiobooks
p121
aVbooks-i-own
p122
aVscifi-fantasy
p123
aVadventure
p124
aVsf-fantasy
p125
aVebook
p126
aVspeculative-fiction
p127
aVh-beam-piper
p128
aVaudio
p129
aVspace
p130
aVnovel
p131
aVpolitics
p132
aVseries
p133
aVnovels
p134
aVe-books
p135
aVgutenberg
p136
aV2013-reading-list
p137
aVe-book
p138
aVebooks
p139
aVwish-list
p140
aVmilitary-sci-fi
p141
aVi-own
p142
aVsf-classics
p143
aVfuture
p144
aVspeculative
p145
aVsci-fi-fantasy
p146
aVabandoned
p147
aVreviewed
p148
aVon-calibre-to-read
p149
aVowned-read-eventually
p150
aVto-read-ebooks
p151
aVto-read-fantasy
p152
aV00-to-read-02
p153
aVto-sort
p154
aVowned-books
p155
aVread-not-reviewed
p156
aVvikings-gods-myths
p157
aValien-sci-first-apocalypse
p158
aVsellining
p159
aVkindled
p160
aVb-library
p161
aVon-kindle
p162
aVgalaktyka-gutenberga
p163
aVtbr-challenge
p164
aVhave-but-not-read-yet
p165
aVon-my-shelf
p166
aV20th-century-lit
p167
aVfantastyka
p168
aVtbr-on-shelves
p169
aVhabitual-re-reads
p170
aVgrp-favorites
p171
aVold-stony-way
p172
aVh-beam-piper-science-fiction-a
p173
aVreturned
p174
aVaudible
p175
aVtrillion-year-spree-recs
p176
aVnovelas
p177
aVlit-anglosajona
p178
aVgenero-cf
p179
aVebook-epub
p180
aVmine
p181
aVcurrently-on-kindle
p182
aVmy-sci-fi-shelf
p183
aVscience-fiction-and-fantasy
p184
aVwell-maybe
p185
aVbest-bookrags
p186
aVsci-fi-golden-age
p187
aVto-read-fiction
p188
aVscif-fi
p189
aVdescargados
p190
aVown-audiobook
p191
aVtranslated-pl
p192
aVsf-f-horror
p193
aVowned-as-ebook
p194
aVmy-books
p195
aVsci-fi-and-fantasy
p196
aVappendix-n
p197
aV02sftr
p198
aVlistened-to
p199
aVown_physical_book
p200
aVown_ebook
p201
aVit-was-for-free
p202
aVneed-to-buy
p203
aVlibros-en-casa
p204
aVwant-to-read-sci-fi
p205
aVsocial-commentary
p206
asS'loc_class'
p207
VPS: Language and Literatures: American and Canadian literature
p208
sS'n_authors'
p209
I1
sb.