ccopy_reg
_reconstructor
p0
(cdataset.Book
Book
p1
c__builtin__
object
p2
Ntp3
Rp4
(dp5
S'content_name'
p6
V29408.txt.utf-8
p7
sS'isbn'
p8
NsS'year'
p9
I2011
sS'author_name'
p10
VHarl Vincent
p11
sS'images_urls'
p12
(lp13
Vhttp://www.gutenberg.org/files/29408/29408-h/images/image_001_01.jpg
p14
aVhttp://www.gutenberg.org/files/29408/29408-h/images/image_001_02.jpg
p15
asS'language_code'
p16
NsS'images'
p17
(lp18
sS'id'
p19
I885
sS'category'
p20
VText
p21
sS'genres'
p22
(lp23
sS'copyright'
p24
VPublic domain in the USA.
p25
sS'title'
p26
VWanderer of Infinity
p27
sS'wikipedia'
p28
(dp29
S'found'
p30
I00
ssS'average_rating'
p31
F5.0
sS'rating_count'
p32
I1
sS'content_available'
p33
I01
sS'goodreads'
p34
(dp35
S'url'
p36
Vhttps://www.goodreads.com/book/show/20459201-wanderer-of-infinity
p37
sg30
I01
sS'year'
p38
I2011
ssS'similar_books'
p39
(lp40
sS'description'
p41
NsS'format'
p42
NsS'gutenberg'
p43
(dp44
g36
Vhttp://www.gutenberg.org/ebooks/29408
p45
sS'num'
p46
I29408
ssS'authors'
p47
(lp48
I269
asS'isbn13'
p49
NsS'language'
p50
VEnglish
p51
sS'countries'
p52
(lp53
I2
asS'release_date'
p54
S'2009-07-14T00:00:00'
p55
sS'author'
p56
I269
sS'content_cleaned'
p57
I01
sS'classes'
p58
(lp59
Vcalibre
p60
aVto-read
p61
asS'loc_class'
p62
VPS: Language and Literatures: American and Canadian literature
p63
sS'n_authors'
p64
I1
sb.