ccopy_reg
_reconstructor
p0
(cdataset.Book
Book
p1
c__builtin__
object
p2
Ntp3
Rp4
(dp5
S'content_name'
p6
V18668.txt.utf-8
p7
sS'isbn'
p8
V1557429340
p9
sS'year'
p10
I1904
sS'author_name'
p11
VRobert W. Chambers
p12
sS'images_urls'
p13
(lp14
Vhttp://www.gutenberg.org/files/18668/18668-h/images/cover.jpg
p15
aVhttp://www.gutenberg.org/files/18668/18668-h/images/deco.png
p16
aVhttp://www.gutenberg.org/files/18668/18668-h/images/frontis.jpg
p17
asS'language_code'
p18
NsS'images'
p19
(lp20
sS'id'
p21
I78
sS'category'
p22
VText
p23
sS'genres'
p24
(lp25
sS'copyright'
p26
VPublic domain in the USA.
p27
sS'title'
p28
VIn Search of the Unknown
p29
sS'wikipedia'
p30
(dp31
S'found'
p32
I00
ssS'average_rating'
p33
F3.59
sS'rating_count'
p34
I34
sS'content_available'
p35
I01
sS'cover_art_url'
p36
S'http://www.gutenberg.org/cache/epub/18668/pg18668.cover.medium.jpg'
p37
sS'goodreads'
p38
(dp39
S'url'
p40
Vhttps://www.goodreads.com/book/show/774802.In_Search_of_the_Unknown
p41
sg32
I01
sS'year'
p42
I1904
ssS'similar_books'
p43
(lp44
sS'description'
p45
VYou and I were early drawn together by a common love of nature.
p46
sS'gutenberg'
p47
(dp48
g40
Vhttp://www.gutenberg.org/ebooks/18668
p49
sS'num'
p50
I18668
ssS'authors'
p51
(lp52
I31
asS'isbn13'
p53
V9781557429346
p54
sS'language'
p55
VEnglish
p56
sS'countries'
p57
(lp58
I2
asS'release_date'
p59
S'2006-06-23T00:00:00'
p60
sS'author'
p61
I31
sS'cover'
p62
Vhttps://images.gr-assets.com/books/1379971707l/774802.jpg
p63
sS'content_cleaned'
p64
I01
sS'classes'
p65
(lp66
Vto-read
p67
aVcurrently-reading
p68
aVfantasy
p69
aVhorror
p70
aVsci-fi
p71
aVfantasy-science-fiction
p72
aVmythos
p73
aVjunk
p74
aVscience-fiction
p75
aV20th-century-lit
p76
aVmystery
p77
aVfiction
p78
aVhorror-to-read
p79
aVscifi
p80
aVclassic-horror
p81
aVrobert-william-chambers
p82
aVsuspense-thriller
p83
aVhorror-mystery
p84
aVclassics
p85
aVamerica
p86
aVe-books
p87
aVnovels
p88
aVhorror-gothic
p89
aVstrange-books
p90
aVle-fantastique-a-m
p91
aVread-in-2014
p92
aVfeedbooks-com
p93
aVsff
p94
aVpublic-domain
p95
aVshort-stories
p96
aVcryptid-horror
p97
aVowned
p98
aVthrillers
p99
aVorange
p100
aVdark
p101
aVmyth-fantasy
p102
aVown-ebook
p103
aVhumor
p104
aVamerican
p105
aVhorror-and-supernatural
p106
aVoccult-fantastic-fiction-1800-1950
p107
aVnorth-america
p108
aVfree-e-books
p109
aVover-flow-may-never-read
p110
aVhumour
p111
asS'loc_class'
p112
VPS: Language and Literatures: American and Canadian literature
p113
sS'n_authors'
p114
I1
sb.