ccopy_reg
_reconstructor
p0
(cdataset.Book
Book
p1
c__builtin__
object
p2
Ntp3
Rp4
(dp5
S'content_name'
p6
V23669.txt.utf-8
p7
sS'isbn'
p8
NsS'year'
p9
I1960
sS'author_name'
p10
VMack Reynolds
p11
sS'images_urls'
p12
(lp13
Vhttp://www.gutenberg.org/files/23669/23669-h/images/image1.png
p14
aVhttp://www.gutenberg.org/files/23669/23699-page-images/p033-image.png
p15
aVhttp://www.gutenberg.org/files/23669/23699-page-images/p033.png
p16
aVhttp://www.gutenberg.org/files/23669/23699-page-images/p034.png
p17
aVhttp://www.gutenberg.org/files/23669/23699-page-images/p035.png
p18
aVhttp://www.gutenberg.org/files/23669/23699-page-images/p036.png
p19
aVhttp://www.gutenberg.org/files/23669/23699-page-images/p037.png
p20
asS'language_code'
p21
NsS'id'
p22
I904
sS'category'
p23
VText
p24
sS'genres'
p25
(lp26
sS'copyright'
p27
VPublic domain in the USA.
p28
sS'title'
p29
VSummit
p30
sS'wikipedia'
p31
(dp32
S'found'
p33
I00
ssS'average_rating'
p34
F3.95
sS'rating_count'
p35
I10
sS'content_available'
p36
I01
sS'goodreads'
p37
(dp38
S'url'
p39
S'https://www.goodreads.com/book/show/5973081-summit'
p40
sS'found'
p41
I01
ssS'similar_books'
p42
(lp43
sS'description'
p44
NsS'gutenberg'
p45
(dp46
S'url'
p47
Vhttp://www.gutenberg.org/ebooks/23669
p48
sS'num'
p49
I23669
ssS'authors'
p50
(lp51
I69
asS'isbn13'
p52
NsS'language'
p53
VEnglish
p54
sS'countries'
p55
(lp56
I2
asS'release_date'
p57
S'2007-12-01T00:00:00'
p58
sS'author'
p59
I69
sS'content_cleaned'
p60
I00
sS'classes'
p61
(lp62
Vto-read
p63
aVsci-fi
p64
aVkindle
p65
aVamazon-ebooks
p66
aVshort-story
p67
aVaudio-obtained-lvss
p68
aVunknown-genre
p69
aVfeedbooks-com
p70
aVfiction
p71
aVclassic-lit
p72
aVcollected-classics
p73
aVtype-short-story
p74
aVaudio-obtained-ss
p75
aVaudio-books
p76
asS'loc_class'
p77
VPS: Language and Literatures: American and Canadian literature
p78
sS'n_authors'
p79
I1
sb.