ccopy_reg
_reconstructor
p0
(cdataset.Book
Book
p1
c__builtin__
object
p2
Ntp3
Rp4
(dp5
S'similar_books'
p6
(lp7
sS'genres'
p8
(lp9
sS'author'
p10
I302
sS'countries'
p11
(lp12
I2
asS'year'
p13
I1977
sS'title'
p14
VGalaxy Magazine March 1977
p15
sS'cover'
p16
Vhttps://ia600209.us.archive.org/BookReader/BookReaderImages.php?zip=/5/items/Galaxy_v38n01_1977-03/Galaxy_v38n01_1977-03_jp2.zip&file=Galaxy_v38n01_1977-03_jp2/Galaxy_v38n01_1977-03_0000.jp2&scale=0&rotate=0
p17
sS'cover_art'
p18
S'http://www.isfdb.org/wiki/images/a/ab/GALMAR77.jpg'
p19
sS'author_name'
p20
VGalaxy Magazine
p21
sS'images_urls'
p22
(lp23
sS'authors'
p24
(lp25
I780
aI326
aI499
aI806
aI742
aI579
aI734
aI767
aI789
aI761
aI40
aI696
aI770
aI302
asS'images'
p26
(lp27
sS'id'
p28
I1198
sS'contents'
p29
(lp30
(dp31
S'title'
p32
VShowcase (Galaxy, March 1977)
p33
sS'author'
p34
I780
sa(dp35
g32
VThey Who Go Down to the Sea
p36
sg34
I326
sa(dp37
g32
VThey Who Go Down to the Sea [2]
p38
sg34
I326
sa(dp39
g32
VInterstellar Probes and Starships
p40
sg34
I326
sa(dp41
g32
VThe Tides of Time
p42
sg34
I499
sa(dp43
g32
VThe Tides of Time [2]
p44
sg34
I499
sa(dp45
g32
VGateway (Part 3 of 3)
p46
sg34
I806
sa(dp47
g32
VGateway (Part 3 of 3) [2]
p48
sg34
I806
sa(dp49
g32
VGateway (Part 3 of 3) [3]
p50
sg34
I806
sa(dp51
g32
VThe Wallad Blonde
p52
sg34
I742
sa(dp53
g32
VThe Wallad Blonde [2]
p54
sg34
I742
sa(dp55
g32
VNo Renewal
p56
sg34
I742
sa(dp57
g32
VS. F. Calendar (Galaxy, March 1977)
p58
sg34
I326
sa(dp59
g32
VInterstellar Probes and Starships
p60
sg34
I579
sa(dp61
g32
VPromises and a Potpourri
p62
sg34
I734
sa(dp63
g32
VThe Alien Viewpoint (Galaxy, March 1977)
p64
sg34
I767
sa(dp65
g32
VDirections (Galaxy, March 1977)
p66
sg34
I326
sa(dp67
g32
VThey Who Go Down to the Sea
p68
sg34
I789
sa(dp69
g32
VThe Wallad Blonde
p70
sg34
I761
sa(dp71
g32
VGateway (Part 3 of 3)
p72
sg34
I40
sa(dp73
g32
VThe Tides of Time
p74
sg34
I696
sa(dp75
g32
VNo Renewal
p76
sg34
I770
sasb.