ccopy_reg
_reconstructor
p0
(cdataset.Book
Book
p1
c__builtin__
object
p2
Ntp3
Rp4
(dp5
S'content_name'
p6
V29976.txt.utf-8
p7
sS'isbn'
p8
NsS'year'
p9
I1953
sS'author_name'
p10
VRussell Burton
p11
sS'images_urls'
p12
(lp13
Vhttp://www.gutenberg.org/files/29976/29976-h/images/001.png
p14
aVhttp://www.gutenberg.org/files/29976/29976-h/images/002-1.jpg
p15
aVhttp://www.gutenberg.org/files/29976/29976-h/images/002-2.jpg
p16
asS'language_code'
p17
NsS'images'
p18
(lp19
sS'id'
p20
I895
sS'category'
p21
VText
p22
sS'genres'
p23
(lp24
sS'copyright'
p25
VPublic domain in the USA.
p26
sS'title'
p27
VWeak on Square Roots
p28
sS'wikipedia'
p29
(dp30
S'found'
p31
I00
ssS'average_rating'
p32
F2.88
sS'rating_count'
p33
I5
sS'content_available'
p34
I01
sS'goodreads'
p35
(dp36
S'url'
p37
Vhttps://www.goodreads.com/book/show/12145453-weak-on-square-roots
p38
sg31
I01
sS'year'
p39
I2010
ssS'similar_books'
p40
(lp41
sS'description'
p42
NsS'gutenberg'
p43
(dp44
g37
Vhttp://www.gutenberg.org/ebooks/29976
p45
sS'num'
p46
I29976
ssS'authors'
p47
(lp48
I273
asS'isbn13'
p49
V2940012115683
p50
sS'language'
p51
VEnglish
p52
sS'countries'
p53
(lp54
I3
asS'release_date'
p55
S'2009-09-13T00:00:00'
p56
sS'author'
p57
I273
sS'cover'
p58
Vhttps://s.gr-assets.com/assets/nophoto/book/111x148-bcc042a9c91a29c1d680899eff700a03.png
p59
sS'content_cleaned'
p60
I01
sS'classes'
p61
(lp62
Vscience-fiction
p63
aVto-read
p64
aVfiction
p65
aVshort-story
p66
aVaudio-obtained-lvss
p67
aVtype-short-story
p68
aVaudio-obtained-ss
p69
asS'loc_class'
p70
VPS: Language and Literatures: American and Canadian literature
p71
sS'n_authors'
p72
I1
sb.