ccopy_reg
_reconstructor
p0
(cdataset.Book
Book
p1
c__builtin__
object
p2
Ntp3
Rp4
(dp5
S'content_name'
p6
V20988.txt.utf-8
p7
sS'isbn'
p8
V0441131433
p9
sS'year'
p10
I1956
sS'author_name'
p11
VJr. John W. Campbell
p12
sS'images_urls'
p13
(lp14
Vhttp://www.gutenberg.org/files/20988/20988-h/images/001.png
p15
aVhttp://www.gutenberg.org/files/20988/20988-h/images/cover.png
p16
aVhttp://www.gutenberg.org/files/20988/20988-page-images/c001.jpg
p17
aVhttp://www.gutenberg.org/files/20988/20988-page-images/c002.png
p18
aVhttp://www.gutenberg.org/files/20988/20988-page-images/c003.png
p19
aVhttp://www.gutenberg.org/files/20988/20988-page-images/f003.png
p20
aVhttp://www.gutenberg.org/files/20988/20988-page-images/f004.png
p21
aVhttp://www.gutenberg.org/files/20988/20988-page-images/f005.png
p22
aVhttp://www.gutenberg.org/files/20988/20988-page-images/f006.png
p23
aVhttp://www.gutenberg.org/files/20988/20988-page-images/p007.png
p24
aVhttp://www.gutenberg.org/files/20988/20988-page-images/p008.png
p25
aVhttp://www.gutenberg.org/files/20988/20988-page-images/p009.png
p26
aVhttp://www.gutenberg.org/files/20988/20988-page-images/p010.png
p27
aVhttp://www.gutenberg.org/files/20988/20988-page-images/p011.png
p28
aVhttp://www.gutenberg.org/files/20988/20988-page-images/p012.png
p29
aVhttp://www.gutenberg.org/files/20988/20988-page-images/p013.png
p30
aVhttp://www.gutenberg.org/files/20988/20988-page-images/p014.png
p31
aVhttp://www.gutenberg.org/files/20988/20988-page-images/p015.png
p32
aVhttp://www.gutenberg.org/files/20988/20988-page-images/p016.png
p33
aVhttp://www.gutenberg.org/files/20988/20988-page-images/p017.png
p34
aVhttp://www.gutenberg.org/files/20988/20988-page-images/p018.png
p35
aVhttp://www.gutenberg.org/files/20988/20988-page-images/p019.png
p36
aVhttp://www.gutenberg.org/files/20988/20988-page-images/p020.png
p37
aVhttp://www.gutenberg.org/files/20988/20988-page-images/p021.png
p38
aVhttp://www.gutenberg.org/files/20988/20988-page-images/p022.png
p39
aVhttp://www.gutenberg.org/files/20988/20988-page-images/p023.png
p40
aVhttp://www.gutenberg.org/files/20988/20988-page-images/p024.png
p41
aVhttp://www.gutenberg.org/files/20988/20988-page-images/p025.png
p42
aVhttp://www.gutenberg.org/files/20988/20988-page-images/p026.png
p43
aVhttp://www.gutenberg.org/files/20988/20988-page-images/p027.png
p44
aVhttp://www.gutenberg.org/files/20988/20988-page-images/p028.png
p45
aVhttp://www.gutenberg.org/files/20988/20988-page-images/p029.png
p46
aVhttp://www.gutenberg.org/files/20988/20988-page-images/p030.png
p47
aVhttp://www.gutenberg.org/files/20988/20988-page-images/p031.png
p48
aVhttp://www.gutenberg.org/files/20988/20988-page-images/p032.png
p49
aVhttp://www.gutenberg.org/files/20988/20988-page-images/p033.png
p50
aVhttp://www.gutenberg.org/files/20988/20988-page-images/p034.png
p51
aVhttp://www.gutenberg.org/files/20988/20988-page-images/p035.png
p52
aVhttp://www.gutenberg.org/files/20988/20988-page-images/p036.png
p53
aVhttp://www.gutenberg.org/files/20988/20988-page-images/p037.png
p54
aVhttp://www.gutenberg.org/files/20988/20988-page-images/p038.png
p55
aVhttp://www.gutenberg.org/files/20988/20988-page-images/p039.png
p56
aVhttp://www.gutenberg.org/files/20988/20988-page-images/p040.png
p57
aVhttp://www.gutenberg.org/files/20988/20988-page-images/p041.png
p58
aVhttp://www.gutenberg.org/files/20988/20988-page-images/p042.png
p59
aVhttp://www.gutenberg.org/files/20988/20988-page-images/p043.png
p60
aVhttp://www.gutenberg.org/files/20988/20988-page-images/p044.png
p61
aVhttp://www.gutenberg.org/files/20988/20988-page-images/p045.png
p62
aVhttp://www.gutenberg.org/files/20988/20988-page-images/p046.png
p63
aVhttp://www.gutenberg.org/files/20988/20988-page-images/p047.png
p64
aVhttp://www.gutenberg.org/files/20988/20988-page-images/p048.png
p65
aVhttp://www.gutenberg.org/files/20988/20988-page-images/p049.png
p66
aVhttp://www.gutenberg.org/files/20988/20988-page-images/p050.png
p67
aVhttp://www.gutenberg.org/files/20988/20988-page-images/p051.png
p68
aVhttp://www.gutenberg.org/files/20988/20988-page-images/p052.png
p69
aVhttp://www.gutenberg.org/files/20988/20988-page-images/p053.png
p70
aVhttp://www.gutenberg.org/files/20988/20988-page-images/p054.png
p71
aVhttp://www.gutenberg.org/files/20988/20988-page-images/p055.png
p72
aVhttp://www.gutenberg.org/files/20988/20988-page-images/p056.png
p73
aVhttp://www.gutenberg.org/files/20988/20988-page-images/p057.png
p74
aVhttp://www.gutenberg.org/files/20988/20988-page-images/p058.png
p75
aVhttp://www.gutenberg.org/files/20988/20988-page-images/p059.png
p76
aVhttp://www.gutenberg.org/files/20988/20988-page-images/p060.png
p77
aVhttp://www.gutenberg.org/files/20988/20988-page-images/p061.png
p78
aVhttp://www.gutenberg.org/files/20988/20988-page-images/p062.png
p79
aVhttp://www.gutenberg.org/files/20988/20988-page-images/p063.png
p80
aVhttp://www.gutenberg.org/files/20988/20988-page-images/p064.png
p81
aVhttp://www.gutenberg.org/files/20988/20988-page-images/p065.png
p82
aVhttp://www.gutenberg.org/files/20988/20988-page-images/p066.png
p83
aVhttp://www.gutenberg.org/files/20988/20988-page-images/p067.png
p84
aVhttp://www.gutenberg.org/files/20988/20988-page-images/p068.png
p85
aVhttp://www.gutenberg.org/files/20988/20988-page-images/p069.png
p86
aVhttp://www.gutenberg.org/files/20988/20988-page-images/p070.png
p87
aVhttp://www.gutenberg.org/files/20988/20988-page-images/p071.png
p88
aVhttp://www.gutenberg.org/files/20988/20988-page-images/p072.png
p89
aVhttp://www.gutenberg.org/files/20988/20988-page-images/p073.png
p90
aVhttp://www.gutenberg.org/files/20988/20988-page-images/p074.png
p91
aVhttp://www.gutenberg.org/files/20988/20988-page-images/p075.png
p92
aVhttp://www.gutenberg.org/files/20988/20988-page-images/p076.png
p93
aVhttp://www.gutenberg.org/files/20988/20988-page-images/p077.png
p94
aVhttp://www.gutenberg.org/files/20988/20988-page-images/p078.png
p95
aVhttp://www.gutenberg.org/files/20988/20988-page-images/p079.png
p96
aVhttp://www.gutenberg.org/files/20988/20988-page-images/p080.png
p97
aVhttp://www.gutenberg.org/files/20988/20988-page-images/p081.png
p98
aVhttp://www.gutenberg.org/files/20988/20988-page-images/p082.png
p99
aVhttp://www.gutenberg.org/files/20988/20988-page-images/p083.png
p100
aVhttp://www.gutenberg.org/files/20988/20988-page-images/p084.png
p101
aVhttp://www.gutenberg.org/files/20988/20988-page-images/p085.png
p102
aVhttp://www.gutenberg.org/files/20988/20988-page-images/p086.png
p103
aVhttp://www.gutenberg.org/files/20988/20988-page-images/p087.png
p104
aVhttp://www.gutenberg.org/files/20988/20988-page-images/p088.png
p105
aVhttp://www.gutenberg.org/files/20988/20988-page-images/p089.png
p106
aVhttp://www.gutenberg.org/files/20988/20988-page-images/p090.png
p107
aVhttp://www.gutenberg.org/files/20988/20988-page-images/p091.png
p108
aVhttp://www.gutenberg.org/files/20988/20988-page-images/p092.png
p109
aVhttp://www.gutenberg.org/files/20988/20988-page-images/p093.png
p110
aVhttp://www.gutenberg.org/files/20988/20988-page-images/p094.png
p111
aVhttp://www.gutenberg.org/files/20988/20988-page-images/p095.png
p112
aVhttp://www.gutenberg.org/files/20988/20988-page-images/p096.png
p113
aVhttp://www.gutenberg.org/files/20988/20988-page-images/p097.png
p114
aVhttp://www.gutenberg.org/files/20988/20988-page-images/p098.png
p115
aVhttp://www.gutenberg.org/files/20988/20988-page-images/p099.png
p116
aVhttp://www.gutenberg.org/files/20988/20988-page-images/p100.png
p117
aVhttp://www.gutenberg.org/files/20988/20988-page-images/p101.png
p118
aVhttp://www.gutenberg.org/files/20988/20988-page-images/p102.png
p119
aVhttp://www.gutenberg.org/files/20988/20988-page-images/p103.png
p120
aVhttp://www.gutenberg.org/files/20988/20988-page-images/p104.png
p121
aVhttp://www.gutenberg.org/files/20988/20988-page-images/p105.png
p122
aVhttp://www.gutenberg.org/files/20988/20988-page-images/p106.png
p123
aVhttp://www.gutenberg.org/files/20988/20988-page-images/p107.png
p124
aVhttp://www.gutenberg.org/files/20988/20988-page-images/p108.png
p125
aVhttp://www.gutenberg.org/files/20988/20988-page-images/p109.png
p126
aVhttp://www.gutenberg.org/files/20988/20988-page-images/p110.png
p127
aVhttp://www.gutenberg.org/files/20988/20988-page-images/p111.png
p128
aVhttp://www.gutenberg.org/files/20988/20988-page-images/p112.png
p129
aVhttp://www.gutenberg.org/files/20988/20988-page-images/p113.png
p130
aVhttp://www.gutenberg.org/files/20988/20988-page-images/p114.png
p131
aVhttp://www.gutenberg.org/files/20988/20988-page-images/p115.png
p132
aVhttp://www.gutenberg.org/files/20988/20988-page-images/p116.png
p133
aVhttp://www.gutenberg.org/files/20988/20988-page-images/p117.png
p134
aVhttp://www.gutenberg.org/files/20988/20988-page-images/p118.png
p135
aVhttp://www.gutenberg.org/files/20988/20988-page-images/p119.png
p136
aVhttp://www.gutenberg.org/files/20988/20988-page-images/p120.png
p137
aVhttp://www.gutenberg.org/files/20988/20988-page-images/p121.png
p138
aVhttp://www.gutenberg.org/files/20988/20988-page-images/p122.png
p139
aVhttp://www.gutenberg.org/files/20988/20988-page-images/p123.png
p140
aVhttp://www.gutenberg.org/files/20988/20988-page-images/p124.png
p141
aVhttp://www.gutenberg.org/files/20988/20988-page-images/p125.png
p142
aVhttp://www.gutenberg.org/files/20988/20988-page-images/p126.png
p143
aVhttp://www.gutenberg.org/files/20988/20988-page-images/p127.png
p144
aVhttp://www.gutenberg.org/files/20988/20988-page-images/p128.png
p145
aVhttp://www.gutenberg.org/files/20988/20988-page-images/p129.png
p146
aVhttp://www.gutenberg.org/files/20988/20988-page-images/p130.png
p147
aVhttp://www.gutenberg.org/files/20988/20988-page-images/p131.png
p148
aVhttp://www.gutenberg.org/files/20988/20988-page-images/p132.png
p149
aVhttp://www.gutenberg.org/files/20988/20988-page-images/p133.png
p150
aVhttp://www.gutenberg.org/files/20988/20988-page-images/p134.png
p151
aVhttp://www.gutenberg.org/files/20988/20988-page-images/p135.png
p152
aVhttp://www.gutenberg.org/files/20988/20988-page-images/p136.png
p153
aVhttp://www.gutenberg.org/files/20988/20988-page-images/p137.png
p154
aVhttp://www.gutenberg.org/files/20988/20988-page-images/p138.png
p155
aVhttp://www.gutenberg.org/files/20988/20988-page-images/p139.png
p156
aVhttp://www.gutenberg.org/files/20988/20988-page-images/p140.png
p157
aVhttp://www.gutenberg.org/files/20988/20988-page-images/p141.png
p158
aVhttp://www.gutenberg.org/files/20988/20988-page-images/p142.png
p159
aVhttp://www.gutenberg.org/files/20988/20988-page-images/p143.png
p160
aVhttp://www.gutenberg.org/files/20988/20988-page-images/p144.png
p161
aVhttp://www.gutenberg.org/files/20988/20988-page-images/p145.png
p162
aVhttp://www.gutenberg.org/files/20988/20988-page-images/p146.png
p163
aVhttp://www.gutenberg.org/files/20988/20988-page-images/p147.png
p164
aVhttp://www.gutenberg.org/files/20988/20988-page-images/p148.png
p165
aVhttp://www.gutenberg.org/files/20988/20988-page-images/p149.png
p166
aVhttp://www.gutenberg.org/files/20988/20988-page-images/p150.png
p167
aVhttp://www.gutenberg.org/files/20988/20988-page-images/p151.png
p168
aVhttp://www.gutenberg.org/files/20988/20988-page-images/p152.png
p169
aVhttp://www.gutenberg.org/files/20988/20988-page-images/p153.png
p170
aVhttp://www.gutenberg.org/files/20988/20988-page-images/p154.png
p171
aVhttp://www.gutenberg.org/files/20988/20988-page-images/p155.png
p172
aVhttp://www.gutenberg.org/files/20988/20988-page-images/p156.png
p173
aVhttp://www.gutenberg.org/files/20988/20988-page-images/p157.png
p174
aVhttp://www.gutenberg.org/files/20988/20988-page-images/p158.png
p175
aVhttp://www.gutenberg.org/files/20988/20988-page-images/p159.png
p176
aVhttp://www.gutenberg.org/files/20988/20988-page-images/p160.png
p177
aVhttp://www.gutenberg.org/files/20988/20988-page-images/p161.png
p178
aVhttp://www.gutenberg.org/files/20988/20988-page-images/p162.png
p179
aVhttp://www.gutenberg.org/files/20988/20988-page-images/p163.png
p180
aVhttp://www.gutenberg.org/files/20988/20988-page-images/p164.png
p181
aVhttp://www.gutenberg.org/files/20988/20988-page-images/p165.png
p182
aVhttp://www.gutenberg.org/files/20988/20988-page-images/p166.png
p183
aVhttp://www.gutenberg.org/files/20988/20988-page-images/p167.png
p184
aVhttp://www.gutenberg.org/files/20988/20988-page-images/p168.png
p185
aVhttp://www.gutenberg.org/files/20988/20988-page-images/p169.png
p186
aVhttp://www.gutenberg.org/files/20988/20988-page-images/p170.png
p187
aVhttp://www.gutenberg.org/files/20988/20988-page-images/p171.png
p188
aVhttp://www.gutenberg.org/files/20988/20988-page-images/p172.png
p189
aVhttp://www.gutenberg.org/files/20988/20988-page-images/p173.png
p190
aVhttp://www.gutenberg.org/files/20988/20988-page-images/p174.png
p191
aVhttp://www.gutenberg.org/files/20988/20988-page-images/p175.png
p192
aVhttp://www.gutenberg.org/files/20988/20988-page-images/p176.png
p193
aVhttp://www.gutenberg.org/files/20988/20988-page-images/p177.png
p194
aVhttp://www.gutenberg.org/files/20988/20988-page-images/p178.png
p195
aVhttp://www.gutenberg.org/files/20988/20988-page-images/p179.png
p196
aVhttp://www.gutenberg.org/files/20988/20988-page-images/p180.png
p197
aVhttp://www.gutenberg.org/files/20988/20988-page-images/p181.png
p198
aVhttp://www.gutenberg.org/files/20988/20988-page-images/p182.png
p199
aVhttp://www.gutenberg.org/files/20988/20988-page-images/p183.png
p200
aVhttp://www.gutenberg.org/files/20988/20988-page-images/p184.png
p201
aVhttp://www.gutenberg.org/files/20988/20988-page-images/p185.png
p202
aVhttp://www.gutenberg.org/files/20988/20988-page-images/p186.png
p203
aVhttp://www.gutenberg.org/files/20988/20988-page-images/p187.png
p204
aVhttp://www.gutenberg.org/files/20988/20988-page-images/p188.png
p205
aVhttp://www.gutenberg.org/files/20988/20988-page-images/p189.png
p206
aVhttp://www.gutenberg.org/files/20988/20988-page-images/p190.png
p207
aVhttp://www.gutenberg.org/files/20988/20988-page-images/p191.png
p208
aVhttp://www.gutenberg.org/files/20988/20988-page-images/p192.png
p209
aVhttp://www.gutenberg.org/files/20988/20988-page-images/p193.png
p210
asS'language_code'
p211
Veng
p212
sS'images'
p213
(lp214
sS'id'
p215
I132
sS'category'
p216
VText
p217
sS'genres'
p218
(lp219
sS'copyright'
p220
VPublic domain in the USA.
p221
sS'title'
p222
VIslands of Space
p223
sS'wikipedia'
p224
(dp225
S'url'
p226
Vhttps://en.wikipedia.org/wiki/Islands_of_Space
p227
sS'found'
p228
I01
sS'year'
p229
I-1
ssS'published_in'
p230
NsS'average_rating'
p231
F3.64
sS'rating_count'
p232
I74
sS'content_available'
p233
I01
sS'cover_art_url'
p234
S'http://www.gutenberg.org/cache/epub/20988/pg20988.cover.medium.jpg'
p235
sS'goodreads'
p236
(dp237
g226
Vhttps://www.goodreads.com/book/show/525003.Islands_of_Space
p238
sg228
I01
sg229
I1956
ssS'similar_books'
p239
(lp240
sS'description'
p241
V'John Campbell\u2019s book was written as a sequel to \u2018The Black Star Passes\u2026 and believe me, it was a world-beater in those days.<br /><br />\u2018Arcot, Wade, Morey and their computer, Fuller, put together a ship which will travel faster than light\u2026 they give us what may have been the first space-warp drive. The concept was simple; to make it plausible wasn\u2019t \u2013 unless you were John Campbell.<br /><br />\u2018With this out-of-space drive they hightail it among the stars. They locate the fugitive planets of the Black Star\u2026 find a frozen cemetery-world of a lost race\u2026 then head out for another galaxy\u2026 and wind up in a knock-down-drag-out interplanetary war in the other galaxy.\u2019<br />-<i>P. Schuyler Miller, Astounding Science Fiction</i>
p242
sS'format'
p243
VMass Market Paperback
p244
sS'gutenberg'
p245
(dp246
g226
Vhttp://www.gutenberg.org/ebooks/20988
p247
sS'num'
p248
I20988
ssS'authors'
p249
(lp250
I41
asS'pages'
p251
I191
sS'isbn13'
p252
V9780441131433
p253
sS'language'
p254
VEnglish
p255
sS'countries'
p256
(lp257
I2
asS'release_date'
p258
S'2007-04-05T00:00:00'
p259
sS'author'
p260
I41
sS'original_title'
p261
VIslands of Space
p262
sS'summary'
p263
VIslands of Space is a science fiction novel by American writer John W. Campbell, Jr.. It was first published in book form in 1957 by Fantasy Press in an edition of 1,417 copies. The novel originally appeared in the magazine Amazing Stories Quarterly; the text was "extensively edited" for book publication, with Campbell's approval, by Lloyd Arthur Eshbach. A paperback edition was published by Ace Books in 1966. In 1973, Islands was included in a Doubleday omnibus of all three "Arcot, Wade, and Morey" novels. A German translation appeared in 1967 as Kosmische Kreuzfahrt, and an Italian translation was published in 1976 as Isole nello spazio.\u000aIslands of Space is generally credited with introducing the concepts of hyperspace and the warp drive to science fiction.\u000a\u000a
p264
sS'content_cleaned'
p265
I01
sS'classes'
p266
(lp267
Vto-read
p268
aVscience-fiction
p269
aVsci-fi
p270
aVkindle
p271
aVcurrently-reading
p272
aVscifi
p273
aVdefault
p274
aVowned
p275
aVjohn-w-campbell
p276
aVebook
p277
aVsf
p278
aVclassic-sci-fi
p279
aVnot-read
p280
aVfiction
p281
aVsci-fi-or-speculative
p282
aVa-to-read-ebook
p283
aVone-of-each-author
p284
aVhard-sf
p285
aVon-calibre-to-read
p286
aVhorror
p287
aV20th-century-lit
p288
aVseries
p289
aVshort-stories
p290
aVmine
p291
aVreading-all-my-books-project
p292
aVaudiobooks
p293
aVscifi-golden-age-2-1947-1959
p294
aVpulp-fiction
p295
aVold-skool
p296
aVowned-pending-kindle-free-ebook
p297
aVkindle-free-ebook
p298
aVz_fiction
p299
aVx_novel
p300
aVwo_scifi
p301
aVw_us_unitary
p302
aVwanted
p303
aVsci-fi-books
p304
aVnovels
p305
aVe-books
p306
aVi-own-it
p307
aVin-pc-ita
p308
aVfeedbooks-com
p309
aVspace-opera
p310
aVsexism
p311
aVmm-paperback
p312
aVall-paper
p313
aVown-ebook
p314
aVpublic-domain-science-fiction
p315
aVkindle-books
p316
aVbefore-the-golden-age
p317
aVclassic-lit
p318
aVcollected-classics
p319
aVbooks-on-kindle
p320
aVscience
p321
aVpaperback
p322
asS'loc_class'
p323
VPS: Language and Literatures: American and Canadian literature
p324
sS'n_authors'
p325
I1
sb.