ccopy_reg
_reconstructor
p0
(cdataset.Book
Book
p1
c__builtin__
object
p2
Ntp3
Rp4
(dp5
S'similar_books'
p6
(lp7
sS'genres'
p8
(lp9
sS'author'
p10
I918
sS'countries'
p11
(lp12
I2
asS'year'
p13
I1973
sS'title'
p14
VIF Magazine July 1973
p15
sS'cover'
p16
Vhttps://ia600202.us.archive.org/BookReader/BookReaderImages.php?zip=/7/items/1973-08_IF/1973-08_IF_jp2.zip&file=1973-08_IF_jp2/1973-08_IF_0000.jp2&scale=0&rotate=0
p17
sS'cover_art'
p18
S'http://www.isfdb.org/wiki/images/3/32/WOFIFJULAUG1973.jpg'
p19
sS'author_name'
p20
VIF Magazine
p21
sS'images_urls'
p22
(lp23
sS'authors'
p24
(lp25
I326
aI499
aI667
aI356
aI1228
aI478
aI56
aI695
aI1219
aI711
aI918
asS'images'
p26
(lp27
sS'id'
p28
I1384
sS'contents'
p29
(lp30
(dp31
g10
I326
sg14
VPearsall's Return
p32
sa(dp33
g10
I326
sg14
VThe Invaders
p34
sa(dp35
g10
I499
sg14
VThe Meaning of the Word
p36
sa(dp37
g10
I499
sg14
VSupport Your Local Police
p38
sa(dp39
g10
I326
sg14
VWestwind
p40
sa(dp41
g10
I326
sg14
VOur Children's Children (Part 2 of 2)
p42
sa(dp43
g10
I667
sg14
VHue and Cry (If, July-August 1973)
p44
sa(dp45
g10
I326
sg14
VSf Calendar (If, July-August 1973)
p46
sa(dp47
g10
I356
sg14
VReading Room (If, July-August 1973)
p48
sa(dp49
g10
I1228
sg14
VPearsall's Return
p50
sa(dp51
g10
I478
sg14
VThe Invaders
p52
sa(dp53
g10
I56
sg14
VOur Children's Children (Part 2 of 2)
p54
sa(dp55
g10
I695
sg14
VThe Meaning of the Word
p56
sa(dp57
g10
I1219
sg14
VSupport Your Local Police
p58
sa(dp59
g10
I711
sg14
VWestwind
p60
sasb.