ccopy_reg
_reconstructor
p0
(cdataset.Book
Book
p1
c__builtin__
object
p2
Ntp3
Rp4
(dp5
S'similar_books'
p6
(lp7
sS'genres'
p8
(lp9
sS'author'
p10
I302
sS'countries'
p11
(lp12
I2
asS'year'
p13
I1970
sS'title'
p14
VGalaxy Magazine June 1970
p15
sS'cover'
p16
Vhttps://ia601309.us.archive.org/BookReader/BookReaderImages.php?zip=/28/items/Galaxy_v30n03_1970-06/Galaxy_v30n03_1970-06_jp2.zip&file=Galaxy_v30n03_1970-06_jp2/Galaxy_v30n03_1970-06_0000.jp2&scale=0&rotate=0
p17
sS'cover_art'
p18
S'http://www.isfdb.org/wiki/images/5/54/GALJUN70.jpg'
p19
sS'author_name'
p20
VGalaxy Magazine
p21
sS'images_urls'
p22
(lp23
sS'authors'
p24
(lp25
I499
aI326
aI677
aI667
aI91
aI50
aI678
aI546
aI602
aI679
aI680
aI302
asS'images'
p26
(lp27
sS'id'
p28
I1142
sS'contents'
p29
(lp30
(dp31
S'title'
p32
VThe Player at Yellow Silence
p33
sS'author'
p34
I499
sa(dp35
g32
VThe Player at Yellow Silence [2]
p36
sg34
I499
sa(dp37
g32
VOut of Mindshot
p38
sg34
I326
sa(dp39
g32
VShip Me Tomorrow
p40
sg34
I499
sa(dp41
g32
VOil-Mad Bug-Eyed Monsters
p42
sg34
I326
sa(dp43
g32
VThe Moon of Thin Reality
p44
sg34
I326
sa(dp45
g32
VThe Tower of Glass (Part 3 of 3)
p46
sg34
I499
sa(dp47
g32
VChildren's Crusade
p48
sg34
I326
sa(dp49
g32
VThe Tower of Glass (Part 3 of 3) [2]
p50
sg34
I499
sa(dp51
g32
VThe Tower of Glass (Part 3 of 3) [3]
p52
sg34
I499
sa(dp53
g32
VThe Tower of Glass (Part 3 of 3) [4]
p54
sg34
I499
sa(dp55
g32
VThe Tower of Glass (Part 3 of 3) [5]
p56
sg34
I499
sa(dp57
g32
VGalaxy Stars (Galaxy, June 1970)
p58
sg34
I677
sa(dp59
g32
VI Will Fear No Evil
p60
sg34
I667
sa(dp61
g32
VGalaxy Book Shelf (Galaxy, June 1970)
p62
sg34
I91
sa(dp63
g32
VThe Tower of Glass (Part 3 of 3)
p64
sg34
I50
sa(dp65
g32
VThe Player at Yellow Silence
p66
sg34
I678
sa(dp67
g32
VOut of Mindshot
p68
sg34
I546
sa(dp69
g32
VShip Me Tomorrow
p70
sg34
I677
sa(dp71
g32
VOil-Mad Bug-Eyed Monsters
p72
sg34
I602
sa(dp73
g32
VThe Moon of Thin Reality
p74
sg34
I679
sa(dp75
g32
VChildren's Crusade
p76
sg34
I680
sasb.