ccopy_reg
_reconstructor
p0
(cdataset.Book
Book
p1
c__builtin__
object
p2
Ntp3
Rp4
(dp5
S'content_name'
p6
V29989.txt.utf-8
p7
sS'isbn'
p8
V0865711054
p9
sS'year'
p10
I1987
sS'author_name'
p11
VH. B. Fyfe
p12
sS'images_urls'
p13
(lp14
Vhttp://www.gutenberg.org/files/29989/29989-h/images/image_001.jpg
p15
aVhttp://www.gutenberg.org/files/29989/29989-h/images/image_i.jpg
p16
asS'language_code'
p17
NsS'images'
p18
(lp19
sS'id'
p20
I733
sS'category'
p21
VText
p22
sS'genres'
p23
(lp24
sS'copyright'
p25
VPublic domain in the USA.
p26
sS'title'
p27
VThe Outbreak of Peace
p28
sS'wikipedia'
p29
(dp30
S'url'
p31
Vhttps://en.wikipedia.org/wiki/The_Missing_Peace
p32
sS'found'
p33
I01
sS'year'
p34
I-1
ssS'published_in'
p35
NsS'average_rating'
p36
F5.0
sS'rating_count'
p37
I3
sS'content_available'
p38
I01
sS'goodreads'
p39
(dp40
g31
Vhttps://www.goodreads.com/book/show/2090656.An_Outbreak_of_Peace
p41
sg33
I01
sg34
I1987
ssS'similar_books'
p42
(lp43
sS'description'
p44
NsS'format'
p45
NsS'gutenberg'
p46
(dp47
g31
Vhttp://www.gutenberg.org/ebooks/29989
p48
sS'num'
p49
I29989
ssS'authors'
p50
(lp51
I94
asS'isbn13'
p52
V9780865711051
p53
sS'language'
p54
VEnglish
p55
sS'country'
p56
I2
sS'release_date'
p57
S'2009-09-14T00:00:00'
p58
sS'author'
p59
I94
sS'original_title'
p60
VThe Missing Peace
p61
sS'summary'
p62
VThe Missing Peace: The Inside Story of the Fight for Middle East Peace (ISBN 0-374-19973-6) is a 2004 non-fiction book by Dennis Ross on the history of and his participation in the Israeli\u2013Palestinian peace process and the Arab\u2013Israeli peace process. Ross, an American diplomat, was the Director of Policy Planning in the State Department under President George H. W. Bush and the special Middle East coordinator under President Bill Clinton.\u000a\u000a
p63
sS'content_cleaned'
p64
I01
sS'classes'
p65
(lp66
sS'loc_class'
p67
VPS: Language and Literatures: American and Canadian literature
p68
sS'n_authors'
p69
I1
sb.