ccopy_reg
_reconstructor
p0
(cdataset.Book
Book
p1
c__builtin__
object
p2
Ntp3
Rp4
(dp5
S'content_name'
p6
V29445.txt.utf-8
p7
sS'isbn'
p8
NsS'year'
p9
I1953
sS'author_name'
p10
VRobert Sheckley
p11
sS'images_urls'
p12
(lp13
Vhttp://www.gutenberg.org/files/29445/29445-h/images/001.png
p14
aVhttp://www.gutenberg.org/files/29445/29445-h/images/002-1.jpg
p15
aVhttp://www.gutenberg.org/files/29445/29445-h/images/002-2.jpg
p16
asS'language_code'
p17
Veng
p18
sS'id'
p19
I302
sS'category'
p20
VText
p21
sS'genres'
p22
(lp23
sS'copyright'
p24
VPublic domain in the USA.
p25
sS'title'
p26
VThe Hour of Battle
p27
sS'wikipedia'
p28
(dp29
S'found'
p30
I00
ssS'average_rating'
p31
F4.13
sS'rating_count'
p32
I35
sS'content_available'
p33
I01
sS'goodreads'
p34
(dp35
S'url'
p36
S'https://www.goodreads.com/book/show/8782215-the-hour-of-battle'
p37
sS'found'
p38
I01
ssS'similar_books'
p39
(lp40
sS'description'
p41
VThe Hour of Battle appeared in the September 1953 Space Science Fiction.<br /><br />As one of the Guardian ships protecting Earth, the crew had a problem to solve. Just how do you protect a race from an enemy who can take over a man's mind without seeming effort or warning?
p42
sS'gutenberg'
p43
(dp44
S'url'
p45
Vhttp://www.gutenberg.org/ebooks/29445
p46
sS'num'
p47
I29445
ssS'authors'
p48
(lp49
I23
asS'isbn13'
p50
NsS'language'
p51
VEnglish
p52
sS'countries'
p53
(lp54
I2
asS'release_date'
p55
S'2009-07-18T00:00:00'
p56
sS'author'
p57
I23
sS'content_cleaned'
p58
I01
sS'classes'
p59
(lp60
Vto-read
p61
aVscience-fiction
p62
aVsci-fi
p63
aVshort-story
p64
aVowned-pending-kindle-free-ebook
p65
aVshort-stories
p66
aVpulp
p67
aVfiction
p68
aVebooks
p69
aVscifi-and-horror
p70
aVauthor-s
p71
aVin-ru
p72
aVsf
p73
aVenglish-american
p74
aVtype-short-story
p75
aVaudio-books
p76
asS'loc_class'
p77
VPS: Language and Literatures: American and Canadian literature
p78
sS'n_authors'
p79
I1
sb.