ccopy_reg
_reconstructor
p0
(cdataset.Book
Book
p1
c__builtin__
object
p2
Ntp3
Rp4
(dp5
S'similar_books'
p6
(lp7
sS'genres'
p8
(lp9
sS'author'
p10
I918
sS'countries'
p11
(lp12
I2
asS'year'
p13
I1960
sS'title'
p14
VIF Magazine September 1960
p15
sS'cover'
p16
Vhttps://ia801307.us.archive.org/BookReader/BookReaderImages.php?zip=/4/items/1960-09_IF/1960-09_IF_jp2.zip&file=1960-09_IF_jp2/1960-09_IF_0000.jp2&scale=0&rotate=0
p17
sS'cover_art'
p18
S'http://www.isfdb.org/wiki/images/a/ad/WOFIFSEP1960.jpg'
p19
sS'author_name'
p20
VIF Magazine
p21
sS'images_urls'
p22
(lp23
sS'authors'
p24
(lp25
I519
aI419
aI499
aI40
aI220
aI507
aI74
aI423
aI94
aI262
aI154
aI918
asS'images'
p26
(lp27
sS'id'
p28
I1275
sS'contents'
p29
(lp30
(dp31
g10
I519
sg14
VKangaroo Court
p32
sa(dp33
g10
I519
sg14
VParallel Beans
p34
sa(dp35
g10
I519
sg14
VTo Choke an Ocean
p36
sa(dp37
g10
I419
sg14
VStar Performer
p38
sa(dp39
g10
I499
sg14
VThe Six Fingers of Time
p40
sa(dp41
g10
I40
sg14
VWorlds of If (If, September 1960)
p42
sa(dp43
g10
I220
sg14
VKangaroo Court
p44
sa(dp45
g10
I507
sg14
VTo Choke an Ocean
p46
sa(dp47
g10
I74
sg14
VThe Six Fingers of Time
p48
sa(dp49
g10
I423
sg14
VParallel Beans
p50
sa(dp51
g10
I94
sg14
VThe Wedge
p52
sa(dp53
g10
I262
sg14
VWords and Music
p54
sa(dp55
g10
I154
sg14
VStar Performer
p56
sasb.