ccopy_reg
_reconstructor
p0
(cdataset.Book
Book
p1
c__builtin__
object
p2
Ntp3
Rp4
(dp5
S'content_name'
p6
V51852.txt.utf-8
p7
sS'isbn'
p8
V1557091528
p9
sS'year'
p10
I1787
sS'author_name'
p11
VJesse F. Bone
p12
sS'images_urls'
p13
(lp14
Vhttp://www.gutenberg.org/files/51852/51852-h/images/cover.jpg
p15
aVhttp://www.gutenberg.org/files/51852/51852-h/images/illus1.jpg
p16
aVhttp://www.gutenberg.org/files/51852/51852-h/images/illus2.jpg
p17
aVhttp://www.gutenberg.org/files/51852/51852-h/images/illus3.jpg
p18
asS'language_code'
p19
NsS'images'
p20
(lp21
sS'id'
p22
I517
sS'category'
p23
VText
p24
sS'genres'
p25
(lp26
sS'copyright'
p27
VPublic domain in the USA.
p28
sS'title'
p29
VFounding Father
p30
sS'wikipedia'
p31
(dp32
S'found'
p33
I00
ssS'average_rating'
p34
F4.54
sS'rating_count'
p35
I16895
sS'content_available'
p36
I01
sS'cover_art_url'
p37
S'http://www.gutenberg.org/cache/epub/51852/pg51852.cover.medium.jpg'
p38
sS'goodreads'
p39
(dp40
S'url'
p41
Vhttps://www.goodreads.com/book/show/89959.The_Constitution_of_the_United_States_of_America
p42
sg33
I01
sS'year'
p43
I1787
ssS'similar_books'
p44
(lp45
VThe Declaration of Independence
p46
aVThe Gettysburg Address
p47
aVThe Anti-Federalist Papers and the Constitutional Convention Debates (Signet Classics)
p48
aVCommon Sense, The Rights of Man and Other Essential Writings
p49
aVThe Proper Role of Government
p50
aVI Have a Dream / Letter from Birmingham Jail
p51
aVTwo Treatises of Government
p52
aVThe Making of America: The Substance and Meaning of the Constitution
p53
aVThe Law
p54
aVThe Conscience of a Conservative
p55
aVLiberal Fascism: The Secret History of the American Left from Mussolini to the Politics of Meaning
p56
aVGlenn Beck's Common Sense: The Case Against an Out-of-Control Government, Inspired by Thomas Paine
p57
aVFlesh Code: Vol. I
p58
aVThe Real George Washington
p59
aVGeorge Washington's Farewell Address
p60
aVThe Asperkid's Launch Pad: Home Design to Empower Everyday Superheroes
p61
aVThe Politically Incorrect Guide to American History
p62
asS'description'
p63
V<p>The complete text of the United States Constitution, including all of the amendments.</p>
p64
sS'format'
p65
VPaperback
p66
sS'gutenberg'
p67
(dp68
g41
Vhttp://www.gutenberg.org/ebooks/51852
p69
sS'num'
p70
I51852
ssS'authors'
p71
(lp72
I68
asS'pages'
p73
I30
sS'isbn13'
p74
V9781557091529
p75
sS'language'
p76
VEnglish
p77
sS'countries'
p78
(lp79
I2
asS'release_date'
p80
S'2016-04-24T00:00:00'
p81
sS'author'
p82
I68
sS'content_cleaned'
p83
I01
sS'classes'
p84
(lp85
Vto-read
p86
aVcurrently-reading
p87
aVhistory
p88
aVnon-fiction
p89
aVclassics
p90
aVfavorites
p91
aVphilosophy
p92
aVlaw
p93
aVreference
p94
aVamerican-history
p95
aVpolitics
p96
aVpolitical-science
p97
aVhistorical
p98
aVgovernment
p99
aVnonfiction
p100
aVowned
p101
aVclassic
p102
aVkindle
p103
aVbooks-i-own
p104
aVamerica
p105
aV18th-century
p106
aVowned-books
p107
aVschool
p108
aVamerican
p109
aVeducation
p110
aVebook
p111
aVunited-states
p112
aVusa
p113
aVmy-library
p114
aVpolitical-theory
p115
aVhistory-american
p116
aVhistory-biography
p117
aVamerican-literature
p118
aVlibrary
p119
aVus-history
p120
aVebooks
p121
aVconstitution
p122
aVu-s-history
p123
aVhistory-politics
p124
aVread-for-school
p125
aVdefault
p126
aVto-re-read
p127
aVto-read-non-fiction
p128
aVgreat-books
p129
aVkindle-books
p130
aVto-buy
p131
aVpolitics-economics
p132
aVgovernment-politics
p133
aVhistorical-documents
p134
aVpolitical-philosophy
p135
aVschool-books
p136
aVpoli-sci
p137
aVliberty
p138
aVtextbooks
p139
aVamericana
p140
aVcollege
p141
aVother
p142
aVlegal
p143
aVi-own
p144
aVeconomics
p145
aVhigh-school
p146
aVus
p147
aVcivil-rights
p148
aVamerican-revolution
p149
aVhave
p150
aVe-book
p151
aVfreedom
p152
aVread-more-than-once
p153
aVhistorical-non-fiction
p154
aVmy-books
p155
aVto-get
p156
aVown-it
p157
aVon-my-kindle
p158
aVprimary-sources
p159
aVre-read
p160
aVhistory-books
p161
aVpublic-domain
p162
aVknowledge
p163
aVphilosophy-politics
p164
aVkindle-owned
p165
aVfavorite-books
p166
aVpolitics-government
p167
aVinformative
p168
aVbookshelf
p169
aVamerican-politics
p170
aVcalibre
p171
aVmust-reads
p172
aV1700s
p173
aVmust-read
p174
aVnon-fiction-history
p175
aVmodern-era
p176
aVpolitical
p177
aVmisc
p178
aVread-2017
p179
aVunsorted
p180
aVreread
p181
aVread-in-2016
p182
aVhomeschool
p183
aVbiography
p184
aVrevolution
p185
asS'loc_class'
p186
S''
p187
sS'n_authors'
p188
I1
sb.