ccopy_reg
_reconstructor
p0
(cdataset.Book
Book
p1
c__builtin__
object
p2
Ntp3
Rp4
(dp5
S'similar_books'
p6
(lp7
sS'genres'
p8
(lp9
sS'author'
p10
I918
sS'countries'
p11
(lp12
I2
asS'year'
p13
I1971
sS'title'
p14
VIF Magazine November 1971
p15
sS'cover'
p16
Vhttps://ia601304.us.archive.org/BookReader/BookReaderImages.php?zip=/31/items/1971-12_IF/1971-12_IF_jp2.zip&file=1971-12_IF_jp2/1971-12_IF_0000.jp2&scale=0&rotate=0
p17
sS'cover_art'
p18
S'http://www.isfdb.org/wiki/images/2/21/WOFIFNOVDEC1971.jpg'
p19
sS'author_name'
p20
VIF Magazine
p21
sS'images_urls'
p22
(lp23
sS'authors'
p24
(lp25
I499
aI326
aI356
aI1197
aI111
aI384
aI1216
aI1217
aI918
asS'images'
p26
(lp27
sS'id'
p28
I1374
sS'contents'
p29
(lp30
(dp31
g10
I499
sg14
VTime of the Sending
p32
sa(dp33
g10
I326
sg14
VHabits of the Rigelian Nightfox
p34
sa(dp35
g10
I326
sg14
VOrnithanthropus
p36
sa(dp37
g10
I356
sg14
VReading Room (If, November-December 1971)
p38
sa(dp39
g10
I326
sg14
VSf Calendar (If, November-December 1971)
p40
sa(dp41
g10
I1197
sg14
VTime of the Sending
p42
sa(dp43
g10
I111
sg14
VHot World
p44
sa(dp45
g10
I384
sg14
VThe Real People
p46
sa(dp47
g10
I1216
sg14
VHabits of the Rigelian Nightfox
p48
sa(dp49
g10
I1217
sg14
VOrnithanthropus
p50
sasb.