ccopy_reg
_reconstructor
p0
(cdataset.Book
Book
p1
c__builtin__
object
p2
Ntp3
Rp4
(dp5
S'similar_books'
p6
(lp7
sS'genres'
p8
(lp9
sS'author'
p10
I918
sS'countries'
p11
(lp12
I2
asS'year'
p13
I1969
sS'title'
p14
VIF Magazine January 1969
p15
sS'cover'
p16
Vhttps://ia600205.us.archive.org/BookReader/BookReaderImages.php?zip=/19/items/1969-01_IF/1969-01_IF_jp2.zip&file=1969-01_IF_jp2/1969-01_IF_0000.jp2&scale=0&rotate=0
p17
sS'cover_art'
p18
S'http://www.isfdb.org/wiki/images/4/47/WOFIFJAN1969.jpg'
p19
sS'author_name'
p20
VIF Magazine
p21
sS'images_urls'
p22
(lp23
sS'authors'
p24
(lp25
I499
aI626
aI1174
aI627
aI640
aI40
aI356
aI326
aI1178
aI304
aI653
aI384
aI591
aI918
asS'images'
p26
(lp27
sS'id'
p28
I1351
sS'contents'
p29
(lp30
(dp31
g10
I499
sg14
VSix Gates to Limbo (Part 1 of 2)
p32
sa(dp33
g10
I626
sg14
VThe Year Dot
p34
sa(dp35
g10
I1174
sg14
VThe Steel General (Excerpt)
p36
sa(dp37
g10
I627
sg14
VOperation High Time
p38
sa(dp39
g10
I640
sg14
VIn the Shield
p40
sa(dp41
g10
I499
sg14
VAuthorgraphs: An Interview with Roger Zelazny
p42
sa(dp43
g10
I40
sg14
VSpace Art
p44
sa(dp45
g10
I356
sg14
VIf ... And When (If, January 1969)
p46
sa(dp47
g10
I326
sg14
VSf Calendar (If, January 1969)
p48
sa(dp49
g10
I40
sg14
VHue and Cry (If, January 1969)
p50
sa(dp51
g10
I326
sg14
VAuthorgraphs: An Interview with Roger Zelazny
p52
sa(dp53
g10
I1178
sg14
VThe Year Dot
p54
sa(dp55
g10
I304
sg14
VOperation High Time
p56
sa(dp57
g10
I653
sg14
VIn the Shield
p58
sa(dp59
g10
I384
sg14
VSix Gates to Limbo (Part 1 of 2)
p60
sa(dp61
g10
I591
sg14
VThe Steel General
p62
sasb.