ccopy_reg
_reconstructor
p0
(cdataset.Book
Book
p1
c__builtin__
object
p2
Ntp3
Rp4
(dp5
S'similar_books'
p6
(lp7
sS'genres'
p8
(lp9
sS'author'
p10
I302
sS'countries'
p11
(lp12
I2
asS'year'
p13
I1956
sS'title'
p14
VGalaxy Magazine November 1956
p15
sS'cover'
p16
Vhttps://ia800206.us.archive.org/BookReader/BookReaderImages.php?zip=/34/items/Galaxy_v13n01_1956-11/Galaxy_v13n01_1956-11_jp2.zip&file=Galaxy_v13n01_1956-11_jp2/Galaxy_v13n01_1956-11_0000.jp2&scale=0&rotate=0
p17
sS'cover_art'
p18
S'http://www.isfdb.org/wiki/images/d/d1/MLO4431.jpg'
p19
sS'author_name'
p20
VGalaxy Magazine
p21
sS'images_urls'
p22
(lp23
sS'authors'
p24
(lp25
I461
aI419
aI497
aI363
aI305
aI339
aI483
aI326
aI40
aI385
aI356
aI493
aI50
aI302
asS'images'
p26
(lp27
sS'id'
p28
I1045
sS'contents'
p29
(lp30
(dp31
S'title'
p32
VThe Man Who Ate the World
p33
sS'author'
p34
I461
sa(dp35
g32
VThe Man Who Ate the World [2]
p36
sg34
I461
sa(dp37
g32
VThe Man Who Ate the World [3]
p38
sg34
I461
sa(dp39
g32
VDead Ringer
p40
sg34
I419
sa(dp41
g32
VVigil
p42
sg34
I497
sa(dp43
g32
VDouble Dare
p44
sg34
I419
sa(dp45
g32
VThe Stars My Destination (Part 2 of 4)
p46
sg34
I363
sa(dp47
g32
VThe Stars My Destination (Part 2 of 4) [2]
p48
sg34
I363
sa(dp49
g32
VThe Stars My Destination (Part 2 of 4) [3]
p50
sg34
I363
sa(dp51
g32
VThe Stars My Destination (Part 2 of 4) [4]
p52
sg34
I363
sa(dp53
g32
VBa+2na
p54
sg34
I305
sa(dp55
g32
VFor Your Information: No Longer Imaginary
p56
sg34
I339
sa(dp57
g32
VGalaxy's 5 Star Shelf (Galaxy, November 1956)
p58
sg34
I483
sa(dp59
g32
VForecast (Galaxy, November 1956)
p60
sg34
I326
sa(dp61
g32
VThe Man Who Ate the World
p62
sg34
I40
sa(dp63
g32
VThe Stars My Destination (Part 2 of 4)
p64
sg34
I385
sa(dp65
g32
VDead Ringer
p66
sg34
I356
sa(dp67
g32
VVigil
p68
sg34
I493
sa(dp69
g32
VDouble Dare
p70
sg34
I50
sasb.