ccopy_reg
_reconstructor
p0
(cdataset.Book
Book
p1
c__builtin__
object
p2
Ntp3
Rp4
(dp5
S'content_name'
p6
V30476.txt.utf-8
p7
sS'isbn'
p8
NsS'year'
p9
I1956
sS'author_name'
p10
VAlexander Blade
p11
sS'images_urls'
p12
(lp13
Vhttp://www.gutenberg.org/files/30476/30476-h/images/001.png
p14
aVhttp://www.gutenberg.org/files/30476/30476-h/images/002-1.jpg
p15
aVhttp://www.gutenberg.org/files/30476/30476-h/images/002-2.jpg
p16
asS'language_code'
p17
Veng
p18
sS'images'
p19
(lp20
sS'id'
p21
I698
sS'category'
p22
VText
p23
sS'genres'
p24
(lp25
sS'copyright'
p26
VPublic domain in the USA.
p27
sS'title'
p28
VZero Hour
p29
sS'wikipedia'
p30
(dp31
S'found'
p32
I00
ssS'average_rating'
p33
F3.93
sS'rating_count'
p34
I4
sS'content_available'
p35
I01
sS'goodreads'
p36
(dp37
S'url'
p38
S'https://www.goodreads.com/book/show/24925918-zero-hour'
p39
sS'found'
p40
I01
ssS'similar_books'
p41
(lp42
sS'description'
p43
VShort story.
p44
sS'gutenberg'
p45
(dp46
S'url'
p47
Vhttp://www.gutenberg.org/ebooks/30476
p48
sS'num'
p49
I30476
ssS'authors'
p50
(lp51
I84
asS'isbn13'
p52
NsS'language'
p53
VEnglish
p54
sS'countries'
p55
(lp56
I2
asS'release_date'
p57
S'2009-11-14T00:00:00'
p58
sS'author'
p59
I84
sS'cover'
p60
Vhttps://s.gr-assets.com/assets/nophoto/book/111x148-bcc042a9c91a29c1d680899eff700a03.png
p61
sS'content_cleaned'
p62
I01
sS'classes'
p63
(lp64
sS'loc_class'
p65
VPS: Language and Literatures: American and Canadian literature
p66
sS'n_authors'
p67
I1
sb.