ccopy_reg
_reconstructor
p0
(cdataset.Book
Book
p1
c__builtin__
object
p2
Ntp3
Rp4
(dp5
S'similar_books'
p6
(lp7
sS'genres'
p8
(lp9
sS'author'
p10
I918
sS'countries'
p11
(lp12
I2
asS'year'
p13
I1963
sS'title'
p14
VIF Magazine May 1963
p15
sS'cover'
p16
Vhttps://ia600205.us.archive.org/BookReader/BookReaderImages.php?zip=/16/items/1963-05_IF_modified/1963-05_IF_modified_jp2.zip&file=1963-05_IF_modified_jp2/1963-05_IF_modified_0000.jp2&scale=0&rotate=0
p17
sS'cover_art'
p18
S'http://www.isfdb.org/wiki/images/9/90/WOFIFMAY1963.jpg'
p19
sS'author_name'
p20
VIF Magazine
p21
sS'images_urls'
p22
(lp23
sS'authors'
p24
(lp25
I578
aI497
aI489
aI1087
aI1088
aI341
aI40
aI91
aI1089
aI70
aI1090
aI546
aI30
aI918
asS'images'
p26
(lp27
sS'id'
p28
I1291
sS'contents'
p29
(lp30
(dp31
g10
I578
sg14
VThe Green World
p32
sa(dp33
g10
I497
sg14
VDie, Shadow!
p34
sa(dp35
g10
I489
sg14
VSingleminded
p36
sa(dp37
g10
I1087
sg14
VAnother Earth
p38
sa(dp39
g10
I1088
sg14
VTurning Point
p40
sa(dp41
g10
I341
sg14
VThat There Opposition
p42
sa(dp43
g10
I341
sg14
VNonpolitical New Frontiers
p44
sa(dp45
g10
I40
sg14
VHue and Cry (If, May 1963)
p46
sa(dp47
g10
I91
sg14
VDie, Shadow!
p48
sa(dp49
g10
I1089
sg14
VAnother Earth
p50
sa(dp51
g10
I70
sg14
VThe Green World
p52
sa(dp53
g10
I1090
sg14
VRundown
p54
sa(dp55
g10
I546
sg14
VSingleminded
p56
sa(dp57
g10
I30
sg14
VTurning Point
p58
sasb.