ccopy_reg
_reconstructor
p0
(cdataset.Book
Book
p1
c__builtin__
object
p2
Ntp3
Rp4
(dp5
S'content_name'
p6
V23443.txt.utf-8
p7
sS'isbn'
p8
NsS'year'
p9
I1960
sS'author_name'
p10
VMurray F. Yaco
p11
sS'images_urls'
p12
(lp13
Vhttp://www.gutenberg.org/files/23443/23443-h/images/001.jpg
p14
aVhttp://www.gutenberg.org/files/23443/23443-page-images/p040-image.png
p15
aVhttp://www.gutenberg.org/files/23443/23443-page-images/p040.png
p16
aVhttp://www.gutenberg.org/files/23443/23443-page-images/p041.png
p17
aVhttp://www.gutenberg.org/files/23443/23443-page-images/p042.png
p18
aVhttp://www.gutenberg.org/files/23443/23443-page-images/p043.png
p19
aVhttp://www.gutenberg.org/files/23443/23443-page-images/p044.png
p20
aVhttp://www.gutenberg.org/files/23443/23443-page-images/p045.png
p21
aVhttp://www.gutenberg.org/files/23443/23443-page-images/p046.png
p22
aVhttp://www.gutenberg.org/files/23443/23443-page-images/p047.png
p23
aVhttp://www.gutenberg.org/files/23443/23443-page-images/p048.png
p24
aVhttp://www.gutenberg.org/files/23443/23443-page-images/p049.png
p25
aVhttp://www.gutenberg.org/files/23443/23443-page-images/p050.png
p26
asS'language_code'
p27
Veng
p28
sS'images'
p29
(lp30
sS'id'
p31
I930
sS'category'
p32
VText
p33
sS'genres'
p34
(lp35
sS'copyright'
p36
VPublic domain in the USA.
p37
sS'title'
p38
VUnspecialist
p39
sS'wikipedia'
p40
(dp41
S'found'
p42
I00
ssS'average_rating'
p43
F2.57
sS'rating_count'
p44
I14
sS'content_available'
p45
I01
sS'goodreads'
p46
(dp47
S'url'
p48
Vhttps://www.goodreads.com/book/show/13500682-unspecialist
p49
sg42
I01
sS'year'
p50
I1960
ssS'similar_books'
p51
(lp52
sS'description'
p53
VA machine can be built to do any accurately described job better than any man. The superiority of a man is that he can do an unexpected, undescribed, and emergency job...
p54
sS'format'
p55
Vebook
p56
sS'gutenberg'
p57
(dp58
g48
Vhttp://www.gutenberg.org/ebooks/23443
p59
sS'num'
p60
I23443
ssS'authors'
p61
(lp62
I114
asS'pages'
p63
I23
sS'isbn13'
p64
NsS'language'
p65
VEnglish
p66
sS'release_date'
p67
S'2007-11-11T00:00:00'
p68
sS'author'
p69
I114
sS'content_cleaned'
p70
I01
sS'classes'
p71
(lp72
Vto-read
p73
aVscience-fiction
p74
aVsci-fi
p75
aV2017-2018
p76
aVaudiobooks
p77
aVowned-pending-kindle-free-ebook
p78
aV15
p79
aVshort-story
p80
aVaudio-obtained-lvss
p81
aVtype-short-story
p82
aVaudio-obtained-ss
p83
asS'loc_class'
p84
VPS: Language and Literatures: American and Canadian literature
p85
sS'n_authors'
p86
I1
sb.