ccopy_reg
_reconstructor
p0
(cdataset.Book
Book
p1
c__builtin__
object
p2
Ntp3
Rp4
(dp5
S'content_name'
p6
V22342.txt.utf-8
p7
sS'isbn'
p8
V1633552977
p9
sS'year'
p10
I1963
sS'author_name'
p11
VRandall Garrett
p12
sS'images_urls'
p13
(lp14
sS'language_code'
p15
NsS'images'
p16
(lp17
sS'id'
p18
I300
sS'category'
p19
VText
p20
sS'genres'
p21
(lp22
sS'copyright'
p23
VPublic domain in the USA.
p24
sS'title'
p25
VSupermind
p26
sS'wikipedia'
p27
(dp28
S'found'
p29
I00
ssS'average_rating'
p30
F3.51
sS'rating_count'
p31
I2
sS'content_available'
p32
I01
sS'goodreads'
p33
(dp34
S'url'
p35
S'https://www.goodreads.com/book/show/22581200-supermind'
p36
sS'found'
p37
I01
ssS'similar_books'
p38
(lp39
sS'description'
p40
VF.B.I. space agent Ken Malone in a world that didn't exist.
p41
sS'gutenberg'
p42
(dp43
S'url'
p44
Vhttp://www.gutenberg.org/ebooks/22342
p45
sS'num'
p46
I22342
ssS'authors'
p47
(lp48
I49
aI64
asS'pages'
p49
I175
sS'isbn13'
p50
V9781633552975
p51
sS'language'
p52
VEnglish
p53
sS'countries'
p54
(lp55
I2
asS'release_date'
p56
S'2007-08-16T00:00:00'
p57
sS'author'
p58
I49
sS'cover'
p59
Vhttps://images.gr-assets.com/books/1467403868l/22581200.jpg
p60
sS'content_cleaned'
p61
I01
sS'classes'
p62
(lp63
Vto-read
p64
aVaudiobooks-to-read
p65
aVscience-fiction
p66
aVclassic-sf
p67
aVspeculative-fiction
p68
aVlibrivox-org
p69
aVebooks
p70
asS'loc_class'
p71
VPS: Language and Literatures: American and Canadian literature
p72
sS'n_authors'
p73
I2
sb.