ccopy_reg
_reconstructor
p0
(cdataset.Book
Book
p1
c__builtin__
object
p2
Ntp3
Rp4
(dp5
S'similar_books'
p6
(lp7
sS'genres'
p8
(lp9
sS'author'
p10
I302
sS'countries'
p11
(lp12
I2
asS'year'
p13
I1952
sS'title'
p14
VGalaxy Magazine April 1952
p15
sS'cover'
p16
Vhttps://ia600209.us.archive.org/BookReader/BookReaderImages.php?zip=/29/items/Galaxy_v04n01_1952-04/Galaxy_v04n01_1952-04_jp2.zip&file=Galaxy_v04n01_1952-04_jp2/Galaxy_v04n01_1952-04_0000.jp2&scale=0&rotate=0
p17
sS'cover_art'
p18
S'http://www.isfdb.org/wiki/images/a/a5/GALAPR1952.jpg'
p19
sS'author_name'
p20
VGalaxy Magazine
p21
sS'images_urls'
p22
(lp23
sS'authors'
p24
(lp25
I363
aI336
aI392
aI305
aI339
aI340
aI204
aI393
aI384
aI32
aI293
aI362
aI302
asS'images'
p26
(lp27
sS'id'
p28
I991
sS'contents'
p29
(lp30
(dp31
S'title'
p32
VAccidental Flight
p33
sS'author'
p34
I363
sa(dp35
g32
VAccidental Flight [2]
p36
sg34
I363
sa(dp37
g32
VAccidental Flight [3]
p38
sg34
I363
sa(dp39
g32
VAccidental Flight [4]
p40
sg34
I363
sa(dp41
g32
VAccidental Flight [5]
p42
sg34
I363
sa(dp43
g32
VAccidental Flight [6]
p44
sg34
I363
sa(dp45
g32
VKatahut Said No
p46
sg34
I363
sa(dp47
g32
VKatahut Said No [2]
p48
sg34
I363
sa(dp49
g32
VThe Moon Is Green
p50
sg34
I336
sa(dp51
g32
VMartians Never Die
p52
sg34
I363
sa(dp53
g32
VShe Who Laughs
p54
sg34
I392
sa(dp55
g32
VTicket to Anywhere
p56
sg34
I363
sa(dp57
g32
VTicket to Anywhere [2]
p58
sg34
I363
sa(dp59
g32
VTicket to Anywhere [3]
p60
sg34
I363
sa(dp61
g32
VTicket to Anywhere [4]
p62
sg34
I363
sa(dp63
g32
VHomeless Facts
p64
sg34
I305
sa(dp65
g32
VFor Your Information: Carbon-14 and the Ice Age
p66
sg34
I339
sa(dp67
g32
VGalaxy's 5 Star Shelf (Galaxy, April 1952)
p68
sg34
I340
sa(dp69
g32
VTicket to Anywhere
p70
sg34
I204
sa(dp71
g32
VAccidental Flight
p72
sg34
I393
sa(dp73
g32
VKatahut Said No
p74
sg34
I384
sa(dp75
g32
VThe Moon Is Green
p76
sg34
I32
sa(dp77
g32
VMartians Never Die
p78
sg34
I293
sa(dp79
g32
VShe Who Laughs
p80
sg34
I362
sasb.