ccopy_reg
_reconstructor
p0
(cdataset.Book
Book
p1
c__builtin__
object
p2
Ntp3
Rp4
(dp5
S'content_name'
p6
V32134.txt.utf-8
p7
sS'isbn'
p8
NsS'year'
p9
I1955
sS'author_name'
p10
VStephen Marlowe
p11
sS'images_urls'
p12
(lp13
Vhttp://www.gutenberg.org/files/32134/32134-h/images/cover.jpg
p14
aVhttp://www.gutenberg.org/files/32134/32134-h/images/image_001.jpg
p15
aVhttp://www.gutenberg.org/files/32134/32134-h/images/image_a.jpg
p16
aVhttp://www.gutenberg.org/files/32134/32134-h/images/image_e.jpg
p17
aVhttp://www.gutenberg.org/files/32134/32134-h/images/image_j.jpg
p18
aVhttp://www.gutenberg.org/files/32134/32134-h/images/image_l.jpg
p19
aVhttp://www.gutenberg.org/files/32134/32134-h/images/image_m.jpg
p20
aVhttp://www.gutenberg.org/files/32134/32134-h/images/image_s1.jpg
p21
aVhttp://www.gutenberg.org/files/32134/32134-h/images/image_t.jpg
p22
asS'language_code'
p23
Veng
p24
sS'images'
p25
(lp26
sS'id'
p27
I577
sS'category'
p28
VText
p29
sS'genres'
p30
(lp31
sS'copyright'
p32
VPublic domain in the USA.
p33
sS'title'
p34
VThe Dictator
p35
sS'wikipedia'
p36
(dp37
S'found'
p38
I00
ssS'average_rating'
p39
F4.32
sS'rating_count'
p40
I5
sS'content_available'
p41
I01
sS'cover_art_url'
p42
S'http://www.gutenberg.org/cache/epub/32134/pg32134.cover.medium.jpg'
p43
sS'goodreads'
p44
(dp45
S'url'
p46
S'https://www.goodreads.com/book/show/20811036-the-dictator'
p47
sS'found'
p48
I01
ssS'similar_books'
p49
(lp50
sS'description'
p51
VStephen Marlowe (born Milton Lesser) was an American author of science fiction, mystery novels, and fictional autobiographies of Christopher Columbus, Miguel de Cervantes, and Edgar Allan Poe. This is one of those stories.
p52
sS'gutenberg'
p53
(dp54
S'url'
p55
Vhttp://www.gutenberg.org/ebooks/32134
p56
sS'num'
p57
I32134
ssS'authors'
p58
(lp59
I79
asS'isbn13'
p60
NsS'language'
p61
VEnglish
p62
sS'countries'
p63
(lp64
I2
asS'release_date'
p65
S'2010-04-25T00:00:00'
p66
sS'author'
p67
I79
sS'content_cleaned'
p68
I01
sS'classes'
p69
(lp70
Vto-read
p71
aVe-shelf
p72
aVto-read-someday
p73
aVsci-fi
p74
asS'loc_class'
p75
VPS: Language and Literatures: American and Canadian literature
p76
sS'n_authors'
p77
I1
sb.