ccopy_reg
_reconstructor
p0
(cdataset.Book
Book
p1
c__builtin__
object
p2
Ntp3
Rp4
(dp5
S'content_name'
p6
V32833.txt.utf-8
p7
sS'isbn'
p8
V0764228900
p9
sS'year'
p10
I2006
sS'author_name'
p11
VMark Clifton
p12
sS'images_urls'
p13
(lp14
Vhttp://www.gutenberg.org/files/32833/32833-h/images/cover.jpg
p15
aVhttp://www.gutenberg.org/files/32833/32833-h/images/illus1.jpg
p16
aVhttp://www.gutenberg.org/files/32833/32833-h/images/illus2.jpg
p17
aVhttp://www.gutenberg.org/files/32833/32833-h/images/illus3.jpg
p18
aVhttp://www.gutenberg.org/files/32833/32833-h/images/illus4.jpg
p19
asS'language_code'
p20
Ven-US
p21
sS'images'
p22
(lp23
sS'id'
p24
I942
sS'category'
p25
VText
p26
sS'genres'
p27
(lp28
sS'copyright'
p29
VPublic domain in the USA.
p30
sS'title'
p31
VA Woman's Place
p32
sS'wikipedia'
p33
(dp34
S'found'
p35
I00
ssS'average_rating'
p36
F4.13
sS'rating_count'
p37
I3179
sS'content_available'
p38
I01
sS'cover_art_url'
p39
S'http://www.gutenberg.org/cache/epub/32833/pg32833.cover.medium.jpg'
p40
sS'goodreads'
p41
(dp42
S'url'
p43
Vhttps://www.goodreads.com/book/show/80343.A_Woman_s_Place
p44
sg35
I01
sS'year'
p45
I2006
ssS'similar_books'
p46
(lp47
VA Memory Between Us (Wings of Glory, #2)
p48
aVThe Sweetest Thing
p49
aVWhile Mortals Sleep (Songs in the Night #1)
p50
aVWritten on the Wind (Daughters of Fortune, #1)
p51
aVTuesday's Child (Day to Remember, #2)
p52
aVBeyond This Moment (Timber Ridge Reflections, #2)
p53
aVSecrets She Kept
p54
aVThe Swiss Courier
p55
aVA Thousand Shall Fall (Shiloh Legacy #2)
p56
aVA Heart Most Worthy
p57
aVTravail and Triumph (The Russians, #3)
p58
aVThe Victory Club
p59
aVFly Away
p60
asS'description'
p61
VThey watched their sons, their brothers, and their husbands enlist to fight a growing menace across the seas. And when their nation asked, they answered the call as well.... <br /><br />Virginia longs to find a purpose beyond others' expectations. <br /><br />Helen is driven by a loneliness money can't fulfill. <br /><br />Rosa is desperate to flee her in-laws' rules. <br /><br />Jean hopes to prove herself in a man's world. <br /><br />Under the storm clouds of destruction that threaten America during the early 1940s, this unlikely gathering of women will experience life in sometimes startling new ways as their beliefs are challenged and they struggle toward a new understanding of what love and sacrifice truly mean.
p62
sS'format'
p63
NsS'gutenberg'
p64
(dp65
g43
Vhttp://www.gutenberg.org/ebooks/32833
p66
sS'num'
p67
I32833
ssS'authors'
p68
(lp69
I236
asS'pages'
p70
I446
sS'isbn13'
p71
V9780764228902
p72
sS'language'
p73
VEnglish
p74
sS'release_date'
p75
S'2010-06-16T00:00:00'
p76
sS'author'
p77
I236
sS'content_cleaned'
p78
I01
sS'classes'
p79
(lp80
Vto-read
p81
aVhistorical-fiction
p82
aVchristian-fiction
p83
aVcurrently-reading
p84
aVfiction
p85
aVchristian
p86
aVfavorites
p87
aVhistorical
p88
aVlynn-austin
p89
aVbook-club
p90
aVbooks-i-own
p91
aVromance
p92
aVkindle
p93
aVchristian-historical-fiction
p94
aVowned
p95
aVdefault
p96
aVadult-fiction
p97
aVwwii
p98
aVworld-war-ii
p99
aVchick-lit
p100
aVhistory
p101
aVww2
p102
aVchristianfiction
p103
aVwar
p104
aVwomen
p105
aVlibrary
p106
aVwwii-fiction
p107
aVnovels
p108
aVfiction-christian
p109
aVnook
p110
aVowned-books
p111
aVmy-library
p112
aVchristian-books
p113
aVaudiobook
p114
aVchristian-romance
p115
aVnovel
p116
aVadult
p117
aVaudio
p118
aVfiction-historical
p119
aVread-in-2015
p120
aVworld-war-2
p121
aVi-own
p122
aVdrama
p123
aVaudio-books
p124
aVpaperback
p125
aVaustin-lynn
p126
aVwomens-fiction
p127
aVstand-alone
p128
aVbooks-read
p129
aVread-in-2012
p130
aVinspirational
p131
aVaudiobooks
p132
aVbook-club-books
p133
aVread-in-2009
p134
aVinspirational-fiction
p135
aVin-my-library
p136
aVe-books
p137
aVread-in-2016
p138
aVshelfari-favorites
p139
aVchristelijke-romans
p140
aV2015-books
p141
aVchristian-fiction-historical
p142
aVre-read
p143
aVaustin
p144
aVromans
p145
aVaudible
p146
aVwwii-era
p147
aVchristian-fiction-to-read
p148
aVmy-books
p149
aVfeminism
p150
aVbooks
p151
aVread-in-2013
p152
aV1940s
p153
aVebooks
p154
aVlpc-book-club
p155
aV2012-reads
p156
aVto-buy
p157
aVww-ii
p158
aVlibrary-books
p159
aVborrowed
p160
aVread-2011
p161
aVchristian-novels
p162
aVlibrary-book
p163
aVchristian-lit
p164
aVmodern
p165
aVtbr--need-to-acquire
p166
aVread-in-2007
p167
aVchicklit
p168
aV1930s-1940s
p169
aVbibliotheek
p170
aVreading-queue
p171
aVlooks-good
p172
aVbooks-read-in-2017
p173
aVchristian-fictions
p174
aVbooks-read-before-2017
p175
aVchristian-fiction-read
p176
aVcurious
p177
aVclass-library-2
p178
aVon-deck-to-read
p179
aVebook
p180
asS'loc_class'
p181
VPS: Language and Literatures: American and Canadian literature
p182
sS'n_authors'
p183
I1
sb.