ccopy_reg
_reconstructor
p0
(cdataset.Book
Book
p1
c__builtin__
object
p2
Ntp3
Rp4
(dp5
S'content_name'
p6
V29908.txt.utf-8
p7
sS'isbn'
p8
NsS'year'
p9
I1955
sS'author_name'
p10
VC. M. Kornbluth
p11
sS'images_urls'
p12
(lp13
Vhttp://www.gutenberg.org/files/29908/29908-h/images/001.png
p14
aVhttp://www.gutenberg.org/files/29908/29908-h/images/002.png
p15
aVhttp://www.gutenberg.org/files/29908/29908-h/images/003-1.jpg
p16
aVhttp://www.gutenberg.org/files/29908/29908-h/images/003-2.jpg
p17
asS'language_code'
p18
NsS'id'
p19
I485
sS'category'
p20
VText
p21
sS'genres'
p22
(lp23
sS'copyright'
p24
VPublic domain in the USA.
p25
sS'title'
p26
VThe Adventurer
p27
sS'wikipedia'
p28
(dp29
S'found'
p30
I00
ssS'average_rating'
p31
F3.88
sS'rating_count'
p32
I22
sS'content_available'
p33
I01
sS'goodreads'
p34
(dp35
S'url'
p36
S'https://www.goodreads.com/book/show/10106857-the-adventurer'
p37
sS'found'
p38
I01
ssS'similar_books'
p39
(lp40
sS'description'
p41
NsS'gutenberg'
p42
(dp43
S'url'
p44
Vhttp://www.gutenberg.org/ebooks/29908
p45
sS'num'
p46
I29908
ssS'authors'
p47
(lp48
I51
asS'isbn13'
p49
V2940012054579
p50
sS'language'
p51
VEnglish
p52
sS'countries'
p53
(lp54
I2
asS'release_date'
p55
S'2009-09-04T00:00:00'
p56
sS'author'
p57
I51
sS'cover'
p58
Vhttps://s.gr-assets.com/assets/nophoto/book/111x148-bcc042a9c91a29c1d680899eff700a03.png
p59
sS'content_cleaned'
p60
I01
sS'classes'
p61
(lp62
Vto-read
p63
aVscience-fiction
p64
aVcurrently-reading
p65
aVshort-stories
p66
aVjunk
p67
aVowned
p68
aVebooks
p69
aVebooks-owned
p70
aVbooks-owned
p71
aVfik
p72
aVgutenberg
p73
aVaudiobooks
p74
aVmaybe-reads
p75
aVon-tablet
p76
aVz_fiction
p77
aVx_shortstory
p78
aVwo_scifi
p79
aVsci-fi
p80
aVw_us_modern
p81
aVown-not-read
p82
aVshort-story
p83
aVlibrivox-free-editions
p84
aVaudio-obtained
p85
aVliterature
p86
aVeua
p87
aVowned-kindle
p88
aVdepressing
p89
aVshelved
p90
aVowned-e-books
p91
aVclassics
p92
aVkindle-shorts
p93
aV13
p94
aVkindle
p95
aVbooks-i-own
p96
aVmass-romance
p97
aVcalibre
p98
aVfront-shelf
p99
aVhow-books-i-own
p100
aVe-reader
p101
aVtype-short-story
p102
aVaudio-obtained-ss
p103
asS'loc_class'
p104
VPS: Language and Literatures: American and Canadian literature
p105
sS'n_authors'
p106
I1
sb.