ccopy_reg
_reconstructor
p0
(cdataset.Book
Book
p1
c__builtin__
object
p2
Ntp3
Rp4
(dp5
S'similar_books'
p6
(lp7
sS'genres'
p8
(lp9
sS'author'
p10
I918
sS'countries'
p11
(lp12
I2
asS'year'
p13
I1970
sS'title'
p14
VIF Magazine February 1970
p15
sS'cover'
p16
Vhttps://ia600201.us.archive.org/BookReader/BookReaderImages.php?zip=/28/items/1970-02_IF/1970-02_IF_jp2.zip&file=1970-02_IF_jp2/1970-02_IF_0000.jp2&scale=0&rotate=0
p17
sS'cover_art'
p18
S'http://www.isfdb.org/wiki/images/8/8d/WOFIFFEB1970.jpg'
p19
sS'author_name'
p20
VIF Magazine
p21
sS'images_urls'
p22
(lp23
sS'authors'
p24
(lp25
I499
aI326
aI356
aI667
aI47
aI63
aI651
aI225
aI1196
aI669
aI1197
aI666
aI694
aI918
asS'images'
p26
(lp27
sS'id'
p28
I1362
sS'contents'
p29
(lp30
(dp31
g10
I499
sg14
VPressure Vessel
p32
sa(dp33
g10
I326
sg14
VA Matter of Recordings
p34
sa(dp35
g10
I326
sg14
VPrez
p36
sa(dp37
g10
I499
sg14
VThe Cube
p38
sa(dp39
g10
I499
sg14
VA Game of Biochess
p40
sa(dp41
g10
I499
sg14
VHired Man
p42
sa(dp43
g10
I326
sg14
VFruit of the Vine
p44
sa(dp45
g10
I499
sg14
VDry Run
p46
sa(dp47
g10
I499
sg14
VWhipping Star (Part 2 of 4)
p48
sa(dp49
g10
I356
sg14
VReading Room (If, February 1970)
p50
sa(dp51
g10
I326
sg14
VSf Calendar (If, February 1970)
p52
sa(dp53
g10
I667
sg14
VHue and Cry (If, February 1970)
p54
sa(dp55
g10
I47
sg14
VPressure Vessel
p56
sa(dp57
g10
I63
sg14
VWhipping Star (Part 2 of 4)
p58
sa(dp59
g10
I651
sg14
VA Matter of Recordings
p60
sa(dp61
g10
I225
sg14
VPrez
p62
sa(dp63
g10
I1196
sg14
VThe Cube
p64
sa(dp65
g10
I669
sg14
VA Game of Biochess
p66
sa(dp67
g10
I1197
sg14
VHired Man
p68
sa(dp69
g10
I666
sg14
VFruit of the Vine
p70
sa(dp71
g10
I694
sg14
VDry Run
p72
sasb.