ccopy_reg
_reconstructor
p0
(cdataset.Book
Book
p1
c__builtin__
object
p2
Ntp3
Rp4
(dp5
S'similar_books'
p6
(lp7
sS'genres'
p8
(lp9
sS'author'
p10
I302
sS'countries'
p11
(lp12
I2
asS'year'
p13
I1959
sS'title'
p14
VGalaxy Magazine December 1959
p15
sS'cover'
p16
Vhttps://ia600209.us.archive.org/BookReader/BookReaderImages.php?zip=/7/items/Galaxy_v18n02_1959-12/Galaxy_v18n02_1959-12_jp2.zip&file=Galaxy_v18n02_1959-12_jp2/Galaxy_v18n02_1959-12_0000.jp2&scale=0&rotate=0
p17
sS'cover_art'
p18
S'http://www.isfdb.org/wiki/images/f/fb/GALDEC1959.jpg'
p19
sS'author_name'
p20
VGalaxy Magazine
p21
sS'images_urls'
p22
(lp23
sS'authors'
p24
(lp25
I506
aI545
aI497
aI519
aI419
aI305
aI339
aI326
aI483
aI23
aI95
aI142
aI549
aI182
aI159
aI8
aI40
aI45
aI302
asS'images'
p26
(lp27
sS'id'
p28
I1076
sS'contents'
p29
(lp30
(dp31
S'title'
p32
VProspector's Special
p33
sS'author'
p34
I506
sa(dp35
g32
VProspector's Special [2]
p36
sg34
I506
sa(dp37
g32
VProspector's Special [3]
p38
sg34
I506
sa(dp39
g32
VFlower Arrangement
p40
sg34
I506
sa(dp41
g32
VSales Talk
p42
sg34
I545
sa(dp43
g32
VThe Undetected
p44
sg34
I497
sa(dp45
g32
VThe Undetected [2]
p46
sg34
I497
sa(dp47
g32
VThe Undetected [3]
p48
sg34
I497
sa(dp49
g32
VWar Game
p50
sg34
I519
sa(dp51
g32
VCharity Case
p52
sg34
I419
sa(dp53
g32
VCharity Case [2]
p54
sg34
I419
sa(dp55
g32
VCharity Case [3]
p56
sg34
I419
sa(dp57
g32
VThe Snowmen
p58
sg34
I519
sa(dp59
g32
VSabbatical
p60
sg34
I497
sa(dp61
g32
VBlacksword
p62
sg34
I519
sa(dp63
g32
VBlacksword [2]
p64
sg34
I519
sa(dp65
g32
VBlacksword [3]
p66
sg34
I519
sa(dp67
g32
VOf All Things
p68
sg34
I305
sa(dp69
g32
VFor Your Information: Dead or Alive?
p70
sg34
I339
sa(dp71
g32
VForecast (Galaxy, December 1959)
p72
sg34
I326
sa(dp73
g32
VGalaxy's 5 Star Shelf (Galaxy, December 1959)
p74
sg34
I483
sa(dp75
g32
VProspector's Special
p76
sg34
I23
sa(dp77
g32
VThe Undetected
p78
sg34
I95
sa(dp79
g32
VCharity Case
p80
sg34
I142
sa(dp81
g32
VBlacksword
p82
sg34
I549
sa(dp83
g32
VFlower Arrangement
p84
sg34
I182
sa(dp85
g32
VSales Talk
p86
sg34
I159
sa(dp87
g32
VWar Game
p88
sg34
I8
sa(dp89
g32
VThe Snowmen
p90
sg34
I40
sa(dp91
g32
VSabbatical
p92
sg34
I45
sasb.