ccopy_reg
_reconstructor
p0
(cdataset.Book
Book
p1
c__builtin__
object
p2
Ntp3
Rp4
(dp5
S'content_name'
p6
V22332.txt.utf-8
p7
sS'isbn'
p8
V1434401561
p9
sS'year'
p10
I1959
sS'author_name'
p11
VRandall Garrett
p12
sS'images_urls'
p13
(lp14
sS'language_code'
p15
Veng
p16
sS'images'
p17
(lp18
sS'id'
p19
I194
sS'category'
p20
VText
p21
sS'genres'
p22
(lp23
sS'copyright'
p24
VPublic domain in the USA.
p25
sS'title'
p26
VBrain Twister
p27
sS'wikipedia'
p28
(dp29
S'found'
p30
I00
ssS'average_rating'
p31
F3.42
sS'rating_count'
p32
I85
sS'content_available'
p33
I01
sS'goodreads'
p34
(dp35
S'url'
p36
Vhttps://www.goodreads.com/book/show/2538457.Brain_Twister
p37
sg30
I01
sS'year'
p38
I1959
ssS'similar_books'
p39
(lp40
VThe Whole Man
p41
aVThe Pirates of Ersatz
p42
aVDavy
p43
aVThe Planet Buyer
p44
aVThe Enemy Stars
p45
aVStar Light
p46
aVPlanet of the Damned
p47
aVWho?
p48
aVThe Butterfly Kid
p49
aVDay of the Minotaur
p50
aVImmortality, Inc.
p51
aVDark Universe
p52
aVPast Master
p53
aVTime Is the Simplest Thing
p54
aVToo Many Magicians (Lord Darcy, #2)
p55
aVSea Siege
p56
aVSkylark DuQuesne (Skylark #4)
p57
aVBlind Voices
p58
asS'description'
p59
V"Mark Phillips" was the pseudonym of two well-known science fiction writers: Randall Garrett and Laurence M. Janifer. Their joint pen-name, derived from their middle names (Philip and Mark), was coined soon after their original meeting, at a science-fiction convention. Both men were drunk at the time, which explains a good deal, and only one ever sobered up. A matter for constant contention between the collaborators was which one. They collaborated for some years, and devised an interesting method of work: Mr. Garrett handled the verbs, the adverbs and the interjections, Mr. Janifer the nouns, pronouns, and adjectives. Conjunctions are a matter of joint decision, and in the case of a tie, the entire game was replayed at Fenway Park, Boston, the following year. Regardless of who wrote what, Brain Twister is a highly enjoyable novel about spies and telepathy, as only two great writers could have conceived it!
p60
sS'format'
p61
VPaperback
p62
sS'gutenberg'
p63
(dp64
g36
Vhttp://www.gutenberg.org/ebooks/22332
p65
sS'num'
p66
I22332
ssS'authors'
p67
(lp68
I49
aI64
asS'pages'
p69
I128
sS'isbn13'
p70
V9781434401564
p71
sS'language'
p72
VEnglish
p73
sS'countries'
p74
(lp75
I2
asS'release_date'
p76
S'2007-08-16T00:00:00'
p77
sS'author'
p78
I49
sS'content_cleaned'
p79
I01
sS'classes'
p80
(lp81
Vto-read
p82
aVcurrently-reading
p83
aVscience-fiction
p84
aVfiction
p85
aVmystery
p86
aVmy-ebooks
p87
aVebooks
p88
aVhugo-nominees
p89
aVhugo-nominee
p90
aVsf
p91
aVseries
p92
aVkindle
p93
aVsci-fi
p94
aVmight-read
p95
aVhugo-nominated
p96
aVhugo
p97
aVscifi-fantasy
p98
aVread-in-2013
p99
aVenglish
p100
aVvintage
p101
aVpublic-domain-science-fiction
p102
aVdetective
p103
aVhugo-award-nominee
p104
aVunread
p105
aVaudiobook
p106
aVhugo-award
p107
aVlistened-to-audio-book-vibrivox
p108
aVcollaboration
p109
aVhugo-award-winners-and-nominees
p110
aVunsorted-read
p111
aVmy-collection
p112
aVtbr-ltr-pre-2k
p113
aVhugo-nebula-plus-nominations
p114
aVpiled-up-ready-to-read
p115
aVaudiobooks
p116
aVdefault
p117
aVsounds-interesting
p118
aVhugo-winners-and-nominees
p119
aVwant-to-read-hugo
p120
aVmy-self
p121
aVown-audiobook
p122
aVpnr-uf-sf-read
p123
aVnal-al-2-read
p124
aVhugo-nominee-1960
p125
aVto-read-sf
p126
aVfantacy
p127
aVpg-13
p128
aVparanormal
p129
aVcold-war
p130
aVphillip-k-dick-scifi
p131
aVother
p132
aVnook-59-sci-fi-classics
p133
aVown-kindle
p134
aVbooks-i-own
p135
aVshelved
p136
aVshort-reads
p137
aVproject-gutenberg
p138
aVhugo-queue
p139
aVcollection
p140
aVfiction-series
p141
aVfantasy
p142
aVnot-in-library
p143
aVi-have-need-to-read
p144
aVsf-nominees
p145
aV100-200
p146
aVfiction-mystery
p147
aVwomen
p148
aVto-read-20th-sf
p149
aVspeculative-fiction
p150
aVseries-first-in
p151
aVpsionics
p152
aVmistakes
p153
aVjuvenile
p154
aVgirls
p155
aVcomputer
p156
aVaward-nominee-hugo
p157
aV20_sf-and-fantasy-novels
p158
aV20_kindle_books
p159
aV2014-reading-list
p160
aVhugo-nebula
p161
aV2a
p162
aVspec-fic-sci-fi
p163
aVspec-fic-awd-hugo-nom
p164
aVspec-fic
p165
aVfeedbooks-com
p166
aVnook
p167
aVj-to-read
p168
aVebook-to-read
p169
aVhugo-novel-finalist
p170
aVromance-romantic
p171
aVmystery-thriller
p172
aVhumor
p173
aVfuturistic
p174
aVei-suom
p175
aVsci-fi-fantasy
p176
aVz-hugo-nominee
p177
aVeasy-read
p178
aVcrime
p179
aVhugo-awards
p180
aVbook-smart
p181
asS'loc_class'
p182
VPS: Language and Literatures: American and Canadian literature
p183
sS'n_authors'
p184
I2
sb.