ccopy_reg
_reconstructor
p0
(cdataset.Book
Book
p1
c__builtin__
object
p2
Ntp3
Rp4
(dp5
S'content_name'
p6
V30869.txt.utf-8
p7
sS'isbn'
p8
NsS'year'
p9
I1963
sS'author_name'
p10
VRandall Garrett
p11
sS'images_urls'
p12
(lp13
Vhttp://www.gutenberg.org/files/30869/30869-h/images/image_001.jpg
p14
aVhttp://www.gutenberg.org/files/30869/30869-h/images/image_002.jpg
p15
aVhttp://www.gutenberg.org/files/30869/30869-h/images/image_003.jpg
p16
asS'language_code'
p17
NsS'images'
p18
(lp19
sS'id'
p20
I399
sS'category'
p21
VText
p22
sS'genres'
p23
(lp24
sS'copyright'
p25
VPublic domain in the USA.
p26
sS'title'
p27
VThin Edge
p28
sS'wikipedia'
p29
(dp30
S'found'
p31
I00
ssS'average_rating'
p32
F3.5
sS'rating_count'
p33
I8
sS'content_available'
p34
I01
sS'goodreads'
p35
(dp36
S'url'
p37
Vhttps://www.goodreads.com/book/show/20349105-thin-edge
p38
sg31
I01
sS'year'
p39
I2010
ssS'similar_books'
p40
(lp41
sS'description'
p42
NsS'gutenberg'
p43
(dp44
g37
Vhttp://www.gutenberg.org/ebooks/30869
p45
sS'num'
p46
I30869
ssS'authors'
p47
(lp48
I49
asS'isbn13'
p49
NsS'language'
p50
VEnglish
p51
sS'countries'
p52
(lp53
I2
asS'release_date'
p54
S'2010-01-06T00:00:00'
p55
sS'author'
p56
I49
sS'content_cleaned'
p57
I01
sS'classes'
p58
(lp59
Vto-read
p60
aVcurrently-reading
p61
aVfree-from-amazon
p62
aVclassic
p63
aVshort-stories
p64
aVamazon-ebooks
p65
aVfiction
p66
aVscience-fiction
p67
aV2014-short-stories
p68
asS'loc_class'
p69
VPS: Language and Literatures: American and Canadian literature
p70
sS'n_authors'
p71
I1
sb.