ccopy_reg
_reconstructor
p0
(cdataset.Book
Book
p1
c__builtin__
object
p2
Ntp3
Rp4
(dp5
S'content_name'
p6
V32436.txt.utf-8
p7
sS'isbn'
p8
NsS'year'
p9
I1951
sS'author_name'
p10
VPoul Anderson
p11
sS'images_urls'
p12
(lp13
Vhttp://www.gutenberg.org/files/32436/32436-h/images/cover.jpg
p14
aVhttp://www.gutenberg.org/files/32436/32436-h/images/image_001_01.jpg
p15
aVhttp://www.gutenberg.org/files/32436/32436-h/images/image_001_02.jpg
p16
aVhttp://www.gutenberg.org/files/32436/32436-h/images/image_b.jpg
p17
aVhttp://www.gutenberg.org/files/32436/32436-h/images/image_h.jpg
p18
aVhttp://www.gutenberg.org/files/32436/32436-h/images/image_i.jpg
p19
aVhttp://www.gutenberg.org/files/32436/32436-h/images/image_k.jpg
p20
aVhttp://www.gutenberg.org/files/32436/32436-h/images/image_r.jpg
p21
aVhttp://www.gutenberg.org/files/32436/32436-h/images/image_t.jpg
p22
asS'language_code'
p23
Veng
p24
sS'images'
p25
(lp26
sS'id'
p27
I107
sS'category'
p28
VText
p29
sS'genres'
p30
(lp31
sS'copyright'
p32
VPublic domain in the USA.
p33
sS'title'
p34
VDuel on Syrtis
p35
sS'wikipedia'
p36
(dp37
S'found'
p38
I00
ssS'average_rating'
p39
F3.35
sS'rating_count'
p40
I37
sS'content_available'
p41
I01
sS'cover_art_url'
p42
S'http://www.gutenberg.org/cache/epub/32436/pg32436.cover.medium.jpg'
p43
sS'goodreads'
p44
(dp45
S'url'
p46
Vhttps://www.goodreads.com/book/show/8506769-duel-on-syrtis
p47
sg38
I01
sS'year'
p48
I1951
ssS'similar_books'
p49
(lp50
sS'description'
p51
VThe Man Who Meant To Kill A Martian<br /><br />Bold and ruthless, he was famed throughout the System as a big-game hunter. From the firedrakes of Mercury to the ice-crawlers of Pluto, he'd slain them all. But his trophy-room lacked one item; and now Riordan swore he'd bag the forbidden game that roamed the red deserts . . . a Martian!<br /><br />The night whispered the message. Over the many miles of loneliness it was borne, carried on the wind, rustled by the half-sentient lichens and the dwarfed trees, murmured from one to another of the little creatures that huddled under crags, in caves, by shadowy dunes. In no words, but in a dim pulsing of dread which echoed through Kreega's brain, the warning ran --<br /><br />"They are hunting again. They are hunting me."
p52
sS'gutenberg'
p53
(dp54
g46
Vhttp://www.gutenberg.org/ebooks/32436
p55
sS'num'
p56
I32436
ssS'authors'
p57
(lp58
I30
asS'isbn13'
p59
NsS'language'
p60
VEnglish
p61
sS'countries'
p62
(lp63
I2
asS'release_date'
p64
S'2010-05-19T00:00:00'
p65
sS'author'
p66
I30
sS'cover'
p67
Vhttps://s.gr-assets.com/assets/nophoto/book/111x148-bcc042a9c91a29c1d680899eff700a03.png
p68
sS'content_cleaned'
p69
I01
sS'classes'
p70
(lp71
Vto-read
p72
aVscience-fiction
p73
aVshort-stories
p74
aVsci-fi
p75
aVcurrently-reading
p76
aVshort-story
p77
aVfiction
p78
aV20th-century-lit
p79
aVon-librivox-web-site
p80
aVsyfy
p81
aVaudiobooks
p82
aVsf
p83
aV1950s
p84
aVmy-library
p85
aVunread
p86
aVeua
p87
aVpaul
p88
aV14
p89
aVlibrivox-short-scifi
p90
aVscifi
p91
aVsuspense
p92
aVread-2013
p93
aVe-books-read
p94
aVnook
p95
aV3-ebooks
p96
aVtype-short-story
p97
aVsci-fi-fantasy
p98
aV3a-ebooks
p99
asS'loc_class'
p100
VPS: Language and Literatures: American and Canadian literature
p101
sS'n_authors'
p102
I1
sb.