ccopy_reg
_reconstructor
p0
(cdataset.Book
Book
p1
c__builtin__
object
p2
Ntp3
Rp4
(dp5
S'content_name'
p6
V51398.txt.utf-8
p7
sS'isbn'
p8
NsS'year'
p9
I1957
sS'author_name'
p10
VCharles V. De Vet
p11
sS'images_urls'
p12
(lp13
Vhttp://www.gutenberg.org/files/51398/51398-h/images/cover.jpg
p14
aVhttp://www.gutenberg.org/files/51398/51398-h/images/illus.jpg
p15
asS'language_code'
p16
NsS'id'
p17
I730
sS'category'
p18
VText
p19
sS'genres'
p20
(lp21
sS'copyright'
p22
VPublic domain in the USA.
p23
sS'title'
p24
VGrowing Up On Big Muddy
p25
sS'wikipedia'
p26
(dp27
S'found'
p28
I00
ssS'average_rating'
p29
F2.0
sS'rating_count'
p30
I1
sS'content_available'
p31
I01
sS'cover_art_url'
p32
S'http://www.gutenberg.org/cache/epub/51398/pg51398.cover.medium.jpg'
p33
sS'goodreads'
p34
(dp35
S'url'
p36
Vhttps://www.goodreads.com/book/show/29493238-growing-up-on-big-muddy
p37
sS'found'
p38
I01
sS'year'
p39
I-1
ssS'similar_books'
p40
(lp41
sS'description'
p42
NsS'gutenberg'
p43
(dp44
g36
Vhttp://www.gutenberg.org/ebooks/51398
p45
sS'num'
p46
I51398
ssS'authors'
p47
(lp48
I121
asS'isbn13'
p49
NsS'language'
p50
VEnglish
p51
sS'countries'
p52
(lp53
I2
asS'release_date'
p54
S'2016-03-08T00:00:00'
p55
sS'author'
p56
I121
sS'cover'
p57
Vhttps://s.gr-assets.com/assets/nophoto/book/111x148-bcc042a9c91a29c1d680899eff700a03.png
p58
sS'content_cleaned'
p59
I01
sS'classes'
p60
(lp61
sS'loc_class'
p62
S''
p63
sS'n_authors'
p64
I1
sb.