ccopy_reg
_reconstructor
p0
(cdataset.Book
Book
p1
c__builtin__
object
p2
Ntp3
Rp4
(dp5
S'content_name'
p6
V32592.txt.utf-8
p7
sS'isbn'
p8
NsS'year'
p9
I1952
sS'author_name'
p10
VH. B. Fyfe
p11
sS'images_urls'
p12
(lp13
Vhttp://www.gutenberg.org/files/32592/32592-h/images/cover.jpg
p14
aVhttp://www.gutenberg.org/files/32592/32592-h/images/illus.jpg
p15
asS'language_code'
p16
Veng
p17
sS'id'
p18
I788
sS'category'
p19
VText
p20
sS'genres'
p21
(lp22
sS'copyright'
p23
VPublic domain in the USA.
p24
sS'title'
p25
VLet There Be Light
p26
sS'wikipedia'
p27
(dp28
S'found'
p29
I00
ssS'average_rating'
p30
F3.93
sS'rating_count'
p31
I7
sS'content_available'
p32
I01
sS'cover_art_url'
p33
S'http://www.gutenberg.org/cache/epub/32592/pg32592.cover.medium.jpg'
p34
sS'goodreads'
p35
(dp36
S'url'
p37
S'https://www.goodreads.com/book/show/17909565-let-there-be-light'
p38
sS'found'
p39
I01
ssS'similar_books'
p40
(lp41
sS'description'
p42
V<b> No matter what the future, one factor must always be reckoned with \u2014 the ingenuity of the human animal. </b><br /><br /><i>Science Fiction </i><br />Play Duration: 00:15:49 <br />Public Domain stories from Project Gutenberg, that are read by volunteers. <br />First published in <i>\u201dIF Worlds of Science Fiction\u201d</i> <br /><br /><u>Free download from LibriVox.org</u>
p43
sS'gutenberg'
p44
(dp45
S'url'
p46
Vhttp://www.gutenberg.org/ebooks/32592
p47
sS'num'
p48
I32592
ssS'authors'
p49
(lp50
I94
asS'isbn13'
p51
NsS'language'
p52
VEnglish
p53
sS'countries'
p54
(lp55
I2
asS'release_date'
p56
S'2010-05-30T00:00:00'
p57
sS'author'
p58
I94
sS'cover'
p59
Vhttps://images.gr-assets.com/books/1368328513l/17909565.jpg
p60
sS'content_cleaned'
p61
I01
sS'classes'
p62
(lp63
Vto-read
p64
aVfree-from-amazon
p65
aVclassic
p66
aVowned-not-read
p67
aVibooks
p68
asS'loc_class'
p69
VPS: Language and Literatures: American and Canadian literature
p70
sS'n_authors'
p71
I1
sb.