ccopy_reg
_reconstructor
p0
(cdataset.Book
Book
p1
c__builtin__
object
p2
Ntp3
Rp4
(dp5
S'content_name'
p6
V31701.txt.utf-8
p7
sS'isbn'
p8
NsS'year'
p9
I1960
sS'author_name'
p10
VJesse F. Bone
p11
sS'images_urls'
p12
(lp13
Vhttp://www.gutenberg.org/files/31701/31701-h/images/cover.jpg
p14
aVhttp://www.gutenberg.org/files/31701/31701-h/images/image_001.jpg
p15
aVhttp://www.gutenberg.org/files/31701/31701-h/images/image_a.jpg
p16
asS'language_code'
p17
Veng
p18
sS'images'
p19
(lp20
sS'id'
p21
I919
sS'category'
p22
VText
p23
sS'genres'
p24
(lp25
sS'copyright'
p26
VPublic domain in the USA.
p27
sS'title'
p28
VNoble Redman
p29
sS'wikipedia'
p30
(dp31
S'found'
p32
I00
ssS'average_rating'
p33
F3.83
sS'rating_count'
p34
I6
sS'content_available'
p35
I01
sS'cover_art_url'
p36
S'http://www.gutenberg.org/cache/epub/31701/pg31701.cover.medium.jpg'
p37
sS'goodreads'
p38
(dp39
S'url'
p40
Vhttps://www.goodreads.com/book/show/18111961-noble-redman
p41
sg32
I01
sS'year'
p42
I1960
ssS'similar_books'
p43
(lp44
sS'description'
p45
VThis book was converted from its physical edition to the digital format by a community of volunteers. You may find it free on the web. Purchase of the Kindle edition includes wireless delivery.
p46
sS'gutenberg'
p47
(dp48
g40
Vhttp://www.gutenberg.org/ebooks/31701
p49
sS'num'
p50
I31701
ssS'authors'
p51
(lp52
I68
asS'isbn13'
p53
NsS'language'
p54
VEnglish
p55
sS'countries'
p56
(lp57
I2
asS'release_date'
p58
S'2010-03-19T00:00:00'
p59
sS'author'
p60
I68
sS'content_cleaned'
p61
I01
sS'classes'
p62
(lp63
Vto-read
p64
aVcurrently-reading
p65
asS'loc_class'
p66
VPS: Language and Literatures: American and Canadian literature
p67
sS'n_authors'
p68
I1
sb.