ccopy_reg
_reconstructor
p0
(cdataset.Book
Book
p1
c__builtin__
object
p2
Ntp3
Rp4
(dp5
S'content_name'
p6
V51533.txt.utf-8
p7
sS'author_name'
p8
VDonald Colvin
p9
sS'images_urls'
p10
(lp11
Vhttp://www.gutenberg.org/files/51533/51533-h/images/cover.jpg
p12
aVhttp://www.gutenberg.org/files/51533/51533-h/images/illus.jpg
p13
asS'year'
p14
I1951
sS'images'
p15
(lp16
sS'id'
p17
I890
sS'category'
p18
VText
p19
sS'genres'
p20
(lp21
sS'copyright'
p22
VPublic domain in the USA.
p23
sS'title'
p24
VThe Celestial Hammerlock
p25
sS'wikipedia'
p26
(dp27
S'found'
p28
I00
ssS'cover_art_url'
p29
S'http://www.gutenberg.org/cache/epub/51533/pg51533.cover.medium.jpg'
p30
sS'goodreads'
p31
(dp32
g28
I00
ssS'similar_books'
p33
(lp34
sS'content_available'
p35
I01
sS'gutenberg'
p36
(dp37
S'url'
p38
Vhttp://www.gutenberg.org/ebooks/51533
p39
sS'num'
p40
I51533
ssS'authors'
p41
(lp42
I268
asS'language'
p43
VEnglish
p44
sS'countries'
p45
(lp46
I3
asS'release_date'
p47
S'2016-03-23T00:00:00'
p48
sS'author'
p49
I268
sS'content_cleaned'
p50
I01
sS'classes'
p51
(lp52
sS'loc_class'
p53
S''
p54
sS'n_authors'
p55
I1
sb.