ccopy_reg
_reconstructor
p0
(cdataset.Book
Book
p1
c__builtin__
object
p2
Ntp3
Rp4
(dp5
S'content_name'
p6
V31929.txt.utf-8
p7
sS'isbn'
p8
NsS'year'
p9
I2010
sS'author_name'
p10
VRaymond Z. Gallun
p11
sS'images_urls'
p12
(lp13
Vhttp://www.gutenberg.org/files/31929/31929-h/images/cover.jpg
p14
aVhttp://www.gutenberg.org/files/31929/31929-h/images/image_001.jpg
p15
aVhttp://www.gutenberg.org/files/31929/31929-h/images/image_b.jpg
p16
aVhttp://www.gutenberg.org/files/31929/31929-h/images/image_d.jpg
p17
aVhttp://www.gutenberg.org/files/31929/31929-h/images/image_h.jpg
p18
aVhttp://www.gutenberg.org/files/31929/31929-h/images/image_t.jpg
p19
aVhttp://www.gutenberg.org/files/31929/31929-h/images/image_u.jpg
p20
aVhttp://www.gutenberg.org/files/31929/31929-h/images/image_u1.jpg
p21
aVhttp://www.gutenberg.org/files/31929/31929-h/images/image_w.jpg
p22
asS'language_code'
p23
NsS'images'
p24
(lp25
sS'id'
p26
I679
sS'category'
p27
VText
p28
sS'genres'
p29
(lp30
sS'copyright'
p31
VPublic domain in the USA.
p32
sS'title'
p33
VBig Pill
p34
sS'wikipedia'
p35
(dp36
S'found'
p37
I00
ssS'average_rating'
p38
F3.25
sS'rating_count'
p39
I8
sS'content_available'
p40
I01
sS'cover_art_url'
p41
S'http://www.gutenberg.org/cache/epub/31929/pg31929.cover.medium.jpg'
p42
sS'goodreads'
p43
(dp44
S'url'
p45
Vhttps://www.goodreads.com/book/show/12992193-big-pill
p46
sg37
I01
sS'year'
p47
I2010
ssS'similar_books'
p48
(lp49
sS'description'
p50
Vcopyright free short SF story
p51
sS'format'
p52
NsS'gutenberg'
p53
(dp54
g45
Vhttp://www.gutenberg.org/ebooks/31929
p55
sS'num'
p56
I31929
ssS'authors'
p57
(lp58
I148
asS'isbn13'
p59
NsS'language'
p60
VEnglish
p61
sS'countries'
p62
(lp63
I2
asS'release_date'
p64
S'2010-04-09T00:00:00'
p65
sS'author'
p66
I148
sS'content_cleaned'
p67
I01
sS'classes'
p68
(lp69
Vto-read
p70
aVsci-fi
p71
aVcurrently-reading
p72
aV21st-century-lit
p73
aVowned-pending-kindle-free-ebook
p74
aVscience-fiction
p75
aVshort-story
p76
aVaudio-obtained
p77
aVtype-short-story
p78
aVaudio-obtained-ss
p79
asS'loc_class'
p80
VPS: Language and Literatures: American and Canadian literature
p81
sS'n_authors'
p82
I1
sb.