ccopy_reg
_reconstructor
p0
(cdataset.Book
Book
p1
c__builtin__
object
p2
Ntp3
Rp4
(dp5
S'content_name'
p6
V23942.txt.utf-8
p7
sS'isbn'
p8
NsS'year'
p9
I1959
sS'author_name'
p10
VMack Reynolds
p11
sS'images_urls'
p12
(lp13
Vhttp://www.gutenberg.org/files/23942/23942-h/images/001.png
p14
aVhttp://www.gutenberg.org/files/23942/23942-h/images/002.png
p15
asS'language_code'
p16
Veng
p17
sS'images'
p18
(lp19
sS'id'
p20
I855
sS'category'
p21
VText
p22
sS'genres'
p23
(lp24
sS'copyright'
p25
VPublic domain in the USA.
p26
sS'title'
p27
VUnborn Tomorrow
p28
sS'wikipedia'
p29
(dp30
S'found'
p31
I00
ssS'average_rating'
p32
F3.29
sS'rating_count'
p33
I5
sS'content_available'
p34
I01
sS'goodreads'
p35
(dp36
S'url'
p37
Vhttps://www.goodreads.com/book/show/18659433-unborn-tomorrow
p38
sg31
I01
sS'year'
p39
I2011
ssS'similar_books'
p40
(lp41
sS'description'
p42
VThis book was converted from its physical edition to the digital format by a team of volunteers. You may find it for free on the web. Purchase of the Kindle edition includes wireless delivery.
p43
sS'gutenberg'
p44
(dp45
g37
Vhttp://www.gutenberg.org/ebooks/23942
p46
sS'num'
p47
I23942
ssS'authors'
p48
(lp49
I69
asS'isbn13'
p50
NsS'language'
p51
VEnglish
p52
sS'countries'
p53
(lp54
I2
asS'release_date'
p55
S'2007-12-20T00:00:00'
p56
sS'author'
p57
I69
sS'cover'
p58
Vhttps://s.gr-assets.com/assets/nophoto/book/111x148-bcc042a9c91a29c1d680899eff700a03.png
p59
sS'content_cleaned'
p60
I01
sS'classes'
p61
(lp62
Vto-read
p63
aVtime-traveling
p64
aVshort-story
p65
asS'loc_class'
p66
VPS: Language and Literatures: American and Canadian literature
p67
sS'n_authors'
p68
I1
sb.