ccopy_reg
_reconstructor
p0
(cdataset.Book
Book
p1
c__builtin__
object
p2
Ntp3
Rp4
(dp5
S'similar_books'
p6
(lp7
sS'genres'
p8
(lp9
sS'author'
p10
I302
sS'countries'
p11
(lp12
I2
asS'year'
p13
I1958
sS'title'
p14
VGalaxy Magazine September 1958
p15
sS'cover'
p16
Vhttps://ia600201.us.archive.org/BookReader/BookReaderImages.php?zip=/1/items/Galaxy_v16n05_1958-09/Galaxy_v16n05_1958-09_jp2.zip&file=Galaxy_v16n05_1958-09_jp2/Galaxy_v16n05_1958-09_0000.jp2&scale=0&rotate=0
p17
sS'cover_art'
p18
S'http://www.isfdb.org/wiki/images/c/c7/MLO4454.jpg'
p19
sS'author_name'
p20
VGalaxy Magazine
p21
sS'images_urls'
p22
(lp23
sS'authors'
p24
(lp25
I519
aI419
aI506
aI305
aI339
aI483
aI538
aI539
aI540
aI541
aI326
aI3
aI182
aI204
aI498
aI542
aI302
asS'images'
p26
(lp27
sS'id'
p28
I1067
sS'contents'
p29
(lp30
(dp31
g10
I519
sg14
VLastborn
p32
sa(dp33
g10
I519
sg14
VLastborn [2]
p34
sa(dp35
g10
I519
sg14
VLastborn [3]
p36
sa(dp37
g10
I419
sg14
VOn the Double
p38
sa(dp39
g10
I519
sg14
VThe Stroke of the Sun
p40
sa(dp41
g10
I506
sg14
VFrom an Unseen Censor
p42
sa(dp43
g10
I506
sg14
VFrom an Unseen Censor [2]
p44
sa(dp45
g10
I519
sg14
VPersonnel Problem
p46
sa(dp47
g10
I519
sg14
VThing of Beauty
p48
sa(dp49
g10
I519
sg14
VThing of Beauty [2]
p50
sa(dp51
g10
I305
sg14
VBreeches Needed
p52
sa(dp53
g10
I339
sg14
VFor Your Information: The Last of the Moas
p54
sa(dp55
g10
I483
sg14
VGalaxy's 5 Star Shelf (Galaxy, September 1958)
p56
sa(dp57
g10
I538
sg14
VReview of the Nonfiction Work "the First Book of Archaeology"
p58
sa(dp59
g10
I539
sg14
VReview of the Nonfiction Work "the First Book of Mammals"
p60
sa(dp61
g10
I540
sg14
VReview of the Nonfiction Work "the First Book of Submarines"
p62
sa(dp63
g10
I541
sg14
VReview of the Nonfiction Work "the Wonderful World of Energy"
p64
sa(dp65
g10
I326
sg14
VForecast (Galaxy, September 1958)
p66
sa(dp67
g10
I3
sg14
VLastborn
p68
sa(dp69
g10
I182
sg14
VFrom an Unseen Censor
p70
sa(dp71
g10
I204
sg14
VThing of Beauty
p72
sa(dp73
g10
I498
sg14
VOn the Double
p74
sa(dp75
g10
I542
sg14
VThe Stroke of the Sun
p76
sa(dp77
g10
I305
sg14
VPersonnel Problem
p78
sasb.