ccopy_reg
_reconstructor
p0
(cdataset.Book
Book
p1
c__builtin__
object
p2
Ntp3
Rp4
(dp5
S'content_name'
p6
V29059.txt.utf-8
p7
sS'isbn'
p8
NsS'year'
p9
I1938
sS'author_name'
p10
VRay Cummings
p11
sS'images_urls'
p12
(lp13
Vhttp://www.gutenberg.org/files/29059/29059-h/images/illo.jpg
p14
asS'language_code'
p15
Veng
p16
sS'id'
p17
I765
sS'category'
p18
VText
p19
sS'genres'
p20
(lp21
sS'copyright'
p22
VPublic domain in the USA.
p23
sS'title'
p24
VThe World Beyond
p25
sS'wikipedia'
p26
(dp27
S'found'
p28
I00
ssS'average_rating'
p29
F3.74
sS'rating_count'
p30
I2132
sS'content_available'
p31
I01
sS'goodreads'
p32
(dp33
S'url'
p34
Vhttps://www.goodreads.com/book/show/24335191-torkel-s-chosen
p35
sS'found'
p36
I01
sS'year'
p37
I2015
ssS'similar_books'
p38
(lp39
VBay's Mercenary (Unearthly World, #1)
p40
aVNikhil (Kaliszians, #1)
p41
aVAbducted (Alien Mate Index, #1)
p42
aVCaptured (Warriors of Hir,  #1)
p43
aVTheron Destiny (Brides of Theron, #1)
p44
aVDagger's Hope (The Alliance, #3)
p45
aVRoark (Women of Earth, #1)
p46
aVAramus (Cyborgs: More Than Machines, #4)
p47
aVThe Melier (Women of Dor Nye, #1)
p48
aVEmbracing Emily (Warriors of Kelon, #7)
p49
aVReleasing Rage (Cyborg Sizzle, #1)
p50
aVStarkissed
p51
asS'description'
p52
V<b>What would you do if Earth didn\u2019t have enough men?<br />Would you take a chance and leave the only world you knew behind?</b><br /><br />This is the decision Faith Reid faces. Placing all her hope in a new government program, she seizes the opportunity that offers a chance for the women of Earth to find love among the stars, on a world beyond the one they know.<br /><br /><b>How many times can one man risk rejection?<br />Would you give up on your dreams?</b><br /><br />Torkel Alonson has had enough of being ignored and looked over by females on his adopted home world of Enotia. His pride has suffered and he must accept the painful truth. Females will never choose a male with his evil lineage despite his honorable service to his government\u2019s military.<br /><br />Can two people looking for the same thing find not just what they want but what they need in one another?
p53
sS'format'
p54
VKindle Edition
p55
sS'gutenberg'
p56
(dp57
g34
Vhttp://www.gutenberg.org/ebooks/29059
p58
sS'num'
p59
I29059
ssS'authors'
p60
(lp61
I71
asS'pages'
p62
I257
sS'isbn13'
p63
NsS'language'
p64
VEnglish
p65
sS'countries'
p66
(lp67
I2
asS'release_date'
p68
S'2009-06-07T00:00:00'
p69
sS'author'
p70
I71
sS'content_cleaned'
p71
I01
sS'classes'
p72
(lp73
Vto-read
p74
aVcurrently-reading
p75
aVsci-fi
p76
aValiens
p77
aVromance
p78
aValien
p79
aVscience-fiction
p80
aVsci-fi-romance
p81
aVfantasy
p82
aValien-romance
p83
aVparanormal
p84
aVerotica
p85
aVparanormal-romance
p86
aVdnf
p87
aVfuturistic
p88
aVseries
p89
aValpha-male
p90
aVaudiobook
p91
aVebook
p92
aVscifi
p93
aVspace
p94
aVmilitary
p95
aVscience-fiction-romance
p96
aVfavorites
p97
aVaction
p98
aVscifi-romance
p99
aVkindle
p100
aVsfr
p101
aVread-in-2015
p102
aVm-f
p103
aVadult
p104
aVdid-not-finish
p105
aV1st-in-series
p106
aVnot-interested
p107
aVmichelle-howard
p108
aVsf
p109
aVabuse
p110
aVsuspense
p111
aVerotic-romance
p112
aVread-2015
p113
aVgenre-sci-fi
p114
aVfiction
p115
aVerotic
p116
aVsyfy
p117
aVaudible
p118
aVromance-sci-fi
p119
aVinsta-love
p120
aVfantasy-sci-fi
p121
aVsteamy
p122
aVhot
p123
aVsmut
p124
aVwarrior
p125
aVsci-fi-fantasy
p126
aVfuturistic-sci-fi
p127
aValien-love
p128
aVebooks
p129
aVe-book
p130
aVspace-travel
p131
aVadopted
p132
aVadult-romance
p133
aVaudio
p134
aVkidnapping
p135
aVsci-fy
p136
aValpha-men
p137
aVaudiobooks
p138
aVromance-erotic
p139
aVadult-fiction
p140
aVcontemporary
p141
aVannoying-heroine
p142
aV2016-read
p143
aVcurvy
p144
aVbetrayal
p145
aVauthor-h
p146
aVbooks
p147
aVsci-fi-alien
p148
aValiens-space
p149
aVsf-romance
p150
aVwhat-am-i-thinking
p151
aVmars-needs-women
p152
aVfaves
p153
aVdrama
p154
aVowned
p155
aVibooks
p156
aVfirst-in-series
p157
aVbbw
p158
aV5-stars
p159
aVfantasy-paranormal
p160
aVseries-jail
p161
aVwish-list
p162
aValpha
p163
aVcould-not-finish
p164
aVtortured-hero
p165
aVhave
p166
aVromances
p167
aV2015-reads
p168
aVfantasy-romance
p169
aVsci-fi-erotica
p170
aVerotica-sci-fi
p171
aVsi-fi
p172
aValpha-males
p173
asS'loc_class'
p174
VPS: Language and Literatures: American and Canadian literature
p175
sS'n_authors'
p176
I1
sb.