ccopy_reg
_reconstructor
p0
(cdataset.Book
Book
p1
c__builtin__
object
p2
Ntp3
Rp4
(dp5
S'content_name'
p6
V24792.txt.utf-8
p7
sS'isbn'
p8
NsS'year'
p9
I2008
sS'author_name'
p10
VGerry Maddren
p11
sS'images_urls'
p12
(lp13
sS'language_code'
p14
NsS'images'
p15
(lp16
sS'id'
p17
I654
sS'category'
p18
VText
p19
sS'genres'
p20
(lp21
sS'copyright'
p22
VPublic domain in the USA.
p23
sS'title'
p24
VThe Alternate Plan
p25
sS'wikipedia'
p26
(dp27
S'found'
p28
I00
ssS'average_rating'
p29
F2.33
sS'rating_count'
p30
I5
sS'content_available'
p31
I01
sS'goodreads'
p32
(dp33
S'url'
p34
Vhttps://www.goodreads.com/book/show/6242384-the-alternate-plan
p35
sg28
I01
sS'year'
p36
I2008
ssS'similar_books'
p37
(lp38
sS'description'
p39
NsS'format'
p40
NsS'gutenberg'
p41
(dp42
g34
Vhttp://www.gutenberg.org/ebooks/24792
p43
sS'num'
p44
I24792
ssS'authors'
p45
(lp46
I213
asS'isbn13'
p47
NsS'language'
p48
VEnglish
p49
sS'country'
p50
I3
sS'release_date'
p51
S'2008-03-09T00:00:00'
p52
sS'author'
p53
I213
sS'content_cleaned'
p54
I01
sS'classes'
p55
(lp56
Vshort-story
p57
aVscience-fiction
p58
aVfiction
p59
aVsf
p60
aVaudio-obtained
p61
aVto-read
p62
aVtype-short-story
p63
aVaudio-obtained-ss
p64
asS'loc_class'
p65
VPS: Language and Literatures: American and Canadian literature
p66
sS'n_authors'
p67
I1
sb.