ccopy_reg
_reconstructor
p0
(cdataset.Book
Book
p1
c__builtin__
object
p2
Ntp3
Rp4
(dp5
S'content_name'
p6
V18109.txt.utf-8
p7
sS'isbn'
p8
V1557429502
p9
sS'year'
p10
I1958
sS'author_name'
p11
VH. Beam Piper
p12
sS'images_urls'
p13
(lp14
sS'language_code'
p15
NsS'id'
p16
I359
sS'category'
p17
VText
p18
sS'genres'
p19
(lp20
sS'copyright'
p21
VPublic domain in the USA.
p22
sS'title'
p23
VGraveyard of Dreams
p24
sS'wikipedia'
p25
(dp26
S'found'
p27
I00
ssS'average_rating'
p28
F3.71
sS'rating_count'
p29
I25
sS'content_available'
p30
I01
sS'goodreads'
p31
(dp32
S'url'
p33
Vhttps://www.goodreads.com/book/show/676230.Graveyard_of_Dreams
p34
sS'found'
p35
I01
sS'year'
p36
I1958
ssS'similar_books'
p37
(lp38
sS'description'
p39
VThis new collection of H. Beam Piper's shorter work includes five of his finest stories: "Graveyard of Dreams," "Genesis," "Operation R.S.V.P.," "The Answer," and "Last Enemy."
p40
sS'gutenberg'
p41
(dp42
g33
Vhttp://www.gutenberg.org/ebooks/18109
p43
sS'num'
p44
I18109
ssS'authors'
p45
(lp46
I19
asS'pages'
p47
I160
sS'isbn13'
p48
V9781557429506
p49
sS'language'
p50
VEnglish
p51
sS'countries'
p52
(lp53
I2
asS'release_date'
p54
S'2006-04-03T00:00:00'
p55
sS'author'
p56
I19
sS'content_cleaned'
p57
I01
sS'classes'
p58
(lp59
Vto-read
p60
aVscience-fiction
p61
aVfiction
p62
aVshort-stories
p63
aVh-beam-piper
p64
aVkindle
p65
aVtbr-and-have
p66
aVav-unknown
p67
aVto-read-sometime
p68
aVshort-story
p69
aVscifi
p70
aV20th-century-lit
p71
aVgalaktyka-gutenberga
p72
aVcurrently-reading
p73
aVsci-fi
p74
aV_print
p75
aV_ebook
p76
aV_audio
p77
aVignore
p78
aVqueue
p79
aVlibrary
p80
aVacquired
p81
aVstories
p82
aVshort
p83
aVscience
p84
aV0_books-i-d-like-to-own
p85
aVsci-fi-or-speculative
p86
aVhugo-nebula-reading-list
p87
aVseries-2-plus
p88
aVebook---epub
p89
aVto-read-unknown-source
p90
aVebook
p91
aVpublic-domain
p92
asS'loc_class'
p93
VPS: Language and Literatures: American and Canadian literature
p94
sS'n_authors'
p95
I1
sb.