ccopy_reg
_reconstructor
p0
(cdataset.Book
Book
p1
c__builtin__
object
p2
Ntp3
Rp4
(dp5
S'isbn'
p6
NsS'year'
p7
I1956
sS'author_name'
p8
VLester Del Rey
p9
sS'images_urls'
p10
(lp11
Vhttp://www.gutenberg.org/files/50103/50103-h/images/cover.jpg
p12
aVhttp://www.gutenberg.org/files/50103/50103-h/images/ill-031.jpg
p13
asS'language_code'
p14
NsS'id'
p15
I416
sS'category'
p16
VText
p17
sS'genres'
p18
(lp19
sS'copyright'
p20
VPublic domain in the USA.
p21
sS'title'
p22
VThe Dwindling Years
p23
sS'wikipedia'
p24
(dp25
S'found'
p26
I00
ssS'average_rating'
p27
F3.0
sS'rating_count'
p28
I6
sS'content_available'
p29
I00
sS'cover_art_url'
p30
S'http://www.gutenberg.org/cache/epub/50103/pg50103.cover.medium.jpg'
p31
sS'goodreads'
p32
(dp33
S'url'
p34
Vhttps://www.goodreads.com/book/show/28445641-the-dwindling-years
p35
sS'found'
p36
I01
sS'year'
p37
I1956
ssS'similar_books'
p38
(lp39
sS'description'
p40
NsS'gutenberg'
p41
(dp42
g34
Vhttp://www.gutenberg.org/ebooks/50103
p43
sS'num'
p44
I50103
ssS'authors'
p45
(lp46
I73
asS'pages'
p47
I28
sS'isbn13'
p48
NsS'language'
p49
VEnglish
p50
sS'countries'
p51
(lp52
I2
asS'release_date'
p53
S'2015-10-01T00:00:00'
p54
sS'author'
p55
I73
sS'cover'
p56
Vhttps://images.gr-assets.com/books/1451888294l/28445641.jpg
p57
sS'classes'
p58
(lp59
Vto-read
p60
aVscience-fiction
p61
aV20th-century-lit
p62
aVaudiobooks
p63
aVshort-stories
p64
aVfiction
p65
aVaudio-books-read
p66
aV3-stars
p67
aVaudio
p68
asS'loc_class'
p69
S''
p70
sS'n_authors'
p71
I1
sb.