ccopy_reg
_reconstructor
p0
(cdataset.Book
Book
p1
c__builtin__
object
p2
Ntp3
Rp4
(dp5
S'similar_books'
p6
(lp7
sS'genres'
p8
(lp9
sS'author'
p10
I302
sS'countries'
p11
(lp12
I2
asS'year'
p13
I1965
sS'title'
p14
VGalaxy Magazine June 1965
p15
sS'cover'
p16
Vhttps://ia600208.us.archive.org/BookReader/BookReaderImages.php?zip=/28/items/Galaxy_v23n05_1965-06/Galaxy_v23n05_1965-06_jp2.zip&file=Galaxy_v23n05_1965-06_jp2/Galaxy_v23n05_1965-06_0000.jp2&scale=0&rotate=0
p17
sS'cover_art'
p18
S'http://www.isfdb.org/wiki/images/6/67/GALJUN65.jpg'
p19
sS'author_name'
p20
VGalaxy Magazine
p21
sS'images_urls'
p22
(lp23
sS'authors'
p24
(lp25
I545
aI499
aI581
aI40
aI326
aI339
aI597
aI605
aI91
aI50
aI604
aI23
aI34
aI606
aI591
aI302
asS'images'
p26
(lp27
sS'id'
p28
I1107
sS'contents'
p29
(lp30
(dp31
S'title'
p32
VMindswap
p33
sS'author'
p34
I545
sa(dp35
g32
VMindswap [2]
p36
sg34
I545
sa(dp37
g32
VMindswap [3]
p38
sg34
I545
sa(dp39
g32
VMindswap [4]
p40
sg34
I545
sa(dp41
g32
VMindswap [5]
p42
sg34
I545
sa(dp43
g32
VBlue Fire
p44
sg34
I499
sa(dp45
g32
VBlue Fire [2]
p46
sg34
I499
sa(dp47
g32
VBlue Fire [3]
p48
sg34
I499
sa(dp49
g32
VOne Face
p50
sg34
I581
sa(dp51
g32
VOne Face [2]
p52
sg34
I581
sa(dp53
g32
VWhichness and Whereness
p54
sg34
I40
sa(dp55
g32
VForecast (Galaxy, June 1965)
p56
sg34
I326
sa(dp57
g32
VFor Your Information: The Observatory On the Moon
p58
sg34
I339
sa(dp59
g32
VObservatory On the Moon
p60
sg34
I597
sa(dp61
g32
VAn Eye for Selene
p62
sg34
I605
sa(dp63
g32
VGalaxy Bookshelf (Galaxy, June 1965)
p64
sg34
I91
sa(dp65
g32
VBlue Fire
p66
sg34
I50
sa(dp67
g32
VOne Face
p68
sg34
I604
sa(dp69
g32
VMindswap
p70
sg34
I23
sa(dp71
g32
VThink of a Man
p72
sg34
I34
sa(dp73
g32
VServant Problem
p74
sg34
I606
sa(dp75
g32
VDevil Car
p76
sg34
I591
sasb.