ccopy_reg
_reconstructor
p0
(cdataset.Book
Book
p1
c__builtin__
object
p2
Ntp3
Rp4
(dp5
S'content_name'
p6
V50826.txt.utf-8
p7
sS'isbn'
p8
V0316338923
p9
sS'year'
p10
I1952
sS'author_name'
p11
VDean Evans
p12
sS'images_urls'
p13
(lp14
Vhttp://www.gutenberg.org/files/50826/50826-h/images/cover.jpg
p15
aVhttp://www.gutenberg.org/files/50826/50826-h/images/illus1.jpg
p16
aVhttp://www.gutenberg.org/files/50826/50826-h/images/illus2.jpg
p17
asS'language_code'
p18
Veng
p19
sS'images'
p20
(lp21
sS'id'
p22
I732
sS'category'
p23
VText
p24
sS'genres'
p25
(lp26
sS'copyright'
p27
VPublic domain in the USA.
p28
sS'title'
p29
VThe Moons of Mars
p30
sS'wikipedia'
p31
(dp32
S'found'
p33
I00
ssS'average_rating'
p34
F3.88
sS'rating_count'
p35
I3224
sS'content_available'
p36
I01
sS'cover_art_url'
p37
S'http://www.gutenberg.org/cache/epub/50826/pg50826.cover.medium.jpg'
p38
sS'goodreads'
p39
(dp40
S'url'
p41
Vhttps://www.goodreads.com/book/show/26030711-rise-of-the-rocket-girls
p42
sg33
I01
sS'year'
p43
I2016
ssS'similar_books'
p44
(lp45
VHidden Figures: The American Dream and the Untold Story of the Black Women Mathematicians Who Helped Win the Space Race
p46
aVLouisa: The Extraordinary Life of Mrs. Adams
p47
aVThe Last Goodnight: A World War II Story of Espionage, Adventure & Betrayal
p48
aVThe Mercury 13: The True Story of Thirteen Women and the Dream of Space Flight
p49
aVBeyond: Our Future in Space
p50
aVThe Mathews Men: Seven Brothers and the War Against Hitler's U-boats
p51
aVInto the Black: The Extraordinary Untold Story of the First Flight of the Space Shuttle Columbia and the Astronauts Who Flew Her
p52
aVChrysalis: Maria Sibylla Merian and the Secrets of Metamorphosis
p53
aVThe Bad-Ass Librarians of Timbuktu: And Their Race to Save the World\u2019s Most Precious Manuscripts
p54
aVBreaking in: The Rise of Sonia Sotomayor and the Politics of Justice
p55
aVMars Rover Curiosity: An Inside Account from Curiosity's Chief Engineer
p56
aVThe Millionaire and the Bard: Henry Folger\u2019s Obsessive Hunt for Shakespeare\u2019s First Folio
p57
aVRocket Girl: The Story of Mary Sherman Morgan, America's First Female Rocket Scientist
p58
aVSally Ride: America\u2019s First Woman in Space
p59
aVThe Firebrand and the First Lady: Portrait of a Friendship: Pauli Murray, Eleanor Roosevelt, and the Struggle for Social Justice
p60
aVFlorynce "Flo" Kennedy: The Life of a Black Feminist Radical
p61
aVThe Only Woman in the Room: Why Science is Still A Boys' Club
p62
aVSpacesuit: Fashioning Apollo
p63
asS'description'
p64
V<b>The riveting true story of the women who launched America into space.<br /><br /></b>In the 1940s and 50s, when the newly minted Jet Propulsion Laboratory needed quick-thinking mathematicians to calculate velocities and plot trajectories, they didn't turn to male graduates. Rather, they recruited an elite group of young women who, with only pencil, paper, and mathematical prowess, transformed rocket design, helped bring about the first American satellites, and made the exploration of the solar system possible. <br /><br />For the first time, <i>Rise of the Rocket Girls</i> tells the stories of these women--known as "human computers"--who broke the boundaries of both gender and science. Based on extensive research and interviews with all the living members of the team, <i>Rise of the Rocket Girls</i> offers a unique perspective on the role of women in science: both where we've been, and the far reaches of space to which we're heading. <br />
p65
sS'format'
p66
VHardcover
p67
sS'gutenberg'
p68
(dp69
g41
Vhttp://www.gutenberg.org/ebooks/50826
p70
sS'num'
p71
I50826
ssS'authors'
p72
(lp73
I237
asS'pages'
p74
I338
sS'isbn13'
p75
V9780316338929
p76
sS'language'
p77
VEnglish
p78
sS'countries'
p79
(lp80
I3
asS'release_date'
p81
S'2016-01-02T00:00:00'
p82
sS'author'
p83
I237
sS'content_cleaned'
p84
I01
sS'classes'
p85
(lp86
Vto-read
p87
aVcurrently-reading
p88
aVnon-fiction
p89
aVhistory
p90
aVnonfiction
p91
aVscience
p92
aVbiography
p93
aVfeminism
p94
aVkindle
p95
aVspace
p96
aVbook-club
p97
aVhistorical
p98
aVlibrary
p99
aVwomen
p100
aVto-buy
p101
aVamerican-history
p102
aVwish-list
p103
aVto-read-non-fiction
p104
aVaudiobook
p105
aVaudio
p106
aVto-read-nonfiction
p107
aVfavorites
p108
aVowned
p109
aVread-in-2016
p110
aVnon-fiction-to-read
p111
aVbooks-i-own
p112
aVoverdrive
p113
aVadult
p114
aVabandoned
p115
aVbiography-memoir
p116
aVebook
p117
aVaudiobooks
p118
aVwomen-s-history
p119
aVread-2016
p120
aVfeminist
p121
aVmaybe
p122
aVmath
p123
aVto-read-history
p124
aVe-book
p125
aVbiographies
p126
aVwlclub
p127
aVus-history
p128
aVadult-nonfiction
p129
aVtbr-nonfiction
p130
aVdid-not-finish
p131
aVdnf
p132
aVnonfic
p133
aVlibrary-books
p134
aVastronomy
p135
aVamerican
p136
aVwomens-history
p137
aVhistory-non-fiction
p138
aVfemale-author
p139
aVhistory-to-read
p140
aVnonfiction-to-read
p141
aVwomen-s-studies
p142
aVnon-fiction-history
p143
aV20th-century
p144
aVread-in-2017
p145
aVwomen-in-science
p146
aVto-read-in-2017
p147
aV2017-books
p148
aVadult-non-fiction
p149
aVscience-technology
p150
aVgender
p151
aV2016-books
p152
aVphysics
p153
aVaudible
p154
aVnew
p155
aVat-library
p156
aV2016-reads
p157
aVebooks
p158
aVbookclub
p159
aVborrowed
p160
aV2016-releases
p161
aVnon-fic
p162
aVbiographical
p163
aVhistorical-nonfiction
p164
aVwar
p165
aVaudio-books
p166
aVown-to-read
p167
aV2017-reads
p168
aVon-kindle
p169
aVto-read-own
p170
aV2017-reading-challenge
p171
aVmemoir
p172
aVpopular-science
p173
aVhistorical-fiction
p174
aVdidn-t-finish
p175
aVengineering
p176
aVunfinished
p177
aVmathematics
p178
aVaudio-book
p179
aVtechnology
p180
aVaviation
p181
aVbook-club-ideas
p182
aVgender-studies
p183
aVnonfiction-history
p184
aVbiography-and-memoir
p185
aVcalifornia
p186
asS'loc_class'
p187
S''
p188
sS'n_authors'
p189
I1
sb.