ccopy_reg
_reconstructor
p0
(cdataset.Book
Book
p1
c__builtin__
object
p2
Ntp3
Rp4
(dp5
S'content_name'
p6
V29198.txt.utf-8
p7
sS'isbn'
p8
NsS'year'
p9
I1930
sS'author_name'
p10
VVarious
p11
sS'images_urls'
p12
(lp13
Vhttp://www.gutenberg.org/files/29198/29198-h/images/asf193007001.jpg
p14
aVhttp://www.gutenberg.org/files/29198/29198-h/images/asf193007005.jpg
p15
aVhttp://www.gutenberg.org/files/29198/29198-h/images/asf193007018.jpg
p16
aVhttp://www.gutenberg.org/files/29198/29198-h/images/asf193007019.jpg
p17
aVhttp://www.gutenberg.org/files/29198/29198-h/images/asf193007050.jpg
p18
aVhttp://www.gutenberg.org/files/29198/29198-h/images/asf193007062.jpg
p19
aVhttp://www.gutenberg.org/files/29198/29198-h/images/asf193007088.jpg
p20
aVhttp://www.gutenberg.org/files/29198/29198-h/images/asf193007089.jpg
p21
aVhttp://www.gutenberg.org/files/29198/29198-h/images/asf193007104.jpg
p22
aVhttp://www.gutenberg.org/files/29198/29198-h/images/asf193007109.jpg
p23
aVhttp://www.gutenberg.org/files/29198/29198-h/images/asf193007134.jpg
p24
aVhttp://www.gutenberg.org/files/29198/29198-h/images/banner.jpg
p25
asS'language_code'
p26
NsS'images'
p27
(lp28
sS'id'
p29
I97
sS'category'
p30
VText
p31
sS'genres'
p32
(lp33
sS'copyright'
p34
VPublic domain in the USA.
p35
sS'title'
p36
VAstounding Stories of Super-Science July 1930
p37
sS'wikipedia'
p38
(dp39
S'url'
p40
Vhttps://en.wikipedia.org/wiki/Science_Fiction_of_the_Thirties
p41
sS'found'
p42
I01
sS'year'
p43
I-1
ssS'published_in'
p44
NsS'average_rating'
p45
F3.88
sS'rating_count'
p46
I4
sS'content_available'
p47
I01
sS'goodreads'
p48
(dp49
g40
Vhttps://www.goodreads.com/book/show/8882713-astounding-stories-of-super-science-july-1930
p50
sg42
I01
sg43
I1930
ssS'similar_books'
p51
(lp52
sS'description'
p53
VThis book was converted from its physical edition to the digital format by a community of volunteers. You may find it for free on the web. Purchase of the Kindle edition includes wireless delivery.
p54
sS'format'
p55
NsS'gutenberg'
p56
(dp57
g40
Vhttp://www.gutenberg.org/ebooks/29198
p58
sS'num'
p59
I29198
ssS'authors'
p60
(lp61
I17
asS'isbn13'
p62
NsS'language'
p63
VEnglish
p64
sS'countries'
p65
(lp66
I3
asS'release_date'
p67
S'2009-06-21T00:00:00'
p68
sS'author'
p69
I17
sS'original_title'
p70
VScience Fiction of the Thirties
p71
sS'summary'
p72
VScience Fiction of the Thirties is an anthology of science fiction short stories edited by Damon Knight. It was first published in hardcover by Bobbs-Merrill in January 1976; a book club edition was issued simultaneously by the same publisher together with the Science Fiction Book Club, and a trade paperback edition by Avon Books in March 1977.\u000aThe book collects eighteen tales by various authors originally published in the 1930s and exemplifying American magazine science fiction of that decade, together with a foreword and three essays on the period by the editor, and a bibliography. The stories were originally published in Astounding Stories and Amazing Stories, the premier science fiction magazines of the time. The book reproduces period illustrations that accompanied the stories' original appearances by H. W. Wesso, Leo Morey, Paul Orban, Howard V. Brown, Elliott Dold, Jr., Thompson, and Charles Schneeman.
p73
sS'content_cleaned'
p74
I01
sS'classes'
p75
(lp76
Vshort-stories
p77
aVsci-fi
p78
aVgutenberg-org
p79
aVscience-fiction
p80
aVgutenberg
p81
aVpulp
p82
asS'loc_class'
p83
VPN: Language and Literatures: Literature: General, Criticism, Collections
p84
sS'n_authors'
p85
I1
sb.