ccopy_reg
_reconstructor
p0
(cdataset.Book
Book
p1
c__builtin__
object
p2
Ntp3
Rp4
(dp5
S'content_name'
p6
V32828.txt.utf-8
p7
sS'isbn'
p8
V0545651263
p9
sS'year'
p10
I1954
sS'author_name'
p11
VWinston K. Marks
p12
sS'images_urls'
p13
(lp14
Vhttp://www.gutenberg.org/files/32828/32828-h/images/cover.jpg
p15
aVhttp://www.gutenberg.org/files/32828/32828-h/images/illus1.jpg
p16
aVhttp://www.gutenberg.org/files/32828/32828-h/images/illus2.jpg
p17
aVhttp://www.gutenberg.org/files/32828/32828-h/images/illus3.jpg
p18
aVhttp://www.gutenberg.org/files/32828/32828-h/images/illus4.jpg
p19
aVhttp://www.gutenberg.org/files/32828/32828-h/images/illus5.jpg
p20
asS'language_code'
p21
Ven-CA
p22
sS'id'
p23
I814
sS'category'
p24
VText
p25
sS'genres'
p26
(lp27
sS'copyright'
p28
VPublic domain in the USA.
p29
sS'title'
p30
VBacklash
p31
sS'wikipedia'
p32
(dp33
S'found'
p34
I00
ssS'average_rating'
p35
F4.12
sS'rating_count'
p36
I3151
sS'content_available'
p37
I01
sS'cover_art_url'
p38
S'http://www.gutenberg.org/cache/epub/32828/pg32828.cover.medium.jpg'
p39
sS'goodreads'
p40
(dp41
S'url'
p42
Vhttps://www.goodreads.com/book/show/22856607-backlash
p43
sS'found'
p44
I01
sS'year'
p45
I2015
ssS'similar_books'
p46
(lp47
VThe Fall
p48
aVYour Voice Is All I Hear
p49
aVRead Between the Lines
p50
aVA Million Times Goodnight
p51
aVGirl Last Seen
p52
aVAdrift
p53
aVCaged Warrior
p54
aVUnder the Bridge
p55
aVBright Lights, Dark Nights
p56
aVViolent Ends
p57
aVLike It Never Happened
p58
aVBefore (Betwixt, #0.5)
p59
aVHeart Breaths
p60
aVNothing Special (Stupid Fast, #2)
p61
aVSilent Alarm
p62
aVDiscovering Delilah (Harborside Nights #2; Love in Bloom #56)
p63
aVEvery Last Promise
p64
aVTowers Falling
p65
asS'description'
p66
VHe says: You're an awful person.<br />He says: What makes you think I would ever ask you out?<br />He says: The world would be a better place without you in it.<br /><br />Lara just got told off on Facebook.<br /><br /><br />She thought that Christian liked her, that he was finally going to ask her to his school's homecoming dance. They've been talking online for weeks, so what's with the sudden change? And where does he get off saying horrible things on her wall? Even worse - are they true?<br /><br />It's been a long time since Lara's felt this bad, this depressed, this ugly. She's worked really hard to become pretty and happy - and make new friends after what happened in middle school.<br /><br />Bree used to be best friends with overweight, depressed Lara, but constantly listening to Lara's issues got to be too much. Secretly, Bree's glad Christian called Lara out. Lara's not nearly as amazing as people think. But no one realized just how far Christian's harsh comments would push Lara. Not even Bree.<br /><br />As online life collides with real life, things spiral out of control, and not just for Lara. Because when the truth starts to come together, the backlash is even more devastating than anyone could have ever imagined
p67
sS'format'
p68
VHardcover
p69
sS'gutenberg'
p70
(dp71
g42
Vhttp://www.gutenberg.org/ebooks/32828
p72
sS'num'
p73
I32828
ssS'authors'
p74
(lp75
I228
asS'pages'
p76
I336
sS'isbn13'
p77
V9780545651264
p78
sS'language'
p79
VEnglish
p80
sS'countries'
p81
(lp82
I3
asS'release_date'
p83
S'2010-06-15T00:00:00'
p84
sS'author'
p85
I228
sS'content_cleaned'
p86
I01
sS'classes'
p87
(lp88
Vto-read
p89
aVcurrently-reading
p90
aVyoung-adult
p91
aVya
p92
aVrealistic-fiction
p93
aVcontemporary
p94
aVbullying
p95
aVfavorites
p96
aVread-in-2015
p97
aVfiction
p98
aV2015-releases
p99
aVmental-illness
p100
aVbacklash
p101
aVromance
p102
aVfriendship
p103
aVsuicide
p104
aVlibrary
p105
aVto-buy
p106
aVrealistic
p107
aVya-lit
p108
aVhigh-school
p109
aVbooks-i-own
p110
aVread-in-2016
p111
aVbooks
p112
aVya-fiction
p113
aVfamily
p114
aVteen
p115
aVwish-list
p116
aV2015-books
p117
aVmental-health
p118
aV2015-release
p119
aVstand-alone
p120
aVschool
p121
aVscholastic
p122
aVcover-love
p123
aVread-2015
p124
aVsummer-2015
p125
aVcyberbullying
p126
aVdnf
p127
aVebooks
p128
aVcontemporary-fiction
p129
aVsocial-media
p130
aVyoung-adult-lit
p131
aVread-in-2017
p132
aVowned-books
p133
aVowned
p134
aVpsychological
p135
aVwant-to-read
p136
aVmystery
p137
aVdepression
p138
aVgenre-contemporary
p139
aVcontemporary-ya
p140
aVya-realistic-fiction
p141
aV2016-2017-school-year
p142
aVread-2016
p143
aVya-contemporary
p144
aVwirc
p145
aVmust-read
p146
aVcyber-bullying
p147
aVbooks-to-buy
p148
aVmultiple-perspectives
p149
aVread-2017
p150
aVbz
p151
aVstandalone
p152
aVmy-books
p153
aVdiversity
p154
aVmiddle-school
p155
aVabuse
p156
aVyoung-adult-fiction
p157
aVstand-alones
p158
aVlibrary-books
p159
aVneed-to-read
p160
aVmaybe
p161
aVsummer-reads
p162
aVtechnology
p163
aVbullies
p164
aVteen-fiction
p165
aVgood-books
p166
aV2015-reads
p167
aVcontemporary-realistic
p168
aVreviews
p169
aVrelationships
p170
aVgossip
p171
aVfirst-reads
p172
aVya-books
p173
aVarc
p174
aVteens
p175
aVinternet
p176
aVya-contemp
p177
aVstandalones
p178
aVebook
p179
aVapril-reads
p180
aVapril-2017
p181
aVbooks-i-want
p182
aVfriends
p183
aV2017-read
p184
aV40-book-challenge
p185
aVto-read-longlist
p186
aVsecrets
p187
aV4-star
p188
asS'loc_class'
p189
VPS: Language and Literatures: American and Canadian literature
p190
sS'n_authors'
p191
I1
sb.