ccopy_reg
_reconstructor
p0
(cdataset.Book
Book
p1
c__builtin__
object
p2
Ntp3
Rp4
(dp5
S'content_name'
p6
V50959.txt.utf-8
p7
sS'isbn'
p8
NsS'year'
p9
I1955
sS'author_name'
p10
VF. L. Wallace
p11
sS'images_urls'
p12
(lp13
Vhttp://www.gutenberg.org/files/50959/50959-h/images/cover.jpg
p14
aVhttp://www.gutenberg.org/files/50959/50959-h/images/illus.jpg
p15
asS'language_code'
p16
Veng
p17
sS'id'
p18
I900
sS'category'
p19
VText
p20
sS'genres'
p21
(lp22
sS'copyright'
p23
VPublic domain in the USA.
p24
sS'title'
p25
VEnd as a World
p26
sS'wikipedia'
p27
(dp28
S'found'
p29
I00
ssS'average_rating'
p30
F4.15
sS'rating_count'
p31
I63896
sS'content_available'
p32
I01
sS'cover_art_url'
p33
S'http://www.gutenberg.org/cache/epub/50959/pg50959.cover.medium.jpg'
p34
sS'goodreads'
p35
(dp36
S'url'
p37
Vhttps://www.goodreads.com/book/show/10374.Hard_Boiled_Wonderland_and_the_End_of_the_World
p38
sS'found'
p39
I01
sS'year'
p40
I1985
ssS'similar_books'
p41
(lp42
VThe Collected Poems
p43
aVPalm-of-the-Hand Stories
p44
aVThe Ark Sakura
p45
aVHaruki Murakami and the Music of Words
p46
aVThe Changeling
p47
aVNaomi
p48
aVDear Diary
p49
aV69
p50
aVMy Misspent Youth: Essays
p51
aVRunaway Horses
p52
aVAlien vs. Predator
p53
aVQuicksand and Passing
p54
aVThe Oxford Book of Japanese Short Stories
p55
aVOut
p56
aVSanshir\u014d
p57
aVKappa
p58
asS'description'
p59
V'A narrative particle accelerator that zooms between Wild Turkey Whiskey and Bob Dylan, unicorn skulls and voracious librarians, John Coltrane and <i>Lord Jim</i>. Science fiction, detective story and post-modern manifesto all rolled into one rip-roaring novel, <i>Hard-Boiled Wonderland and the End of the World</i> is the tour de force that expanded Haruki Murakami's international following. Tracking one man's descent into the Kafkaesque underworld of contemporary Tokyo, Murakami unites East and West, tragedy and farce, compassion and detachment, slang and philosophy.'
p60
sS'format'
p61
VPaperback
p62
sS'gutenberg'
p63
(dp64
g37
Vhttp://www.gutenberg.org/ebooks/50959
p65
sS'num'
p66
I50959
ssS'authors'
p67
(lp68
I138
asS'pages'
p69
I400
sS'isbn13'
p70
NsS'language'
p71
VEnglish
p72
sS'countries'
p73
(lp74
I2
asS'release_date'
p75
S'2016-01-18T00:00:00'
p76
sS'author'
p77
I138
sS'content_cleaned'
p78
I01
sS'classes'
p79
(lp80
Vto-read
p81
aVfiction
p82
aVfantasy
p83
aVjapan
p84
aVcurrently-reading
p85
aVjapanese
p86
aVmagical-realism
p87
aVscience-fiction
p88
aVfavorites
p89
aVmurakami
p90
aVsci-fi
p91
aVowned
p92
aVjapanese-literature
p93
aVliterature
p94
aVcontemporary
p95
aVharuki-murakami
p96
aVnovels
p97
aVbooks-i-own
p98
aVfavourites
p99
aVjapanese-lit
p100
aVto-buy
p101
aVnovel
p102
aVbook-club
p103
aVmystery
p104
aVliterary-fiction
p105
aVlibrary
p106
aVowned-books
p107
aVcontemporary-fiction
p108
aVasia
p109
aVscifi
p110
aVtranslated
p111
aVjapanese-fiction
p112
aVmagic-realism
p113
aVkindle
p114
aVasian
p115
aVsurrealism
p116
aVebook
p117
aV20th-century
p118
aVsci-fi-fantasy
p119
aVasian-literature
p120
aVwish-list
p121
aVdefault
p122
aVsurreal
p123
aVto-read-fiction
p124
aVabandoned
p125
aVaudiobook
p126
aVliterary
p127
aVgeneral-fiction
p128
aVadult
p129
aVspeculative-fiction
p130
aVdystopia
p131
aVtranslation
p132
aVadult-fiction
p133
aVmy-books
p134
aVre-read
p135
aVbooks
p136
aVfinished
p137
aVaudio
p138
aVaudiobooks
p139
aVweird
p140
aVjapanese-authors
p141
aVdystopian
p142
aVsf
p143
aVin-translation
p144
aVread-in-2013
p145
aVebooks
p146
aVenglish
p147
aVrecommended
p148
aVpostmodern
p149
aVfavorite-books
p150
aVfavorite
p151
aVshelfari-favorites
p152
aVread-in-2015
p153
aVbooks-to-read-in-your-20s
p154
aVon-hold
p155
aVlit
p156
aV1980s
p157
aVunfinished
p158
aVi-own
p159
aVbookclub
p160
aVread-in-2014
p161
aVphilosophy
p162
aVmodern
p163
aVwant
p164
aVmodern-fiction
p165
aVforeign
p166
aVfantasy-sci-fi
p167
aVread-in-2016
p168
aV65-books-to-read-in-your-20s
p169
aVmurakami-haruki
p170
aVall-time-favorites
p171
aVtranslations
p172
aVread-2016
p173
aVfavourite
p174
aVgiappone
p175
aVasian-lit
p176
aVromance
p177
aVfaves
p178
aVclassics
p179
aVe-book
p180
asS'loc_class'
p181
S''
p182
sS'n_authors'
p183
I1
sb.