ccopy_reg
_reconstructor
p0
(cdataset.Book
Book
p1
c__builtin__
object
p2
Ntp3
Rp4
(dp5
S'content_name'
p6
V51379.txt.utf-8
p7
sS'isbn'
p8
V1515405990
p9
sS'year'
p10
I1954
sS'author_name'
p11
VEdgar Pangborn
p12
sS'images_urls'
p13
(lp14
Vhttp://www.gutenberg.org/files/51379/51379-h/images/cover.jpg
p15
aVhttp://www.gutenberg.org/files/51379/51379-h/images/illus1.jpg
p16
aVhttp://www.gutenberg.org/files/51379/51379-h/images/illus2.jpg
p17
aVhttp://www.gutenberg.org/files/51379/51379-h/images/illus3.jpg
p18
asS'language_code'
p19
NsS'images'
p20
(lp21
sS'id'
p22
I606
sS'category'
p23
VText
p24
sS'genres'
p25
(lp26
sS'copyright'
p27
VPublic domain in the USA.
p28
sS'title'
p29
VThe Music Master of Babylon
p30
sS'wikipedia'
p31
(dp32
S'found'
p33
I00
ssS'average_rating'
p34
F3.75
sS'rating_count'
p35
I4
sS'content_available'
p36
I01
sS'cover_art_url'
p37
S'http://www.gutenberg.org/cache/epub/51379/pg51379.cover.medium.jpg'
p38
sS'goodreads'
p39
(dp40
S'url'
p41
Vhttps://www.goodreads.com/book/show/30084372-the-music-master-of-babylon
p42
sg33
I01
sS'year'
p43
I-1
ssS'similar_books'
p44
(lp45
sS'description'
p46
VWhat more fitting place for the last man on Earth to live in than a museum? Now if only he could avoid becoming an exhibit himself!
p47
sS'gutenberg'
p48
(dp49
g41
Vhttp://www.gutenberg.org/ebooks/51379
p50
sS'num'
p51
I51379
ssS'authors'
p52
(lp53
I132
asS'pages'
p54
I20
sS'isbn13'
p55
V9781515405993
p56
sS'language'
p57
VEnglish
p58
sS'countries'
p59
(lp60
I2
asS'release_date'
p61
S'2016-03-06T00:00:00'
p62
sS'author'
p63
I132
sS'cover'
p64
Vhttps://s.gr-assets.com/assets/nophoto/book/111x148-bcc042a9c91a29c1d680899eff700a03.png
p65
sS'content_cleaned'
p66
I01
sS'classes'
p67
(lp68
Vto-read
p69
aVowned
p70
aVsci-fi
p71
aVunknown-publication-dates
p72
aVscience-fiction
p73
aVlibrary
p74
aVserious
p75
asS'loc_class'
p76
S''
p77
sS'n_authors'
p78
I1
sb.