ccopy_reg
_reconstructor
p0
(cdataset.Book
Book
p1
c__builtin__
object
p2
Ntp3
Rp4
(dp5
S'content_name'
p6
V50904.txt.utf-8
p7
sS'isbn'
p8
V1598182285
p9
sS'year'
p10
I1961
sS'author_name'
p11
VJesse F. Bone
p12
sS'images_urls'
p13
(lp14
Vhttp://www.gutenberg.org/files/50904/50904-h/images/cover.jpg
p15
aVhttp://www.gutenberg.org/files/50904/50904-h/images/illus1.jpg
p16
aVhttp://www.gutenberg.org/files/50904/50904-h/images/illus2.jpg
p17
asS'language_code'
p18
NsS'images'
p19
(lp20
sS'id'
p21
I352
sS'category'
p22
VText
p23
sS'genres'
p24
(lp25
sS'copyright'
p26
VPublic domain in the USA.
p27
sS'title'
p28
VOn the Fourth Planet
p29
sS'wikipedia'
p30
(dp31
S'found'
p32
I00
ssS'average_rating'
p33
F3.71
sS'rating_count'
p34
I328
sS'content_available'
p35
I01
sS'cover_art_url'
p36
S'http://www.gutenberg.org/cache/epub/50904/pg50904.cover.medium.jpg'
p37
sS'goodreads'
p38
(dp39
S'url'
p40
Vhttps://www.goodreads.com/book/show/1663342.Four_Day_Planet
p41
sg32
I01
sS'year'
p42
I1961
ssS'similar_books'
p43
(lp44
VThe Repairman
p45
aVBarsoom: The Third Omnibus (Barsoom, #6-7)
p46
aVPlague Ship (Solar Queen, #2)
p47
aVThrough the Eye of a Needle (Needle, #2)
p48
aVSubterranean Scalzi Super Bundle
p49
aVThe Devil's Game
p50
aVThe Dorsai Companion (Childe Cycle, #8)
p51
aVCity at World's End
p52
aVSector General (Sector General, #5)
p53
aVGreyhaven
p54
aVIn Paul Klee's Enchanted Garden
p55
aVSinister Barrier
p56
aVAsimov on Science Fiction
p57
asS'description'
p58
VFour-Day Planet "Four-Day Planet" . . . where the killing heat of a thousand-hour "day" drives men underground, and the glorious hundred-hour sunset is followed by a thousand-hour night so cold that only an Extreme Environment Suit can preserve the life of anyone caught outside.<br /><br />Fenris isn't a hell planet, but it's nobody's bargain. With 2,000-hour days and an 8,000-hour year, it alternates blazing heat with killing cold. A planet like that tends to breed a special kind of person: tough enough to stay alive and smart enough to make the best of it. When that kind of person discovers he's being cheated of wealth he's risked his life for, that kind of planet is ripe for revolution.
p59
sS'format'
p60
VHardcover
p61
sS'gutenberg'
p62
(dp63
g40
Vhttp://www.gutenberg.org/ebooks/50904
p64
sS'num'
p65
I50904
ssS'authors'
p66
(lp67
I68
asS'pages'
p68
I172
sS'isbn13'
p69
V9781598182286
p70
sS'language'
p71
VEnglish
p72
sS'release_date'
p73
S'2016-01-12T00:00:00'
p74
sS'author'
p75
I68
sS'content_cleaned'
p76
I01
sS'classes'
p77
(lp78
Vcurrently-reading
p79
aVscience-fiction
p80
aVsci-fi
p81
aVfiction
p82
aVsf
p83
aVowned
p84
aVkindle
p85
aVebook
p86
aVaudiobooks
p87
aVaudiobook
p88
aVaudible
p89
aVaudio
p90
aVshort-stories
p91
aVh-beam-piper
p92
aVscience
p93
aVto-read
p94
aVsff
p95
aVsi-fi
p96
aVsf-fantasy
p97
aVscifi-fantasy
p98
aVlistened
p99
aVe-book
p100
aVclassic
p101
aVscifi
p102
aVnovel
p103
aVav-unknown
p104
aVto-read-sometime
p105
aVscifi-sciencefantasy
p106
aV2017-book-reads-n-gnovels-started
p107
aVto-read-sf
p108
aVon-calibre-to-read
p109
aVgalaktyka-gutenberga
p110
aVgolden-age-scfi
p111
aV20th-century-lit
p112
aVfantastyka
p113
aVgrp-favorites
p114
aV2017-challenge-oldish
p115
aV4day
p116
aVi-own
p117
aVfavourite
p118
aVowned-as-ebook
p119
aVtranslated-en
p120
aVsf-f-horror
p121
aVseries
p122
aVneed-to-buy
p123
aVshelfari-fiction
p124
aVshelfari-e-book
p125
aVsf-amp-f
p126
aVclassic-science-fiction
p127
aVshelfari-classic
p128
aVaudible-immersion-whispersync
p129
aV20th-century-sff
p130
aVnovella-novelette
p131
aVfav-authors-tr
p132
aVto-read-1a-sf
p133
aVto-read-1
p134
aVup-next
p135
aVsf-hard
p136
aVreviewed
p137
aV2015-completed
p138
aVto-read-sort
p139
aVkindle-own
p140
aVebook_only
p141
aV2014-reading-list
p142
aVowned-audio-to-listen-audible
p143
aVsci
p144
aVebook-yes
p145
aVown-not-read
p146
aVon-disk
p147
aVbooks
p148
aVfeedbooks-com
p149
aVaudio-books
p150
aV99-not-popular-sci-fi
p151
aV20-science-fiction
p152
aVcouldn-t-finish
p153
aVignore
p154
aVsf-challenge
p155
aVscience-fiction-times
p156
aVgutenberg
p157
aVto-buy
p158
aVe-books
p159
aVmmm2013
p160
aVtero-human-future-history
p161
aVbeam-h-piper
p162
aVepic
p163
aVe-books-to-read
p164
aVaudible-to-read
p165
aVpulp
p166
aVfree
p167
aVebooks
p168
aVpre-2011
p169
aVdystopian
p170
aVacquired
p171
aVlibrivox-listens
p172
aVaudio_2012
p173
aVfree-reads
p174
aVold-scifi
p175
aVadventures
p176
aV0_books-i-d-like-to-own
p177
aVfantasy-science-fiction
p178
asS'loc_class'
p179
S''
p180
sS'n_authors'
p181
I1
sb.