ccopy_reg
_reconstructor
p0
(cdataset.Book
Book
p1
c__builtin__
object
p2
Ntp3
Rp4
(dp5
S'content_name'
p6
V32498.txt.utf-8
p7
sS'isbn'
p8
V0874774241
p9
sS'year'
p10
I1948
sS'author_name'
p11
VAlexander Blade
p12
sS'images_urls'
p13
(lp14
sS'language_code'
p15
Ven-US
p16
sS'images'
p17
(lp18
sS'id'
p19
I252
sS'category'
p20
VText
p21
sS'genres'
p22
(lp23
sS'copyright'
p24
VPublic domain in the USA.
p25
sS'title'
p26
VThe Brain
p27
sS'wikipedia'
p28
(dp29
S'found'
p30
I00
ssS'average_rating'
p31
F3.84
sS'rating_count'
p32
I218245
sS'content_available'
p33
I01
sS'goodreads'
p34
(dp35
S'url'
p36
Vhttps://www.goodreads.com/book/show/627206.The_New_Drawing_on_the_Right_Side_of_the_Brain
p37
sg30
I01
sS'year'
p38
I1979
ssS'similar_books'
p39
(lp40
VDrawing Lessons from the Great Masters: 100 Great Drawings Analyzed, Figure Drawing Fundamentals Defined
p41
aVThe Natural Way to Draw
p42
aVHow's Your Drink?: Cocktails, Culture, and the Art of Drinking Well
p43
aVZen of Seeing: Seeing/Drawing as Meditation
p44
aVThe Collected Poems
p45
aVThe Creative License: Giving Yourself Permission to Be The Artist You Truly Are
p46
aVDrawing from Memory
p47
aVKeys to Drawing
p48
aVArt and Fear: Observations on the Perils (and Rewards) of Artmaking
p49
aVHistory of Art
p50
aVAlien vs. Predator
p51
aVAnatomy for the Artist
p52
aVAndy Goldsworthy: A Collaboration with Nature
p53
aVJohn Howe Fantasy Art Workshop
p54
aVAnatomy for the Artist
p55
aVFun with a Pencil
p56
aVThe King's Agent
p57
aVSeven Days in the Art World
p58
asS'description'
p59
VWhen <b>Drawing on the Right Side of the Brain</b> was first published in 1979, it hit the <b>New York Times</b> bestseller list within two weeks and stayed there for more than a year. In 1989, when Dr. Betty Edwards revised the book, it went straight to the Times list again. Now Dr. Edwards celebrates the twentieth anniversary of her classic book with a second revised edition.Over the last decade, Dr. Edwards has refined her material through teaching hundreds of workshops and seminars. Truly <b>The New Drawing on the Right Side of the Brain</b>, this edition includes:<br /><br /><br />the very latest developments in brain research<br />new material on using drawing techniques in the corporate world and in education<br />instruction on self-expression through drawing<br />an updated section on using color<br />detailed information on using the five basic skills of drawing for problem solving
p60
sS'format'
p61
NsS'gutenberg'
p62
(dp63
g36
Vhttp://www.gutenberg.org/ebooks/32498
p64
sS'num'
p65
I32498
ssS'authors'
p66
(lp67
I84
asS'pages'
p68
I291
sS'isbn13'
p69
V9780874774245
p70
sS'language'
p71
VEnglish
p72
sS'countries'
p73
(lp74
I2
asS'release_date'
p75
S'2010-05-23T00:00:00'
p76
sS'author'
p77
I84
sS'content_cleaned'
p78
I01
sS'classes'
p79
(lp80
Vto-read
p81
aVeducation
p82
aVarts
p83
aVcurrently-reading
p84
aVcreative
p85
aVon-hold
p86
aVinstructional
p87
aVmy-books
p88
aVbooks-to-read-in-your-20s
p89
aVmy-library
p90
aVwriting
p91
aV65-books-to-read-in-your-20s
p92
aVself-improvement
p93
aVabandoned
p94
aVwant-to-read
p95
aVpartially-read
p96
aVarte
p97
aVart
p98
aVart-reference
p99
aVscience
p100
aVpersonal-development
p101
aVhobbies
p102
aVtextbooks
p103
aVi-own
p104
aVskills
p105
aVbrain
p106
aVart-technique
p107
aVdraw
p108
aVto-read-non-fiction
p109
aVart-theory
p110
aVeducational
p111
aVarchitecture
p112
aVown-it
p113
aV20s
p114
aVother
p115
aVart-and-creativity
p116
aVdidn-t-finish
p117
aVart-creativity
p118
aVvisual
p119
aVclassics
p120
aVart-related
p121
aVdrawing
p122
aVto-re-read
p123
aVarts-crafts
p124
aVself-development
p125
aVnon-fiction-to-read
p126
aVfavourites
p127
aVdidnt-finish
p128
aVteaching
p129
aVillustration
p130
aVschool
p131
aVto-read-nonfiction
p132
aVpaperback
p133
aVart-techniques
p134
aVdiy
p135
aVtechnical
p136
aVat-home
p137
aV65-books-you-need-to-read-in-your-2
p138
aVa
p139
aVart-craft
p140
aVkindle
p141
aVbooks
p142
aVnon-fic
p143
aVart-and-craft
p144
aVillustrated
p145
aVbusiness
p146
aVcraft
p147
aVart-artists
p148
aVback-burner
p149
aVart-photography
p150
aVtextbook
p151
aVpartly-read
p152
aVart-architecture
p153
aVshelfari-favorites
p154
aVmanuali
p155
aVlearn
p156
aVto-read-art
p157
aVmisc
p158
aVunread
p159
aVto-read-again
p160
aVebook
p161
aVpersonal
p162
aVothers
p163
aVbooks-to-read-in-my-20s
p164
aVbooks-to-read-in-your-twenties
p165
aV65-books-to-read-in-your-20-s
p166
aVneed-to-read-in-your-20s
p167
aVinteresting
p168
aVacademic
p169
aVart-practical
p170
aVself
p171
aVscanned
p172
aVhomeschool
p173
aVnot-read
p174
aVart-education
p175
aV20th-century
p176
aVartsy
p177
aVwant
p178
aVin-my-library
p179
aVborrowed
p180
asS'loc_class'
p181
VPS: Language and Literatures: American and Canadian literature
p182
sS'n_authors'
p183
I1
sb.