ccopy_reg
_reconstructor
p0
(cdataset.Book
Book
p1
c__builtin__
object
p2
Ntp3
Rp4
(dp5
S'content_name'
p6
V22629.txt.utf-8
p7
sS'isbn'
p8
NsS'cover'
p9
Vhttps://s.gr-assets.com/assets/nophoto/book/111x148-bcc042a9c91a29c1d680899eff700a03.png
p10
sS'year'
p11
I1960
sS'author_name'
p12
VE. E. Smith
p13
sS'images_urls'
p14
(lp15
Vhttp://www.gutenberg.org/files/22629/22629-h/images/comet.jpg
p16
aVhttp://www.gutenberg.org/files/22629/22629-h/images/i-01.png
p17
aVhttp://www.gutenberg.org/files/22629/22629-h/images/i-02a.png
p18
aVhttp://www.gutenberg.org/files/22629/22629-h/images/i-02b.png
p19
aVhttp://www.gutenberg.org/files/22629/22629-page-images/c001.jpg
p20
aVhttp://www.gutenberg.org/files/22629/22629-page-images/p002.png
p21
aVhttp://www.gutenberg.org/files/22629/22629-page-images/p003.png
p22
aVhttp://www.gutenberg.org/files/22629/22629-page-images/p004.png
p23
aVhttp://www.gutenberg.org/files/22629/22629-page-images/p005.png
p24
aVhttp://www.gutenberg.org/files/22629/22629-page-images/p006.png
p25
aVhttp://www.gutenberg.org/files/22629/22629-page-images/p007.png
p26
aVhttp://www.gutenberg.org/files/22629/22629-page-images/p008.png
p27
aVhttp://www.gutenberg.org/files/22629/22629-page-images/p009.png
p28
aVhttp://www.gutenberg.org/files/22629/22629-page-images/p010.png
p29
aVhttp://www.gutenberg.org/files/22629/22629-page-images/p011.png
p30
aVhttp://www.gutenberg.org/files/22629/22629-page-images/p012.png
p31
aVhttp://www.gutenberg.org/files/22629/22629-page-images/p013.png
p32
aVhttp://www.gutenberg.org/files/22629/22629-page-images/p014.png
p33
aVhttp://www.gutenberg.org/files/22629/22629-page-images/p015.png
p34
aVhttp://www.gutenberg.org/files/22629/22629-page-images/p016.png
p35
aVhttp://www.gutenberg.org/files/22629/22629-page-images/p017.png
p36
asS'language_code'
p37
NsS'images'
p38
(lp39
Vhttps://upload.wikimedia.org/wikipedia/en/8/83/Vortex_blaster.jpg
p40
aVhttps://upload.wikimedia.org/wikipedia/en/a/ac/Vortex_blaster_fp.jpg
p41
asS'id'
p42
I143
sS'category'
p43
VText
p44
sS'genres'
p45
(lp46
sS'copyright'
p47
VPublic domain in the USA.
p48
sS'title'
p49
VThe Vortex Blaster
p50
sS'wikipedia'
p51
(dp52
S'url'
p53
Vhttps://en.wikipedia.org/wiki/The_Vortex_Blaster
p54
sS'found'
p55
I01
sS'year'
p56
I-1
ssS'published_in'
p57
NsS'average_rating'
p58
F2.5
sS'rating_count'
p59
I5
sS'content_available'
p60
I01
sS'goodreads'
p61
(dp62
g53
Vhttps://www.goodreads.com/book/show/35239311-the-vortex-blaster
p63
sg55
I01
sg56
I-1
ssS'similar_books'
p64
(lp65
sS'description'
p66
NsS'gutenberg'
p67
(dp68
g53
Vhttp://www.gutenberg.org/ebooks/22629
p69
sS'num'
p70
I22629
ssS'authors'
p71
(lp72
I14
asS'isbn13'
p73
NsS'language'
p74
VEnglish
p75
sS'countries'
p76
(lp77
I2
asS'release_date'
p78
S'2007-09-16T00:00:00'
p79
sS'author'
p80
I14
sS'original_title'
p81
VThe Vortex Blaster
p82
sS'summary'
p83
VThe Vortex Blaster is a collection of three science fiction short stories by author Edward E. Smith, Ph.D.. It was simultaneously published in 1960 by Gnome Press in an edition of 3,000 copies and by Fantasy Press in an edition of 341 copies. The book was originally intended to be published by Fantasy Press, but was handed over to Gnome Press when Fantasy Press folded. Lloyd Eshbach, of Fantasy Press, who was responsible for the printing of both editions, printed the extra copies for his longtime customers. The stories originally appeared in the magazines Comet and Astonishing Stories.\u000aIn 1968, Pyramid Books issued a paperback edition under the title Masters of the Vortex, promoting it as "the final adventure in the famous Lensman series." While the stories are set in the same universe as the Lensman novels, they are only tangentially related. They reference events that happen in the Lensman series, but only \u201coff stage\u201d. No characters from the other Lensmen books show up in this book. From the events spoken of in this book it apparently falls between Second Stage Lensmen and Children of the Lens.
p84
sS'content_cleaned'
p85
I01
sS'classes'
p86
(lp87
Vto-read
p88
aVaudiobook
p89
asS'loc_class'
p90
VPS: Language and Literatures: American and Canadian literature
p91
sS'n_authors'
p92
I1
sb.