ccopy_reg
_reconstructor
p0
(cdataset.Book
Book
p1
c__builtin__
object
p2
Ntp3
Rp4
(dp5
S'content_name'
p6
V50766.txt.utf-8
p7
sS'isbn'
p8
V0061755710
p9
sS'year'
p10
I2009
sS'author_name'
p11
VKatherine MacLean
p12
sS'images_urls'
p13
(lp14
Vhttp://www.gutenberg.org/files/50766/50766-h/images/cover.jpg
p15
aVhttp://www.gutenberg.org/files/50766/50766-h/images/illus.jpg
p16
asS'language_code'
p17
Ven-US
p18
sS'images'
p19
(lp20
sS'id'
p21
I611
sS'category'
p22
VText
p23
sS'genres'
p24
(lp25
sS'copyright'
p26
VPublic domain in the USA.
p27
sS'title'
p28
VThe Snowball Effect
p29
sS'wikipedia'
p30
(dp31
S'found'
p32
I00
ssS'average_rating'
p33
F3.46
sS'rating_count'
p34
I275
sS'content_available'
p35
I01
sS'cover_art_url'
p36
S'http://www.gutenberg.org/cache/epub/50766/pg50766.cover.medium.jpg'
p37
sS'goodreads'
p38
(dp39
S'url'
p40
Vhttps://www.goodreads.com/book/show/6519000-the-snowball-effect
p41
sg32
I01
sS'year'
p42
I2009
ssS'similar_books'
p43
(lp44
VForget-Her-Nots
p45
aVInvisible Girl
p46
aVThe Life of Glass
p47
aVThe Deathday Letter
p48
aVScones and Sensibility
p49
aVStupid Cupid (Stupid Cupid, #1)
p50
aVHer and Me and You
p51
aVSo Many Boys (The Naughty List, #2)
p52
aVLosing Faith
p53
aVTagged
p54
aVReturn the Heart (Heart, #1)
p55
aVSwoon at Your Own Risk
p56
aVAn Off Year
p57
aVThe Alpha Bet
p58
aVSea (Sea #1)
p59
aVMy Invented Life
p60
aVChange of Heart
p61
aVStranded
p62
asS'description'
p63
VLainey Pike can tell you everything you need to know about the people in her family just by letting you know how they died. Her reckless stepfather drove his motorcycle off the highway and caused the biggest traffic jam in years. Her long-suffering grandmother lived through cancer and a heart attack before finally succumbing to a stroke. And Lainey's mother; well, Lainey's mother hanged herself in the basement just days after Lainey's high school graduation. Now Lainey's five-year-old brother is an orphan and her estranged older sister is moving back home to be his guardian. Meanwhile, Lainey's boyfriend is thinking about having a family of their own, and her best friends are always asking the wrong sorts of questions and giving advice Lainey doesn't want to hear. As she tries to pull away from everything familiar, Lainey meets an intriguing new guy who, through a series of Slurpees, burgers, and snowballs, helps her to make peace with a parent she never understood.
p64
sS'format'
p65
VHardcover
p66
sS'gutenberg'
p67
(dp68
g40
Vhttp://www.gutenberg.org/ebooks/50766
p69
sS'num'
p70
I50766
ssS'authors'
p71
(lp72
I36
asS'pages'
p73
I368
sS'isbn13'
p74
V9780061755712
p75
sS'language'
p76
VEnglish
p77
sS'release_date'
p78
S'2015-12-25T00:00:00'
p79
sS'author'
p80
I36
sS'content_cleaned'
p81
I01
sS'classes'
p82
(lp83
Vto-read
p84
aVyoung-adult
p85
aVya
p86
aVdeath
p87
aVcontemporary
p88
aVrealistic-fiction
p89
aVgrief
p90
aVteen
p91
aVwish-list
p92
aVlibrary
p93
aVread-in-2010
p94
aVfiction
p95
aVwant-to-read
p96
aVstandalones
p97
aVstand-alone
p98
aVfamily
p99
aVcontemporary-ya
p100
aVto-read-maybe
p101
aVbooks-to-buy
p102
aVreal-life
p103
aVsuicide
p104
aVsisters
p105
aVadoption
p106
aVbooks-i-own
p107
aVyoungadult
p108
aVcurrently-reading
p109
aVto-buy
p110
aVread2010
p111
aVpub-mar10
p112
aVmy-wishlist
p113
aVwant
p114
aVarc
p115
aVya-novels
p116
aVtenners
p117
aVamerica-and-canada
p118
aVnot-on-kindle
p119
aVrem
p120
aVto-read-ya
p121
aVto-read-2
p122
aVwanderlust-fuel
p123
aVgrief-loss-and-trauma
p124
aVdead-moms
p125
aVneed
p126
aVcover
p127
aVto-get-from-the-libray
p128
aVteen-drama-and-etc
p129
aVbookmarks
p130
aVyoung-at-heart
p131
aVstandalone
p132
aVread-in-2015
p133
aVin-the-future
p134
aVmaybe2read
p135
aVsummer
p136
aVremoved-from-to-read
p137
aVbusiness-books-not-yet-read
p138
aVgirly-books
p139
aVbooks-pertaining-to-death
p140
aVmoser-classroom
p141
aVibooks
p142
aVlow-average-rating
p143
aVmust-read-bruh
p144
aVbabbling
p145
aVcontemp
p146
aVrandom
p147
aVodd-books-i-liked
p148
aVnever-ever-read-again
p149
aVi-tried
p150
aVlove
p151
aVbeware-bad-rating
p152
aVwoah
p153
aVwanna-2014
p154
aV2014-books-read
p155
aVi-will-never-read
p156
aVfinished-copies-for-trade
p157
aVpublished-2010
p158
aVread-2013
p159
aV2-stars
p160
aVhere-on-shelf-tbr-ebook
p161
aVebook
p162
aV4-starred-brilliantness
p163
aVmaybe
p164
aVdid-not-finish
p165
aVromance-common-authors
p166
aVa-r-books
p167
aVstand-alone-novels
p168
aVtearjerkers
p169
aVfamily-dysfunction
p170
aVdrama
p171
aVromance
p172
aVdefault
p173
aVteenlit
p174
aVsomething-to-think-about
p175
aVe-book
p176
aVdnf
p177
aVreally-must-read
p178
aVchick-flick
p179
aV50-states-or-countries-of-ya
p180
aVto-buy-from-booktopia
p181
aVmadrigal
p182
aVtriangle
p183
asS'loc_class'
p184
S''
p185
sS'n_authors'
p186
I1
sb.