ccopy_reg
_reconstructor
p0
(cdataset.Book
Book
p1
c__builtin__
object
p2
Ntp3
Rp4
(dp5
S'content_name'
p6
V30252.txt.utf-8
p7
sS'isbn'
p8
NsS'year'
p9
I2011
sS'author_name'
p10
VArthur W. Orton
p11
sS'images_urls'
p12
(lp13
Vhttp://www.gutenberg.org/files/30252/30252-h/images/image_001.jpg
p14
aVhttp://www.gutenberg.org/files/30252/30252-h/images/image_002.jpg
p15
aVhttp://www.gutenberg.org/files/30252/30252-h/images/image_003.jpg
p16
aVhttp://www.gutenberg.org/files/30252/30252-h/images/image_004.jpg
p17
aVhttp://www.gutenberg.org/files/30252/30252-h/images/image_w.jpg
p18
asS'language_code'
p19
NsS'images'
p20
(lp21
sS'id'
p22
I795
sS'category'
p23
VText
p24
sS'genres'
p25
(lp26
sS'copyright'
p27
VPublic domain in the USA.
p28
sS'title'
p29
VThe Four-Faced Visitors of Ezekiel
p30
sS'wikipedia'
p31
(dp32
S'found'
p33
I00
ssS'average_rating'
p34
F3.23
sS'rating_count'
p35
I13
sS'content_available'
p36
I01
sS'goodreads'
p37
(dp38
S'url'
p39
Vhttps://www.goodreads.com/book/show/19114090-the-four-faced-visitors-of-ezekiel
p40
sg33
I01
sS'year'
p41
I2011
ssS'similar_books'
p42
(lp43
sS'description'
p44
NsS'format'
p45
NsS'gutenberg'
p46
(dp47
g39
Vhttp://www.gutenberg.org/ebooks/30252
p48
sS'num'
p49
I30252
ssS'authors'
p50
(lp51
I252
asS'isbn13'
p52
NsS'language'
p53
VEnglish
p54
sS'country'
p55
I3
sS'release_date'
p56
S'2009-10-14T00:00:00'
p57
sS'author'
p58
I252
sS'content_cleaned'
p59
I01
sS'classes'
p60
(lp61
Vto-read
p62
aVcurrently-reading
p63
aVamazon-kindle-library
p64
aVspirituality
p65
aV15
p66
aVexegesis-to-read
p67
asS'loc_class'
p68
VBS: Philosophy, Psychology, Religion: Christianity: The Bible, Old and New Testament
p69
sS'n_authors'
p70
I1
sb.