ccopy_reg
_reconstructor
p0
(cdataset.Book
Book
p1
c__builtin__
object
p2
Ntp3
Rp4
(dp5
S'similar_books'
p6
(lp7
sS'genres'
p8
(lp9
sS'author'
p10
I302
sS'countries'
p11
(lp12
I2
asS'year'
p13
I1954
sS'title'
p14
VGalaxy Magazine August 1954
p15
sS'cover'
p16
Vhttps://ia600202.us.archive.org/BookReader/BookReaderImages.php?zip=/7/items/Galaxy_v08n05_1954-08/Galaxy_v08n05_1954-08_jp2.zip&file=Galaxy_v08n05_1954-08_jp2/Galaxy_v08n05_1954-08_0000.jp2&scale=0&rotate=0
p17
sS'cover_art'
p18
S'http://www.isfdb.org/wiki/images/7/7d/MLO4335.jpg'
p19
sS'author_name'
p20
VGalaxy Magazine
p21
sS'images_urls'
p22
(lp23
sS'authors'
p24
(lp25
I402
aI433
aI419
aI454
aI452
aI363
aI305
aI455
aI340
aI326
aI98
aI393
aI434
aI40
aI23
aI443
aI302
asS'images'
p26
(lp27
sS'id'
p28
I1019
sS'contents'
p29
(lp30
(dp31
g10
I402
sg14
VParty of the Two Parts
p32
sa(dp33
g10
I402
sg14
VParty of the Two Parts [2]
p34
sa(dp35
g10
I402
sg14
VParty of the Two Parts [3]
p36
sa(dp37
g10
I433
sg14
VSubsistence Level
p38
sa(dp39
g10
I419
sg14
VThe Impossible Voyage Home
p40
sa(dp41
g10
I419
sg14
VThe Impossible Voyage Home [2]
p42
sa(dp43
g10
I419
sg14
VThe Impossible Voyage Home [3]
p44
sa(dp45
g10
I454
sg14
VInvasion Report
p46
sa(dp47
g10
I452
sg14
VThe Departed
p48
sa(dp49
g10
I363
sg14
VGladiator at Law (Part 3 of 3)
p50
sa(dp51
g10
I363
sg14
VGladiator at Law (Part 3 of 3) [2]
p52
sa(dp53
g10
I363
sg14
VGladiator at Law (Part 3 of 3) [3]
p54
sa(dp55
g10
I363
sg14
VGladiator at Law (Part 3 of 3) [4]
p56
sa(dp57
g10
I363
sg14
VGladiator at Law (Part 3 of 3) [5]
p58
sa(dp59
g10
I305
sg14
VSuperwhat?
p60
sa(dp61
g10
I455
sg14
VFor Your Information: Mail
p62
sa(dp63
g10
I340
sg14
VGalaxy's 5 Star Shelf (Galaxy, August 1954)
p64
sa(dp65
g10
I326
sg14
VForecast (Galaxy, August 1954)
p66
sa(dp67
g10
I98
sg14
VParty of the Two Parts
p68
sa(dp69
g10
I393
sg14
VThe Impossible Voyage Home
p70
sa(dp71
g10
I434
sg14
VInvasion Report
p72
sa(dp73
g10
I40
sg14
VGladiator at Law (Part 3 of 3)
p74
sa(dp75
g10
I23
sg14
VSubsistence Level
p76
sa(dp77
g10
I443
sg14
VThe Departed
p78
sasb.