ccopy_reg
_reconstructor
p0
(cdataset.Book
Book
p1
c__builtin__
object
p2
Ntp3
Rp4
(dp5
S'content_name'
p6
V51413.txt.utf-8
p7
sS'isbn'
p8
V1515405443
p9
sS'year'
p10
I1957
sS'author_name'
p11
VEvelyn E. Smith
p12
sS'images_urls'
p13
(lp14
Vhttp://www.gutenberg.org/files/51413/51413-h/images/cover.jpg
p15
aVhttp://www.gutenberg.org/files/51413/51413-h/images/illus1.jpg
p16
aVhttp://www.gutenberg.org/files/51413/51413-h/images/illus2.jpg
p17
aVhttp://www.gutenberg.org/files/51413/51413-h/images/illus3.jpg
p18
asS'language_code'
p19
NsS'images'
p20
(lp21
sS'id'
p22
I913
sS'category'
p23
VText
p24
sS'genres'
p25
(lp26
sS'copyright'
p27
VPublic domain in the USA.
p28
sS'title'
p29
VThe Ignoble Savages
p30
sS'wikipedia'
p31
(dp32
S'found'
p33
I00
ssS'average_rating'
p34
F5.0
sS'rating_count'
p35
I0
sS'content_available'
p36
I01
sS'cover_art_url'
p37
S'http://www.gutenberg.org/cache/epub/51413/pg51413.cover.medium.jpg'
p38
sS'goodreads'
p39
(dp40
S'url'
p41
S'https://www.goodreads.com/book/show/29791748-the-ignoble-savages'
p42
sS'found'
p43
I01
ssS'similar_books'
p44
(lp45
sS'description'
p46
VSnaddra had but one choice in its fight to afford to live belowground- underhandedly pretend theirs was an aboveboard society!
p47
sS'gutenberg'
p48
(dp49
S'url'
p50
Vhttp://www.gutenberg.org/ebooks/51413
p51
sS'num'
p52
I51413
ssS'authors'
p53
(lp54
I172
asS'pages'
p55
I20
sS'isbn13'
p56
V9781515405443
p57
sS'language'
p58
VEnglish
p59
sS'countries'
p60
(lp61
I2
asS'release_date'
p62
S'2016-03-10T00:00:00'
p63
sS'author'
p64
I172
sS'content_cleaned'
p65
I01
sS'classes'
p66
(lp67
sS'loc_class'
p68
S''
p69
sS'n_authors'
p70
I1
sb.