ccopy_reg
_reconstructor
p0
(cdataset.Book
Book
p1
c__builtin__
object
p2
Ntp3
Rp4
(dp5
S'content_name'
p6
V19526.txt.utf-8
p7
sS'isbn'
p8
V0385199570
p9
sS'year'
p10
I1978
sS'author_name'
p11
Vfor Mars!
p12
sS'images_urls'
p13
(lp14
Vhttp://www.gutenberg.org/files/19526/19526-h/images/im003.png
p15
aVhttp://www.gutenberg.org/files/19526/19526-h/images/im007.png
p16
aVhttp://www.gutenberg.org/files/19526/19526-h/images/im057.png
p17
aVhttp://www.gutenberg.org/files/19526/19526-h/images/im068.png
p18
aVhttp://www.gutenberg.org/files/19526/19526-h/images/im073.png
p19
aVhttp://www.gutenberg.org/files/19526/19526-h/images/im080.png
p20
aVhttp://www.gutenberg.org/files/19526/19526-h/images/im085.png
p21
aVhttp://www.gutenberg.org/files/19526/19526-h/images/im087.png
p22
aVhttp://www.gutenberg.org/files/19526/19526-h/images/im103.png
p23
aVhttp://www.gutenberg.org/files/19526/19526-h/images/im104.png
p24
aVhttp://www.gutenberg.org/files/19526/19526-h/images/im114.png
p25
aVhttp://www.gutenberg.org/files/19526/19526-h/images/im127.png
p26
aVhttp://www.gutenberg.org/files/19526/19526-h/images/im133.png
p27
aVhttp://www.gutenberg.org/files/19526/19526-h/images/im163.png
p28
aVhttp://www.gutenberg.org/files/19526/19526-h/images/im165.png
p29
aVhttp://www.gutenberg.org/files/19526/19526-h/images/im174.png
p30
aVhttp://www.gutenberg.org/files/19526/19526-h/images/im182.png
p31
aVhttp://www.gutenberg.org/files/19526/19526-h/images/im190.png
p32
aVhttp://www.gutenberg.org/files/19526/19526-h/images/im195.png
p33
aVhttp://www.gutenberg.org/files/19526/19526-h/images/im196.png
p34
aVhttp://www.gutenberg.org/files/19526/19526-h/images/im200.png
p35
aVhttp://www.gutenberg.org/files/19526/19526-h/images/im212.png
p36
aVhttp://www.gutenberg.org/files/19526/19526-h/images/im216.png
p37
aVhttp://www.gutenberg.org/files/19526/19526-h/images/im223.png
p38
aVhttp://www.gutenberg.org/files/19526/19526-h/images/im224.png
p39
asS'language_code'
p40
Ven-US
p41
sS'images'
p42
(lp43
sS'id'
p44
I355
sS'category'
p45
VText
p46
sS'plot'
p47
VNote that depending upon the edition of the novel, the dates of The Stand occur in either 1980-1981, 1985-1986, or 1990-1991.
p48
sS'genres'
p49
(lp50
sS'copyright'
p51
VPublic domain in the USA.
p52
sS'title'
p53
VStand
p54
sS'wikipedia'
p55
(dp56
S'url'
p57
Vhttps://en.wikipedia.org/wiki/The_Stand
p58
sS'found'
p59
I01
sS'year'
p60
I-1
ssS'published_in'
p61
NsS'average_rating'
p62
F4.34
sS'rating_count'
p63
I439560
sS'content_available'
p64
I01
sS'goodreads'
p65
(dp66
g57
Vhttps://www.goodreads.com/book/show/149267.The_Stand
p67
sg59
I01
sg60
I1978
ssS'similar_books'
p68
(lp69
VThe Regulators
p70
aVSwan Song
p71
aVThe Great and Secret Show (Book of the Art #1)
p72
aVStrangers
p73
aVThe Stand: Soul Survivors
p74
aVDarkness
p75
aV20th Century Ghosts
p76
aVLegends
p77
aVThe Dark Tower: The Gunslinger - The Battle of Tull
p78
aVThe Doom That Came to Sarnath and Other Stories
p79
aVShadowland
p80
asS'description'
p81
VThis is the way the world ends: with a nanosecond of computer error in a Defense Department laboratory and a million casual contacts that form the links in a chain letter of death.<br /><br />And here is the bleak new world of the day after: a world stripped of its institutions and emptied of 99 percent of its people. A world in which a handful of panicky survivors choose sides or are chosen. A world in which good rides on the frail shoulders of the 108-year-old Mother Abigail and the worst nightmares of evil are embodied in a man with a lethal smile and unspeakable powers: Randall Flagg, the dark man.
p82
sS'format'
p83
VHardcover
p84
sS'gutenberg'
p85
(dp86
g57
Vhttp://www.gutenberg.org/ebooks/19526
p87
sS'num'
p88
I19526
ssS'authors'
p89
(lp90
I115
asS'pages'
p91
I1153
sS'isbn13'
p92
V9780385199575
p93
sS'language'
p94
VEnglish
p95
sS'country'
p96
I5
sS'release_date'
p97
S'2006-10-11T00:00:00'
p98
sS'author'
p99
I115
sS'original_title'
p100
VThe Stand
p101
sS'summary'
p102
VThe Stand is a post-apocalyptic horror/fantasy novel by American author Stephen King. It expands upon the scenario of his earlier short story "Night Surf" and outlines the total breakdown of society after the accidental release of a strain of influenza that had been modified for biological warfare causes an apocalyptic pandemic which kills off the majority of the world's human population.\u000aThe novel was originally published in 1978 in hardcover, with a setting date of 1980. The first paperback release in 1980 changed the setting date to 1985. The book was later re-released in 1990 as The Stand: The Complete & Uncut Edition; King restored some text originally cut for brevity, added and revised sections, changed the setting of the story to 1990, and updated a few pop culture references accordingly.\u000aThe Stand was nominated for the World Fantasy Award for Best Novel in 1979, and was adapted into both a television miniseries for ABC and a graphic novel published by Marvel Comics. It marks the first appearance of Randall Flagg, King's recurring antagonist, whom King would bring back many times in his later writings.\u000aKing dedicated the book to his wife, Tabitha: "For Tabby: This dark chest of wonders."
p103
sS'content_cleaned'
p104
I01
sS'classes'
p105
(lp106
Vto-read
p107
aVcurrently-reading
p108
aVhorror
p109
aVfavorites
p110
aVfiction
p111
aVstephen-king
p112
aVfantasy
p113
aVscience-fiction
p114
aVowned
p115
aVpost-apocalyptic
p116
aVsci-fi
p117
aVbooks-i-own
p118
aVthriller
p119
aVdystopia
p120
aVdystopian
p121
aVking
p122
aVapocalyptic
p123
aVdefault
p124
aVfavourites
p125
aVowned-books
p126
aVclassics
p127
aVkindle
p128
aVaudiobook
p129
aVnovels
p130
aVapocalypse
p131
aVsuspense
p132
aVall-time-favorites
p133
aVsci-fi-fantasy
p134
aVaudiobooks
p135
aVsupernatural
p136
aVlibrary
p137
aVto-buy
p138
aVadult
p139
aVabandoned
p140
aVscifi
p141
aVfavorite-books
p142
aVmystery
p143
aVparanormal
p144
aVmy-books
p145
aVmy-library
p146
aVadult-fiction
p147
aVpost-apocalypse
p148
aVaudio
p149
aVhorror-thriller
p150
aVre-read
p151
aVaudible
p152
aVepic
p153
aVnovel
p154
aVamerican
p155
aVebook
p156
aVadventure
p157
aVking-stephen
p158
aVshelfari-favorites
p159
aVfavorite
p160
aVgeneral-fiction
p161
aVi-own
p162
aVdid-not-finish
p163
aVmy-favorites
p164
aVebooks
p165
aVspeculative-fiction
p166
aVbooks
p167
aVsurvival
p168
aVon-hold
p169
aVclassic
p170
aVscifi-fantasy
p171
aVfantasy-sci-fi
p172
aVscary
p173
aVunfinished
p174
aVliterature
p175
aVown-it
p176
aVthrillers
p177
aV20th-century
p178
aVscience-fiction-fantasy
p179
aVbook-club
p180
aVend-of-the-world
p181
aVcontemporary
p182
aV5-stars
p183
aVread-in-2014
p184
aVdnf
p185
aVsf
p186
aVmystery-thriller
p187
aVthe-king
p188
aVwish-list
p189
aVcontemporary-fiction
p190
aVbbc-big-read
p191
aVhorror-suspense
p192
aVfinished
p193
aVto-read-fiction
p194
aVrecommended
p195
aVthriller-horror
p196
aVhome-library
p197
aVgave-up-on
p198
aVenglish
p199
aVdark
p200
aVfiction-horror
p201
aVhave
p202
aVaudio-books
p203
aVaudio-book
p204
aVterror
p205
aVurban-fantasy
p206
asS'loc_class'
p207
VPZ: Language and Literatures: Juvenile belles lettres
p208
sS'n_authors'
p209
I1
sb.