ccopy_reg
_reconstructor
p0
(cdataset.Book
Book
p1
c__builtin__
object
p2
Ntp3
Rp4
(dp5
S'content_name'
p6
V30971.txt.utf-8
p7
sS'isbn'
p8
NsS'year'
p9
I1963
sS'author_name'
p10
VPoul Anderson
p11
sS'images_urls'
p12
(lp13
Vhttp://www.gutenberg.org/files/30971/30971-h/images/cover.jpg
p14
aVhttp://www.gutenberg.org/files/30971/30971-h/images/image_001.jpg
p15
aVhttp://www.gutenberg.org/files/30971/30971-h/images/image_002.jpg
p16
aVhttp://www.gutenberg.org/files/30971/30971-h/images/image_003.jpg
p17
aVhttp://www.gutenberg.org/files/30971/30971-h/images/image_004.jpg
p18
aVhttp://www.gutenberg.org/files/30971/30971-h/images/image_005.jpg
p19
aVhttp://www.gutenberg.org/files/30971/30971-h/images/image_006.jpg
p20
aVhttp://www.gutenberg.org/files/30971/30971-h/images/image_w.jpg
p21
asS'language_code'
p22
Veng
p23
sS'id'
p24
I77
sS'category'
p25
VText
p26
sS'genres'
p27
(lp28
sS'copyright'
p29
VPublic domain in the USA.
p30
sS'title'
p31
VIndustrial Revolution
p32
sS'wikipedia'
p33
(dp34
S'found'
p35
I00
ssS'average_rating'
p36
F3.91
sS'rating_count'
p37
I24
sS'content_available'
p38
I01
sS'cover_art_url'
p39
S'http://www.gutenberg.org/cache/epub/30971/pg30971.cover.medium.jpg'
p40
sS'goodreads'
p41
(dp42
S'url'
p43
S'https://www.goodreads.com/book/show/9371553-industrial-revolution'
p44
sS'found'
p45
I01
ssS'similar_books'
p46
(lp47
sS'description'
p48
VVariant Titles:<br /><br />The Rogue (1963) - Poul Anderson<br />Industrial Revolution (1963) - Winston P. Sanders<br /><br />The book has no illustrations or index. Purchasers are entitled to a free trial membership in the General Books Club where they can select from more than a million books without charge. Subjects: Industries; Great Britain; Fiction / Classics;
p49
sS'gutenberg'
p50
(dp51
S'url'
p52
Vhttp://www.gutenberg.org/ebooks/30971
p53
sS'num'
p54
I30971
ssS'authors'
p55
(lp56
I30
asS'isbn13'
p57
NsS'language'
p58
VEnglish
p59
sS'countries'
p60
(lp61
I2
asS'release_date'
p62
S'2010-01-15T00:00:00'
p63
sS'author'
p64
I30
sS'cover'
p65
Vhttps://s.gr-assets.com/assets/nophoto/book/111x148-bcc042a9c91a29c1d680899eff700a03.png
p66
sS'content_cleaned'
p67
I01
sS'classes'
p68
(lp69
Vto-read
p70
aVscience-fiction
p71
aVcurrently-reading
p72
aVsf
p73
aVfiction
p74
aVsci-fi
p75
aVowned
p76
aVebooks
p77
aVhave
p78
aVroundtuit
p79
aVunread
p80
aV20th-century-lit
p81
aVtie-elib
p82
aVskovde-bibliotek
p83
aVbest-free-reads
p84
aVtbr-owned
p85
aVshort-classics
p86
aVkindle-to-read
p87
aVhistory
p88
aVscifi-fantasy
p89
aVowned-pending-kindle-free-ebook
p90
aVkindle-free-ebook
p91
aVno-time-soon
p92
aVshort-stories
p93
aVsf-fan
p94
aVundecided
p95
aVto-read-sort
p96
aVkindle-own
p97
aVquit-reading
p98
aVpaul
p99
aVread-2014
p100
aVhard-science-fiction
p101
aVfeedbooks-com
p102
aVbackburner
p103
aVonshelf
p104
aVfree
p105
aVepub
p106
aVto-read-kindle
p107
aVebook
p108
aVscifi
p109
aVnovellas-short-stories
p110
aV1960s-1970s-sf-silver-age
p111
aV3-ebooks
p112
aVkindle
p113
aVbacklog
p114
aVhigh-priority-tbr
p115
aVround-tuit
p116
aV3a-ebooks
p117
aVbacklogue
p118
asS'loc_class'
p119
VPS: Language and Literatures: American and Canadian literature
p120
sS'n_authors'
p121
I1
sb.