ccopy_reg
_reconstructor
p0
(cdataset.Book
Book
p1
c__builtin__
object
p2
Ntp3
Rp4
(dp5
S'content_name'
p6
V28893.txt.utf-8
p7
sS'isbn'
p8
V1551666294
p9
sS'year'
p10
I1992
sS'author_name'
p11
VWilliam F. Nolan
p12
sS'images_urls'
p13
(lp14
sS'language_code'
p15
Veng
p16
sS'images'
p17
(lp18
sS'id'
p19
I921
sS'category'
p20
VText
p21
sS'genres'
p22
(lp23
sS'copyright'
p24
VPublic domain in the USA.
p25
sS'title'
p26
VOf Time and Texas
p27
sS'wikipedia'
p28
(dp29
S'found'
p30
I00
ssS'average_rating'
p31
F3.96
sS'rating_count'
p32
I101
sS'content_available'
p33
I01
sS'goodreads'
p34
(dp35
S'url'
p36
Vhttps://www.goodreads.com/book/show/1046925.A_Little_Time_in_Texas
p37
sg30
I01
sS'year'
p38
I1992
ssS'similar_books'
p39
(lp40
VRough Stock (Star Valley, #1)
p41
aVFrankly, My Dear (Creole Historical, #1)
p42
aVHere and Then (Beyond the Threshold, #2)
p43
aVWhispers in Time
p44
aVYellowstone Redemption (Yellowstone Romance, #2)
p45
aVAll a Woman Wants
p46
aVA Stitch in Time
p47
aVLace & Leather
p48
aVRunaway (Safe Havens, #2)
p49
aVThe Rake's Mistress (Bluestocking Brides, #3)
p50
aVRun Into the Wind
p51
aVAsk A Shadow To Dance
p52
aVA Victorian Christmas
p53
aVBorder Storm (Border Trilogy I, #3)
p54
aVHow To Enjoy A Scandal
p55
aVIndiscretion
p56
aVA World Apart (Hands of Time, #3)
p57
aVThe Angel & the Outlaw
p58
asS'description'
p59
VThe past: Although Texas in 1864 was no place for a lone lady traveler, feisty Angela Taylor had to get to San Antonio. But when a rough-and-rugged stranger suddenly pushed her into a hilly cave and pulled her out into the twentieth century, Angela was plenty scared....<br /><br />The present: Texas Ranger Dallas Masterson had a heart full of bitterness, and there was no room in it to care about a smart-mouthed, sassy woman claiming she was from another century! But Angela soon had Dallas discovering that, though his past was history, the future was theirs to make -- together!
p60
sS'format'
p61
VPaperback
p62
sS'gutenberg'
p63
(dp64
g36
Vhttp://www.gutenberg.org/ebooks/28893
p65
sS'num'
p66
I28893
ssS'authors'
p67
(lp68
I279
asS'isbn13'
p69
V9781551666297
p70
sS'language'
p71
VEnglish
p72
sS'release_date'
p73
S'2009-05-20T00:00:00'
p74
sS'author'
p75
I279
sS'content_cleaned'
p76
I01
sS'classes'
p77
(lp78
Vto-read
p79
aVromance
p80
aVtime-travel
p81
aVjoan-johnston
p82
aVcurrently-reading
p83
aVhistorical-romance
p84
aVhistorical
p85
aVbooks-i-own
p86
aV1-series
p87
aVother-books-in-series
p88
aVown-it
p89
aVunsorted
p90
aV9-texas
p91
aVhq
p92
aV2017_kindle
p93
aVjohnston-j
p94
aVcontemporanea
p95
aVprimary
p96
aVtexas
p97
aVwish-list
p98
aVharlequin_special_releases
p99
aVqueued-hr
p100
aVbought-not-read
p101
aVc-johnston
p102
aV2013andbefore
p103
aVread-queue
p104
aVickle
p105
aVshelfari-favorites
p106
aVhave-to-read
p107
aVread-j
p108
aVto-read-series
p109
aVdonna-lewis-over-10
p110
aVhistorical-fiction
p111
aVfiction
p112
aVshelfari-mbr-shelf
p113
aVshelfari-joan-johnston
p114
aVshelfari-confirmed
p115
aVsummer-2015
p116
aVbooks-to-buy-tt
p117
aVeasy-reads
p118
aVfantasy
p119
aV4sale
p120
aVcha-2014
p121
aVwestern-cowboy
p122
aVtimetravel-ghost-magic
p123
aVcontemporary
p124
aVkindle-get
p125
aVnovels
p126
aVx2-own-harcopy-to-read
p127
aVjohnston-joan
p128
aV1a-to-read-adult-hist-rom
p129
aVloc_med_27
p130
aVbad_short
p131
aVwhat-to-read-next
p132
aVgenre-western-historical-romance
p133
aVsheriff-marshals-ranger-deputy
p134
aVprequel-sequel-series
p135
aVon-the-run
p136
aVgenre-sci-fi-fantasy-paranormal
p137
aVgenre-harlequin-silhouette-category
p138
aVj-shelves
p139
aVwestern
p140
aVnew-authors
p141
aVkindle-books
p142
aVcontemporary-romance
p143
aVbooks-to-buy-2
p144
aVpaper-back
p145
aVpurchased-not-yet-read
p146
aVscanned-books-only
p147
aVsomething-isnt-right
p148
aVebook-collection
p149
aVabella
p150
aVebook
p151
aVsorted_transferred
p152
aVcontemporary-western
p153
aVwhat-i-got
p154
aVwestern-romance
p155
aVthe-cowboys
p156
aVprint
p157
aVto-review
p158
aVcontemporary---western
p159
aVsilhouette-desire
p160
aVpersonal-library
p161
aVharlequin-silhouette
p162
aV91-texas
p163
aVdonna-lewis
p164
aVbooks-to-buy
p165
aVauthors-new
p166
asS'loc_class'
p167
VPS: Language and Literatures: American and Canadian literature
p168
sS'n_authors'
p169
I1
sb.