ccopy_reg
_reconstructor
p0
(cdataset.Book
Book
p1
c__builtin__
object
p2
Ntp3
Rp4
(dp5
S'content_name'
p6
V29298.txt.utf-8
p7
sS'isbn'
p8
NsS'year'
p9
I2011
sS'author_name'
p10
VAnthony Gilmore
p11
sS'images_urls'
p12
(lp13
Vhttp://www.gutenberg.org/files/29298/29298-h/images/image_001.jpg
p14
asS'language_code'
p15
NsS'images'
p16
(lp17
sS'id'
p18
I717
sS'category'
p19
VText
p20
sS'genres'
p21
(lp22
sS'copyright'
p23
VPublic domain in the USA.
p24
sS'title'
p25
VThe Bluff of the Hawk
p26
sS'wikipedia'
p27
(dp28
S'found'
p29
I00
ssS'average_rating'
p30
F3.0
sS'rating_count'
p31
I1
sS'content_available'
p32
I01
sS'goodreads'
p33
(dp34
S'url'
p35
Vhttps://www.goodreads.com/book/show/20406714-the-bluff-of-the-hawk
p36
sg29
I01
sS'year'
p37
I2011
ssS'similar_books'
p38
(lp39
sS'description'
p40
NsS'format'
p41
NsS'gutenberg'
p42
(dp43
g35
Vhttp://www.gutenberg.org/ebooks/29298
p44
sS'num'
p45
I29298
ssS'authors'
p46
(lp47
I104
asS'isbn13'
p48
NsS'language'
p49
VEnglish
p50
sS'release_date'
p51
S'2009-07-03T00:00:00'
p52
sS'author'
p53
I104
sS'content_cleaned'
p54
I01
sS'classes'
p55
(lp56
Vto-read
p57
aVracist-sexist
p58
aVnot-good
p59
aVeeek
p60
aVa-reviewed
p61
aV2017-read
p62
aV2016-read
p63
aVscience-fiction
p64
aVnovella
p65
aVclassic
p66
aVunread
p67
aVcalibre
p68
aVun
p69
asS'loc_class'
p70
VPS: Language and Literatures: American and Canadian literature
p71
sS'n_authors'
p72
I1
sb.