ccopy_reg
_reconstructor
p0
(cdataset.Book
Book
p1
c__builtin__
object
p2
Ntp3
Rp4
(dp5
S'content_name'
p6
V51740.txt.utf-8
p7
sS'isbn'
p8
V0316253642
p9
sS'year'
p10
I1960
sS'author_name'
p11
VLeonard Rubin
p12
sS'images_urls'
p13
(lp14
Vhttp://www.gutenberg.org/files/51740/51740-h/images/cover.jpg
p15
aVhttp://www.gutenberg.org/files/51740/51740-h/images/illus1.jpg
p16
aVhttp://www.gutenberg.org/files/51740/51740-h/images/illus2.jpg
p17
aVhttp://www.gutenberg.org/files/51740/51740-h/images/illus3.jpg
p18
asS'language_code'
p19
Veng
p20
sS'images'
p21
(lp22
sS'id'
p23
I813
sS'category'
p24
VText
p25
sS'genres'
p26
(lp27
sS'copyright'
p28
VPublic domain in the USA.
p29
sS'title'
p30
VDon't Look Now
p31
sS'wikipedia'
p32
(dp33
S'found'
p34
I00
ssS'average_rating'
p35
F3.82
sS'rating_count'
p36
I1223
sS'content_available'
p37
I01
sS'cover_art_url'
p38
S'http://www.gutenberg.org/cache/epub/51740/pg51740.cover.medium.jpg'
p39
sS'goodreads'
p40
(dp41
S'url'
p42
Vhttps://www.goodreads.com/book/show/18869987-don-t-look-now-and-other-stories
p43
sg34
I01
sS'year'
p44
I1971
ssS'similar_books'
p45
(lp46
VThe Haunted Dolls' House and Other Ghost Stories
p47
aVPainted Devils: Strange Stories
p48
aVGothic Tales
p49
aVThe Mammoth Book of 20th Century Ghost Stories
p50
aVThe Cambridge Companion to Gothic Fiction
p51
aVThe Haunted Looking Glass
p52
aVCome Along With Me
p53
aVThe Power of Darkness: Tales of Terror
p54
aVFancies and Goodnights
p55
aVThe Face That Must Die
p56
aVTen Stories about Smoking
p57
aVJapanese Tales of Mystery & Imagination
p58
aVZofloya
p59
aVThe Collected Stories
p60
aVGhost Stories
p61
aVThe Haunted Hotel: A Mystery of Modern Venice
p62
aVThe Selected Stories of Patricia Highsmith
p63
aVFantastic Tales: Visionary and Everyday
p64
asS'description'
p65
V"Daphne du Maurier is in a class by herself." --<em>New York Times<br /><br /></em>A married couple on holiday in Venice are caught up in a sinister series of events. A lonely schoolmaster is impelled to investigate a mysterious American couple. A young woman loses her cool when she confronts her father's old friend on a lonely island. A party of British pilgrims meet strange phenomena and possible disaster in the Holy Land. A scientist abandons his scruples while trying to tap the energy of the dying mind. <br /><br />Collecting five stories of mystery and slow, creeping horror, Daphne Du Maurier's <i>Don't Look Now and Other Stories </i>showcases her unique blend of sympathy and spinetingling suspense.
p66
sS'format'
p67
Vebook
p68
sS'gutenberg'
p69
(dp70
g42
Vhttp://www.gutenberg.org/ebooks/51740
p71
sS'num'
p72
I51740
ssS'authors'
p73
(lp74
I258
asS'pages'
p75
I272
sS'isbn13'
p76
V9780316253642
p77
sS'language'
p78
VEnglish
p79
sS'countries'
p80
(lp81
I3
asS'release_date'
p82
S'2016-04-12T00:00:00'
p83
sS'author'
p84
I258
sS'content_cleaned'
p85
I01
sS'classes'
p86
(lp87
Vto-read
p88
aVshort-stories
p89
aVcurrently-reading
p90
aVfiction
p91
aVhorror
p92
aVclassics
p93
aVgothic
p94
aVbooks-i-own
p95
aVowned
p96
aVsuspense
p97
aVdaphne-du-maurier
p98
aVmystery
p99
aVclassic
p100
aVshort-story-collections
p101
aVbritish
p102
aVthriller
p103
aVto-buy
p104
aVowned-books
p105
aVlibrary
p106
aV20th-century
p107
aVliterature
p108
aVmystery-suspense
p109
aVshort-story
p110
aV\u0631\u0648\u0627\u064a\u0627\u062a-\u0639\u0627\u0644\u0645\u064a\u0629-\u0644\u0644\u062c\u064a\u0628
p111
aVvenice
p112
aVmodern-classics
p113
aVstories
p114
aVread-in-2015
p115
aVkindle
p116
aVbritish-literature
p117
aVpenguin-modern-classics
p118
aVwish-list
p119
aVread-in-2016
p120
aVmy-library
p121
aVcrime
p122
aVsupernatural
p123
aVliterary-fiction
p124
aVmysteries
p125
aVshort-fiction
p126
aVitaly
p127
aVthrillers
p128
aVi-own
p129
aVspooky
p130
aVscience-fiction
p131
aVanthologies
p132
aVengland
p133
aVreviewed
p134
aVbritish-lit
p135
aVfavorites
p136
aVown-it
p137
aVgothic-fiction
p138
aVaudiobooks
p139
aVfemale-authors
p140
aVmystery-thriller
p141
aVnovel
p142
aVdefault
p143
aVhalloween
p144
aVread-2016
p145
aVnarrativa
p146
aVebook
p147
aVbooks-to-buy
p148
aVmystery-and-suspense
p149
aVfinished
p150
aVabandoned
p151
aVfavourites
p152
aVcollections
p153
aVbooks
p154
aVsuspense-thriller
p155
aVenglish-lit
p156
aVborrowed
p157
aVbrit-lit
p158
aVenglish
p159
aVneed-to-buy
p160
aVmy-books
p161
aVshelfari-wishlist
p162
aVmaybe
p163
aVto-read-fiction
p164
aV4-stars
p165
aVcontos
p166
aVgothic-horror
p167
aVnovellas
p168
aVadult
p169
aVcollection
p170
aVread-in-2014
p171
aV20th-century-fiction
p172
aVto-buy-or-borrow
p173
aV20th-c
p174
aVon-kindle
p175
aVracconti
p176
aVunread
p177
aVread-2013
p178
aVto-read-horror
p179
aVread-on-kindle
p180
aVebooks
p181
aVmystery-thriller-horror
p182
aVaudio-books
p183
aV\u0631\u0648\u0627\u064a\u0627\u062a
p184
aVfantasy
p185
aVmystery-suspense-thriller
p186
aVaudiobook
p187
asS'loc_class'
p188
S''
p189
sS'n_authors'
p190
I1
sb.