ccopy_reg
_reconstructor
p0
(cdataset.Book
Book
p1
c__builtin__
object
p2
Ntp3
Rp4
(dp5
S'content_name'
p6
V29619.txt.utf-8
p7
sS'isbn'
p8
NsS'year'
p9
I1952
sS'author_name'
p10
VC. M. Kornbluth
p11
sS'images_urls'
p12
(lp13
Vhttp://www.gutenberg.org/files/29619/29619-h/images/001.png
p14
aVhttp://www.gutenberg.org/files/29619/29619-h/images/002-1.jpg
p15
aVhttp://www.gutenberg.org/files/29619/29619-h/images/002-2.jpg
p16
asS'language_code'
p17
NsS'id'
p18
I447
sS'category'
p19
VText
p20
sS'genres'
p21
(lp22
sS'copyright'
p23
VPublic domain in the USA.
p24
sS'title'
p25
VThe Altar at Midnight
p26
sS'wikipedia'
p27
(dp28
S'found'
p29
I00
ssS'average_rating'
p30
F3.12
sS'rating_count'
p31
I31
sS'content_available'
p32
I01
sS'goodreads'
p33
(dp34
S'url'
p35
Vhttps://www.goodreads.com/book/show/10987581-the-altar-at-midnight
p36
sS'found'
p37
I01
sS'year'
p38
I1952
ssS'similar_books'
p39
(lp40
sS'description'
p41
VDoing something for humanity may be fine -- for humanity -- but rough on the individual!
p42
sS'gutenberg'
p43
(dp44
g35
Vhttp://www.gutenberg.org/ebooks/29619
p45
sS'num'
p46
I29619
ssS'authors'
p47
(lp48
I51
asS'pages'
p49
I17
sS'isbn13'
p50
NsS'language'
p51
VEnglish
p52
sS'countries'
p53
(lp54
I2
asS'release_date'
p55
S'2009-08-05T00:00:00'
p56
sS'author'
p57
I51
sS'content_cleaned'
p58
I01
sS'classes'
p59
(lp60
Vto-read
p61
aVscience-fiction
p62
aVsci-fi
p63
aVcurrently-reading
p64
aVshort-story
p65
aVowned
p66
aVebooks
p67
aVfik
p68
aVon-librivox-web-site
p69
aVsf-short-stories
p70
aVshort-stories
p71
aVgutenberg
p72
aVaudiobooks
p73
aVz_fiction
p74
aVx_shortstory
p75
aVwo_scifi
p76
aVw_us_modern
p77
aVfiction
p78
aVaudio-obtained
p79
aVwhat-short-stories
p80
aVwhat-scifi
p81
aVwhat-classics
p82
aVkindle-shorts
p83
aV13
p84
aVkindle
p85
aVbooks-i-own
p86
aVmass-romance
p87
aVcalibre
p88
aVtype-short-story
p89
aVaudio-obtained-ss
p90
aVe-reader
p91
asS'loc_class'
p92
VPS: Language and Literatures: American and Canadian literature
p93
sS'n_authors'
p94
I1
sb.