ccopy_reg
_reconstructor
p0
(cdataset.Book
Book
p1
c__builtin__
object
p2
Ntp3
Rp4
(dp5
S'content_name'
p6
V23102.txt.utf-8
p7
sS'isbn'
p8
V1463897081
p9
sS'year'
p10
I2009
sS'author_name'
p11
VH. B. Fyfe
p12
sS'images_urls'
p13
(lp14
Vhttp://www.gutenberg.org/files/23102/23102-h/images/001.png
p15
aVhttp://www.gutenberg.org/files/23102/23102-h/images/002.png
p16
aVhttp://www.gutenberg.org/files/23102/23102-h/images/003.png
p17
aVhttp://www.gutenberg.org/files/23102/23102-h/images/004.png
p18
aVhttp://www.gutenberg.org/files/23102/23102-page-images/p022.png
p19
aVhttp://www.gutenberg.org/files/23102/23102-page-images/p023.png
p20
aVhttp://www.gutenberg.org/files/23102/23102-page-images/p024.png
p21
aVhttp://www.gutenberg.org/files/23102/23102-page-images/p025.png
p22
aVhttp://www.gutenberg.org/files/23102/23102-page-images/p026-image.png
p23
aVhttp://www.gutenberg.org/files/23102/23102-page-images/p026.png
p24
aVhttp://www.gutenberg.org/files/23102/23102-page-images/p027.png
p25
aVhttp://www.gutenberg.org/files/23102/23102-page-images/p028.png
p26
aVhttp://www.gutenberg.org/files/23102/23102-page-images/p029-image.png
p27
aVhttp://www.gutenberg.org/files/23102/23102-page-images/p029.png
p28
aVhttp://www.gutenberg.org/files/23102/23102-page-images/p030.png
p29
aVhttp://www.gutenberg.org/files/23102/23102-page-images/p031.png
p30
aVhttp://www.gutenberg.org/files/23102/23102-page-images/p032.png
p31
aVhttp://www.gutenberg.org/files/23102/23102-page-images/p033-image.png
p32
aVhttp://www.gutenberg.org/files/23102/23102-page-images/p033.png
p33
aVhttp://www.gutenberg.org/files/23102/23102-page-images/p034.png
p34
aVhttp://www.gutenberg.org/files/23102/23102-page-images/p035.png
p35
aVhttp://www.gutenberg.org/files/23102/23102-page-images/p036.png
p36
aVhttp://www.gutenberg.org/files/23102/23102-page-images/p037.png
p37
asS'language_code'
p38
NsS'images'
p39
(lp40
sS'id'
p41
I677
sS'category'
p42
VText
p43
sS'plot'
p44
V
p45
sS'genres'
p46
(lp47
sS'copyright'
p48
VPublic domain in the USA.
p49
sS'title'
p50
VThis World Must Die!
p51
sS'wikipedia'
p52
(dp53
S'url'
p54
Vhttps://en.wikipedia.org/wiki/The_King_Must_Die
p55
sS'found'
p56
I01
sS'year'
p57
I-1
ssS'published_in'
p58
NsS'average_rating'
p59
F2.82
sS'rating_count'
p60
I10
sS'content_available'
p61
I01
sS'goodreads'
p62
(dp63
g54
Vhttps://www.goodreads.com/book/show/11923386-this-world-must-die
p64
sg56
I01
sg57
I2009
ssS'similar_books'
p65
(lp66
sS'description'
p67
V"You have been chosen for this mission of murder because you are the only people in our culture who are capable of this type of violence. You have broken our laws, and this is your punishment!"<br /><br />THIS WORLD MUST DIE!<br /><br />Social living requires the elimination, or at very best, the modification of many elements necessary to survival in "nature." And when an emergency arises, very often it is the person who would be considered a "criminal," in other situations, who alone is able to cope with the necessities. If we manage to eliminate "violence" from human affairs, what will we find when a need for "violence" arises -- a need outside of man's artificial control of his environment?
p68
sS'format'
p69
VHardcover
p70
sS'gutenberg'
p71
(dp72
g54
Vhttp://www.gutenberg.org/ebooks/23102
p73
sS'num'
p74
I23102
ssS'authors'
p75
(lp76
I94
asS'pages'
p77
I34
sS'isbn13'
p78
V9781463897086
p79
sS'language'
p80
VEnglish
p81
sS'release_date'
p82
S'2007-10-20T00:00:00'
p83
sS'author'
p84
I94
sS'original_title'
p85
VThe King Must Die
p86
sS'summary'
p87
VThe King Must Die is a 1958 bildungsroman and historical novel by Mary Renault that traces the early life and adventures of Theseus, a hero in Greek mythology. Naturally, it is set in Ancient Greece: Troizen, Corinth, Eleusis, Athens, Knossos in Crete, and Naxos. Rather than retelling the myth, Renault constructs an archaeologically and anthropologically plausible story that might have developed into the myth. She captures the essentials while removing the more fantastical elements, such as monsters and the appearances of gods. The King Must Die was lauded by critics, with New York Times reviewer Orville Prescott calling it "one of the truly fine historical novels of modern times." Renault wrote a sequel, The Bull from the Sea, in 1962.
p88
sS'content_cleaned'
p89
I01
sS'classes'
p90
(lp91
Vto-read
p92
aVscience-fiction
p93
aVfree-from-amazon
p94
aVclassic
p95
aVshort-stories
p96
aVto-read-on-nook
p97
aVto-read-ebook
p98
asS'loc_class'
p99
VPS: Language and Literatures: American and Canadian literature
p100
sS'n_authors'
p101
I1
sb.