ccopy_reg
_reconstructor
p0
(cdataset.Book
Book
p1
c__builtin__
object
p2
Ntp3
Rp4
(dp5
S'content_name'
p6
V29548.txt.utf-8
p7
sS'isbn'
p8
NsS'year'
p9
I-1
sS'author_name'
p10
VRobert Sheckley
p11
sS'images_urls'
p12
(lp13
Vhttp://www.gutenberg.org/files/29548/29548-h/images/001.png
p14
aVhttp://www.gutenberg.org/files/29548/29548-h/images/002-1.jpg
p15
aVhttp://www.gutenberg.org/files/29548/29548-h/images/002-2.jpg
p16
asS'language_code'
p17
Veng
p18
sS'images'
p19
(lp20
sS'id'
p21
I280
sS'category'
p22
VText
p23
sS'genres'
p24
(lp25
sS'copyright'
p26
VPublic domain in the USA.
p27
sS'title'
p28
VWarrior Race
p29
sS'wikipedia'
p30
(dp31
S'found'
p32
I00
ssS'average_rating'
p33
F3.49
sS'rating_count'
p34
I29
sS'content_available'
p35
I01
sS'goodreads'
p36
(dp37
S'url'
p38
Vhttps://www.goodreads.com/book/show/9324436-warrior-race
p39
sg32
I01
sS'year'
p40
I-1
ssS'similar_books'
p41
(lp42
sS'description'
p43
NsS'format'
p44
Vebook
p45
sS'gutenberg'
p46
(dp47
g38
Vhttp://www.gutenberg.org/ebooks/29548
p48
sS'num'
p49
I29548
ssS'authors'
p50
(lp51
I23
asS'isbn13'
p52
NsS'language'
p53
VEnglish
p54
sS'country'
p55
I2
sS'release_date'
p56
S'2009-07-30T00:00:00'
p57
sS'author'
p58
I23
sS'content_cleaned'
p59
I01
sS'classes'
p60
(lp61
Vto-read
p62
aVscience-fiction
p63
aVsci-fi
p64
aVfiction
p65
aVshort-stories
p66
aVclassics
p67
aVaudiobooks-read
p68
aV3-stars
p69
aVaudiobooks
p70
aVowned-pending-kindle-free-ebook
p71
aVamazon-ebooks
p72
aVshort-story
p73
aVaudio-obtained-lvss
p74
aVebooks
p75
aVeb-other
p76
aVeb
p77
aVsi-fi-fantasy
p78
aVtype-short-story
p79
aVaudio-obtained-ss
p80
aVaudio-books
p81
asS'loc_class'
p82
VPS: Language and Literatures: American and Canadian literature
p83
sS'n_authors'
p84
I1
sb.