ccopy_reg
_reconstructor
p0
(cdataset.Book
Book
p1
c__builtin__
object
p2
Ntp3
Rp4
(dp5
S'content_name'
p6
V22513.txt.utf-8
p7
sS'isbn'
p8
NsS'year'
p9
I1955
sS'author_name'
p10
VMark Clifton
p11
sS'images_urls'
p12
(lp13
Vhttp://www.gutenberg.org/files/22513/22513-h/images/001.png
p14
aVhttp://www.gutenberg.org/files/22513/22513-h/images/002.png
p15
aVhttp://www.gutenberg.org/files/22513/22513-h/images/003.png
p16
aVhttp://www.gutenberg.org/files/22513/22513-h/images/004.png
p17
aVhttp://www.gutenberg.org/files/22513/22513-h/images/005.jpg
p18
aVhttp://www.gutenberg.org/files/22513/22513-h/images/005t.jpg
p19
aVhttp://www.gutenberg.org/files/22513/22513-page-images/c001.jpg
p20
aVhttp://www.gutenberg.org/files/22513/22513-page-images/p008-image.png
p21
aVhttp://www.gutenberg.org/files/22513/22513-page-images/p008.png
p22
aVhttp://www.gutenberg.org/files/22513/22513-page-images/p009-image.png
p23
aVhttp://www.gutenberg.org/files/22513/22513-page-images/p009.png
p24
aVhttp://www.gutenberg.org/files/22513/22513-page-images/p010.png
p25
aVhttp://www.gutenberg.org/files/22513/22513-page-images/p011.png
p26
aVhttp://www.gutenberg.org/files/22513/22513-page-images/p012.png
p27
aVhttp://www.gutenberg.org/files/22513/22513-page-images/p013.png
p28
aVhttp://www.gutenberg.org/files/22513/22513-page-images/p014.png
p29
aVhttp://www.gutenberg.org/files/22513/22513-page-images/p015.png
p30
aVhttp://www.gutenberg.org/files/22513/22513-page-images/p016.png
p31
aVhttp://www.gutenberg.org/files/22513/22513-page-images/p017-image.png
p32
aVhttp://www.gutenberg.org/files/22513/22513-page-images/p017.png
p33
aVhttp://www.gutenberg.org/files/22513/22513-page-images/p018.png
p34
aVhttp://www.gutenberg.org/files/22513/22513-page-images/p019.png
p35
aVhttp://www.gutenberg.org/files/22513/22513-page-images/p020.png
p36
aVhttp://www.gutenberg.org/files/22513/22513-page-images/p021.png
p37
aVhttp://www.gutenberg.org/files/22513/22513-page-images/p022.png
p38
aVhttp://www.gutenberg.org/files/22513/22513-page-images/p023.png
p39
aVhttp://www.gutenberg.org/files/22513/22513-page-images/p024.png
p40
aVhttp://www.gutenberg.org/files/22513/22513-page-images/p025.png
p41
aVhttp://www.gutenberg.org/files/22513/22513-page-images/p026-image.png
p42
aVhttp://www.gutenberg.org/files/22513/22513-page-images/p026.png
p43
aVhttp://www.gutenberg.org/files/22513/22513-page-images/p027.png
p44
aVhttp://www.gutenberg.org/files/22513/22513-page-images/p028.png
p45
aVhttp://www.gutenberg.org/files/22513/22513-page-images/p029.png
p46
aVhttp://www.gutenberg.org/files/22513/22513-page-images/p030.png
p47
aVhttp://www.gutenberg.org/files/22513/22513-page-images/p031.png
p48
aVhttp://www.gutenberg.org/files/22513/22513-page-images/p032.png
p49
aVhttp://www.gutenberg.org/files/22513/22513-page-images/p033-image.png
p50
aVhttp://www.gutenberg.org/files/22513/22513-page-images/p033.png
p51
aVhttp://www.gutenberg.org/files/22513/22513-page-images/p034.png
p52
aVhttp://www.gutenberg.org/files/22513/22513-page-images/p035.png
p53
aVhttp://www.gutenberg.org/files/22513/22513-page-images/p036.png
p54
aVhttp://www.gutenberg.org/files/22513/22513-page-images/p037.png
p55
asS'language_code'
p56
NsS'id'
p57
I940
sS'category'
p58
VText
p59
sS'genres'
p60
(lp61
sS'copyright'
p62
VPublic domain in the USA.
p63
sS'title'
p64
VSense from Thought Divide
p65
sS'wikipedia'
p66
(dp67
S'found'
p68
I00
ssS'average_rating'
p69
F3.8
sS'rating_count'
p70
I3
sS'content_available'
p71
I01
sS'goodreads'
p72
(dp73
S'url'
p74
Vhttps://www.goodreads.com/book/show/6238404-sense-from-thought-divide
p75
sS'found'
p76
I01
sS'year'
p77
I2007
ssS'similar_books'
p78
(lp79
sS'description'
p80
NsS'format'
p81
NsS'gutenberg'
p82
(dp83
g74
Vhttp://www.gutenberg.org/ebooks/22513
p84
sS'num'
p85
I22513
ssS'authors'
p86
(lp87
I236
asS'isbn13'
p88
NsS'language'
p89
VEnglish
p90
sS'countries'
p91
(lp92
I2
asS'release_date'
p93
S'2007-09-05T00:00:00'
p94
sS'author'
p95
I236
sS'content_cleaned'
p96
I01
sS'classes'
p97
(lp98
Vexcess-kindle
p99
aV1-owning
p100
aVfantasy
p101
aVshort-story
p102
aVscifi
p103
asS'loc_class'
p104
VPS: Language and Literatures: American and Canadian literature
p105
sS'n_authors'
p106
I1
sb.