ccopy_reg
_reconstructor
p0
(cdataset.Book
Book
p1
c__builtin__
object
p2
Ntp3
Rp4
(dp5
S'content_name'
p6
V23669.txt.utf-8
p7
sS'isbn'
p8
V1496700988
p9
sS'year'
p10
I2016
sS'author_name'
p11
VMack Reynolds
p12
sS'images_urls'
p13
(lp14
Vhttp://www.gutenberg.org/files/23669/23669-h/images/image1.png
p15
aVhttp://www.gutenberg.org/files/23669/23699-page-images/p033-image.png
p16
aVhttp://www.gutenberg.org/files/23669/23699-page-images/p033.png
p17
aVhttp://www.gutenberg.org/files/23669/23699-page-images/p034.png
p18
aVhttp://www.gutenberg.org/files/23669/23699-page-images/p035.png
p19
aVhttp://www.gutenberg.org/files/23669/23699-page-images/p036.png
p20
aVhttp://www.gutenberg.org/files/23669/23699-page-images/p037.png
p21
asS'language_code'
p22
Veng
p23
sS'images'
p24
(lp25
sS'id'
p26
I904
sS'category'
p27
VText
p28
sS'genres'
p29
(lp30
sS'copyright'
p31
VPublic domain in the USA.
p32
sS'title'
p33
VSummit
p34
sS'wikipedia'
p35
(dp36
S'url'
p37
Vhttps://en.wikipedia.org/wiki/The_Executioner_(book_series)
p38
sS'found'
p39
I01
sS'year'
p40
I-1
ssS'published_in'
p41
NsS'average_rating'
p42
F3.95
sS'rating_count'
p43
I1354
sS'content_available'
p44
I01
sS'goodreads'
p45
(dp46
g37
Vhttps://www.goodreads.com/book/show/25489185-summit-lake
p47
sg39
I01
sg40
I2016
ssS'similar_books'
p48
(lp49
VDeadly Memories
p50
aVThe Last Clinic (Darla Cavannah Mysteries, #1)
p51
aVThe Beauty of the End
p52
aVThe Whispers (The Whispers, #1)
p53
aVThe Dead Student
p54
aVClose Reach
p55
aVThe Survivors
p56
aVSafer
p57
aVWith Love from the Inside
p58
aVThe Little Men
p59
aVThe Stepmother
p60
aVLast Vacation
p61
aVThe Other Widow
p62
aVNowhere Girl (Cate Austin, #4)
p63
aVIn Too Deep
p64
aVStrange Things Done
p65
aVAs Night Falls
p66
aVThe Good Mother
p67
asS'description'
p68
VSome places seem too beautiful to be touched by horror. Summit Lake, nestled in North Carolina s Blue Ridge Mountains, is that kind of place. But two weeks ago, Becca Eckersley, a first-year law student and daughter of a powerful attorney, was brutally murdered there. Now the town is reeling with grief, and the police are baffled. <br /><br />At first, investigative reporter Kelsey Castle thinks of the assignment as a fluff piece. But the savagery of the crime, and the efforts to keep it quiet, hint at something far more sinister than a random attack by a stranger. As Kelsey digs deeper, despite danger and warnings, she feels a growing connection to the dead girl. And the more she learns about Becca's friendships, her love life and her secrets the more convinced she becomes that walking in Becca's footsteps could lead her out of her own dark past.
p69
sS'format'
p70
VHardcover
p71
sS'gutenberg'
p72
(dp73
g37
Vhttp://www.gutenberg.org/ebooks/23669
p74
sS'num'
p75
I23669
ssS'authors'
p76
(lp77
I69
asS'pages'
p78
I320
sS'isbn13'
p79
V9781496700988
p80
sS'language'
p81
VEnglish
p82
sS'countries'
p83
(lp84
I2
asS'release_date'
p85
S'2007-12-01T00:00:00'
p86
sS'author'
p87
I69
sS'original_title'
p88
VThe Executioner (book series)
p89
sS'summary'
p90
VThe Executioner is a monthly men's action-adventure series following the exploits of the character Mack Bolan and his wars against organized crime and international terrorism. The series spans #453 installments (as of December 2017) and has sold more than 200 million copies since its debut installment, War Against the Mafia. The series was created and initially written by American author Don Pendleton, who penned 37 of the original 38 Bolan novels. In 1980, Pendleton licensed the rights to Gold Eagle and was succeeded by a collective of ghostwriters.\u000aSince its inception in 1969, The Executioner series has spawned several spin-off series including: Able Team, Phoenix Force, and Stony Man (the series into which Able Team and Phoenix Force were eventually merged). Every other month, the Executioner series is complimented by the release of a Super Bolan, whose titles are twice the length of a standard Executioner novel.
p91
sS'content_cleaned'
p92
I00
sS'classes'
p93
(lp94
Vto-read
p95
aVcurrently-reading
p96
aVmystery
p97
aVfiction
p98
aVnetgalley
p99
aVsuspense
p100
aVthriller
p101
aVaudible
p102
aVmystery-thriller
p103
aVcrime
p104
aVkindle
p105
aVthrillers
p106
aVebook
p107
aVfavorites
p108
aVmystery-suspense
p109
aVmysteries
p110
aVaudio-book
p111
aVread-2016
p112
aVto-buy
p113
aVfirst-reads
p114
aVlibrary
p115
aVgiveaways
p116
aVaudiobook
p117
aVowned
p118
aVebooks
p119
aVaudio-books
p120
aVbook-club
p121
aVread-in-2016
p122
aVmystery-crime
p123
aVdebut
p124
aVnet-galley
p125
aVread-in-2017
p126
aVaudio
p127
aVmurder-mystery
p128
aVadult-fiction
p129
aVnetgalley-arc
p130
aVcharlie-donlea
p131
aVto-read-need-to-buy
p132
aVkindle-books
p133
aVbooks-read-in-2017
p134
aVhorror
p135
aVhave
p136
aVwish-list-audible
p137
aVmystery-fiction
p138
aVlibrary-book
p139
aVown-on-kindle
p140
aVon-kindle
p141
aV2016-books
p142
aV2016-reads
p143
aVadult-mystery
p144
aVto-read-mystery
p145
aVcontemporary-fiction
p146
aVto-read-fiction
p147
aVi-own
p148
aVthriller-mystery
p149
aVpsychological-thrillers
p150
aVadult
p151
aVfriendship
p152
aVmystery-thrillers
p153
aVthriller-suspense
p154
aVpsychological-thriller
p155
aVpsychological-suspense
p156
aVnorth-carolina
p157
aVcrime-thriller
p158
aVsmall-town
p159
aVmurder
p160
aVread-in-2015
p161
aV2016-releases
p162
aVto-read-mysteries-thrillers
p163
aVpaperback
p164
aVown-unread
p165
aVown-kindle
p166
aVon-kobo-tbr
p167
aVlivros-e-biritas
p168
aVuse-prospector
p169
aVstandalone
p170
aVseason-summer
p171
aVreporter-journalist
p172
aVpia-s-around-the-year-in-52-books
p173
aVown-will-read-soon
p174
aVotsp-wish-list
p175
aVnetgalley-edelweiss
p176
aVmystery-murder
p177
aVmight-read
p178
aVlegimi-2016
p179
aVjournalists-etc
p180
aVhome-library
p181
aVgiveaway-wins
p182
aVfemale-lead
p183
aVearly-review-netgalley
p184
aVbooks-i-ve-won-home-library
p185
aVaudible-overdrive
p186
aV2016-rs-book-club
p187
aVthrillers-crime
p188
aVon-kobo
p189
aVaugust-2017
p190
aVrandoms
p191
aVstand-alone
p192
aVntp-sa
p193
aVzz-north-carolina
p194
asS'loc_class'
p195
VPS: Language and Literatures: American and Canadian literature
p196
sS'n_authors'
p197
I1
sb.