ccopy_reg
_reconstructor
p0
(cdataset.Book
Book
p1
c__builtin__
object
p2
Ntp3
Rp4
(dp5
S'similar_books'
p6
(lp7
sS'genres'
p8
(lp9
sS'author'
p10
I918
sS'countries'
p11
(lp12
I2
asS'year'
p13
I1974
sS'title'
p14
VIF Magazine July 1974
p15
sS'cover'
p16
Vhttps://ia600204.us.archive.org/BookReader/BookReaderImages.php?zip=/7/items/1974-08_IF/1974-08_IF_jp2.zip&file=1974-08_IF_jp2/1974-08_IF_0000.jp2&scale=0&rotate=0
p17
sS'cover_art'
p18
S'http://www.isfdb.org/wiki/images/4/4b/WOFIFJULAUG1974.jpg'
p19
sS'author_name'
p20
VIF Magazine
p21
sS'images_urls'
p22
(lp23
sS'authors'
p24
(lp25
I1237
aI326
aI744
aI499
aI764
aI1238
aI767
aI356
aI645
aI561
aI665
aI3
aI604
aI1239
aI242
aI918
asS'images'
p26
(lp27
sS'id'
p28
I1390
sS'contents'
p29
(lp30
(dp31
g10
I1237
sg14
VMidnight
p32
sa(dp33
g10
I326
sg14
VA Little Night Flying
p34
sa(dp35
g10
I744
sg14
VArs Gratia (If, July-August 1974)
p36
sa(dp37
g10
I744
sg14
VHalf-Baked Publisher's Delight
p38
sa(dp39
g10
I499
sg14
VPlaything
p40
sa(dp41
g10
I326
sg14
VNo Time Like the Past
p42
sa(dp43
g10
I326
sg14
VBerserker's Planet (Part 2 of 2)
p44
sa(dp45
g10
I744
sg14
VAngel Fix
p46
sa(dp47
g10
I499
sg14
VTube
p48
sa(dp49
g10
I764
sg14
VOn the Urbanization of the Solar System
p50
sa(dp51
g10
I1238
sg14
VTorchships Now! (If, July-August 1974)
p52
sa(dp53
g10
I767
sg14
VThe Alien Viewpoint (If, July-August 1974)
p54
sa(dp55
g10
I356
sg14
VReading Room (If, July-August 1974)
p56
sa(dp57
g10
I326
sg14
VSf Calendar (If, July-August 1974)
p58
sa(dp59
g10
I645
sg14
VAngel Fix
p60
sa(dp61
g10
I561
sg14
VBerserker's Planet (Part 2 of 2)
p62
sa(dp63
g10
I665
sg14
VA Little Night Flying
p64
sa(dp65
g10
I3
sg14
VHalf-Baked Publisher's Delight
p66
sa(dp67
g10
I604
sg14
VPlaything
p68
sa(dp69
g10
I1239
sg14
VNo Time Like the Past
p70
sa(dp71
g10
I242
sg14
VTube
p72
sasb.