ccopy_reg
_reconstructor
p0
(cdataset.Book
Book
p1
c__builtin__
object
p2
Ntp3
Rp4
(dp5
S'content_name'
p6
V51267.txt.utf-8
p7
sS'isbn'
p8
V0441206565
p9
sS'year'
p10
I1985
sS'author_name'
p11
VKeith Laumer
p12
sS'images_urls'
p13
(lp14
Vhttp://www.gutenberg.org/files/51267/51267-h/images/cover.jpg
p15
aVhttp://www.gutenberg.org/files/51267/51267-h/images/illus1.jpg
p16
aVhttp://www.gutenberg.org/files/51267/51267-h/images/illus2.jpg
p17
asS'language_code'
p18
NsS'images'
p19
(lp20
sS'id'
p21
I250
sS'category'
p22
VText
p23
sS'genres'
p24
(lp25
sS'copyright'
p26
VPublic domain in the USA.
p27
sS'title'
p28
VEnd as a Hero
p29
sS'wikipedia'
p30
(dp31
S'found'
p32
I00
ssS'average_rating'
p33
F3.38
sS'rating_count'
p34
I49
sS'content_available'
p35
I01
sS'cover_art_url'
p36
S'http://www.gutenberg.org/cache/epub/51267/pg51267.cover.medium.jpg'
p37
sS'goodreads'
p38
(dp39
S'url'
p40
Vhttps://www.goodreads.com/book/show/1417216.End_As_A_Hero
p41
sg32
I01
sS'year'
p42
I1985
ssS'similar_books'
p43
(lp44
sS'description'
p45
VTHE CONQUERING HERO<br /><br />Mankind was at war with the hideous Gool...and losing. Then, beyond Ganymead, one man fought the searing brain probe of an alien spy...and won. He mastered the power of its telepathic mind-control, captured the secret of its matter transmitters, and learned how to destroy the Gool Overlords. He called intelligence with news of the victory and headed home.<br /><br />Straight into a barrage of Terran nuclear warheads.<br /><br />Past missiles, shells, and assassins, he made it home -- alone, badly wounded, and branded a traitor by conventional Terran wisdom that said no one could survive the Gool brain probe. No one, that is, except a brainwashed puppet deliberately allowed to survive to serve the Goos as a spy.<br /><br />But he must survive Earth's attempts to kill him -- because no matter how much his fellow humans want him dead, he knows that he is the only one who can lead them against the Gool and have a chance at victory.
p46
sS'format'
p47
VPaperback
p48
sS'gutenberg'
p49
(dp50
g40
Vhttp://www.gutenberg.org/ebooks/51267
p51
sS'num'
p52
I51267
ssS'authors'
p53
(lp54
I67
asS'pages'
p55
I150
sS'isbn13'
p56
V9780441206568
p57
sS'language'
p58
VEnglish
p59
sS'countries'
p60
(lp61
I25
asS'release_date'
p62
S'2016-02-22T00:00:00'
p63
sS'author'
p64
I67
sS'content_cleaned'
p65
I01
sS'classes'
p66
(lp67
Vto-read
p68
aVscience-fiction
p69
aVdefault
p70
aVfiction
p71
aVsf
p72
aVsci-fi
p73
aVowned
p74
aVscience
p75
aVscifi
p76
aVsci-fi-fantasy
p77
aVhard-science-fiction
p78
aVon-calibre-to-read
p79
aVsf-war
p80
aVsf-genetics
p81
aVauthors-l
p82
aVnew
p83
aVbin-001
p84
aValiens
p85
aVtg-books
p86
aV2fiction
p87
aVascience-fiction-fantasy
p88
aVfantasy-sf
p89
aVmilitary-scifi
p90
aV1paper
p91
aVpaperback-box-11
p92
aVl-1
p93
aVscience-fiction---fantasy
p94
aV--available-at-raspberrys--
p95
aVmore-than-once
p96
aVsf-fan
p97
asS'loc_class'
p98
S''
p99
sS'n_authors'
p100
I1
sb.