ccopy_reg
_reconstructor
p0
(cdataset.Book
Book
p1
c__builtin__
object
p2
Ntp3
Rp4
(dp5
S'content_name'
p6
V50766.txt.utf-8
p7
sS'isbn'
p8
NsS'year'
p9
I1952
sS'author_name'
p10
VKatherine MacLean
p11
sS'images_urls'
p12
(lp13
Vhttp://www.gutenberg.org/files/50766/50766-h/images/cover.jpg
p14
aVhttp://www.gutenberg.org/files/50766/50766-h/images/illus.jpg
p15
asS'language_code'
p16
NsS'images'
p17
(lp18
sS'id'
p19
I611
sS'category'
p20
VText
p21
sS'genres'
p22
(lp23
sS'copyright'
p24
VPublic domain in the USA.
p25
sS'title'
p26
VThe Snowball Effect
p27
sS'wikipedia'
p28
(dp29
S'found'
p30
I00
ssS'average_rating'
p31
F3.46
sS'rating_count'
p32
I9
sS'content_available'
p33
I01
sS'cover_art_url'
p34
S'http://www.gutenberg.org/cache/epub/50766/pg50766.cover.medium.jpg'
p35
sS'goodreads'
p36
(dp37
S'url'
p38
S'https://www.goodreads.com/book/show/28494573-the-snowball-effect'
p39
sS'found'
p40
I01
ssS'similar_books'
p41
(lp42
sS'description'
p43
NsS'gutenberg'
p44
(dp45
S'url'
p46
Vhttp://www.gutenberg.org/ebooks/50766
p47
sS'num'
p48
I50766
ssS'authors'
p49
(lp50
I36
asS'isbn13'
p51
NsS'language'
p52
VEnglish
p53
sS'countries'
p54
(lp55
I2
asS'release_date'
p56
S'2015-12-25T00:00:00'
p57
sS'author'
p58
I36
sS'cover'
p59
Vhttps://s.gr-assets.com/assets/nophoto/book/111x148-bcc042a9c91a29c1d680899eff700a03.png
p60
sS'content_cleaned'
p61
I01
sS'classes'
p62
(lp63
Vcurrently-reading
p64
aVto-read
p65
aVscience-fiction
p66
aVsi-fi-fantasy
p67
aVshort-stories
p68
aVebooks
p69
aVunknown-publication-dates
p70
aVz_fiction
p71
aVx_shortstory
p72
aVwo_scifi
p73
aVw_us_unitary
p74
aVsci-fi
p75
aVreview-done
p76
aVtype-short-story
p77
asS'loc_class'
p78
S''
p79
sS'n_authors'
p80
I1
sb.