ccopy_reg
_reconstructor
p0
(cdataset.Book
Book
p1
c__builtin__
object
p2
Ntp3
Rp4
(dp5
S'content_name'
p6
V31897.txt.utf-8
p7
sS'isbn'
p8
V1612102174
p9
sS'year'
p10
I-1
sS'author_name'
p11
VDavid E. Fisher
p12
sS'images_urls'
p13
(lp14
Vhttp://www.gutenberg.org/files/31897/31897-h/images/001-1.jpg
p15
aVhttp://www.gutenberg.org/files/31897/31897-h/images/001-2.jpg
p16
aVhttp://www.gutenberg.org/files/31897/31897-h/images/002.png
p17
asS'language_code'
p18
NsS'id'
p19
I616
sS'category'
p20
VText
p21
sS'genres'
p22
(lp23
sS'copyright'
p24
VPublic domain in the USA.
p25
sS'title'
p26
VYou Don't Make Wine Like the Greeks Did
p27
sS'wikipedia'
p28
(dp29
S'found'
p30
I00
ssS'average_rating'
p31
F3.33
sS'rating_count'
p32
I5
sS'content_available'
p33
I01
sS'goodreads'
p34
(dp35
S'url'
p36
Vhttps://www.goodreads.com/book/show/18884214-you-don-t-make-wine-like-the-greek-did
p37
sS'found'
p38
I01
sS'year'
p39
I2011
ssS'similar_books'
p40
(lp41
sS'description'
p42
VEvery century has its advantages and its drawbacks," he said. "We, for instance, have bred out sexual desire. And, as for you people ...
p43
sS'gutenberg'
p44
(dp45
g36
Vhttp://www.gutenberg.org/ebooks/31897
p46
sS'num'
p47
I31897
ssS'authors'
p48
(lp49
I206
asS'isbn13'
p50
V9781612102177
p51
sS'language'
p52
VEnglish
p53
sS'countries'
p54
(lp55
I3
asS'release_date'
p56
S'2010-04-06T00:00:00'
p57
sS'author'
p58
I206
sS'cover'
p59
Vhttps://s.gr-assets.com/assets/nophoto/book/111x148-bcc042a9c91a29c1d680899eff700a03.png
p60
sS'content_cleaned'
p61
I01
sS'classes'
p62
(lp63
Vto-read
p64
aVscience-fiction
p65
aVfree-from-amazon
p66
aVfiction
p67
aVpg
p68
aVfood
p69
aVthe-library
p70
asS'loc_class'
p71
VPS: Language and Literatures: American and Canadian literature
p72
sS'n_authors'
p73
I1
sb.