ccopy_reg
_reconstructor
p0
(cdataset.Book
Book
p1
c__builtin__
object
p2
Ntp3
Rp4
(dp5
S'content_name'
p6
V24721.txt.utf-8
p7
sS'isbn'
p8
NsS'year'
p9
I1959
sS'author_name'
p10
VFrank Herbert
p11
sS'images_urls'
p12
(lp13
Vhttp://www.gutenberg.org/files/24721/24721-h/images/92.png
p14
aVhttp://www.gutenberg.org/files/24721/24721-h/images/92_thumb.png
p15
aVhttp://www.gutenberg.org/files/24721/24721-h/images/99.png
p16
aVhttp://www.gutenberg.org/files/24721/24721-h/images/99_thumb2.png
p17
aVhttp://www.gutenberg.org/files/24721/24721-h/images/103.png
p18
aVhttp://www.gutenberg.org/files/24721/24721-h/images/103_thumb.png
p19
aVhttp://www.gutenberg.org/files/24721/24721-h/images/w.png
p20
asS'language_code'
p21
NsS'images'
p22
(lp23
sS'id'
p24
I188
sS'category'
p25
VText
p26
sS'genres'
p27
(lp28
sS'copyright'
p29
VPublic domain in the USA.
p30
sS'title'
p31
VOperation Haystack
p32
sS'wikipedia'
p33
(dp34
S'url'
p35
Vhttps://en.wikipedia.org/wiki/The_Godmakers_(novel)
p36
sS'found'
p37
I01
sS'year'
p38
I-1
ssS'published_in'
p39
NsS'average_rating'
p40
F3.52
sS'rating_count'
p41
I69
sS'content_available'
p42
I01
sS'goodreads'
p43
(dp44
g35
Vhttps://www.goodreads.com/book/show/6315489-operation-haystack
p45
sg37
I01
sg38
I1959
ssS'similar_books'
p46
(lp47
sS'description'
p48
VIt's hard to ferret out a gang of fanatics; it would, obviously, be even harder to spot a genetic line of dedicated men. But the problem Orne had was one step tougher than that! A science fiction classic from Frank Herbert, author of DUNE!
p49
sS'format'
p50
NsS'gutenberg'
p51
(dp52
g35
Vhttp://www.gutenberg.org/ebooks/24721
p53
sS'num'
p54
I24721
ssS'authors'
p55
(lp56
I63
asS'isbn13'
p57
NsS'language'
p58
VEnglish
p59
sS'country'
p60
I2
sS'release_date'
p61
S'2008-03-01T00:00:00'
p62
sS'author'
p63
I63
sS'original_title'
p64
VThe Godmakers (novel)
p65
sS'summary'
p66
VThe Godmakers (1972) is a science fiction novel by Frank Herbert. The title of early editions was sometimes styled The God Makers.
p67
sS'content_cleaned'
p68
I01
sS'classes'
p69
(lp70
Vto-read
p71
aVsci-fi
p72
aVscience-fiction
p73
aVshort-stories
p74
aVfiction
p75
aVkindlecollection
p76
aVdidn-t-finish
p77
aVunread-owned-books
p78
aVrandoms
p79
aV20th-century-lit
p80
aVbuy-science-fiction
p81
aVshorts-and-novellas
p82
aVinterested
p83
aVtop-100-sci-fi
p84
aVcurrently-reading
p85
aVlibrivox-short-story-collection-11
p86
aVaudiobooks
p87
aVowned-pending-kindle-free-ebook
p88
aVkindle-free-ebook
p89
aVhow-kindle
p90
aVz_fiction
p91
aVx_shortstory
p92
aVaudiobook
p93
aVw_us_modern
p94
aVshort-story
p95
aV15
p96
aVto-read-ebooks
p97
aVfantasy
p98
aVfree-audio
p99
aVepubbooks
p100
aVbooks-to-buy
p101
aVread-2013
p102
aV1959
p103
aVebook-yes
p104
aVdon-t-have-yet
p105
aVg-science-fiction
p106
aVdune
p107
aVdon-t-own
p108
aValready-read
p109
aVsciencefiction
p110
aVmy-kindle-books
p111
aVfrank-herbert
p112
aVto-read-scifi
p113
aVto-read-2
p114
aVpublic-library
p115
aVsuggested-to-me
p116
aVtype-short-story
p117
aVherbert-frank
p118
aVfirst-read-2012
p119
asS'loc_class'
p120
VPS: Language and Literatures: American and Canadian literature
p121
sS'n_authors'
p122
I1
sb.