ccopy_reg
_reconstructor
p0
(cdataset.Book
Book
p1
c__builtin__
object
p2
Ntp3
Rp4
(dp5
S'content_name'
p6
V51296.txt.utf-8
p7
sS'isbn'
p8
V006757520X
p9
sS'year'
p10
I1956
sS'author_name'
p11
VStephen Marlowe
p12
sS'images_urls'
p13
(lp14
Vhttp://www.gutenberg.org/files/51296/51296-h/images/cover.jpg
p15
aVhttp://www.gutenberg.org/files/51296/51296-h/images/illus1.jpg
p16
aVhttp://www.gutenberg.org/files/51296/51296-h/images/illus2.jpg
p17
asS'language_code'
p18
NsS'images'
p19
(lp20
sS'id'
p21
I752
sS'category'
p22
VText
p23
sS'genres'
p24
(lp25
sS'copyright'
p26
VPublic domain in the USA.
p27
sS'title'
p28
VThe Sense of Wonder
p29
sS'wikipedia'
p30
(dp31
S'found'
p32
I00
ssS'average_rating'
p33
F4.4
sS'rating_count'
p34
I905
sS'content_available'
p35
I01
sS'cover_art_url'
p36
S'http://www.gutenberg.org/cache/epub/51296/pg51296.cover.medium.jpg'
p37
sS'goodreads'
p38
(dp39
S'url'
p40
Vhttps://www.goodreads.com/book/show/27344.The_Sense_of_Wonder
p41
sg32
I01
sS'year'
p42
I1956
ssS'similar_books'
p43
(lp44
VThe Geography of Childhood: Why Children Need Wild Places (Concord Library)
p45
aVEarth in Mind: On Education, Environment, and the Human Prospect
p46
aVBiophilia
p47
aVKeeping a Nature Journal: Discover a Whole New Way of Seeing the World Around You
p48
aVEcological Literacy: Educating Our Children for a Sustainable World
p49
aVSettled in the Wild: Notes from the Edge of Town
p50
aVDawn Light: Dancing with Cranes and Other Ways to Start the Day
p51
aVBeyond Ecophobia: Reclaiming the Heart in Nature Education (Nature Literacy Series, Vol. 1) (Nature Literacy)
p52
aVWild Comfort: The Solace of Nature
p53
aVRachel Carson: Witness for Nature
p54
aVRaising Elijah: Protecting Our Children in an Age of Environmental Crisis
p55
aVAmerican Earth: Environmental Writing Since Thoreau
p56
aVThe Long-Legged House
p57
aVTrespass: Living at the Edge of the Promised Land
p58
aVSpineless
p59
aVWeb of Life: Weaving the Values That Sustain Us
p60
aVStaying Alive: Women, Ecology and Development
p61
aVUncommon Ground: Rethinking the Human Place in Nature
p62
asS'description'
p63
VFirst published more than three decades ago, this reissue of Rachel Carson's award-winning classic brings her unique vision to a new generation of readers. Stunning new photographs by Nick Kelsh beautifully complement Carson's intimate account of adventures with her young nephew, Roger, as they enjoy walks along the rocky coast of Maine and through dense forests and open fields, observing wildlife, strange plants, moonlight and storm clouds, and listening to the "living music" of insects in the underbrush. "If a child is to keep alive his inborn sense of wonder." Writes Carson, "he needs the companionship of at least one adult who can share it, rediscovering with him the joy, excitement and mystery of the world we live in." <em>The Sense of Wonder</em> is a refreshing antidote to indifference and a guide to capturing the simple power of discovery that Carson views as essential to life.<br /><br />In her insightful new introduction, Linda Lear remembers Rachel Carson's groundbreaking achievements in the context of the legendary environmentalist's personal commitment to introducing young and old to the miracles of nature.<br /><br />Kelsh's lush photographs inspire sensual, tactile reactions: masses of leaves floating in a puddle are just waiting to be scooped up and examined more closely. An image of a narrow path through the trees evokes the earthy scent of the woods after a summer rain. Close-ups of mosses and miniature lichen fantasy-lands will spark innocent'as well as more jaded'imaginations. Like a curious child studying things underfoot and within reach, Kelsh's camera is drawn to patterns in nature that too often elude hurried adults'a stand of beech trees in the springtime, patches of melting snow and the ripples from a pebble tossed into a slow-moving stream.<br /><br /><em>The Sense of Wonder</em> is a timeless volume that will be passed on from children to grandchildren, as treasured as the memory of an early-morning walk when the song of a whippoorwill was heard as if for the first time.
p64
sS'format'
p65
VHardcover
p66
sS'gutenberg'
p67
(dp68
g40
Vhttp://www.gutenberg.org/ebooks/51296
p69
sS'num'
p70
I51296
ssS'authors'
p71
(lp72
I79
asS'pages'
p73
I112
sS'isbn13'
p74
V9780067575208
p75
sS'language'
p76
VEnglish
p77
sS'country'
p78
I3
sS'release_date'
p79
S'2016-02-24T00:00:00'
p80
sS'author'
p81
I79
sS'content_cleaned'
p82
I01
sS'classes'
p83
(lp84
Vto-read
p85
aVnon-fiction
p86
aVnature
p87
aVscience
p88
aVcurrently-reading
p89
aVfavorites
p90
aVenvironment
p91
aVparenting
p92
aVnonfiction
p93
aVecology
p94
aVeducation
p95
aVto-read-non-fiction
p96
aVchildren
p97
aVnature-writing
p98
aVmemoir
p99
aVfamily
p100
aVaudible
p101
aVbrainpickings
p102
aVkids
p103
aVaudiobook
p104
aVnatural-history
p105
aVoutdoors
p106
aVscience-nature
p107
aVchildrens
p108
aVinspirational
p109
aVaudio
p110
aVessays
p111
aVlibrary
p112
aVclassics
p113
aVaudiobooks
p114
aVspirituality
p115
aVkindle
p116
aVbiology
p117
aVphilosophy
p118
aVpicture-books
p119
aVyear-2015
p120
aVadult-non-fiction
p121
aVnature-outdoors
p122
aVsense-of-place
p123
aVrachel-carson
p124
aVto-buy
p125
aVscience-and-nature
p126
aVwish-list
p127
aVwonder
p128
aVto-read-nonfiction
p129
aVcompleted-2012
p130
aVread-in-2012
p131
aVfiction
p132
aVsustainability
p133
aVenvironmental
p134
aVpoetry
p135
aVnaturalism
p136
aVbiography-memoir
p137
aVchildren-s
p138
aVsci-nature
p139
aVparenting-teaching
p140
aVmother-culture
p141
aVadd-to-spreadsheet
p142
aVshort
p143
aVpublic-library
p144
aVdeleted-books
p145
aVcleared
p146
aVnature-environment-nonfiction
p147
aVbooktubeathon-2017
p148
aVgo-hug-a-tree
p149
aVin-the-cue
p150
aV2017-modern-mrs-darcy-challenge
p151
aVmind
p152
aVstay-with-me
p153
aVmemoir-bio
p154
aV50-states
p155
aVbest-science-books
p156
aV2017-possible-books
p157
aVnon-fiction-general
p158
aVensayo
p159
aVjones
p160
aVinlib
p161
aVted-summer-reading-list-2017
p162
aVnature-beauties
p163
aVtravels
p164
aVmindfulness
p165
aVbeing-science-pop-psych
p166
aVted-recommendations
p167
aVaudiobook-hoopla
p168
aVkids-nonfiction
p169
aVsummer-reading
p170
aVbiography
p171
aVsciences
p172
aVwild-child
p173
aVwalking
p174
aVladies
p175
aVduch-i-emocja
p176
aVwomen-authors
p177
aVhave-to
p178
aV500s
p179
aVpregnancy-parenting
p180
aVoutdoor-women
p181
aVgreat-women
p182
aVsimple-life
p183
aVthinking-like-a-mountain
p184
asS'loc_class'
p185
S''
p186
sS'n_authors'
p187
I1
sb.