ccopy_reg
_reconstructor
p0
(cdataset.Book
Book
p1
c__builtin__
object
p2
Ntp3
Rp4
(dp5
S'similar_books'
p6
(lp7
sS'genres'
p8
(lp9
sS'author'
p10
I302
sS'countries'
p11
(lp12
I2
asS'year'
p13
I1974
sS'title'
p14
VGalaxy Magazine May 1974
p15
sS'cover'
p16
Vhttps://ia600205.us.archive.org/BookReader/BookReaderImages.php?zip=/8/items/Galaxy_v35n05_1974-05/Galaxy_v35n05_1974-05_jp2.zip&file=Galaxy_v35n05_1974-05_jp2/Galaxy_v35n05_1974-05_0000.jp2&scale=0&rotate=0
p17
sS'cover_art'
p18
S'http://www.isfdb.org/wiki/images/e/e3/GALMAY74.jpg'
p19
sS'author_name'
p20
VGalaxy Magazine
p21
sS'images_urls'
p22
(lp23
sS'authors'
p24
(lp25
I326
aI499
aI734
aI341
aI737
aI635
aI86
aI23
aI153
aI74
aI651
aI722
aI112
aI302
asS'images'
p26
(lp27
sS'id'
p28
I1172
sS'contents'
p29
(lp30
(dp31
g10
I326
sg14
VEnd City
p32
sa(dp33
g10
I499
sg14
VTinkerboy
p34
sa(dp35
g10
I326
sg14
VEndangered Species
p36
sa(dp37
g10
I499
sg14
VCox's Quality
p38
sa(dp39
g10
I499
sg14
VThe Org's Egg (Part 2 of 3)
p40
sa(dp41
g10
I499
sg14
VTime and Duckworth
p42
sa(dp43
g10
I326
sg14
VSubstance and Shadow
p44
sa(dp45
g10
I499
sg14
VWar of the Wastelife
p46
sa(dp47
g10
I499
sg14
VCool Affection
p48
sa(dp49
g10
I734
sg14
VThose Pesky Belters and Their Torchships
p50
sa(dp51
g10
I341
sg14
VGalaxy Bookshelf (Galaxy, May 1974)
p52
sa(dp53
g10
I737
sg14
VCox's Quality
p54
sa(dp55
g10
I635
sg14
VWar of the Wastelife
p56
sa(dp57
g10
I86
sg14
VThe Org's Egg (Part 2 of 3)
p58
sa(dp59
g10
I23
sg14
VEnd City
p60
sa(dp61
g10
I153
sg14
VTinkerboy
p62
sa(dp63
g10
I74
sg14
VEndangered Species
p64
sa(dp65
g10
I651
sg14
VTime and Duckworth
p66
sa(dp67
g10
I722
sg14
VSubstance and Shadow
p68
sa(dp69
g10
I112
sg14
VCool Affection
p70
sasb.