ccopy_reg
_reconstructor
p0
(cdataset.Book
Book
p1
c__builtin__
object
p2
Ntp3
Rp4
(dp5
S'content_name'
p6
V22102.txt.utf-8
p7
sS'isbn'
p8
NsS'year'
p9
I2013
sS'author_name'
p10
VAlfred Coppel
p11
sS'images_urls'
p12
(lp13
Vhttp://www.gutenberg.org/files/22102/22102-h/images/illustration.png
p14
aVhttp://www.gutenberg.org/files/22102/22102-page-images/p115-image.png
p15
aVhttp://www.gutenberg.org/files/22102/22102-page-images/p115.png
p16
aVhttp://www.gutenberg.org/files/22102/22102-page-images/p116.png
p17
aVhttp://www.gutenberg.org/files/22102/22102-page-images/p117.png
p18
aVhttp://www.gutenberg.org/files/22102/22102-page-images/p118.png
p19
aVhttp://www.gutenberg.org/files/22102/22102-page-images/p119.png
p20
aVhttp://www.gutenberg.org/files/22102/22102-page-images/p120.png
p21
aVhttp://www.gutenberg.org/files/22102/22102-page-images/p121.png
p22
aVhttp://www.gutenberg.org/files/22102/22102-page-images/p122.png
p23
aVhttp://www.gutenberg.org/files/22102/22102-page-images/p123.png
p24
asS'language_code'
p25
Veng
p26
sS'images'
p27
(lp28
sS'id'
p29
I858
sS'category'
p30
VText
p31
sS'genres'
p32
(lp33
sS'copyright'
p34
VPublic domain in the USA.
p35
sS'title'
p36
VThe Hills of Home
p37
sS'wikipedia'
p38
(dp39
S'found'
p40
I00
ssS'average_rating'
p41
F3.76
sS'rating_count'
p42
I99
sS'content_available'
p43
I01
sS'goodreads'
p44
(dp45
S'url'
p46
Vhttps://www.goodreads.com/book/show/18110613-the-green-hills-of-home
p47
sg40
I01
sS'year'
p48
I2013
ssS'similar_books'
p49
(lp50
VA Heat Of The Moment Thing
p51
aVTall, Dark and Kilted
p52
aVA Girl's Best Friend
p53
aVThe Sweet Second Life of Darrell Kincaid
p54
aVTo Turn Full Circle
p55
aVWalking on Air
p56
aVStorm in a B Cup
p57
aVThe Hollow Heart (The Heartfelt Series, #1)
p58
aVExpected (Sam Sweet #1)
p59
aVCoco Pinchard's Big Fat Tipsy Wedding (Coco Pinchard, #2)
p60
aVA Perfect Holiday Fling (Moments in Maplesville, #1)
p61
aVDiary of a Single Wedding Planner (Tales Behind the Veils, #1)
p62
aVBeneath an Irish Sky (An Emerald Isle Romance, #1)
p63
aVSugar's Dance
p64
aVToo Close For Comfort
p65
aVSunshine, With a Chance of Snow
p66
aVLost in New York (The Lucy Ripken Mysteries, #5)
p67
aVHighland Fling
p68
asS'description'
p69
VGwen Jones, a young Welsh writer, is desperate to save the family farmhouse from being sold from under her critically ill mother and herself. When she lands a lucrative three-book deal with an eminent publisher, she thinks her problems are all over. However, Gwen's need to be near her sick mother means she\u2019s unable to travel to London to work with her devilishly desirable editor, John Thatcher, and he must come and stay with her in Wales. Handsome and eminently capable, cosmopolitan John is used to getting his own way and has plans for the future which certainly don\u2019t include being distracted by pretty Welsh girls; nevertheless when he journeys into the country to work with Gwen it\u2019s not long before he finds himself falling in love with her, as well as the house she\u2019s so anxious to save. But is John capable of loving anyone as much as his job? And when he has to decide between his goals and Gwen, which will he choose?
p70
sS'format'
p71
Vebook
p72
sS'gutenberg'
p73
(dp74
g46
Vhttp://www.gutenberg.org/ebooks/22102
p75
sS'num'
p76
I22102
ssS'authors'
p77
(lp78
I166
asS'pages'
p79
I176
sS'isbn13'
p80
V9781301217090
p81
sS'language'
p82
VEnglish
p83
sS'release_date'
p84
S'2007-07-19T00:00:00'
p85
sS'author'
p86
I166
sS'content_cleaned'
p87
I01
sS'classes'
p88
(lp89
Vto-read
p90
aVcurrently-reading
p91
aVromance
p92
aVchick-lit
p93
aVkindle-books
p94
aVkindle
p95
aVcontemporary
p96
aVcontemporary-romance
p97
aVclean-romance
p98
aVbooks-i-own
p99
aVfiction
p100
aVwish-list
p101
aVkindle-unlimited
p102
aVnovel
p103
aVdid-not-finish
p104
aVthe-g-series
p105
aVfiction-womens
p106
aVfirst-reads
p107
aVa-pick-list
p108
aVowned-books
p109
aVdnf
p110
aVqueued
p111
aVuntagged
p112
aVcontemporary-fiction
p113
aVkindle-freebies
p114
aVkindle-ebook
p115
aVclean-content
p116
aVtmb
p117
aVromance-contemporay
p118
aVmy-kindle-books
p119
aVe-books-kindle
p120
aVbeautiful-covers
p121
aVquick-reads
p122
aVkindle-ipad
p123
aV2015-kindle
p124
aVfree-to-download
p125
aV2d-characters
p126
aVauthors-not-for-me
p127
aVfreebies
p128
aV100-199-pgs
p129
aVkindle-6
p130
aVread-in-2015
p131
aVsummer-reading
p132
aVe-book
p133
aV3rd-person-pov
p134
aVdrama
p135
aVto-read-bought
p136
aV2015-books
p137
aVamazon-library
p138
aVread-2014
p139
aVkindle-to-read
p140
aVkindle-to-be-read_free-books
p141
aVbooks-on-kindle
p142
aVfreebie-owned-to-read
p143
aVto-read-kindle
p144
aVfreebie-2014
p145
aVmystery
p146
aVon-kindle-to-read
p147
aVindie-own
p148
aVebooks-sub
p149
aVbought-but-not-read-yet
p150
aVebook-owned
p151
aVebooks
p152
aVclean-secular-romance
p153
aVauthors-personal-reviews
p154
aVmain-library
p155
aVkindle-cloudless
p156
aVkindle-chick-lit
p157
aVkindle-adult
p158
aVromance-clean
p159
aVebook
p160
aVdebut-2013
p161
aVa-prime
p162
aVnlg
p163
aVto-read-maybe
p164
aVto-acquire
p165
aVfabulous-books
p166
aVchick-lit-goddesses
p167
aVfavorites
p168
aVcontemporay-romance
p169
asS'loc_class'
p170
VPS: Language and Literatures: American and Canadian literature
p171
sS'n_authors'
p172
I1
sb.