ccopy_reg
_reconstructor
p0
(cdataset.Book
Book
p1
c__builtin__
object
p2
Ntp3
Rp4
(dp5
S'similar_books'
p6
(lp7
sS'genres'
p8
(lp9
sS'author'
p10
I302
sS'countries'
p11
(lp12
I2
asS'year'
p13
I1969
sS'title'
p14
VGalaxy Magazine April 1969
p15
sS'cover'
p16
Vhttps://ia600204.us.archive.org/BookReader/BookReaderImages.php?zip=/18/items/Galaxy_v28n03_1969-04/Galaxy_v28n03_1969-04_jp2.zip&file=Galaxy_v28n03_1969-04_jp2/Galaxy_v28n03_1969-04_0000.jp2&scale=0&rotate=0
p17
sS'cover_art'
p18
S'http://www.isfdb.org/wiki/images/1/15/GALAPR69.jpg'
p19
sS'author_name'
p20
VGalaxy Magazine
p21
sS'images_urls'
p22
(lp23
sS'authors'
p24
(lp25
I611
aI640
aI649
aI499
aI40
aI91
aI326
aI339
aI56
aI161
aI67
aI645
aI45
aI254
aI302
asS'images'
p26
(lp27
sS'id'
p28
I1132
sS'contents'
p29
(lp30
(dp31
g10
I611
sg14
VWitch Hunt
p32
sa(dp33
g10
I611
sg14
VWitch Hunt [2]
p34
sa(dp35
g10
I611
sg14
VWitch Hunt [3]
p36
sa(dp37
g10
I640
sg14
VHow Like a God
p38
sa(dp39
g10
I640
sg14
VHow Like a God [2]
p40
sa(dp41
g10
I640
sg14
VHow Like a God [3]
p42
sa(dp43
g10
I649
sg14
VBuckets of Diamonds
p44
sa(dp45
g10
I649
sg14
VBuckets of Diamonds [2]
p46
sa(dp47
g10
I649
sg14
VBuckets of Diamonds [3]
p48
sa(dp49
g10
I499
sg14
VAnd Now They Wake (Part 2 of 3)
p50
sa(dp51
g10
I499
sg14
VAnd Now They Wake (Part 2 of 3) [2]
p52
sa(dp53
g10
I499
sg14
VAnd Now They Wake (Part 2 of 3) [3]
p54
sa(dp55
g10
I499
sg14
VAnd Now They Wake (Part 2 of 3) [4]
p56
sa(dp57
g10
I40
sg14
VThe Prometheus Project
p58
sa(dp59
g10
I91
sg14
VGalaxy Bookshelf (Galaxy, April 1969)
p60
sa(dp61
g10
I326
sg14
VForecast (Galaxy, April 1969)
p62
sa(dp63
g10
I339
sg14
VFor Your Information: The Drowned Civilization
p64
sa(dp65
g10
I326
sg14
VGalaxy's Stars (Galaxy, April 1969)
p66
sa(dp67
g10
I56
sg14
VBuckets of Diamonds
p68
sa(dp69
g10
I161
sg14
VWitch Hunt
p70
sa(dp71
g10
I67
sg14
VAnd Now They Wake (Part 2 of 3)
p72
sa(dp73
g10
I645
sg14
VBeam Us Home
p74
sa(dp75
g10
I45
sg14
VHow Like a God
p76
sa(dp77
g10
I254
sg14
VSlave to Man
p78
sasb.