ccopy_reg
_reconstructor
p0
(cdataset.Book
Book
p1
c__builtin__
object
p2
Ntp3
Rp4
(dp5
S'similar_books'
p6
(lp7
sS'genres'
p8
(lp9
sS'author'
p10
I302
sS'countries'
p11
(lp12
I2
asS'year'
p13
I1957
sS'title'
p14
VGalaxy Magazine May 1957
p15
sS'cover'
p16
Vhttps://ia600207.us.archive.org/BookReader/BookReaderImages.php?zip=/27/items/Galaxy_v14n01_1957-05/Galaxy_v14n01_1957-05_jp2.zip&file=Galaxy_v14n01_1957-05_jp2/Galaxy_v14n01_1957-05_0000.jp2&scale=0&rotate=0
p17
sS'cover_art'
p18
S'http://www.isfdb.org/wiki/images/8/8a/MLO4437.jpg'
p19
sS'author_name'
p20
VGalaxy Magazine
p21
sS'images_urls'
p22
(lp23
sS'authors'
p24
(lp25
I499
aI506
aI419
aI497
aI305
aI339
aI326
aI483
aI40
aI200
aI32
aI23
aI56
aI446
aI217
aI302
asS'images'
p26
(lp27
sS'id'
p28
I1051
sS'contents'
p29
(lp30
(dp31
S'title'
p32
VSurvival Kit
p33
sS'author'
p34
I499
sa(dp35
g32
VSurvival Kit [2]
p36
sg34
I499
sa(dp37
g32
VSurvival Kit [3]
p38
sg34
I499
sa(dp39
g32
VThe Language of Love
p40
sg34
I499
sa(dp41
g32
VFounding Father
p42
sg34
I506
sa(dp43
g32
VA Touch of E Flat
p44
sg34
I419
sa(dp45
g32
VA Touch of E Flat [2]
p46
sg34
I419
sa(dp47
g32
VA Touch of E Flat [3]
p48
sg34
I419
sa(dp49
g32
VDouble Dome
p50
sg34
I497
sa(dp51
g32
VQuota for Conquest
p52
sg34
I499
sa(dp53
g32
VTime in the Round
p54
sg34
I506
sa(dp55
g32
VTime in the Round [2]
p56
sg34
I506
sa(dp57
g32
VTime in the Round [3]
p58
sg34
I506
sa(dp59
g32
VBehind the Cob
p60
sg34
I305
sa(dp61
g32
VFor Your Information: Who'll Own the Planets?
p62
sg34
I339
sa(dp63
g32
VForecast (Galaxy, May 1957)
p64
sg34
I326
sa(dp65
g32
VGalaxy's 5 Star Shelf (Galaxy, May 1957)
p66
sg34
I483
sa(dp67
g32
VSurvival Kit
p68
sg34
I40
sa(dp69
g32
VA Touch of E Flat
p70
sg34
I200
sa(dp71
g32
VTime in the Round
p72
sg34
I32
sa(dp73
g32
VThe Language of Love
p74
sg34
I23
sa(dp75
g32
VFounding Father
p76
sg34
I56
sa(dp77
g32
VDouble Dome
p78
sg34
I446
sa(dp79
g32
VQuota for Conquest
p80
sg34
I217
sasb.