ccopy_reg
_reconstructor
p0
(cdataset.Book
Book
p1
c__builtin__
object
p2
Ntp3
Rp4
(dp5
S'content_name'
p6
V30796.txt.utf-8
p7
sS'isbn'
p8
V0425064662
p9
sS'year'
p10
I1963
sS'author_name'
p11
VBen Bova
p12
sS'images_urls'
p13
(lp14
Vhttp://www.gutenberg.org/files/30796/30796-h/images/image_001.jpg
p15
aVhttp://www.gutenberg.org/files/30796/30796-h/images/image_002.jpg
p16
aVhttp://www.gutenberg.org/files/30796/30796-h/images/image_003.jpg
p17
aVhttp://www.gutenberg.org/files/30796/30796-h/images/image_004.jpg
p18
aVhttp://www.gutenberg.org/files/30796/30796-h/images/image_005.jpg
p19
aVhttp://www.gutenberg.org/files/30796/30796-h/images/image_006.jpg
p20
aVhttp://www.gutenberg.org/files/30796/30796-h/images/image_007.jpg
p21
aVhttp://www.gutenberg.org/files/30796/30796-h/images/image_008.jpg
p22
aVhttp://www.gutenberg.org/files/30796/30796-h/images/image_009.jpg
p23
asS'language_code'
p24
Veng
p25
sS'images'
p26
(lp27
sS'id'
p28
I148
sS'category'
p29
VText
p30
sS'genres'
p31
(lp32
sS'copyright'
p33
VPublic domain in the USA.
p34
sS'title'
p35
VThe Dueling Machine
p36
sS'wikipedia'
p37
(dp38
S'found'
p39
I00
ssS'average_rating'
p40
F3.54
sS'rating_count'
p41
I262
sS'content_available'
p42
I01
sS'goodreads'
p43
(dp44
S'url'
p45
Vhttps://www.goodreads.com/book/show/397658.The_Dueling_Machine
p46
sg39
I01
sS'year'
p47
I1963
ssS'similar_books'
p48
(lp49
VBadge of Infamy
p50
aVLegacy
p51
aVThe Green Odyssey
p52
aVThis Crowded Earth
p53
aVStarman's Quest
p54
aVSpacehounds of IPC
p55
aVPlanet of the Damned
p56
aVOperation: Outer Space
p57
aVCode of the Lifemaker (Code of the Lifemaker, #1)
p58
aVIceworld
p59
aVFall of the White Ship Avatar (Alacrity FitzHugh & Hobart Floyt, #3)
p60
aVThe Status Civilization
p61
aVInvaders from the Infinite
p62
aVThe Preserving Machine
p63
aVEon / Eternity ( The Way, #1,2)
p64
aVBefore the Golden Age: A Science Fiction Anthology of the 1930s
p65
aVA Different Light
p66
aVChildren of the Thunder
p67
asS'description'
p68
NsS'gutenberg'
p69
(dp70
g45
Vhttp://www.gutenberg.org/ebooks/30796
p71
sS'num'
p72
I30796
ssS'authors'
p73
(lp74
I47
aI53
asS'pages'
p75
I256
sS'isbn13'
p76
V9780425064665
p77
sS'language'
p78
VEnglish
p79
sS'countries'
p80
(lp81
I3
asS'release_date'
p82
S'2009-12-29T00:00:00'
p83
sS'author'
p84
I47
sS'content_cleaned'
p85
I01
sS'classes'
p86
(lp87
Vto-read
p88
aVscience-fiction
p89
aVsci-fi
p90
aVowned
p91
aVfiction
p92
aVscifi
p93
aVdefault
p94
aVsf
p95
aVcurrently-reading
p96
aVfavorites
p97
aVaudiobooks
p98
aVfantascienza
p99
aVben-bova
p100
aVscifi-new-wave-1960-1979
p101
aVurania
p102
aVshort-fiction
p103
aVbooks-i-own
p104
aVkindle
p105
aVebook
p106
aVhd
p107
aVshort-stories
p108
aVpublic-domain-science-fiction
p109
aVpublic-domain
p110
aVclassics
p111
aVlibrivox
p112
aVscience
p113
aVhd-to-read
p114
aVon-calibre-to-read
p115
aVowned-to-read
p116
aVmilitary-sf
p117
aVfantasy-scifi
p118
aVzoe
p119
aVphysical
p120
aVbulk-scan
p121
aV20th-century-lit
p122
aVshelf-b-authors
p123
aVgenre-syfi-fan-horr
p124
aVread-in-english
p125
aVaudio-cd
p126
aVurania-s
p127
aVvr-and-ar-in-science-fiction
p128
aVborrowed
p129
aVpulp-fiction
p130
aVold-skool
p131
aVsoft-sci-fi
p132
aVnovella
p133
aVposseduti
p134
aVown-audiobook
p135
aVratbaggy
p136
aVs-f
p137
aVtub-007
p138
aVsf-fantasy
p139
aV20th-century
p140
aVhave
p141
aVaudio-books
p142
aVread-science-fiction
p143
aVto-read-unrated
p144
aVhugo-award-winners
p145
aVapocalyptically-inclined
p146
aV1-100-great-sci-books
p147
aVshort
p148
aVlibrary
p149
aVtaggare
p150
aValready-own-to-read
p151
aVgood-fiction
p152
aVfun-reads
p153
aVhave-audio
p154
aVto-read-ebooks
p155
aVcollection
p156
aVmy-favorites
p157
aVaudiobook
p158
aVmy-collection
p159
aVebooks
p160
aVbest-stories
p161
aVto-buy
p162
aVpaul
p163
aVscience-fiction-and-fantasy
p164
aVhaven-t-read
p165
aVsci-fi-fantasy
p166
aVfill-in-the-gaps-project-100
p167
aVadventure
p168
aVseries
p169
aVscience-fiction-times
p170
aVsci-fi-and-fantasy
p171
aVpaperback
p172
aVebook-kindle-own
p173
aV2013-to-read
p174
aVset-aside
p175
aVowned-by-me
p176
aVlistened-to-cd
p177
aVhave-ebook
p178
aVmisc
p179
aVlocation-sff
p180
aV1
p181
aVbova-ben
p182
aVdo-not-own
p183
aVfamilyroom
p184
aVscience-ficton
p185
aVread70s
p186
aVscifi-fantasy
p187
asS'loc_class'
p188
VPS: Language and Literatures: American and Canadian literature
p189
sS'n_authors'
p190
I2
sb.