ccopy_reg
_reconstructor
p0
(cdataset.Book
Book
p1
c__builtin__
object
p2
Ntp3
Rp4
(dp5
S'content_name'
p6
V32108.txt.utf-8
p7
sS'isbn'
p8
NsS'year'
p9
I1952
sS'author_name'
p10
VHenry Kuttner
p11
sS'images_urls'
p12
(lp13
Vhttp://www.gutenberg.org/files/32108/32108-h/images/cover.jpg
p14
aVhttp://www.gutenberg.org/files/32108/32108-h/images/title.jpg
p15
asS'language_code'
p16
NsS'images'
p17
(lp18
sS'id'
p19
I634
sS'category'
p20
VText
p21
sS'genres'
p22
(lp23
sS'copyright'
p24
VPublic domain in the USA.
p25
sS'title'
p26
VThe Ego Machine
p27
sS'wikipedia'
p28
(dp29
S'found'
p30
I00
ssS'average_rating'
p31
F3.55
sS'rating_count'
p32
I47
sS'content_available'
p33
I01
sS'cover_art_url'
p34
S'http://www.gutenberg.org/cache/epub/32108/pg32108.cover.medium.jpg'
p35
sS'goodreads'
p36
(dp37
S'url'
p38
Vhttps://www.goodreads.com/book/show/8531798-the-ego-machine
p39
sg30
I01
sS'year'
p40
I1952
ssS'similar_books'
p41
(lp42
sS'description'
p43
VWhen a slightly mad robot drunk on AC, wants you to join an experiment in optimum ecology--don't do it! After all, who wants to argue like Disraeli or live like Ivan the Terrible. . . ?<br /><br />Nicholas Martin looked up at the robot across the desk.<br /><br />"I'm not going to ask what you want," he said, in a low, restrained voice. "I already know. Just go away and tell St. Cyr I approve. Tell him I think it's wonderful, putting a robot in the picture. We've had everything else by now, except the Rockettes. But clearly a quiet little play about Christmas among the Portuguese fishermen on the Florida coast "must" have a robot. Only, why not six robots? Tell him I suggest a baker's dozen. Go away."
p44
sS'gutenberg'
p45
(dp46
g38
Vhttp://www.gutenberg.org/ebooks/32108
p47
sS'num'
p48
I32108
ssS'authors'
p49
(lp50
I123
asS'isbn13'
p51
NsS'language'
p52
VEnglish
p53
sS'countries'
p54
(lp55
I2
asS'release_date'
p56
S'2010-04-24T00:00:00'
p57
sS'author'
p58
I123
sS'cover'
p59
Vhttps://s.gr-assets.com/assets/nophoto/book/111x148-bcc042a9c91a29c1d680899eff700a03.png
p60
sS'content_cleaned'
p61
I01
sS'classes'
p62
(lp63
Vto-read
p64
aVsci-fi
p65
aVscience-fiction
p66
aVcurrently-reading
p67
aVon-pc-to-read
p68
aV20th-century-lit
p69
aVfiction
p70
aVshort-stories
p71
aVe-title
p72
aVread-papier-copy
p73
aVpolska-wersja
p74
aVaudiobooks
p75
aVz_fiction
p76
aVx_shortstory
p77
aVwo_scifi
p78
aVw_us_federal
p79
aVmust-reads-calibre
p80
aVon-calibre
p81
aVmaybe-reads
p82
aVebooks
p83
aVaudio
p84
aV1-owning
p85
aVowned-amazon
p86
aVscifi
p87
aVfeedbooks-com
p88
aVfun
p89
aVgenre
p90
aVadventures
p91
aVfront-shelf
p92
asS'loc_class'
p93
VPS: Language and Literatures: American and Canadian literature
p94
sS'n_authors'
p95
I1
sb.