ccopy_reg
_reconstructor
p0
(cdataset.Book
Book
p1
c__builtin__
object
p2
Ntp3
Rp4
(dp5
S'content_name'
p6
V30124.txt.utf-8
p7
sS'isbn'
p8
NsS'year'
p9
I1931
sS'author_name'
p10
VVarious
p11
sS'images_urls'
p12
(lp13
Vhttp://www.gutenberg.org/files/30124/30124-h/images/cover.jpg
p14
aVhttp://www.gutenberg.org/files/30124/30124-h/images/image_001.jpg
p15
aVhttp://www.gutenberg.org/files/30124/30124-h/images/image_002.jpg
p16
aVhttp://www.gutenberg.org/files/30124/30124-h/images/image_003.jpg
p17
aVhttp://www.gutenberg.org/files/30124/30124-h/images/image_004.jpg
p18
aVhttp://www.gutenberg.org/files/30124/30124-h/images/image_005.jpg
p19
aVhttp://www.gutenberg.org/files/30124/30124-h/images/image_006.jpg
p20
aVhttp://www.gutenberg.org/files/30124/30124-h/images/image_007.jpg
p21
aVhttp://www.gutenberg.org/files/30124/30124-h/images/image_008.jpg
p22
aVhttp://www.gutenberg.org/files/30124/30124-h/images/image_009.jpg
p23
aVhttp://www.gutenberg.org/files/30124/30124-h/images/image_010.jpg
p24
aVhttp://www.gutenberg.org/files/30124/30124-h/images/image_011.jpg
p25
aVhttp://www.gutenberg.org/files/30124/30124-h/images/image_012.jpg
p26
aVhttp://www.gutenberg.org/files/30124/30124-h/images/image_a.jpg
p27
aVhttp://www.gutenberg.org/files/30124/30124-h/images/image_a1.jpg
p28
aVhttp://www.gutenberg.org/files/30124/30124-h/images/image_b.jpg
p29
aVhttp://www.gutenberg.org/files/30124/30124-h/images/image_c.jpg
p30
aVhttp://www.gutenberg.org/files/30124/30124-h/images/image_d.jpg
p31
aVhttp://www.gutenberg.org/files/30124/30124-h/images/image_e.jpg
p32
aVhttp://www.gutenberg.org/files/30124/30124-h/images/image_f.jpg
p33
aVhttp://www.gutenberg.org/files/30124/30124-h/images/image_f1.jpg
p34
aVhttp://www.gutenberg.org/files/30124/30124-h/images/image_g1.jpg
p35
aVhttp://www.gutenberg.org/files/30124/30124-h/images/image_h.jpg
p36
aVhttp://www.gutenberg.org/files/30124/30124-h/images/image_i.jpg
p37
aVhttp://www.gutenberg.org/files/30124/30124-h/images/image_i1.jpg
p38
aVhttp://www.gutenberg.org/files/30124/30124-h/images/image_k.jpg
p39
aVhttp://www.gutenberg.org/files/30124/30124-h/images/image_l.jpg
p40
aVhttp://www.gutenberg.org/files/30124/30124-h/images/image_m.jpg
p41
aVhttp://www.gutenberg.org/files/30124/30124-h/images/image_n.jpg
p42
aVhttp://www.gutenberg.org/files/30124/30124-h/images/image_o.jpg
p43
aVhttp://www.gutenberg.org/files/30124/30124-h/images/image_o1.jpg
p44
aVhttp://www.gutenberg.org/files/30124/30124-h/images/image_p.jpg
p45
aVhttp://www.gutenberg.org/files/30124/30124-h/images/image_r.jpg
p46
aVhttp://www.gutenberg.org/files/30124/30124-h/images/image_s.jpg
p47
aVhttp://www.gutenberg.org/files/30124/30124-h/images/image_t.jpg
p48
aVhttp://www.gutenberg.org/files/30124/30124-h/images/image_t1.jpg
p49
aVhttp://www.gutenberg.org/files/30124/30124-h/images/image_u.jpg
p50
aVhttp://www.gutenberg.org/files/30124/30124-h/images/image_v.jpg
p51
aVhttp://www.gutenberg.org/files/30124/30124-h/images/image_w.jpg
p52
aVhttp://www.gutenberg.org/files/30124/30124-h/images/image_w1.jpg
p53
aVhttp://www.gutenberg.org/files/30124/30124-h/images/image_y1.jpg
p54
asS'language_code'
p55
Veng
p56
sS'images'
p57
(lp58
sS'id'
p59
I163
sS'category'
p60
VText
p61
sS'genres'
p62
(lp63
sS'copyright'
p64
VPublic domain in the USA.
p65
sS'title'
p66
VAstounding Stories, February, 1931
p67
sS'wikipedia'
p68
(dp69
S'found'
p70
I00
ssS'average_rating'
p71
F3.62
sS'rating_count'
p72
I5
sS'content_available'
p73
I01
sS'cover_art_url'
p74
S'http://www.gutenberg.org/cache/epub/30124/pg30124.cover.medium.jpg'
p75
sS'goodreads'
p76
(dp77
S'url'
p78
Vhttps://www.goodreads.com/book/show/18755997-astounding-stories-february-1931
p79
sg70
I01
sS'year'
p80
I2009
ssS'similar_books'
p81
(lp82
sS'description'
p83
NsS'format'
p84
NsS'gutenberg'
p85
(dp86
g78
Vhttp://www.gutenberg.org/ebooks/30124
p87
sS'num'
p88
I30124
ssS'authors'
p89
(lp90
I17
asS'isbn13'
p91
NsS'language'
p92
VEnglish
p93
sS'countries'
p94
(lp95
I3
asS'release_date'
p96
S'2009-09-28T00:00:00'
p97
sS'author'
p98
I17
sS'content_cleaned'
p99
I01
sS'classes'
p100
(lp101
Vto-read
p102
aVproject-gutenberg
p103
aVebook
p104
aVgraphic-novel
p105
aVfiction
p106
aVart
p107
aVshort-stories
p108
aVpg
p109
aVshort-stories-essays
p110
asS'loc_class'
p111
VPN: Language and Literatures: Literature: General, Criticism, Collections
p112
sS'n_authors'
p113
I1
sb.