ccopy_reg
_reconstructor
p0
(cdataset.Book
Book
p1
c__builtin__
object
p2
Ntp3
Rp4
(dp5
S'content_name'
p6
V22467.txt.utf-8
p7
sS'isbn'
p8
NsS'year'
p9
I2007
sS'author_name'
p10
VMurray Leinster
p11
sS'images_urls'
p12
(lp13
Vhttp://www.gutenberg.org/files/22467/22467-h/images/illus-cousin.png
p14
aVhttp://www.gutenberg.org/files/22467/22467-h/images/illus-cover.jpg
p15
aVhttp://www.gutenberg.org/files/22467/22467-h/images/illus-grid.png
p16
aVhttp://www.gutenberg.org/files/22467/22467-h/images/illus-last.png
p17
aVhttp://www.gutenberg.org/files/22467/22467-h/images/illus-talk.png
p18
aVhttp://www.gutenberg.org/files/22467/22467-h/images/illus-title.png
p19
aVhttp://www.gutenberg.org/files/22467/22467-page-images/c001.jpg
p20
aVhttp://www.gutenberg.org/files/22467/22467-page-images/p006-image.png
p21
aVhttp://www.gutenberg.org/files/22467/22467-page-images/p006.png
p22
aVhttp://www.gutenberg.org/files/22467/22467-page-images/p007.png
p23
aVhttp://www.gutenberg.org/files/22467/22467-page-images/p008.png
p24
aVhttp://www.gutenberg.org/files/22467/22467-page-images/p009.png
p25
aVhttp://www.gutenberg.org/files/22467/22467-page-images/p010.png
p26
aVhttp://www.gutenberg.org/files/22467/22467-page-images/p011.png
p27
aVhttp://www.gutenberg.org/files/22467/22467-page-images/p012.png
p28
aVhttp://www.gutenberg.org/files/22467/22467-page-images/p013.png
p29
aVhttp://www.gutenberg.org/files/22467/22467-page-images/p014.png
p30
aVhttp://www.gutenberg.org/files/22467/22467-page-images/p015-image.png
p31
aVhttp://www.gutenberg.org/files/22467/22467-page-images/p015.png
p32
aVhttp://www.gutenberg.org/files/22467/22467-page-images/p016.png
p33
aVhttp://www.gutenberg.org/files/22467/22467-page-images/p017.png
p34
aVhttp://www.gutenberg.org/files/22467/22467-page-images/p018.png
p35
aVhttp://www.gutenberg.org/files/22467/22467-page-images/p019.png
p36
aVhttp://www.gutenberg.org/files/22467/22467-page-images/p020.png
p37
aVhttp://www.gutenberg.org/files/22467/22467-page-images/p021.png
p38
aVhttp://www.gutenberg.org/files/22467/22467-page-images/p022-image.png
p39
aVhttp://www.gutenberg.org/files/22467/22467-page-images/p022.png
p40
aVhttp://www.gutenberg.org/files/22467/22467-page-images/p023.png
p41
aVhttp://www.gutenberg.org/files/22467/22467-page-images/p024.png
p42
aVhttp://www.gutenberg.org/files/22467/22467-page-images/p025.png
p43
aVhttp://www.gutenberg.org/files/22467/22467-page-images/p026.png
p44
aVhttp://www.gutenberg.org/files/22467/22467-page-images/p027.png
p45
aVhttp://www.gutenberg.org/files/22467/22467-page-images/p028.png
p46
aVhttp://www.gutenberg.org/files/22467/22467-page-images/p029.png
p47
aVhttp://www.gutenberg.org/files/22467/22467-page-images/p030.png
p48
aVhttp://www.gutenberg.org/files/22467/22467-page-images/p031-image.png
p49
aVhttp://www.gutenberg.org/files/22467/22467-page-images/p031.png
p50
aVhttp://www.gutenberg.org/files/22467/22467-page-images/p032.png
p51
aVhttp://www.gutenberg.org/files/22467/22467-page-images/p033.png
p52
aVhttp://www.gutenberg.org/files/22467/22467-page-images/p034.png
p53
aVhttp://www.gutenberg.org/files/22467/22467-page-images/p035.png
p54
aVhttp://www.gutenberg.org/files/22467/22467-page-images/p036.png
p55
aVhttp://www.gutenberg.org/files/22467/22467-page-images/p037.png
p56
aVhttp://www.gutenberg.org/files/22467/22467-page-images/p038.png
p57
aVhttp://www.gutenberg.org/files/22467/22467-page-images/p039-image.png
p58
aVhttp://www.gutenberg.org/files/22467/22467-page-images/p039.png
p59
aVhttp://www.gutenberg.org/files/22467/22467-page-images/p040.png
p60
aVhttp://www.gutenberg.org/files/22467/22467-page-images/p041.png
p61
aVhttp://www.gutenberg.org/files/22467/22467-page-images/p042.png
p62
aVhttp://www.gutenberg.org/files/22467/22467-page-images/p043.png
p63
aVhttp://www.gutenberg.org/files/22467/22467-page-images/p044.png
p64
asS'language_code'
p65
NsS'images'
p66
(lp67
sS'id'
p68
I441
sS'category'
p69
VText
p70
sS'genres'
p71
(lp72
sS'copyright'
p73
VPublic domain in the USA.
p74
sS'title'
p75
VSand Doom
p76
sS'wikipedia'
p77
(dp78
S'url'
p79
Vhttps://en.wikipedia.org/wiki/Colonial_Survey
p80
sS'found'
p81
I01
sS'year'
p82
I-1
ssS'published_in'
p83
NsS'average_rating'
p84
F3.15
sS'rating_count'
p85
I8
sS'content_available'
p86
I01
sS'cover_art_url'
p87
S'http://www.gutenberg.org/cache/epub/22467/pg22467.cover.medium.jpg'
p88
sS'goodreads'
p89
(dp90
g79
Vhttps://www.goodreads.com/book/show/9501933-sand-doom
p91
sg81
I01
sg82
I2007
ssS'similar_books'
p92
(lp93
sS'description'
p94
NsS'format'
p95
NsS'gutenberg'
p96
(dp97
g79
Vhttp://www.gutenberg.org/ebooks/22467
p98
sS'num'
p99
I22467
ssS'authors'
p100
(lp101
I61
asS'isbn13'
p102
NsS'language'
p103
VEnglish
p104
sS'release_date'
p105
S'2007-08-31T00:00:00'
p106
sS'author'
p107
I61
sS'original_title'
p108
VColonial Survey
p109
sS'summary'
p110
VColonial Survey is a 1957 collection of science fiction short stories by Murray Leinster. It was first published by Gnome Press in 1957 in an edition of 5,000 copies. The collection was reprinted by Avon Books in 1957 under the title The Planet Explorer. The stories all originally appeared in the magazine Astounding.
p111
sS'content_cleaned'
p112
I01
sS'classes'
p113
(lp114
Vto-read
p115
aVcurrently-reading
p116
aVscience-fiction
p117
aV21st-century-lit
p118
aVlibrary
p119
aVshelf-l-authors
p120
aVgenre-syfi-fan-horr
p121
aVsff
p122
aVfiction
p123
aVscifi
p124
aVnovella
p125
asS'loc_class'
p126
VPS: Language and Literatures: American and Canadian literature
p127
sS'n_authors'
p128
I1
sb.