ccopy_reg
_reconstructor
p0
(cdataset.Book
Book
p1
c__builtin__
object
p2
Ntp3
Rp4
(dp5
S'content_name'
p6
V22545.txt.utf-8
p7
sS'isbn'
p8
NsS'year'
p9
I2007
sS'author_name'
p10
VRon Cocking
p11
sS'images_urls'
p12
(lp13
Vhttp://www.gutenberg.org/files/22545/22545-h/images/001.png
p14
aVhttp://www.gutenberg.org/files/22545/22545-h/images/002.jpg
p15
aVhttp://www.gutenberg.org/files/22545/22545-h/images/002t.jpg
p16
aVhttp://www.gutenberg.org/files/22545/22545-page-images/c001.jpg
p17
aVhttp://www.gutenberg.org/files/22545/22545-page-images/p007.png
p18
aVhttp://www.gutenberg.org/files/22545/22545-page-images/p008.png
p19
aVhttp://www.gutenberg.org/files/22545/22545-page-images/p009.png
p20
aVhttp://www.gutenberg.org/files/22545/22545-page-images/p010.png
p21
aVhttp://www.gutenberg.org/files/22545/22545-page-images/p011.png
p22
aVhttp://www.gutenberg.org/files/22545/22545-page-images/p012.png
p23
aVhttp://www.gutenberg.org/files/22545/22545-page-images/p013.png
p24
aVhttp://www.gutenberg.org/files/22545/22545-page-images/p014.png
p25
aVhttp://www.gutenberg.org/files/22545/22545-page-images/p015.png
p26
aVhttp://www.gutenberg.org/files/22545/22545-page-images/p016.png
p27
aVhttp://www.gutenberg.org/files/22545/22545-page-images/p017.png
p28
aVhttp://www.gutenberg.org/files/22545/22545-page-images/p018.png
p29
aVhttp://www.gutenberg.org/files/22545/22545-page-images/p019.png
p30
aVhttp://www.gutenberg.org/files/22545/22545-page-images/p020.png
p31
aVhttp://www.gutenberg.org/files/22545/22545-page-images/p021.png
p32
aVhttp://www.gutenberg.org/files/22545/22545-page-images/p022.png
p33
asS'language_code'
p34
NsS'images'
p35
(lp36
sS'id'
p37
I561
sS'category'
p38
VText
p39
sS'genres'
p40
(lp41
sS'copyright'
p42
VPublic domain in the USA.
p43
sS'title'
p44
VWarning from the Stars
p45
sS'wikipedia'
p46
(dp47
S'found'
p48
I00
ssS'average_rating'
p49
F2.74
sS'rating_count'
p50
I23
sS'content_available'
p51
I01
sS'goodreads'
p52
(dp53
S'url'
p54
Vhttps://www.goodreads.com/book/show/5954793-warning-from-the-stars
p55
sg48
I01
sS'year'
p56
I2007
ssS'similar_books'
p57
(lp58
sS'description'
p59
NsS'format'
p60
NsS'gutenberg'
p61
(dp62
g54
Vhttp://www.gutenberg.org/ebooks/22545
p63
sS'num'
p64
I22545
ssS'authors'
p65
(lp66
I187
asS'isbn13'
p67
NsS'language'
p68
VEnglish
p69
sS'country'
p70
I3
sS'release_date'
p71
S'2007-09-09T00:00:00'
p72
sS'author'
p73
I187
sS'content_cleaned'
p74
I01
sS'classes'
p75
(lp76
Vto-read
p77
aVcurrently-reading
p78
aVscience-fiction
p79
aVshort-story
p80
aVaudio
p81
aVaudiobooks
p82
aVaudio-obtained-lvss
p83
aVnovellas-poems-shorts
p84
aVscifi-and-horror
p85
aVavailable-on-website
p86
aVshort-stories
p87
aVaudiobook
p88
aVsci-fi
p89
aVunfinished
p90
aVtype-short-story
p91
aVaudio-obtained-ss
p92
aVaudio-books
p93
asS'loc_class'
p94
VPS: Language and Literatures: American and Canadian literature
p95
sS'n_authors'
p96
I1
sb.