ccopy_reg
_reconstructor
p0
(cdataset.Book
Book
p1
c__builtin__
object
p2
Ntp3
Rp4
(dp5
S'content_name'
p6
V50774.txt.utf-8
p7
sS'isbn'
p8
NsS'year'
p9
I1950
sS'author_name'
p10
VKatherine MacLean
p11
sS'images_urls'
p12
(lp13
Vhttp://www.gutenberg.org/files/50774/50774-h/images/cover.jpg
p14
aVhttp://www.gutenberg.org/files/50774/50774-h/images/illus.jpg
p15
asS'language_code'
p16
NsS'images'
p17
(lp18
sS'id'
p19
I519
sS'category'
p20
VText
p21
sS'genres'
p22
(lp23
sS'copyright'
p24
VPublic domain in the USA.
p25
sS'title'
p26
VContagion
p27
sS'wikipedia'
p28
(dp29
S'found'
p30
I00
ssS'average_rating'
p31
F3.92
sS'rating_count'
p32
I8
sS'content_available'
p33
I01
sS'cover_art_url'
p34
S'http://www.gutenberg.org/cache/epub/50774/pg50774.cover.medium.jpg'
p35
sS'goodreads'
p36
(dp37
S'url'
p38
S'https://www.goodreads.com/book/show/28965468-contagion'
p39
sS'found'
p40
I01
ssS'similar_books'
p41
(lp42
sS'description'
p43
NsS'gutenberg'
p44
(dp45
S'url'
p46
Vhttp://www.gutenberg.org/ebooks/50774
p47
sS'num'
p48
I50774
ssS'authors'
p49
(lp50
I36
asS'isbn13'
p51
NsS'language'
p52
VEnglish
p53
sS'countries'
p54
(lp55
I2
asS'release_date'
p56
S'2015-12-27T00:00:00'
p57
sS'author'
p58
I36
sS'content_cleaned'
p59
I01
sS'classes'
p60
(lp61
Vto-read
p62
aVscience-fiction
p63
aVsci-fi
p64
aVunknown-publication-dates
p65
aVz_fiction
p66
aVx_shortstory
p67
aVwo_scifi
p68
aVw_us_unitary
p69
asS'loc_class'
p70
S''
p71
sS'n_authors'
p72
I1
sb.