ccopy_reg
_reconstructor
p0
(cdataset.Book
Book
p1
c__builtin__
object
p2
Ntp3
Rp4
(dp5
S'content_name'
p6
V51168.txt.utf-8
p7
sS'isbn'
p8
NsS'year'
p9
I1951
sS'author_name'
p10
VLester Del Rey
p11
sS'images_urls'
p12
(lp13
Vhttp://www.gutenberg.org/files/51168/51168-h/images/cover.jpg
p14
aVhttp://www.gutenberg.org/files/51168/51168-h/images/illus1.jpg
p15
aVhttp://www.gutenberg.org/files/51168/51168-h/images/illus2.jpg
p16
asS'language_code'
p17
Veng
p18
sS'images'
p19
(lp20
sS'id'
p21
I327
sS'category'
p22
VText
p23
sS'genres'
p24
(lp25
sS'copyright'
p26
VPublic domain in the USA.
p27
sS'title'
p28
VOperation Distress
p29
sS'wikipedia'
p30
(dp31
S'found'
p32
I00
ssS'average_rating'
p33
F3.0
sS'rating_count'
p34
I1
sS'content_available'
p35
I01
sS'cover_art_url'
p36
S'http://www.gutenberg.org/cache/epub/51168/pg51168.cover.medium.jpg'
p37
sS'goodreads'
p38
(dp39
S'url'
p40
Vhttps://www.goodreads.com/book/show/35896831-operation-distress
p41
sg32
I01
sS'year'
p42
I1951
ssS'similar_books'
p43
(lp44
sS'description'
p45
NsS'gutenberg'
p46
(dp47
g40
Vhttp://www.gutenberg.org/ebooks/51168
p48
sS'num'
p49
I51168
ssS'authors'
p50
(lp51
I73
asS'isbn13'
p52
NsS'language'
p53
VEnglish
p54
sS'countries'
p55
(lp56
I2
asS'release_date'
p57
S'2016-02-10T00:00:00'
p58
sS'author'
p59
I73
sS'cover'
p60
Vhttps://images.gr-assets.com/books/1501632484l/35896831.jpg
p61
sS'content_cleaned'
p62
I01
sS'classes'
p63
(lp64
sS'loc_class'
p65
S''
p66
sS'n_authors'
p67
I1
sb.