ccopy_reg
_reconstructor
p0
(cdataset.Book
Book
p1
c__builtin__
object
p2
Ntp3
Rp4
(dp5
S'isbn'
p6
NsS'year'
p7
I1959
sS'author_name'
p8
VFrank Herbert
p9
sS'images_urls'
p10
(lp11
Vhttp://www.gutenberg.org/files/23210/23210-h/images/illu1.jpg
p12
aVhttp://www.gutenberg.org/files/23210/23210-h/images/illu1_th.jpg
p13
aVhttp://www.gutenberg.org/files/23210/23210-h/images/illu2.jpg
p14
aVhttp://www.gutenberg.org/files/23210/23210-h/images/illu2_th.jpg
p15
aVhttp://www.gutenberg.org/files/23210/23210-h/images/illu3.jpg
p16
aVhttp://www.gutenberg.org/files/23210/23210-h/images/illu3_th.jpg
p17
aVhttp://www.gutenberg.org/files/23210/23210-h/images/initial.jpg
p18
aVhttp://www.gutenberg.org/files/23210/23210-page-images/p100-image.png
p19
aVhttp://www.gutenberg.org/files/23210/23210-page-images/p100.png
p20
aVhttp://www.gutenberg.org/files/23210/23210-page-images/p101.png
p21
aVhttp://www.gutenberg.org/files/23210/23210-page-images/p102.png
p22
aVhttp://www.gutenberg.org/files/23210/23210-page-images/p103.png
p23
aVhttp://www.gutenberg.org/files/23210/23210-page-images/p104.png
p24
aVhttp://www.gutenberg.org/files/23210/23210-page-images/p105.png
p25
aVhttp://www.gutenberg.org/files/23210/23210-page-images/p106.png
p26
aVhttp://www.gutenberg.org/files/23210/23210-page-images/p107.png
p27
aVhttp://www.gutenberg.org/files/23210/23210-page-images/p108-image.png
p28
aVhttp://www.gutenberg.org/files/23210/23210-page-images/p108.png
p29
aVhttp://www.gutenberg.org/files/23210/23210-page-images/p109-image.png
p30
aVhttp://www.gutenberg.org/files/23210/23210-page-images/p109.png
p31
aVhttp://www.gutenberg.org/files/23210/23210-page-images/p110.png
p32
aVhttp://www.gutenberg.org/files/23210/23210-page-images/p111.png
p33
aVhttp://www.gutenberg.org/files/23210/23210-page-images/p112.png
p34
aVhttp://www.gutenberg.org/files/23210/23210-page-images/p113.png
p35
aVhttp://www.gutenberg.org/files/23210/23210-page-images/p114.png
p36
aVhttp://www.gutenberg.org/files/23210/23210-page-images/p115.png
p37
asS'language_code'
p38
Veng
p39
sS'id'
p40
I257
sS'category'
p41
VText
p42
sS'genres'
p43
(lp44
sS'copyright'
p45
VPublic domain in the USA.
p46
sS'title'
p47
VMissing Link
p48
sS'wikipedia'
p49
(dp50
S'found'
p51
I00
ssS'average_rating'
p52
F4.21
sS'rating_count'
p53
I8832
sS'content_available'
p54
I00
sS'goodreads'
p55
(dp56
S'url'
p57
Vhttps://www.goodreads.com/book/show/18717917-the-missing-link
p58
sS'found'
p59
I01
sS'year'
p60
I2013
ssS'similar_books'
p61
(lp62
VCloak and Dagger (The IMA, #1)
p63
aVBullet to the Heart (No Mercy, #1)
p64
aVCatch (Assassins #1)
p65
aVLast Hit (Hitman, #1)
p66
aVFallen (Blood & Roses, #4)
p67
aVEdge of Obsession (SKALS, #3)
p68
aVEnslaved by the Ocean (Criminals of the Ocean, #1)
p69
aVThe Devil's Revenge (The Devil's Eyes, #2)
p70
aVThe End of Games (The Single Lady Spy, #2)
p71
aVSurviving Raine (Surviving Raine, #1)
p72
aVMobster's Girl (Mobster, #1)
p73
aVBrutally Beautiful (Beautiful, #1)
p74
aVThe Dark Light of Day (The Dark Light of Day, #1)
p75
aVFor Fallon (Chicago Syndicate, #1)
p76
aVReviving Izabel (In the Company of Killers, #2)
p77
aVOverflow (Carpino, #1)
p78
aVSpin (Corruption, #1)
p79
asS'description'
p80
VWarning: This book contains violence, excessive language, and strong sexual content. It's intended to be read by mature audiences. <br /><br />Part one of a two part series. <br /><br />There are three things Lily Evans immediately notices about her new neighbor, Jay Lincoln. The first is his monstrous size, the second is the malicious way he glares at her, and thirdly, but most importantly, the three scars that mark his right eye. She knows the smart thing to do is stay away, but she has never met or seen anyone like him. The more time she spends with this frightening yet captivating man, the harder it becomes. He can make her hairs stand on end but he also has a sweetness to him that tugs at her heart. Soon she finds herself merged into his world full of murder, revenge, and deceit.<br /><br />New Adult Romance
p81
sS'format'
p82
VKindle Edition
p83
sS'gutenberg'
p84
(dp85
g57
Vhttp://www.gutenberg.org/ebooks/23210
p86
sS'num'
p87
I23210
ssS'authors'
p88
(lp89
I63
asS'pages'
p90
I330
sS'isbn13'
p91
NsS'language'
p92
VEnglish
p93
sS'countries'
p94
(lp95
I2
asS'release_date'
p96
S'2007-10-27T00:00:00'
p97
sS'author'
p98
I63
sS'classes'
p99
(lp100
Vto-read
p101
aVfavorites
p102
aVcurrently-reading
p103
aVromance
p104
aVseries
p105
aVnew-adult
p106
aVromantic-suspense
p107
aVsuspense
p108
aVkindle
p109
aValpha-male
p110
aVcontemporary
p111
aVcontemporary-romance
p112
aVdnf
p113
aVmafia
p114
aVdark
p115
aVerotica
p116
aVcrime
p117
aVbad-boy
p118
aVcliffhanger
p119
aVkindle-unlimited
p120
aVmob
p121
aVmystery
p122
aVfreebie
p123
aVfavourites
p124
aVbad-boys
p125
aVfreebies
p126
aVmaybe
p127
aValpha
p128
aVread-in-2014
p129
aVsteamy
p130
aVaction
p131
aVread-2014
p132
aValpha-males
p133
aVassassin
p134
aVabuse
p135
aVadult
p136
aVthriller
p137
aV5-stars
p138
aVerotic-romance
p139
aV4-stars
p140
aVaction-packed
p141
aVangst
p142
aVebook
p143
aVfree
p144
aVj-m-sevilla
p145
aVdid-not-finish
p146
aVhitman
p147
aVangsty
p148
aVdark-romance
p149
aVmystery-suspense
p150
aVrevenge
p151
aVmafia-mob
p152
aVfavorite
p153
aVebooks
p154
aVon-kindle
p155
aVamazon
p156
aVkindle-freebie
p157
aVe-book
p158
aVkidnapped
p159
aVassassins
p160
aVfavs
p161
aVboring
p162
aVpart-of-series
p163
aVviolence
p164
aVfav
p165
aVfriends-to-lovers
p166
aV2014-read
p167
aVdidn-t-finish
p168
aVdrama
p169
aVkindle-freebies
p170
aVlendable
p171
aVlove
p172
aVerotic
p173
aVkindle-books
p174
aVmust-read
p175
aVowned-books
p176
aVtortured-hero
p177
aVpart-of-a-series
p178
aVsuspense-romance
p179
aVbook-boyfriends
p180
aVfirst-in-series
p181
aVbooks-i-own
p182
aVfavorite-series
p183
aVloved
p184
aVbadass
p185
aVromance-suspense
p186
aVmafia-romance
p187
aVcliff-hanger
p188
aVku
p189
aVread-in-2015
p190
aVdownloaded
p191
aVunfinished
p192
aVna
p193
aVdeath
p194
aVkidnapping
p195
aVloved-it
p196
aVall-time-favorites
p197
aVbook-boyfriend
p198
aValpha-hero
p199
aVmy-favorites
p200
asS'loc_class'
p201
VPS: Language and Literatures: American and Canadian literature
p202
sS'n_authors'
p203
I1
sb.