ccopy_reg
_reconstructor
p0
(cdataset.Book
Book
p1
c__builtin__
object
p2
Ntp3
Rp4
(dp5
S'content_name'
p6
V30828.txt.utf-8
p7
sS'isbn'
p8
V0140283358
p9
sS'year'
p10
I1980
sS'author_name'
p11
VAlgis Budrys
p12
sS'images_urls'
p13
(lp14
Vhttp://www.gutenberg.org/files/30828/30828-h/images/001.png
p15
aVhttp://www.gutenberg.org/files/30828/30828-h/images/002-1.jpg
p16
aVhttp://www.gutenberg.org/files/30828/30828-h/images/002-2.jpg
p17
asS'language_code'
p18
Veng
p19
sS'images'
p20
(lp21
sS'id'
p22
I279
sS'category'
p23
VText
p24
sS'genres'
p25
(lp26
sS'copyright'
p27
VPublic domain in the USA.
p28
sS'title'
p29
VThe Barbarians
p30
sS'wikipedia'
p31
(dp32
S'found'
p33
I00
ssS'average_rating'
p34
F3.94
sS'rating_count'
p35
I14857
sS'content_available'
p36
I01
sS'goodreads'
p37
(dp38
S'url'
p39
Vhttps://www.goodreads.com/book/show/6194.Waiting_for_the_Barbarians
p40
sg33
I01
sS'year'
p41
I1980
ssS'similar_books'
p42
(lp43
VJuly's People
p44
aVThe Bottle Factory Outing
p45
aVA Bend in the River
p46
aVThe Grass is Singing
p47
aVDeath and the King's Horseman: A Play
p48
aVSybil, or the Two Nations
p49
aVThe Black Sheep
p50
aVOn Another Man's Wound
p51
aVThe Good Doctor
p52
aVThe Heart of Redness
p53
aVOmeros
p54
aVUSA: The 42nd Parallel / 1919 / The Big Money
p55
aVGod's Bits of Wood
p56
aVNervous Conditions
p57
aVMrs. Palfrey at the Claremont
p58
aVA Dry White Season
p59
aVNightmare Abbey
p60
aVLanark
p61
asS'description'
p62
VFor decades the Magistrate has run the affairs of a tiny frontier settlement, ignoring the impending war between the barbarians and the Empire, whose servant he is. But when the interrogation experts arrive, he is jolted into sympathy for the victims, and into a quixotic act of rebellion which lands him in prison.
p63
sS'format'
p64
VPaperback
p65
sS'gutenberg'
p66
(dp67
g39
Vhttp://www.gutenberg.org/ebooks/30828
p68
sS'num'
p69
I30828
ssS'authors'
p70
(lp71
I91
asS'pages'
p72
I152
sS'isbn13'
p73
V9780140283358
p74
sS'language'
p75
VEnglish
p76
sS'countries'
p77
(lp78
I2
asS'release_date'
p79
S'2010-01-02T00:00:00'
p80
sS'author'
p81
I91
sS'content_cleaned'
p82
I01
sS'classes'
p83
(lp84
Vto-read
p85
aVfiction
p86
aVfavorites
p87
aVafrica
p88
aV1001-books
p89
aVliterature
p90
aVnovels
p91
aVsouth-africa
p92
aVowned
p93
aV1001
p94
aVhistorical-fiction
p95
aVbooks-i-own
p96
aVcurrently-reading
p97
aVafrican-literature
p98
aVafrican
p99
aV1001-books-to-read-before-you-die
p100
aVcontemporary
p101
aVnobel-prize
p102
aVnovel
p103
aVschool
p104
aVnobel
p105
aVclassics
p106
aV1001-import
p107
aVnobel-laureates
p108
aVto-buy
p109
aVsouth-african
p110
aV20th-century
p111
aVcontemporary-fiction
p112
aVlibrary
p113
aVwish-list
p114
aV\u0631\u0648\u0627\u064a\u0627\u062a
p115
aVwar
p116
aV1001-books-to-read
p117
aVbook-club
p118
aVsouth-african-literature
p119
aVliterary-fiction
p120
aVcolonialism
p121
aVcoetzee
p122
aVenglish
p123
aVafrican-lit
p124
aV1980s
p125
aVliterary
p126
aVdefault
p127
aVgeneral-fiction
p128
aVpostcolonial
p129
aVfavourites
p130
aVowned-books
p131
aVclassic
p132
aVto-read-fiction
p133
aV1001-books-you-must-read-before-you
p134
aVdystopia
p135
aVadult-fiction
p136
aV1001-to-read
p137
aVhistory
p138
aVnobel-prize-winners
p139
aVebook
p140
aVpost-colonial
p141
aVread-for-school
p142
aVj-m-coetzee
p143
aVhistorical
p144
aVfor-school
p145
aVnobel-laureate
p146
aVdystopian
p147
aVmy-library
p148
aVmodern-fiction
p149
aVebooks
p150
aVuni
p151
aVcollege
p152
aVadult
p153
aVread-in-2014
p154
aVread-in-2013
p155
aVenglish-literature
p156
aVworld-literature
p157
aVhome-library
p158
aVuniversity
p159
aVread-in-2015
p160
aVshort
p161
aVpdf
p162
aVe-book
p163
aVbookclub
p164
aV1980
p165
aVguardian-1000
p166
aVbooks
p167
aV1900s
p168
aVto-re-read
p169
aVgrad-school
p170
aVliteratuur
p171
aVnarrativa
p172
aVracism
p173
aVunread
p174
aVre-read
p175
aVmodern
p176
aVunfinished
p177
aVabandoned
p178
aVworld-lit
p179
aVdrama
p180
aVroman
p181
aVto-get
p182
aVpostcolonial-lit
p183
aVcultural
p184
asS'loc_class'
p185
VPS: Language and Literatures: American and Canadian literature
p186
sS'n_authors'
p187
I1
sb.