ccopy_reg
_reconstructor
p0
(cdataset.Book
Book
p1
c__builtin__
object
p2
Ntp3
Rp4
(dp5
S'content_name'
p6
V21873.txt.utf-8
p7
sS'isbn'
p8
NsS'year'
p9
I1962
sS'author_name'
p10
VHarry Harrison
p11
sS'images_urls'
p12
(lp13
Vhttp://www.gutenberg.org/files/21873/21873-h/images/bantam_logo.jpg
p14
asS'language_code'
p15
NsS'images'
p16
(lp17
sS'id'
p18
I67
sS'category'
p19
VText
p20
sS'genres'
p21
(lp22
sS'copyright'
p23
VPublic domain in the USA.
p24
sS'title'
p25
VPlanet of the Damned
p26
sS'wikipedia'
p27
(dp28
S'found'
p29
I00
ssS'average_rating'
p30
F3.57
sS'rating_count'
p31
I990
sS'content_available'
p32
I01
sS'goodreads'
p33
(dp34
S'url'
p35
Vhttps://www.goodreads.com/book/show/710829.Planet_of_the_Damned
p36
sg29
I01
sS'year'
p37
I1962
ssS'similar_books'
p38
(lp39
VBrain Twister
p40
aVThe Pirates of Ersatz
p41
aVThe Whole Man
p42
aVWho?
p43
aVThe Planet Buyer
p44
aVDavy
p45
aVDay of the Minotaur
p46
aVA Plague of Demons & Other Stories
p47
aVImmortality, Inc.
p48
aVFootrot Flats 1 (Footrot Flats, #1)
p49
aVThe Butterfly Kid
p50
aVThe Enemy Stars
p51
aVHere Comes Garfield
p52
aVInvaders from the Infinite
p53
aVToo Many Magicians (Lord Darcy, #2)
p54
aVThe Oxford Book of Fantasy Stories
p55
aVThe Dueling Machine
p56
aVStar Born (Pax/Astra, #2)
p57
asS'description'
p58
VOnce in a generation, a man is born with a heightened sense of empathy. Brion Brandd used this gift to win the Twenties, an annual physical and mental competition among the best and smartest people on Anvhar. But scarcely able to enjoy his victory, Brandd is swept off to the hellish planet Dis where he must use his heightened sense of empathy to help avert a global nuclear holocaust by negotiating with the blockading fleet, traversing the Disan underworld, and cracking the mystery of the savagely ruthless magter.<br /><br />Approx. 6 hours
p59
sS'format'
p60
VAudiobook
p61
sS'gutenberg'
p62
(dp63
g35
Vhttp://www.gutenberg.org/ebooks/21873
p64
sS'num'
p65
I21873
ssS'authors'
p66
(lp67
I16
asS'pages'
p68
I224
sS'isbn13'
p69
NsS'language'
p70
VEnglish
p71
sS'country'
p72
I2
sS'release_date'
p73
S'2007-06-20T00:00:00'
p74
sS'author'
p75
I16
sS'content_cleaned'
p76
I01
sS'classes'
p77
(lp78
Vto-read
p79
aVscience-fiction
p80
aVcurrently-reading
p81
aVsci-fi
p82
aVdefault
p83
aVfiction
p84
aVscifi
p85
aVsf
p86
aVowned
p87
aVebook
p88
aVebooks
p89
aVsci-fi-fantasy
p90
aVe-book
p91
aVhugo-nominees
p92
aVharry-harrison
p93
aVnot-read
p94
aVadventure
p95
aVpulp
p96
aVkindle
p97
aVfantascienza
p98
aVbooks
p99
aVpaperback
p100
aVbooks-i-own
p101
aVfree
p102
aVaudiobooks
p103
aVowned-books
p104
aVsci-fi-and-fantasy
p105
aVto-read-sf
p106
aVunread
p107
aVscience-fiction-fantasy
p108
aVscifi-fantasy
p109
aVvintage-sci-fi
p110
aVenglish
p111
aVowned-to-read
p112
aV1
p113
aVsold
p114
aVhugo
p115
aVproject-gutenberg
p116
aVmy-ebooks
p117
aVpublic-domain-science-fiction
p118
aVpublic-domain
p119
aVhugo-nominee
p120
aVaudiobook
p121
aVhugo-award-nominee
p122
aVkindlecollection
p123
aVmy-books
p124
aVshelf-h-authors
p125
aVgenre-syfi-fan-horr
p126
aVvoice
p127
aVon-calibre-to-read
p128
aVto-read-science-fiction
p129
aVscience-fiction-shelf
p130
aVunsorted
p131
aVpaperback-pl
p132
aVbooks-below-300-pages
p133
aVhugo-award
p134
aVfiction-5
p135
aVchris-akers-collection
p136
aVgeof-s-books
p137
aV200-250pgs
p138
aVbookshelves
p139
aV31
p140
aVbooks-read-2012
p141
aVlibrary
p142
aVread-and-owned
p143
aVnot-yet-owned
p144
aVdid-not-finish
p145
aVrequest-overdrive
p146
aVp4
p147
aVhugo-award-winners-and-nominees
p148
aVwhite-bookscase-mid
p149
aVcasa
p150
aVtrillion-year-spree-recs
p151
aVpublic-domain-scifi
p152
aVbooks-that-kcls-does-not-have-as-au
p153
aVunsorted-read
p154
aVno-longer-own
p155
aVbefore-goodreads
p156
aVon-shelf
p157
aVkindle-bookshelf
p158
aV1-cloud
p159
aVowned-scifi
p160
aVhugo-nebula-plus-nominations
p161
aV_audiobooks
p162
aVscif-fi
p163
aVown-audiobook
p164
aVpantry-shelf-3
p165
aVdbox2
p166
aV\u0435\u0434\u0432\u0430-\u043b\u0438
p167
aVwish-list
p168
aVtub06
p169
aVto-read-20th-sf
p170
aVto-listen-to
p171
aVspace-alien
p172
aVshelved
p173
aVscifi-fantasy-mystic-horror
p174
aVread-kevin
p175
aVread-during-peace-corps
p176
aVplanetary-romance
p177
aVpaper_nl
p178
asS'loc_class'
p179
VPS: Language and Literatures: American and Canadian literature
p180
sS'n_authors'
p181
I1
sb.