ccopy_reg
_reconstructor
p0
(cdataset.Book
Book
p1
c__builtin__
object
p2
Ntp3
Rp4
(dp5
S'content_name'
p6
V51651.txt.utf-8
p7
sS'isbn'
p8
NsS'year'
p9
I1962
sS'author_name'
p10
VWalter M. Miller
p11
sS'images_urls'
p12
(lp13
Vhttp://www.gutenberg.org/files/51651/51651-h/images/cover.jpg
p14
aVhttp://www.gutenberg.org/files/51651/51651-h/images/illus1.jpg
p15
aVhttp://www.gutenberg.org/files/51651/51651-h/images/illus2.jpg
p16
aVhttp://www.gutenberg.org/files/51651/51651-h/images/illus3.jpg
p17
aVhttp://www.gutenberg.org/files/51651/51651-h/images/illus4.jpg
p18
asS'language_code'
p19
Veng
p20
sS'id'
p21
I356
sS'category'
p22
VText
p23
sS'genres'
p24
(lp25
sS'copyright'
p26
VPublic domain in the USA.
p27
sS'title'
p28
VConditionally Human
p29
sS'wikipedia'
p30
(dp31
S'found'
p32
I00
ssS'average_rating'
p33
F4.11
sS'rating_count'
p34
I7
sS'content_available'
p35
I01
sS'cover_art_url'
p36
S'http://www.gutenberg.org/cache/epub/51651/pg51651.cover.medium.jpg'
p37
sS'goodreads'
p38
(dp39
S'url'
p40
Vhttps://www.goodreads.com/book/show/9466904-conditionally-human
p41
sS'found'
p42
I01
sS'year'
p43
I1962
ssS'similar_books'
p44
(lp45
sS'description'
p46
VContents:<br />- <i>Conditionally Human (1952)</i><br />- <i>The Darfsteller (1955)</i><br />- <i>Dark Benediction (1951)</i><br /><br />
p47
sS'gutenberg'
p48
(dp49
g40
Vhttp://www.gutenberg.org/ebooks/51651
p50
sS'num'
p51
I51651
ssS'authors'
p52
(lp53
I116
asS'pages'
p54
I191
sS'isbn13'
p55
NsS'language'
p56
VEnglish
p57
sS'countries'
p58
(lp59
I2
asS'release_date'
p60
S'2016-04-03T00:00:00'
p61
sS'author'
p62
I116
sS'cover'
p63
Vhttps://s.gr-assets.com/assets/nophoto/book/111x148-bcc042a9c91a29c1d680899eff700a03.png
p64
sS'content_cleaned'
p65
I01
sS'classes'
p66
(lp67
Vto-read
p68
aVscience-fiction
p69
aVnot-read
p70
aVsf
p71
aVsci-fi
p72
aVon-calibre-to-read
p73
aVpz-1-sci
p74
aVread-2013
p75
aVfinished-sci-fi-speculative-fiction
p76
aVbooks-i-own
p77
aV_ita
p78
aVpaperback
p79
aVowned
p80
aVdad-s-collection
p81
aVcollection
p82
aVcalibre
p83
asS'loc_class'
p84
S''
p85
sS'n_authors'
p86
I1
sb.