ccopy_reg
_reconstructor
p0
(cdataset.Book
Book
p1
c__builtin__
object
p2
Ntp3
Rp4
(dp5
S'similar_books'
p6
(lp7
sS'genres'
p8
(lp9
sS'author'
p10
I918
sS'countries'
p11
(lp12
I2
asS'year'
p13
I1969
sS'title'
p14
VIF Magazine July 1969
p15
sS'cover'
p16
Vhttps://ia600206.us.archive.org/BookReader/BookReaderImages.php?zip=/20/items/1969-07_IF/1969-07_IF_jp2.zip&file=1969-07_IF_jp2/1969-07_IF_0000.jp2&scale=0&rotate=0
p17
sS'cover_art'
p18
S'http://www.isfdb.org/wiki/images/2/28/WOFIFJUL1969.jpg'
p19
sS'author_name'
p20
VIF Magazine
p21
sS'images_urls'
p22
(lp23
sS'authors'
p24
(lp25
I499
aI640
aI649
aI611
aI40
aI356
aI326
aI1154
aI67
aI653
aI69
aI1188
aI654
aI1189
aI918
asS'images'
p26
(lp27
sS'id'
p28
I1356
sS'contents'
p29
(lp30
(dp31
g10
I499
sg14
VThe Towns Must Roll (Part 1 of 2)
p32
sa(dp33
g10
I640
sg14
VSpork Conquers Civilization
p34
sa(dp35
g10
I499
sg14
VAuthorgraphs: An Interview with Robert Bloch
p36
sa(dp37
g10
I649
sg14
VThe Half Man
p38
sa(dp39
g10
I611
sg14
VWhere the Beast Runs
p40
sa(dp41
g10
I40
sg14
VLooking Ahead
p42
sa(dp43
g10
I356
sg14
VIf ... And When (If, July 1969)
p44
sa(dp45
g10
I326
sg14
VSf Calendar (If, July 1969)
p46
sa(dp47
g10
I326
sg14
VAuthorgraphs: An Interview with Robert Bloch
p48
sa(dp49
g10
I1154
sg14
VSpork Conquers Civilization
p50
sa(dp51
g10
I67
sg14
VThe Half Man
p52
sa(dp53
g10
I653
sg14
VWhere the Beast Runs
p54
sa(dp55
g10
I69
sg14
VThe Towns Must Roll (Part 1 of 2)
p56
sa(dp57
g10
I1188
sg14
VOn the Dead Star
p58
sa(dp59
g10
I654
sg14
VAutohuman 14
p60
sa(dp61
g10
I1189
sg14
VA Day for Dying
p62
sasb.