ccopy_reg
_reconstructor
p0
(cdataset.Book
Book
p1
c__builtin__
object
p2
Ntp3
Rp4
(dp5
S'similar_books'
p6
(lp7
sS'genres'
p8
(lp9
sS'author'
p10
I918
sS'countries'
p11
(lp12
I2
asS'year'
p13
I1969
sS'title'
p14
VIF Magazine March 1969
p15
sS'cover'
p16
Vhttps://ia600200.us.archive.org/BookReader/BookReaderImages.php?zip=/27/items/1969-03_IF_modified/1969-03_IF_modified_jp2.zip&file=1969-03_IF_modified_jp2/1969-03_IF_modified_0000.jp2&scale=0&rotate=0
p17
sS'cover_art'
p18
S'http://www.isfdb.org/wiki/images/7/71/WOFIFMAR1969.jpg'
p19
sS'author_name'
p20
VIF Magazine
p21
sS'images_urls'
p22
(lp23
sS'authors'
p24
(lp25
I499
aI626
aI497
aI649
aI1182
aI40
aI356
aI326
aI588
aI613
aI1161
aI1023
aI1183
aI32
aI1086
aI591
aI918
asS'images'
p26
(lp27
sS'id'
p28
I1353
sS'contents'
p29
(lp30
(dp31
g10
I499
sg14
VDown in the Black Gang
p32
sa(dp33
g10
I499
sg14
VAuthorgraphs: An Interview with Harlan Ellison
p34
sa(dp35
g10
I626
sg14
VThe Ship Who Disappeared
p36
sa(dp37
g10
I497
sg14
VThe Frozen Summer
p38
sa(dp39
g10
I499
sg14
VEndfray of the Ofay
p40
sa(dp41
g10
I649
sg14
VSaboteur
p42
sa(dp43
g10
I1182
sg14
VCreatures of Darkness
p44
sa(dp45
g10
I40
sg14
VHugos &Amp; Others
p46
sa(dp47
g10
I356
sg14
VIf ... And When (If, March 1969)
p48
sa(dp49
g10
I40
sg14
VHue and Cry (If, March 1969)
p50
sa(dp51
g10
I326
sg14
VSf Calendar (If, March 1969)
p52
sa(dp53
g10
I326
sg14
VAuthorgraphs: An Interview with Harlan Ellison
p54
sa(dp55
g10
I588
sg14
VDown in the Black Gang
p56
sa(dp57
g10
I613
sg14
VThe Ship Who Disappeared
p58
sa(dp59
g10
I1161
sg14
VThe Frozen Summer
p60
sa(dp61
g10
I1023
sg14
VPhoenix Land
p62
sa(dp63
g10
I1183
sg14
VThe Faithful Messenger
p64
sa(dp65
g10
I32
sg14
VEndfray of the Ofay
p66
sa(dp67
g10
I1086
sg14
VSaboteur
p68
sa(dp69
g10
I591
sg14
VCreatures of Darkness
p70
sasb.