ccopy_reg
_reconstructor
p0
(cdataset.Book
Book
p1
c__builtin__
object
p2
Ntp3
Rp4
(dp5
S'content_name'
p6
V51751.txt.utf-8
p7
sS'isbn'
p8
V0525477624
p9
sS'year'
p10
I2006
sS'author_name'
p11
VMiriam Allen DeFord
p12
sS'images_urls'
p13
(lp14
Vhttp://www.gutenberg.org/files/51751/51751-h/images/cover.jpg
p15
aVhttp://www.gutenberg.org/files/51751/51751-h/images/illus1.jpg
p16
aVhttp://www.gutenberg.org/files/51751/51751-h/images/illus2.jpg
p17
asS'language_code'
p18
Ven-US
p19
sS'images'
p20
(lp21
sS'id'
p22
I558
sS'category'
p23
VText
p24
sS'genres'
p25
(lp26
sS'copyright'
p27
VPublic domain in the USA.
p28
sS'title'
p29
VOh, Rats!
p30
sS'wikipedia'
p31
(dp32
S'found'
p33
I00
ssS'average_rating'
p34
F3.74
sS'rating_count'
p35
I344
sS'content_available'
p36
I01
sS'cover_art_url'
p37
S'http://www.gutenberg.org/cache/epub/51751/pg51751.cover.medium.jpg'
p38
sS'goodreads'
p39
(dp40
S'url'
p41
Vhttps://www.goodreads.com/book/show/9826.Oh_Rats_The_Story_of_Rats_and_People
p42
sg33
I01
sS'year'
p43
I2006
ssS'similar_books'
p44
(lp45
VThe Story of Salt
p46
aVThe Griffin and the Dinosaur: How Adrienne Mayor Discovered a Fascinating Link Between Myth and Science
p47
aVKids at Work: Lewis Hine and the Crusade Against Child Labor
p48
aVFrogs
p49
aVKakapo Rescue: Saving the World's Strangest Parrot (Scientists in the Field Series)
p50
aVUnusual Creatures: A Mostly Accurate Account of Some of Earth's Strangest Animals
p51
aVHelen Keller:  A photographic story of a life (DK Biography)
p52
aVYou Wouldn't Want to Be an Egyptian Mummy!: Disgusting Things You'd Rather Not Know
p53
aVSky Boys: How They Built the Empire State Building
p54
aVThunder Birds: Nature's Flying Predators
p55
aVTeam Moon: How 400,000 People Landed Apollo 11 on the Moon
p56
aVThe Mighty Mars Rovers: The Incredible Adventures of Spirit and Opportunity
p57
aVLook Up!: Bird-Watching in Your Own Backyard
p58
aVThe Giant and How He Humbugged America
p59
aVEye to Eye: How Animals See The World
p60
aVRedwoods
p61
aVIf You're Not Here, Please Raise Your Hand: Poems About School
p62
aVMoonbird: A Year on the Wind with the Great Survivor B95
p63
asS'description'
p64
VAble to claw straight up a brick wall, squeeze through a pipe the width of a quarter, and gnaw through iron and concrete, rats are also revealed in this fascinating book to be incredibly intelligent and capable of great compassion. Weaving science, history, culture, and folklore, awardwinning writer Albert Marrin offers a look at rats that goes from curious to repulsive, horrifying to comic, fearsome to inspiring. Arresting blackand- white scratchboard illustrations with bold red accents add visual punch to this study of a creature that has annoyed, disgusted, nourished, and intrigued its human neighbors throughout the centuries.
p65
sS'format'
p66
VHardcover
p67
sS'gutenberg'
p68
(dp69
g41
Vhttp://www.gutenberg.org/ebooks/51751
p70
sS'num'
p71
I51751
ssS'authors'
p72
(lp73
I186
asS'pages'
p74
I48
sS'isbn13'
p75
V9780525477624
p76
sS'language'
p77
VEnglish
p78
sS'country'
p79
I2
sS'release_date'
p80
S'2016-04-13T00:00:00'
p81
sS'author'
p82
I186
sS'content_cleaned'
p83
I01
sS'classes'
p84
(lp85
Vto-read
p86
aVnonfiction
p87
aVnon-fiction
p88
aVcurrently-reading
p89
aVhistory
p90
aVpicture-books
p91
aVscience
p92
aVmiddle-school
p93
aVrats
p94
aVmiddle-grade
p95
aVchildren-s-books
p96
aVchildren-s
p97
aVchildren
p98
aVcaudill
p99
aVchildrens
p100
aVanimals
p101
aVanimals-misc
p102
aVchildren-s-nonfiction
p103
aVjuvenile
p104
aVrebecca-caudill
p105
aVrebecca-caudill-2009
p106
aVya-nonfiction
p107
aVinformational
p108
aVclassroom-wish-list
p109
aVkids-nonfiction
p110
aVpicture-book
p111
aVyoung-adult
p112
aVjuvenile-non-fiction
p113
aVkid-lit
p114
aVchildrens-nonfiction
p115
aV2009-caudill-nominees
p116
aVmiddle-grades
p117
aVanimal
p118
aVkids
p119
aVsummer-reads-2017
p120
aVellie
p121
aVnon-fic
p122
aVho-hum
p123
aVmale-authors
p124
aVwant-to-read
p125
aVsolomon
p126
aVnature-animals
p127
aVmiddle-grade-readers
p128
aVmy-parents-read-it-too
p129
aValice
p130
aVfebruary-challenge
p131
aVread-science
p132
aVkiddos
p133
aVexploring
p134
aVhse
p135
aVultimate-library-list-book-whispere
p136
aVread-in-2016
p137
aV16-17-battle-of-the-books
p138
aV6
p139
aV5
p140
aV4
p141
aVzoology
p142
aVmy-wishlist
p143
aVyoung-adult-recommendations
p144
aVgr-8-semester-2
p145
aVhistorical-fiction-nonfiction
p146
aVborrowed-it-from-the-library
p147
aVfirst
p148
aVchildren-s-literature
p149
aVnon-fiction-trade-books
p150
aVslis756-children-s-materials
p151
aVpublic-library
p152
aVprimary-school
p153
aV2015-children-s-reads
p154
aVj-miller-high-int-nf-5th
p155
aVncbla-selections
p156
aVinformational-book
p157
aVdm-recommends
p158
aVnancy-bradley-5th-grade-must-haves
p159
aVschool
p160
aV2015-reads-juv-ya-nonfic-pre-2015
p161
aVread-2015-october
p162
aVread-2015
p163
aVfuture-classroom-library
p164
aVsummer-adds
p165
aVsummer-reading-2015
p166
aVdefault
p167
aV6th-grade-ar-level
p168
aVethans-library
p169
aVandrews-library
p170
aVala-notable
p171
aVbruh
p172
aVread-before-goodreads
p173
aVbefore-goodreads
p174
aVadd
p175
aVclassroom-books
p176
aVschool-reading
p177
aVbiology
p178
aV4th_grade_great_school_reading_list
p179
aVbooks-for-my-students
p180
aVgrade-7
p181
aVnot-interested
p182
aVfavorite-information-books
p183
aVschool-related
p184
aVdonalyn-miller-recommends
p185
asS'loc_class'
p186
S''
p187
sS'n_authors'
p188
I1
sb.