ccopy_reg
_reconstructor
p0
(cdataset.Book
Book
p1
c__builtin__
object
p2
Ntp3
Rp4
(dp5
S'content_name'
p6
V42182.txt.utf-8
p7
sS'isbn'
p8
NsS'year'
p9
I1938
sS'author_name'
p10
VRobert E. Howard
p11
sS'images_urls'
p12
(lp13
Vhttp://www.gutenberg.org/files/42182/42182-h/images/cover.jpg
p14
asS'language_code'
p15
NsS'images'
p16
(lp17
sS'id'
p18
I90
sS'category'
p19
VText
p20
sS'plot'
p21
NsS'genres'
p22
(lp23
sS'copyright'
p24
VPublic domain in the USA.
p25
sS'title'
p26
VThe Hyborian Age
p27
sS'wikipedia'
p28
(dp29
S'url'
p30
S'https://en.wikipedia.org/wiki/The_Hyborian_Age'
p31
sS'found'
p32
I01
sS'year'
p33
I-1
ssS'published_in'
p34
NsS'average_rating'
p35
F3.42
sS'rating_count'
p36
I59
sS'publisher_in'
p37
NsS'content_available'
p38
I01
sS'cover_art_url'
p39
S'http://www.gutenberg.org/cache/epub/42182/pg42182.cover.medium.jpg'
p40
sS'goodreads'
p41
(dp42
g30
Vhttps://www.goodreads.com/book/show/10403294-the-hyborian-age
p43
sg32
I01
sg33
I1994
ssS'similar_books'
p44
(lp45
sS'description'
p46
NsS'format'
p47
NsS'gutenberg'
p48
(dp49
g30
Vhttp://www.gutenberg.org/ebooks/42182
p50
sS'num'
p51
I42182
ssS'authors'
p52
(lp53
I22
asS'publisher'
p54
NsS'isbn13'
p55
V2940011880636
p56
sS'language'
p57
VEnglish
p58
sS'countries'
p59
(lp60
I2
asS'release_date'
p61
S'2013-02-24T00:00:00'
p62
sS'author'
p63
I22
sS'original_title'
p64
VThe Hyborian Age
p65
sS'summary'
p66
VThe Hyborian Age is an essay by Robert E. Howard pertaining to the Hyborian Age, the fictional setting of his stories about Conan the Cimmerian. It was written in the 1930s but not published during Howard's lifetime. Its purpose was to maintain consistency within his fictional setting.
p67
sS'content_cleaned'
p68
I01
sS'classes'
p69
(lp70
Vto-read
p71
aVfantasy
p72
aVhistory
p73
aVfiction
p74
aVshort-stories
p75
aVebook
p76
aVcurrently-reading
p77
aVto-read-ebook
p78
aV01-classic-fantasy
p79
aVlovecraft-or-howard
p80
aVkindle-library
p81
aVunder-050-pages
p82
aVshort-story
p83
aVnook
p84
aVi-own
p85
aVpublic-domain
p86
aVkindle
p87
aVgutenberg
p88
aVdigital
p89
aVclassics
p90
aVamerican
p91
aVessays
p92
aVfree-ebooks
p93
aVowned
p94
aVfictional-non-fiction
p95
aVz_fiction
p96
aVx_treatise
p97
aVw_us_federal
p98
aVbooks-read-2015
p99
aVmyth-fairytales
p100
aVpoetry
p101
aVfeedbooks-com
p102
aVto-read-low-priority
p103
aVgot
p104
aVsword-and-sorcery
p105
aVread-in-english
p106
aVother
p107
aVzebert
p108
aVgoodreads
p109
aVmystery
p110
aVbig-men-w-swords
p111
aVgot-eb
p112
aVspringpad
p113
aVmystery-and-suspense
p114
asS'loc_class'
p115
VPS: Language and Literatures: American and Canadian literature
p116
sS'cover_artist'
p117
NsS'n_authors'
p118
I1
sb.