ccopy_reg
_reconstructor
p0
(cdataset.Book
Book
p1
c__builtin__
object
p2
Ntp3
Rp4
(dp5
S'content_name'
p6
V19029.txt.utf-8
p7
sS'isbn'
p8
NsS'year'
p9
I1948
sS'author_name'
p10
VAndre Norton
p11
sS'images_urls'
p12
(lp13
Vhttp://www.gutenberg.org/files/19029/19029-h/images/fig1.jpg
p14
asS'language_code'
p15
NsS'id'
p16
I206
sS'category'
p17
VText
p18
sS'genres'
p19
(lp20
sS'copyright'
p21
VPublic domain in the USA.
p22
sS'title'
p23
VThe Gifts of Asti
p24
sS'wikipedia'
p25
(dp26
S'found'
p27
I00
ssS'average_rating'
p28
F3.57
sS'rating_count'
p29
I89
sS'content_available'
p30
I01
sS'goodreads'
p31
(dp32
S'url'
p33
Vhttps://www.goodreads.com/book/show/6570775-the-gifts-of-asti
p34
sS'found'
p35
I01
sS'year'
p36
I1948
ssS'similar_books'
p37
(lp38
VArmageddon 2419 A.D.
p39
aVIn the Mood
p40
aVThe Best of Fritz Leiber
p41
aVThe Best of Isaac Asimov (Doubleday science fiction)
p42
aVStarman's Quest
p43
aVSteel Valentine
p44
aVNight Games
p45
aVMerlin
p46
aVAcross the Sea of Stars
p47
aVThe Doomed Planet (Mission Earth, #10)
p48
aVFalse Dawn
p49
aVDeath on an Autumn River (Sugawara Akitada #9)
p50
aVJailbreak (Hungry, #0.5)
p51
aVOutpost
p52
aVAriel
p53
aVDerelict
p54
aVThe Mystic Mullah (Doc Savage, #9)
p55
aVRath's Reckoning (The Janus Group #3)
p56
asS'description'
p57
NsS'gutenberg'
p58
(dp59
g33
Vhttp://www.gutenberg.org/ebooks/19029
p60
sS'num'
p61
I19029
ssS'authors'
p62
(lp63
I28
asS'isbn13'
p64
NsS'language'
p65
VEnglish
p66
sS'countries'
p67
(lp68
I2
asS'release_date'
p69
S'2006-08-11T00:00:00'
p70
sS'author'
p71
I28
sS'cover'
p72
Vhttps://s.gr-assets.com/assets/nophoto/book/111x148-bcc042a9c91a29c1d680899eff700a03.png
p73
sS'content_cleaned'
p74
I01
sS'classes'
p75
(lp76
Vto-read
p77
aVscience-fiction
p78
aVfantasy
p79
aVsci-fi
p80
aVebooks
p81
aVandre-norton
p82
aVowned
p83
aVkindle-books
p84
aVkindle
p85
aVebook
p86
aVscifi
p87
aVeown
p88
aVactually-own
p89
aVcurrently-reading
p90
aV20th-century-lit
p91
aVwant-to-read-later
p92
aVbooks-i-own
p93
aVpost-apocalyptic
p94
aVsword-and-planet
p95
aVoriginal-literature
p96
aVshort-story-novella
p97
aVwomen-s-book-project
p98
aVmy-books
p99
aVamazon-ebooks
p100
aVscifi-fantasy
p101
aVundecided
p102
aVw_us_modern
p103
aVaudiobooks
p104
aVshort-stories
p105
aVshort-story
p106
aVcalibre
p107
aVshelfari-science-fiction
p108
aVshelfari-review-only
p109
aVshelfari-part-of-a-set
p110
aVshelfari-no
p111
aVshelfari-kindlebook
p112
aVshelfari-eo
p113
aVshelfari-andre-norton
p114
aValdiko
p115
aVfemale-author
p116
aVread-2014
p117
aVon-disk
p118
aVkindle-lendable-fantasy-scifi
p119
aVowned-not-read-yet
p120
aVkindle-lendable
p121
aVkindle-free
p122
aVkindle-ebook
p123
aVbooks-to-keep-after-move
p124
aVon-my-ereader
p125
aVfree
p126
aVmy-personal-book-catalog
p127
aV4-lineup
p128
aVmonte
p129
aVe-book
p130
aVfree-ebook
p131
aVfantasy-sci-fi
p132
aVmy-kindle-books
p133
aVfantasy-science-fiction
p134
aVsci-fi-fantasy
p135
aVnovellas
p136
aVi-book
p137
aVmagic
p138
aVpublic-library
p139
aVtype-short-story
p140
aVw_us_unitary
p141
aVrescued-p2p-and-shelved-books
p142
aVshelved-for-one-reason-or-another
p143
aVnorton-andre
p144
aVs-tr
p145
aVto-read-owned
p146
asS'loc_class'
p147
VPS: Language and Literatures: American and Canadian literature
p148
sS'n_authors'
p149
I1
sb.