ccopy_reg
_reconstructor
p0
(cdataset.Book
Book
p1
c__builtin__
object
p2
Ntp3
Rp4
(dp5
S'content_name'
p6
V28832.txt.utf-8
p7
sS'isbn'
p8
V0441062792
p9
sS'year'
p10
I1931
sS'author_name'
p11
VEdmond Hamilton
p12
sS'images_urls'
p13
(lp14
Vhttp://www.gutenberg.org/files/28832/28832-h/images/cover.jpg
p15
aVhttp://www.gutenberg.org/files/28832/28832-h/images/frontis.jpg
p16
asS'language_code'
p17
NsS'id'
p18
I293
sS'category'
p19
VText
p20
sS'genres'
p21
(lp22
sS'copyright'
p23
VPublic domain in the USA.
p24
sS'title'
p25
VThe Sargasso of Space
p26
sS'wikipedia'
p27
(dp28
S'found'
p29
I00
ssS'average_rating'
p30
F3.87
sS'rating_count'
p31
I1030
sS'content_available'
p32
I01
sS'cover_art_url'
p33
S'http://www.gutenberg.org/cache/epub/28832/pg28832.cover.medium.jpg'
p34
sS'goodreads'
p35
(dp36
S'url'
p37
Vhttps://www.goodreads.com/book/show/94721.Sargasso_Of_Space
p38
sS'found'
p39
I01
sS'year'
p40
I1955
ssS'similar_books'
p41
(lp42
VHunting the Corrigan's Blood (Cadence Drake, #1)
p43
aVFury
p44
aVThe Hub: Dangerous Territory (The Hub)
p45
aVThe Galaxy Primes
p46
aVThe Ruins Of Mars (The Ruins of Mars, #1)
p47
aVSeas of Venus (Seas of Venus, #1-2)
p48
aVReality Check
p49
aVKeith Laumer: The Lighter Side
p50
aVMasters of Everon
p51
aVOverdraft: The Orion Offensive
p52
aVOnly Human (The Targon Tales, #2)
p53
aVGeorgia on My Mind and Other Places
p54
aVPlanets of Adventure
p55
aVMars Evacuees (Mars Evacuees #1)
p56
aVDeathworld 1
p57
aVDavid Falkayn: Star Trader (Technic Civilization 2)
p58
aVRosetta (Jim Meade, Martian P.I. #1)
p59
aVThe Humanoid Touch (Humanoids, #2)
p60
asS'description'
p61
VAlmost half a century ago, renowned science fiction and fantasy author Andre Norton introduced apprentice cargo master Dane Thorson in Sargasso of Space, in the first of the star-spanning tales of the Solar Queen series<br /><br />Dane signed on with the independent cargo ship Solar Queen looking for a career in off-world trade. In Sargasso of Space, the Solar Queen free traders win exclusive rights to trade with the planet Limbo, but the crew arrives to find most of the planet\u2019s surface charred, with little signs of life. They find a valley with life, but others may still lurk. Worse yet, a strange force threatens to cripple the Queen. They must solve the planet\u2019s mysteries if they hope to escape not only with tradable goods, but their lives.<br /><br />First of the "Solar Queen" adventures, originally published under the pseudonym "Andrew North." This is the second ace edition.
p62
sS'format'
p63
NsS'gutenberg'
p64
(dp65
g37
Vhttp://www.gutenberg.org/ebooks/28832
p66
sS'num'
p67
I28832
ssS'authors'
p68
(lp69
I83
asS'pages'
p70
I286
sS'isbn13'
p71
V9780441062799
p72
sS'language'
p73
VEnglish
p74
sS'countries'
p75
(lp76
I2
asS'release_date'
p77
S'2009-05-16T00:00:00'
p78
sS'author'
p79
I83
sS'content_cleaned'
p80
I01
sS'classes'
p81
(lp82
Vto-read
p83
aVscience-fiction
p84
aVsci-fi
p85
aVcurrently-reading
p86
aVowned
p87
aVsf
p88
aVfiction
p89
aVscifi
p90
aVdefault
p91
aVkindle
p92
aVandre-norton
p93
aVscience-fiction-fantasy
p94
aVfantasy
p95
aVown-might-read
p96
aVscifi-fantasy
p97
aVspace
p98
aVlibrary
p99
aVspace-opera
p100
aVseries
p101
aVcalibre
p102
aVowned-not-read
p103
aVebook
p104
aVfavorites
p105
aVscience
p106
aV--137-
p107
aVconsidering
p108
aVya-f-sf
p109
aVclassic-science-fiction
p110
aVto-read-owned
p111
aVtbr
p112
aVunread
p113
aVmine
p114
aVkindle-unlimited
p115
aVnorton-andre
p116
aVdon-t-plan-on-reading
p117
aVto-read-sf
p118
aVowned-but-not-read
p119
aVamerican
p120
aVspace-science-fiction
p121
aVread-in-2014
p122
aVi-own
p123
aVpfaf
p124
aVreread
p125
aVspaceships
p126
aVspace-adventure
p127
aVplanetary-adventure
p128
aVhavedeadtree
p129
aVe-books
p130
aVebooks
p131
aVto-read-someday
p132
aVnot-read
p133
aVchildren-s
p134
aVsolar-queen
p135
aVpublic-library
p136
aVsf-f
p137
aVsci-fi-fantasy
p138
aVsf-fantasy
p139
aVtbr-space
p140
aVtbr-sci-fi
p141
aVnew-series
p142
aVon-calibre-to-read
p143
aVto-read-scifi
p144
aVto-reread
p145
aVsuspense
p146
aValiens
p147
aVoldies
p148
aVhave-but-not-read
p149
aVlow-priority
p150
aVamazon
p151
aVpages-151-200
p152
aVhome-library-ebooks
p153
aV00-to-read-00
p154
aVsoonish
p155
aVpaperback
p156
aVkindle-unread
p157
aVjbs
p158
aVneeds-librarian
p159
aVlibrary-book
p160
aVdigital-book
p161
aVmystery
p162
aVadult
p163
aVpending-review
p164
aVhivemind-badass-female-authors
p165
aVtbr-kindle-owned
p166
aVpfaf-serija
p167
aVread-before-1996
p168
aVfemale-authors
p169
aVandre-norton-science-fiction-aut
p170
aVkindle-ebooks
p171
aVunshelved
p172
aV2017-goal
p173
aVtbr-owned
p174
aV1
p175
aVepub
p176
aVdropbox
p177
aVhave
p178
aVread-now
p179
aVpriority-reads
p180
aVappendix-n
p181
aVflashmob-2016
p182
asS'loc_class'
p183
VPS: Language and Literatures: American and Canadian literature
p184
sS'n_authors'
p185
I1
sb.