ccopy_reg
_reconstructor
p0
(cdataset.Book
Book
p1
c__builtin__
object
p2
Ntp3
Rp4
(dp5
S'content_name'
p6
V8673.txt.utf-8
p7
sS'isbn'
p8
V1598185152
p9
sS'year'
p10
I1911
sS'author_name'
p11
VGarrett Putman Serviss
p12
sS'images_urls'
p13
(lp14
sS'language_code'
p15
Veng
p16
sS'images'
p17
(lp18
sS'id'
p19
I948
sS'category'
p20
VText
p21
sS'genres'
p22
(lp23
sS'copyright'
p24
VPublic domain in the USA.
p25
sS'title'
p26
VA Columbus of Space
p27
sS'wikipedia'
p28
(dp29
S'found'
p30
I00
ssS'average_rating'
p31
F3.3
sS'rating_count'
p32
I15
sS'content_available'
p33
I01
sS'goodreads'
p34
(dp35
S'url'
p36
Vhttps://www.goodreads.com/book/show/2124691.A_Columbus_of_Space
p37
sg30
I01
sS'year'
p38
I1911
ssS'similar_books'
p39
(lp40
sS'description'
p41
VWe simply listened in silence; for what could we say? The facts were more eloquent than any words, and called for no commentary. Here we "were, " out in the middle of space; and "there" was the earth, hanging on nothing, like a summer cloud. At least we knew where we were if we didn't quite understand how we had got there. . . .
p42
sS'format'
p43
VPaperback
p44
sS'gutenberg'
p45
(dp46
g36
Vhttp://www.gutenberg.org/ebooks/8673
p47
sS'num'
p48
I8673
ssS'authors'
p49
(lp50
I90
asS'pages'
p51
I212
sS'isbn13'
p52
V9781598185157
p53
sS'language'
p54
VEnglish
p55
sS'country'
p56
I3
sS'release_date'
p57
S'2005-08-01T00:00:00'
p58
sS'author'
p59
I90
sS'content_cleaned'
p60
I01
sS'classes'
p61
(lp62
Vto-read
p63
aVscience-fiction
p64
aVsci-fi-fantasy
p65
aVebook
p66
aVfiction
p67
aVcurrently-reading
p68
aVaudiobook
p69
aVmaybe
p70
aV1900-1950
p71
aV20th-century-lit
p72
aVdnf
p73
aV2017-read-hard
p74
aVrh17-7
p75
aVread-in-2010
p76
aVebooks
p77
aVi-own
p78
aVaudio-books-to-read
p79
aVowned-on-hold
p80
aVgenre-syfi-fan-horr
p81
aVshelf-s-authors
p82
aVspace
p83
aVfantasy
p84
aVbook-shelf-08
p85
aVsci-fi
p86
aVfeedbooks-com
p87
aVsi-fi-fantasy
p88
aVmulling-it-over
p89
aVto-read-6-3-26
p90
aVto-read--one-day-
p91
aVread09
p92
aVscifi-fantasy
p93
aVaudiobooks-to-read
p94
aVto-read-6
p95
asS'loc_class'
p96
VPS: Language and Literatures: American and Canadian literature
p97
sS'n_authors'
p98
I1
sb.