ccopy_reg
_reconstructor
p0
(cdataset.Book
Book
p1
c__builtin__
object
p2
Ntp3
Rp4
(dp5
S'content_name'
p6
V42987.txt.utf-8
p7
sS'isbn'
p8
NsS'year'
p9
I1953
sS'author_name'
p10
VMurray Leinster
p11
sS'images_urls'
p12
(lp13
Vhttp://www.gutenberg.org/files/42987/42987-h/images/cover.jpg
p14
aVhttp://www.gutenberg.org/files/42987/42987-h/images/illus1.jpg
p15
aVhttp://www.gutenberg.org/files/42987/42987-h/images/illus2.jpg
p16
aVhttp://www.gutenberg.org/files/42987/42987-h/images/illus3.jpg
p17
aVhttp://www.gutenberg.org/files/42987/42987-h/images/illus4.jpg
p18
aVhttp://www.gutenberg.org/files/42987/42987-h/images/illus5.jpg
p19
aVhttp://www.gutenberg.org/files/42987/42987-h/images/illus6.jpg
p20
aVhttp://www.gutenberg.org/files/42987/42987-h/images/illus7.jpg
p21
aVhttp://www.gutenberg.org/files/42987/42987-h/images/illus8.jpg
p22
aVhttp://www.gutenberg.org/files/42987/42987-h/images/illus9.jpg
p23
aVhttp://www.gutenberg.org/files/42987/42987-h/images/pic.jpg
p24
asS'language_code'
p25
NsS'images'
p26
(lp27
sS'id'
p28
I472
sS'category'
p29
VText
p30
sS'genres'
p31
(lp32
sS'copyright'
p33
VPublic domain in the USA.
p34
sS'title'
p35
VNightmare Planet
p36
sS'wikipedia'
p37
(dp38
S'url'
p39
Vhttps://en.wikipedia.org/wiki/The_Forgotten_Planet
p40
sS'found'
p41
I01
sS'year'
p42
I-1
ssS'published_in'
p43
NsS'average_rating'
p44
F3.25
sS'rating_count'
p45
I15
sS'content_available'
p46
I01
sS'cover_art_url'
p47
S'http://www.gutenberg.org/cache/epub/42987/pg42987.cover.medium.jpg'
p48
sS'goodreads'
p49
(dp50
g39
Vhttps://www.goodreads.com/book/show/22400807-nightmare-planet
p51
sg41
I01
sg42
I2013
ssS'similar_books'
p52
(lp53
sS'description'
p54
NsS'format'
p55
NsS'gutenberg'
p56
(dp57
g39
Vhttp://www.gutenberg.org/ebooks/42987
p58
sS'num'
p59
I42987
ssS'authors'
p60
(lp61
I61
asS'isbn13'
p62
NsS'language'
p63
VEnglish
p64
sS'countries'
p65
(lp66
I2
asS'release_date'
p67
S'2013-06-19T00:00:00'
p68
sS'author'
p69
I61
sS'original_title'
p70
VThe Forgotten Planet
p71
sS'summary'
p72
VThe Forgotten Planet is a science fiction novel by American writer Murray Leinster. It was released in 1954 by Gnome Press in an edition of 5,000 copies. The novel is a fix-up from three short stories, "The Mad Planet" and "The Red Dust", both of which had originally appeared in the magazine Argosy in 1920 and 1921, and "Nightmare Planet", which had been published in Science Fiction Plus in 1953.
p73
sS'content_cleaned'
p74
I01
sS'classes'
p75
(lp76
Vscience-fiction
p77
aVscifi
p78
aVfiction
p79
aVstand-alone-book
p80
aV3rd-person-narration
p81
aVto-read
p82
aVsci-fi
p83
aVlibrary
p84
aVnorthern-america
p85
aVspeculative-fiction
p86
aVlibrivox-org
p87
aVfantasy
p88
aVaudio
p89
aVguttenberg
p90
aVcurrently-reading
p91
asS'loc_class'
p92
VPS: Language and Literatures: American and Canadian literature
p93
sS'n_authors'
p94
I1
sb.