ccopy_reg
_reconstructor
p0
(cdataset.Book
Book
p1
c__builtin__
object
p2
Ntp3
Rp4
(dp5
S'content_name'
p6
V24121.txt.utf-8
p7
sS'isbn'
p8
NsS'year'
p9
I1955
sS'author_name'
p10
VJohn O'Keefe
p11
sS'images_urls'
p12
(lp13
Vhttp://www.gutenberg.org/files/24121/24121-h/images/001.jpg
p14
asS'language_code'
p15
NsS'images'
p16
(lp17
sS'id'
p18
I544
sS'category'
p19
VText
p20
sS'genres'
p21
(lp22
sS'copyright'
p23
VPublic domain in the USA.
p24
sS'title'
p25
VAs Long As You Wish
p26
sS'wikipedia'
p27
(dp28
S'found'
p29
I00
ssS'average_rating'
p30
F2.93
sS'rating_count'
p31
I24
sS'content_available'
p32
I01
sS'goodreads'
p33
(dp34
S'url'
p35
Vhttps://www.goodreads.com/book/show/8423077-as-long-as-you-wish
p36
sg29
I01
sS'year'
p37
I2010
ssS'similar_books'
p38
(lp39
sS'description'
p40
NsS'gutenberg'
p41
(dp42
g35
Vhttp://www.gutenberg.org/ebooks/24121
p43
sS'num'
p44
I24121
ssS'authors'
p45
(lp46
I181
asS'isbn13'
p47
NsS'language'
p48
VEnglish
p49
sS'countries'
p50
(lp51
I3
asS'release_date'
p52
S'2008-01-02T00:00:00'
p53
sS'author'
p54
I181
sS'cover'
p55
Vhttps://s.gr-assets.com/assets/nophoto/book/111x148-bcc042a9c91a29c1d680899eff700a03.png
p56
sS'content_cleaned'
p57
I01
sS'classes'
p58
(lp59
Vto-read
p60
aVfiction
p61
aVfavorites
p62
aVscience-fiction
p63
aVessence-of-rhetoric
p64
aVdialogue
p65
aVshort-stories
p66
aV20th-century
p67
aVmodern-fiction
p68
aVaudiobooks
p69
aVshort-story
p70
aVaudio-obtained
p71
aVkindle
p72
aVdroid-laputa
p73
aVsci-fi
p74
aVtype-short-story
p75
aVaudio-obtained-ss
p76
aVlaputa
p77
aVaudio-books
p78
asS'loc_class'
p79
VPS: Language and Literatures: American and Canadian literature
p80
sS'n_authors'
p81
I1
sb.