ccopy_reg
_reconstructor
p0
(cdataset.Book
Book
p1
c__builtin__
object
p2
Ntp3
Rp4
(dp5
S'similar_books'
p6
(lp7
sS'genres'
p8
(lp9
sS'author'
p10
I302
sS'countries'
p11
(lp12
I2
asS'year'
p13
I1965
sS'title'
p14
VGalaxy Magazine June 1965
p15
sS'cover'
p16
Vhttps://ia600208.us.archive.org/BookReader/BookReaderImages.php?zip=/28/items/Galaxy_v23n05_1965-06/Galaxy_v23n05_1965-06_jp2.zip&file=Galaxy_v23n05_1965-06_jp2/Galaxy_v23n05_1965-06_0000.jp2&scale=0&rotate=0
p17
sS'cover_art'
p18
S'http://www.isfdb.org/wiki/images/6/67/GALJUN65.jpg'
p19
sS'author_name'
p20
VGalaxy Magazine
p21
sS'images_urls'
p22
(lp23
sS'authors'
p24
(lp25
I545
aI499
aI581
aI40
aI326
aI339
aI597
aI605
aI91
aI50
aI604
aI23
aI34
aI606
aI591
aI302
asS'images'
p26
(lp27
sS'id'
p28
I1107
sS'contents'
p29
(lp30
(dp31
g10
I545
sg14
VMindswap
p32
sa(dp33
g10
I545
sg14
VMindswap [2]
p34
sa(dp35
g10
I545
sg14
VMindswap [3]
p36
sa(dp37
g10
I545
sg14
VMindswap [4]
p38
sa(dp39
g10
I545
sg14
VMindswap [5]
p40
sa(dp41
g10
I499
sg14
VBlue Fire
p42
sa(dp43
g10
I499
sg14
VBlue Fire [2]
p44
sa(dp45
g10
I499
sg14
VBlue Fire [3]
p46
sa(dp47
g10
I581
sg14
VOne Face
p48
sa(dp49
g10
I581
sg14
VOne Face [2]
p50
sa(dp51
g10
I40
sg14
VWhichness and Whereness
p52
sa(dp53
g10
I326
sg14
VForecast (Galaxy, June 1965)
p54
sa(dp55
g10
I339
sg14
VFor Your Information: The Observatory On the Moon
p56
sa(dp57
g10
I597
sg14
VObservatory On the Moon
p58
sa(dp59
g10
I605
sg14
VAn Eye for Selene
p60
sa(dp61
g10
I91
sg14
VGalaxy Bookshelf (Galaxy, June 1965)
p62
sa(dp63
g10
I50
sg14
VBlue Fire
p64
sa(dp65
g10
I604
sg14
VOne Face
p66
sa(dp67
g10
I23
sg14
VMindswap
p68
sa(dp69
g10
I34
sg14
VThink of a Man
p70
sa(dp71
g10
I606
sg14
VServant Problem
p72
sa(dp73
g10
I591
sg14
VDevil Car
p74
sasb.