ccopy_reg
_reconstructor
p0
(cdataset.Book
Book
p1
c__builtin__
object
p2
Ntp3
Rp4
(dp5
S'content_name'
p6
V26741.txt.utf-8
p7
sS'isbn'
p8
NsS'year'
p9
I1960
sS'author_name'
p10
VMack Reynolds
p11
sS'images_urls'
p12
(lp13
Vhttp://www.gutenberg.org/files/26741/26741-page-images/p111.png
p14
aVhttp://www.gutenberg.org/files/26741/26741-page-images/p112.png
p15
aVhttp://www.gutenberg.org/files/26741/26741-page-images/p113.png
p16
aVhttp://www.gutenberg.org/files/26741/26741-page-images/p114.png
p17
aVhttp://www.gutenberg.org/files/26741/26741-page-images/p115.png
p18
asS'language_code'
p19
NsS'images'
p20
(lp21
sS'id'
p22
I387
sS'category'
p23
VText
p24
sS'genres'
p25
(lp26
sS'copyright'
p27
VPublic domain in the USA.
p28
sS'title'
p29
VI'm a Stranger Here Myself
p30
sS'wikipedia'
p31
(dp32
S'found'
p33
I00
ssS'average_rating'
p34
F4.16
sS'rating_count'
p35
I16
sS'content_available'
p36
I01
sS'goodreads'
p37
(dp38
S'url'
p39
S'https://www.goodreads.com/book/show/10427248-i-m-a-stranger-here-myself'
p40
sS'found'
p41
I01
ssS'similar_books'
p42
(lp43
sS'description'
p44
NsS'gutenberg'
p45
(dp46
S'url'
p47
Vhttp://www.gutenberg.org/ebooks/26741
p48
sS'num'
p49
I26741
ssS'authors'
p50
(lp51
I69
asS'isbn13'
p52
V2940012083845
p53
sS'language'
p54
VEnglish
p55
sS'countries'
p56
(lp57
I2
asS'release_date'
p58
S'2008-10-01T00:00:00'
p59
sS'author'
p60
I69
sS'cover'
p61
Vhttps://s.gr-assets.com/assets/nophoto/book/111x148-bcc042a9c91a29c1d680899eff700a03.png
p62
sS'content_cleaned'
p63
I01
sS'classes'
p64
(lp65
Vto-read
p66
aVsci-fi
p67
aVaudio
p68
aVread-in-2016
p69
aVaudio-books
p70
aVshort-story
p71
aVunknown-genre
p72
aVreviewed
p73
aVaudio-obtained
p74
aVsf
p75
aVto-listen-to
p76
aVscience-fiction
p77
aVkindle
p78
aVaudio-obtained-ss
p79
aVaaaaaaaa
p80
asS'loc_class'
p81
VPS: Language and Literatures: American and Canadian literature
p82
sS'n_authors'
p83
I1
sb.