ccopy_reg
_reconstructor
p0
(cdataset.Book
Book
p1
c__builtin__
object
p2
Ntp3
Rp4
(dp5
S'similar_books'
p6
(lp7
sS'genres'
p8
(lp9
sS'author'
p10
I302
sS'countries'
p11
(lp12
I2
asS'year'
p13
I1955
sS'title'
p14
VGalaxy Magazine January 1955
p15
sS'cover'
p16
Vhttps://ia600201.us.archive.org/BookReader/BookReaderImages.php?zip=/9/items/Galaxy_v09n04_1955-01/Galaxy_v09n04_1955-01_jp2.zip&file=Galaxy_v09n04_1955-01_jp2/Galaxy_v09n04_1955-01_0000.jp2&scale=0&rotate=0
p17
sS'cover_art'
p18
S'http://www.isfdb.org/wiki/images/6/66/MLO4375.jpg'
p19
sS'author_name'
p20
VGalaxy Magazine
p21
sS'images_urls'
p22
(lp23
sS'authors'
p24
(lp25
I363
aI433
aI427
aI336
aI305
aI339
aI340
aI466
aI326
aI40
aI467
aI341
aI23
aI172
aI391
aI302
asS'images'
p26
(lp27
sS'id'
p28
I1024
sS'contents'
p29
(lp30
(dp31
g10
I363
sg14
VThe Tunnel Under the World
p32
sa(dp33
g10
I363
sg14
VThe Tunnel Under the World [2]
p34
sa(dp35
g10
I363
sg14
VThe Tunnel Under the World [3]
p36
sa(dp37
g10
I433
sg14
VThe Vilbar Party
p38
sa(dp39
g10
I427
sg14
VPerfect Control
p40
sa(dp41
g10
I427
sg14
VPerfect Control [2]
p42
sa(dp43
g10
I427
sg14
VPerfect Control [3]
p44
sa(dp45
g10
I336
sg14
VWhen You're Smiling
p46
sa(dp47
g10
I336
sg14
VWhen You're Smiling [2]
p48
sa(dp49
g10
I336
sg14
VWhen You're Smiling [3]
p50
sa(dp51
g10
I433
sg14
VBrknk's Bounty
p52
sa(dp53
g10
I363
sg14
VSquirrel Cage
p54
sa(dp55
g10
I363
sg14
VSquirrel Cage [2]
p56
sa(dp57
g10
I363
sg14
VSquirrel Cage [3]
p58
sa(dp59
g10
I305
sg14
VYours for a Dime!
p60
sa(dp61
g10
I339
sg14
VFor Your Information: Calendar Trouble
p62
sa(dp63
g10
I340
sg14
VGalaxy's Five Star Shelf (Galaxy, January 1955)
p64
sa(dp65
g10
I466
sg14
VReview of the Nonfiction Work "Ideas and Opinions"
p66
sa(dp67
g10
I326
sg14
VForecast (Galaxy, January 1955)
p68
sa(dp69
g10
I40
sg14
VThe Tunnel Under the World
p70
sa(dp71
g10
I467
sg14
VPerfect Control
p72
sa(dp73
g10
I341
sg14
VWhen You're Smiling
p74
sa(dp75
g10
I23
sg14
VSquirrel Cage
p76
sa(dp77
g10
I172
sg14
VThe Vilbar Party
p78
sa(dp79
g10
I391
sg14
VBrknk's Bounty
p80
sasb.