ccopy_reg
_reconstructor
p0
(cdataset.Book
Book
p1
c__builtin__
object
p2
Ntp3
Rp4
(dp5
S'content_name'
p6
V50449.txt.utf-8
p7
sS'isbn'
p8
NsS'year'
p9
I1959
sS'author_name'
p10
VStephen Marlowe
p11
sS'images_urls'
p12
(lp13
Vhttp://www.gutenberg.org/files/50449/50449-h/images/cover.jpg
p14
asS'language_code'
p15
Veng
p16
sS'images'
p17
(lp18
sS'id'
p19
I819
sS'category'
p20
VText
p21
sS'genres'
p22
(lp23
sS'copyright'
p24
VPublic domain in the USA.
p25
sS'title'
p26
VRecruit for Andromeda
p27
sS'wikipedia'
p28
(dp29
S'found'
p30
I00
ssS'average_rating'
p31
F3.25
sS'rating_count'
p32
I17
sS'content_available'
p33
I01
sS'cover_art_url'
p34
S'http://www.gutenberg.org/cache/epub/50449/pg50449.cover.medium.jpg'
p35
sS'goodreads'
p36
(dp37
S'url'
p38
Vhttps://www.goodreads.com/book/show/24449107-recruit-for-andromeda
p39
sg30
I01
sS'year'
p40
I1959
ssS'similar_books'
p41
(lp42
sS'description'
p43
VAce Double D-358, printed with "The Plot Against Earth" by Calvin M. Knox (pseudonym of Robert Silverberg)
p44
sS'format'
p45
VPaperback
p46
sS'gutenberg'
p47
(dp48
g38
Vhttp://www.gutenberg.org/ebooks/50449
p49
sS'num'
p50
I50449
ssS'authors'
p51
(lp52
I79
asS'isbn13'
p53
NsS'language'
p54
VEnglish
p55
sS'release_date'
p56
S'2015-11-13T00:00:00'
p57
sS'author'
p58
I79
sS'content_cleaned'
p59
I01
sS'classes'
p60
(lp61
Vscience-fiction
p62
aVcurrently-reading
p63
aVsci-fi-fantasy
p64
aV20th-century-lit
p65
aVundgrad-15-17-tamu
p66
aVpleasure
p67
aVto-read
p68
aVpublic-domain
p69
aV2015-challenge-oldish
p70
aVscifi
p71
aVunread
p72
aVfiction
p73
aVcover-art-collection
p74
aVace-doubles
p75
asS'loc_class'
p76
S''
p77
sS'n_authors'
p78
I1
sb.