ccopy_reg
_reconstructor
p0
(cdataset.Book
Book
p1
c__builtin__
object
p2
Ntp3
Rp4
(dp5
S'content_name'
p6
V51304.txt.utf-8
p7
sS'isbn'
p8
NsS'year'
p9
I1957
sS'author_name'
p10
VJoe Gibson
p11
sS'images_urls'
p12
(lp13
Vhttp://www.gutenberg.org/files/51304/51304-h/images/cover.jpg
p14
aVhttp://www.gutenberg.org/files/51304/51304-h/images/illus1.jpg
p15
aVhttp://www.gutenberg.org/files/51304/51304-h/images/illus2.jpg
p16
aVhttp://www.gutenberg.org/files/51304/51304-h/images/illus3.jpg
p17
asS'language_code'
p18
NsS'images'
p19
(lp20
sS'id'
p21
I876
sS'category'
p22
VText
p23
sS'genres'
p24
(lp25
sS'copyright'
p26
VPublic domain in the USA.
p27
sS'title'
p28
VA Touch of E Flat
p29
sS'wikipedia'
p30
(dp31
S'found'
p32
I00
ssS'average_rating'
p33
F0.0
sS'rating_count'
p34
I0
sS'content_available'
p35
I01
sS'cover_art_url'
p36
S'http://www.gutenberg.org/cache/epub/51304/pg51304.cover.medium.jpg'
p37
sS'goodreads'
p38
(dp39
S'url'
p40
Vhttps://www.goodreads.com/book/show/32702852-a-touch-of-e-flat
p41
sg32
I01
sS'year'
p42
I-1
ssS'similar_books'
p43
(lp44
sS'description'
p45
NsS'gutenberg'
p46
(dp47
g40
Vhttp://www.gutenberg.org/ebooks/51304
p48
sS'num'
p49
I51304
ssS'authors'
p50
(lp51
I200
asS'isbn13'
p52
NsS'language'
p53
VEnglish
p54
sS'countries'
p55
(lp56
I3
asS'release_date'
p57
S'2016-02-26T00:00:00'
p58
sS'author'
p59
I200
sS'cover'
p60
Vhttps://s.gr-assets.com/assets/nophoto/book/111x148-bcc042a9c91a29c1d680899eff700a03.png
p61
sS'content_cleaned'
p62
I01
sS'classes'
p63
(lp64
sS'loc_class'
p65
S''
p66
sS'n_authors'
p67
I1
sb.