ccopy_reg
_reconstructor
p0
(cdataset.Book
Book
p1
c__builtin__
object
p2
Ntp3
Rp4
(dp5
S'content_name'
p6
V40969.txt.utf-8
p7
sS'isbn'
p8
V0451239601
p9
sS'year'
p10
I1953
sS'author_name'
p11
VBryce Walton
p12
sS'images_urls'
p13
(lp14
Vhttp://www.gutenberg.org/files/40969/40969-h/images/cover.jpg
p15
aVhttp://www.gutenberg.org/files/40969/40969-h/images/illus1.jpg
p16
aVhttp://www.gutenberg.org/files/40969/40969-h/images/illus2.jpg
p17
asS'language_code'
p18
Ven-US
p19
sS'images'
p20
(lp21
sS'id'
p22
I637
sS'category'
p23
VText
p24
sS'genres'
p25
(lp26
sS'copyright'
p27
VPublic domain in the USA.
p28
sS'title'
p29
VThe Mating of the Moons
p30
sS'wikipedia'
p31
(dp32
S'found'
p33
I00
ssS'average_rating'
p34
F4.11
sS'rating_count'
p35
I1115
sS'content_available'
p36
I01
sS'cover_art_url'
p37
S'http://www.gutenberg.org/cache/epub/40969/pg40969.cover.medium.jpg'
p38
sS'goodreads'
p39
(dp40
S'url'
p41
Vhttps://www.goodreads.com/book/show/15710530-mating-instinct
p42
sg33
I01
sS'year'
p43
I2013
ssS'similar_books'
p44
(lp45
VTempting His Mate (Crescent Moon, #3)
p46
aVThe Werewolf's Wife
p47
aVEternal Demon (Mark of the Vampire, #5)
p48
aVHunter's Heart (Alpha Pack, #4)
p49
aVMoonlight (Moon, #1)
p50
aVEnemy Mine (Alpha and Omega, #2)
p51
aVA Howl for a Highlander (Heart of the Wolf, #10)
p52
aVDire Desires (Eternal Wolf Clan, #3)
p53
aVRaphael/Parish (Bayou Heat, #1-2)
p54
aVBlurred Expectations (Redwood Pack, #3.5)
p55
aVPack Enforcer (Were Chronicles, #2)
p56
aVWulfe Untamed (Feral Warriors, #8)
p57
aVAvenging Angel (The Fallen, #4)
p58
aVKane's Mate (Armageddon Mates, #1)
p59
aVSilver Mine (Takhini Wolves, #2)
p60
asS'description'
p61
V<i>As the beast within struggles to break free, he must learn to be what she needs...</i><br /><br />Surviving for centuries, powerful lupine shifter Jayce Kazan managed to stay away from humans until he met Kat Saburova and was consumed by the need to protect her. But while Jayce shared his passion with the human seer, he refused to make her his bondmate\u2014a refusal that caused the end of their relationship.<br /><br />A year later, an attack that left Kat near death has resulted in another lupine shifter turning her. Furious that he wasn\u2019t the one to save her, Jayce is determined to show Kat that he is the one she should rely on. But the newly turned shifter is still traumatized and worried that she\u2019ll hurt those she loves, unless she can learn to control her inner wolf.<br /><br />And as Jayce struggles to protect Kat from her own worst instincts and convince her to rekindle their love, the extremists who almost killed her are looking to finish the job\u2026
p62
sS'format'
p63
VMass Market Paperback
p64
sS'gutenberg'
p65
(dp66
g41
Vhttp://www.gutenberg.org/ebooks/40969
p67
sS'num'
p68
I40969
ssS'authors'
p69
(lp70
I88
asS'pages'
p71
I348
sS'isbn13'
p72
V9780451239600
p73
sS'language'
p74
VEnglish
p75
sS'countries'
p76
(lp77
I2
asS'release_date'
p78
S'2012-10-07T00:00:00'
p79
sS'author'
p80
I88
sS'content_cleaned'
p81
I01
sS'classes'
p82
(lp83
Vto-read
p84
aVparanormal-romance
p85
aVparanormal
p86
aVshifters
p87
aVromance
p88
aVwerewolves
p89
aVcurrently-reading
p90
aVkatie-reus
p91
aVfavorites
p92
aVshapeshifters
p93
aVfantasy
p94
aVkindle
p95
aVurban-fantasy
p96
aVvampires
p97
aVshifter
p98
aVpnr
p99
aVseries
p100
aVwerewolf
p101
aVebook
p102
aVmoon-shifter
p103
aVlibrary
p104
aVadult
p105
aVwish-list
p106
aVfiction
p107
aVsuspense
p108
aVreus-katie
p109
aVsupernatural
p110
aVread-in-2014
p111
aVshifter-romance
p112
aVbooks-i-own
p113
aVfirst-reads
p114
aVread-in-2013
p115
aVpart-of-a-series
p116
aVhave
p117
aVauthor-katie-reus
p118
aVcontemporary
p119
aVshape-shifters
p120
aVsigned-by-the-author
p121
aVowned-books
p122
aV4-star
p123
aVromantic-suspense
p124
aVshape-shifter
p125
aVebooks
p126
aVhot
p127
aVbad-boy
p128
aV2013-releases
p129
aVread-2017
p130
aVneed
p131
aVread-in-2016
p132
aV3-stars
p133
aVfantasy-romance
p134
aVown-it
p135
aVto-read-paranormal
p136
aVdefault
p137
aVbooks
p138
aVnook-books
p139
aVdnf
p140
aVwerewolf-shifter
p141
aVto-read-own
p142
aVread-next
p143
aVbought
p144
aVparanormal-suspense
p145
aVromance-shifters
p146
aVromance-paranormal
p147
aVnext-in-a-series
p148
aValpha-male
p149
aVowned
p150
aVmoon-shifters
p151
aVe-book
p152
aVaction
p153
aVfantasy-paranormal
p154
aVshapeshifter
p155
aV2013-read
p156
aVgenre-paranormal-romance
p157
aVvampire
p158
aVfavorite-books
p159
aVarc
p160
aVpnr-uf
p161
aVnetgalley
p162
aVcheck-out
p163
aVpre-ordered
p164
aVpaperback
p165
aVmaybe
p166
aVparanormal-series
p167
aVadult-paranormal
p168
aVwant-to-buy
p169
aVlibrary-books-finished
p170
aV2017-reading-challenge
p171
aV00-average-review
p172
aVprnml-romance
p173
aVpara-shifters-pack
p174
aVparanormal-fanasty
p175
aVowned-to-read-physical
p176
aVnook
p177
aVrereads-tbr
p178
aVobol
p179
aVtheme-trauma
p180
aVaverage-2017
p181
aVsupernatural-paranormal
p182
aV2017-challenge
p183
asS'loc_class'
p184
VPS: Language and Literatures: American and Canadian literature
p185
sS'n_authors'
p186
I1
sb.