ccopy_reg
_reconstructor
p0
(cdataset.Book
Book
p1
c__builtin__
object
p2
Ntp3
Rp4
(dp5
S'content_name'
p6
V26772.txt.utf-8
p7
sS'isbn'
p8
V0690007892
p9
sS'year'
p10
I1975
sS'author_name'
p11
VJesse F. Bone
p12
sS'images_urls'
p13
(lp14
Vhttp://www.gutenberg.org/files/26772/26772-h/images/001.png
p15
aVhttp://www.gutenberg.org/files/26772/26772-h/images/002.png
p16
aVhttp://www.gutenberg.org/files/26772/26772-h/images/003-1.jpg
p17
aVhttp://www.gutenberg.org/files/26772/26772-h/images/003-2.jpg
p18
aVhttp://www.gutenberg.org/files/26772/26772-page-images/c0001-image1.jpg
p19
aVhttp://www.gutenberg.org/files/26772/26772-page-images/p0008.png
p20
aVhttp://www.gutenberg.org/files/26772/26772-page-images/p0009-image1.png
p21
aVhttp://www.gutenberg.org/files/26772/26772-page-images/p0009.png
p22
aVhttp://www.gutenberg.org/files/26772/26772-page-images/p0010.png
p23
aVhttp://www.gutenberg.org/files/26772/26772-page-images/p0011.png
p24
aVhttp://www.gutenberg.org/files/26772/26772-page-images/p0012.png
p25
aVhttp://www.gutenberg.org/files/26772/26772-page-images/p0013.png
p26
aVhttp://www.gutenberg.org/files/26772/26772-page-images/p0014.png
p27
aVhttp://www.gutenberg.org/files/26772/26772-page-images/p0015.png
p28
aVhttp://www.gutenberg.org/files/26772/26772-page-images/p0016.png
p29
aVhttp://www.gutenberg.org/files/26772/26772-page-images/p0017.png
p30
aVhttp://www.gutenberg.org/files/26772/26772-page-images/p0018.png
p31
aVhttp://www.gutenberg.org/files/26772/26772-page-images/p0019.png
p32
aVhttp://www.gutenberg.org/files/26772/26772-page-images/p0020.png
p33
aVhttp://www.gutenberg.org/files/26772/26772-page-images/p0021.png
p34
aVhttp://www.gutenberg.org/files/26772/26772-page-images/p0022.png
p35
aVhttp://www.gutenberg.org/files/26772/26772-page-images/p0023.png
p36
aVhttp://www.gutenberg.org/files/26772/26772-page-images/p0024.png
p37
aVhttp://www.gutenberg.org/files/26772/26772-page-images/p0025-image1.png
p38
aVhttp://www.gutenberg.org/files/26772/26772-page-images/p0025.png
p39
aVhttp://www.gutenberg.org/files/26772/26772-page-images/p0026.png
p40
aVhttp://www.gutenberg.org/files/26772/26772-page-images/p0027.png
p41
aVhttp://www.gutenberg.org/files/26772/26772-page-images/p0028.png
p42
aVhttp://www.gutenberg.org/files/26772/26772-page-images/p0029.png
p43
asS'language_code'
p44
NsS'images'
p45
(lp46
sS'id'
p47
I658
sS'category'
p48
VText
p49
sS'genres'
p50
(lp51
sS'copyright'
p52
VPublic domain in the USA.
p53
sS'title'
p54
VA Question of Courage
p55
sS'wikipedia'
p56
(dp57
S'url'
p58
Vhttps://en.wikipedia.org/wiki/Profiles_in_Courage
p59
sS'found'
p60
I01
sS'year'
p61
I-1
ssS'published_in'
p62
NsS'average_rating'
p63
F3.29
sS'rating_count'
p64
I19
sS'content_available'
p65
I01
sS'goodreads'
p66
(dp67
g58
Vhttps://www.goodreads.com/book/show/3758553-a-question-of-courage
p68
sg60
I01
sg61
I1975
ssS'similar_books'
p69
(lp70
sS'description'
p71
NsS'format'
p72
VHardcover
p73
sS'gutenberg'
p74
(dp75
g58
Vhttp://www.gutenberg.org/ebooks/26772
p76
sS'num'
p77
I26772
ssS'authors'
p78
(lp79
I68
asS'pages'
p80
I208
sS'isbn13'
p81
V9780690007893
p82
sS'language'
p83
VEnglish
p84
sS'countries'
p85
(lp86
I2
asS'release_date'
p87
S'2008-10-04T00:00:00'
p88
sS'author'
p89
I68
sS'original_title'
p90
VProfiles in Courage
p91
sS'summary'
p92
VProfiles in Courage is a 1957 Pulitzer Prize-winning volume of short biographies describing acts of bravery and integrity by eight United States Senators. The book profiles senators who defied the opinions of their party and constituents to do what they felt was right and suffered severe criticism and losses in popularity because of their actions. It begins with a quote from Edmund Burke on the courage of the English statesman Charles James Fox, in his 1783 attack upon the tyranny of the East India Company in the House of Commons.\u000aThe book focuses intensely on mid-19th century antebellum America and the efforts of Senators to delay the Civil War. Profiles was widely celebrated and became a best seller.\u000aJohn F. Kennedy is credited as the author, although the extent of his contribution has been questioned. In his 2008 autobiography, Kennedy's speechwriter Ted Sorensen wrote that, while Kennedy provided the theme and supervised its production, Sorensen had written most of the book.
p93
sS'content_cleaned'
p94
I01
sS'classes'
p95
(lp96
Vto-read
p97
aVcurrently-reading
p98
aVhistorical
p99
aVya
p100
aV1970s
p101
aVchapter4-got-older
p102
aVfiction-novels
p103
aVread-before-2000
p104
aVuk
p105
aVpolitics
p106
aVhistory
p107
aVfiction
p108
aVfeminism-gender
p109
aVchildren-s
p110
asS'loc_class'
p111
VPS: Language and Literatures: American and Canadian literature
p112
sS'n_authors'
p113
I1
sb.