ccopy_reg
_reconstructor
p0
(cdataset.Book
Book
p1
c__builtin__
object
p2
Ntp3
Rp4
(dp5
S'similar_books'
p6
(lp7
sS'genres'
p8
(lp9
sS'author'
p10
I302
sS'countries'
p11
(lp12
I2
asS'year'
p13
I1954
sS'title'
p14
VGalaxy Magazine March 1954
p15
sS'cover'
p16
Vhttps://ia600208.us.archive.org/BookReader/BookReaderImages.php?zip=/0/items/Galaxy_v07n06_1954-03/Galaxy_v07n06_1954-03_jp2.zip&file=Galaxy_v07n06_1954-03_jp2/Galaxy_v07n06_1954-03_0000.jp2&scale=0&rotate=0
p17
sS'cover_art'
p18
S'http://www.isfdb.org/wiki/images/0/0e/MLO4330.jpg'
p19
sS'author_name'
p20
VGalaxy Magazine
p21
sS'images_urls'
p22
(lp23
sS'authors'
p24
(lp25
I431
aI436
aI433
aI412
aI402
aI305
aI326
aI339
aI340
aI445
aI91
aI341
aI446
aI447
aI302
asS'images'
p26
(lp27
sS'id'
p28
I1014
sS'contents'
p29
(lp30
(dp31
g10
I431
sg14
VThe Telenizer
p32
sa(dp33
g10
I431
sg14
VThe Telenizer [2]
p34
sa(dp35
g10
I431
sg14
VThe Telenizer [3]
p36
sa(dp37
g10
I436
sg14
VThe Littlest People
p38
sa(dp39
g10
I436
sg14
VThe Littlest People [2]
p40
sa(dp41
g10
I433
sg14
VIronclad
p42
sa(dp43
g10
I433
sg14
VIronclad [2]
p44
sa(dp45
g10
I433
sg14
VIronclad [3]
p46
sa(dp47
g10
I433
sg14
VIronclad [4]
p48
sa(dp49
g10
I412
sg14
VThe Merchants of Venus
p50
sa(dp51
g10
I402
sg14
VThe Education of Drusilla Strange
p52
sa(dp53
g10
I402
sg14
VThe Education of Drusilla Strange [2]
p54
sa(dp55
g10
I402
sg14
VThe Education of Drusilla Strange [3]
p56
sa(dp57
g10
I402
sg14
VThe Education of Drusilla Strange [4]
p58
sa(dp59
g10
I402
sg14
VThe Education of Drusilla Strange [5]
p60
sa(dp61
g10
I402
sg14
VThe Education of Drusilla Strange [6]
p62
sa(dp63
g10
I305
sg14
VMoving Day (Ii)
p64
sa(dp65
g10
I326
sg14
VForecast (Galaxy, March 1954)
p66
sa(dp67
g10
I339
sg14
VFor Your Information: The 7-Cornered Polygon
p68
sa(dp69
g10
I340
sg14
VGalaxy's 5 Star Shelf (Galaxy, March 1954)
p70
sa(dp71
g10
I445
sg14
VThe Telenizer
p72
sa(dp73
g10
I91
sg14
VIronclad
p74
sa(dp75
g10
I341
sg14
VThe Education of Drusilla Strange
p76
sa(dp77
g10
I446
sg14
VThe Littlest People
p78
sa(dp79
g10
I447
sg14
VThe Merchants of Venus
p80
sasb.