ccopy_reg
_reconstructor
p0
(cdataset.Book
Book
p1
c__builtin__
object
p2
Ntp3
Rp4
(dp5
S'content_name'
p6
V24913.txt.utf-8
p7
sS'isbn'
p8
V1406311529
p9
sS'year'
p10
I1949
sS'author_name'
p11
VS. M. Tenneshaw
p12
sS'images_urls'
p13
(lp14
Vhttp://www.gutenberg.org/files/24913/24913-h/images/001.png
p15
aVhttp://www.gutenberg.org/files/24913/24913-h/images/002-1.jpg
p16
aVhttp://www.gutenberg.org/files/24913/24913-h/images/002-2.jpg
p17
asS'language_code'
p18
Veng
p19
sS'images'
p20
(lp21
sS'id'
p22
I291
sS'category'
p23
VText
p24
sS'genres'
p25
(lp26
sS'copyright'
p27
VPublic domain in the USA.
p28
sS'title'
p29
VThe Monster
p30
sS'wikipedia'
p31
(dp32
S'url'
p33
Vhttps://en.wikipedia.org/wiki/Monster_Manual
p34
sS'found'
p35
I01
sS'year'
p36
I-1
ssS'published_in'
p37
NsS'average_rating'
p38
F4.36
sS'rating_count'
p39
I104977
sS'content_available'
p40
I01
sS'goodreads'
p41
(dp42
g33
Vhttps://www.goodreads.com/book/show/8621462-a-monster-calls
p43
sg35
I01
sg36
I2011
ssS'similar_books'
p44
(lp45
VThe Curse of the Wendigo (The Monstrumologist, #2)
p46
aVEverybody Sees the Ants
p47
aVLips Touch: Three Times
p48
aVFroi of the Exiles (Lumatere Chronicles, #2)
p49
aVOkay for Now
p50
aVAddie on the Inside (The Misfits, #3)
p51
aVBog Child
p52
aVCuckoo Song
p53
aVNo Crystal Stair: A Documentary Novel of the Life and Work of Lewis Michaux, Harlem Bookseller
p54
aVMidwinterblood
p55
aVFury
p56
aVThe Reluctant Journal of Henry K. Larsen
p57
aVMy Name Is Mina (Skellig, #0.5)
p58
aVBluefish
p59
aVHidden
p60
aVRotters
p61
aVChime
p62
aVTales from Outer Suburbia
p63
asS'description'
p64
VThe monster showed up after midnight. As they do.<br /><br />But it isn\u2019t the monster Conor\u2019s been expecting. He\u2019s been expecting the one from his nightmare, the one he\u2019s had nearly every night since his mother started her treatments, the one with the darkness and the wind and the screaming\u2026<br /><br />This monster is something different, though. Something ancient, something wild. And it wants the most dangerous thing of all from Conor.<br /><br />It wants the truth.
p65
sS'format'
p66
VHardcover
p67
sS'gutenberg'
p68
(dp69
g33
Vhttp://www.gutenberg.org/ebooks/24913
p70
sS'num'
p71
I24913
ssS'authors'
p72
(lp73
I93
asS'pages'
p74
I216
sS'isbn13'
p75
V9781406311525
p76
sS'language'
p77
VEnglish
p78
sS'countries'
p79
(lp80
I2
asS'release_date'
p81
S'2008-03-25T00:00:00'
p82
sS'author'
p83
I93
sS'original_title'
p84
VMonster Manual
p85
sS'summary'
p86
VThe Monster Manual (MM) is the primary bestiary sourcebook for monsters in the Dungeons & Dragons (D&D) fantasy role-playing game, first published in 1977 by TSR. It includes monsters derived from mythology, and folklore, as well as creatures created for D&D specifically. It describes each with game-specific statistics (such as the monster's level or number of hit dice), and a brief description of its habits and habitats. Most of the entries also have an image of the creature. Along with the Player's Handbook and Dungeon Master's Guide, it is one of the three "core rulebooks" in most editions of the D&D game. Several editions of the Monster Manual have been released for each edition of D&D. It was the first hardcover book of the D&D series. Due to the level of detail and illustration included, it was cited as a pivotal example of a new style of wargame books. Future editions would draw on various sources and act as a compendium of published monsters.
p87
sS'content_cleaned'
p88
I01
sS'classes'
p89
(lp90
Vfavorites
p91
aVfantasy
p92
aVcurrently-reading
p93
aVto-read
p94
aVya
p95
aVfiction
p96
aVhorror
p97
aVbooks-i-own
p98
aVyoung-adult
p99
aVfavourites
p100
aVcontemporary
p101
aVowned
p102
aVmiddle-grade
p103
aVto-buy
p104
aVread-in-2016
p105
aVmade-me-cry
p106
aVlibrary
p107
aVmagical-realism
p108
aVchildrens
p109
aVowned-books
p110
aVparanormal
p111
aVread-in-2017
p112
aVdeath
p113
aVread-in-2015
p114
aVchildren
p115
aVwish-list
p116
aVbook-club
p117
aVteen
p118
aV5-stars
p119
aVstand-alone
p120
aVread-2016
p121
aVebook
p122
aVread-in-2014
p123
aVfamily
p124
aVgrief
p125
aVchildren-s
p126
aVya-fiction
p127
aVaudiobook
p128
aVcoming-of-age
p129
aVgraphic-novels
p130
aVcancer
p131
aVaudiobooks
p132
aVread-2017
p133
aVrealistic-fiction
p134
aV2016-reads
p135
aVdrama
p136
aVread-in-2012
p137
aVall-time-favorites
p138
aVfavorite
p139
aVi-own
p140
aVsupernatural
p141
aV2017-reads
p142
aVyoung-adult-fiction
p143
aVillustrated
p144
aVread-2015
p145
aVlibrary-books
p146
aVebooks
p147
aVreviewed
p148
aVstandalone
p149
aVfavorite-books
p150
aVread-in-english
p151
aVbullying
p152
aVread-in-2013
p153
aVchildren-s-books
p154
aVya-fantasy
p155
aVstand-alones
p156
aVbooks-that-made-me-cry
p157
aVmonsters
p158
aVaudio
p159
aVmy-books
p160
aVenglish
p161
aVon-my-shelf
p162
aVgraphic-novel
p163
aVsad
p164
aVnovels
p165
aVmystery
p166
aVdark
p167
aVtbr
p168
aVmiddle-school
p169
aVya-lit
p170
aVmust-read
p171
aVmaybe
p172
aVfavoritos
p173
aV4-stars
p174
aVread-2014
p175
aVrecommended
p176
aV2015-reads
p177
aVi-cried
p178
aVstandalones
p179
aVborrowed
p180
aVya-books
p181
aVillness
p182
aVmy-library
p183
aVfavourite
p184
aVmale-pov
p185
aV2017-reading-challenge
p186
aVurban-fantasy
p187
aVteen-fiction
p188
aVbooks-13-25
p189
aVneed-to-buy
p190
asS'loc_class'
p191
VPS: Language and Literatures: American and Canadian literature
p192
sS'n_authors'
p193
I1
sb.