ccopy_reg
_reconstructor
p0
(cdataset.Book
Book
p1
c__builtin__
object
p2
Ntp3
Rp4
(dp5
S'content_name'
p6
V24495.txt.utf-8
p7
sS'isbn'
p8
NsS'year'
p9
I1955
sS'author_name'
p10
VNathaniel Gordon
p11
sS'images_urls'
p12
(lp13
Vhttp://www.gutenberg.org/files/24495/24495-h/images/gj001a.jpg
p14
asS'language_code'
p15
NsS'images'
p16
(lp17
sS'id'
p18
I951
sS'category'
p19
VText
p20
sS'genres'
p21
(lp22
sS'copyright'
p23
VPublic domain in the USA.
p24
sS'title'
p25
VThe Golden Judge
p26
sS'wikipedia'
p27
(dp28
S'found'
p29
I00
ssS'average_rating'
p30
F3.25
sS'rating_count'
p31
I4
sS'content_available'
p32
I01
sS'goodreads'
p33
(dp34
S'url'
p35
Vhttps://www.goodreads.com/book/show/6328970-the-golden-judge
p36
sg29
I01
sS'year'
p37
I2008
ssS'similar_books'
p38
(lp39
sS'description'
p40
NsS'format'
p41
NsS'gutenberg'
p42
(dp43
g35
Vhttp://www.gutenberg.org/ebooks/24495
p44
sS'num'
p45
I24495
ssS'authors'
p46
(lp47
I290
asS'isbn13'
p48
NsS'language'
p49
VEnglish
p50
sS'countries'
p51
(lp52
I3
asS'release_date'
p53
S'2008-02-02T00:00:00'
p54
sS'author'
p55
I290
sS'content_cleaned'
p56
I01
sS'classes'
p57
(lp58
Vcurrently-reading
p59
aVscience-fiction
p60
aVjunk
p61
aVon-tablet
p62
aVshould-try-to-read
p63
aVshort-story
p64
aVto-read
p65
aVtype-short-story
p66
asS'loc_class'
p67
VPZ: Language and Literatures: Juvenile belles lettres
p68
sS'n_authors'
p69
I1
sb.