ccopy_reg
_reconstructor
p0
(cdataset.Book
Book
p1
c__builtin__
object
p2
Ntp3
Rp4
(dp5
S'similar_books'
p6
(lp7
sS'genres'
p8
(lp9
sS'author'
p10
I302
sS'countries'
p11
(lp12
I2
asS'year'
p13
I1966
sS'title'
p14
VGalaxy Magazine October 1966
p15
sS'cover'
p16
Vhttps://ia800206.us.archive.org/BookReader/BookReaderImages.php?zip=/1/items/Galaxy_v25n01_1966-10/Galaxy_v25n01_1966-10_jp2.zip&file=Galaxy_v25n01_1966-10_jp2/Galaxy_v25n01_1966-10_0000.jp2&scale=0&rotate=0
p17
sS'cover_art'
p18
S'http://www.isfdb.org/wiki/images/f/f5/GALOCT66.jpg'
p19
sS'author_name'
p20
VGalaxy Magazine
p21
sS'images_urls'
p22
(lp23
sS'authors'
p24
(lp25
I545
aI497
aI499
aI581
aI612
aI40
aI339
aI326
aI91
aI604
aI613
aI602
aI384
aI89
aI542
aI302
asS'images'
p26
(lp27
sS'id'
p28
I1114
sS'contents'
p29
(lp30
(dp31
g10
I545
sg14
VThe Palace of Love (Part 1 of 3)
p32
sa(dp33
g10
I545
sg14
VThe Palace of Love (Part 1 of 3) [2]
p34
sa(dp35
g10
I497
sg14
VHow the Heroes Die
p36
sa(dp37
g10
I497
sg14
VHow the Heroes Die [2]
p38
sa(dp39
g10
I499
sg14
VA Recursion in Metastories
p40
sa(dp41
g10
I581
sg14
VThe Ship Who Killed
p42
sa(dp43
g10
I581
sg14
VThe Ship Who Killed [2]
p44
sa(dp45
g10
I499
sg14
VToo Many Esks
p46
sa(dp47
g10
I499
sg14
VToo Many Esks [2]
p48
sa(dp49
g10
I499
sg14
VToo Many Esks [3]
p50
sa(dp51
g10
I612
sg14
VPlanet of Fakers
p52
sa(dp53
g10
I40
sg14
VCauses
p54
sa(dp55
g10
I339
sg14
VFor Your Information: The Delayed Discovery
p56
sa(dp57
g10
I326
sg14
VForecast (Galaxy, October 1966)
p58
sa(dp59
g10
I91
sg14
VGalaxy Bookshelf (Galaxy, October 1966)
p60
sa(dp61
g10
I604
sg14
VHow the Heroes Die
p62
sa(dp63
g10
I613
sg14
VThe Ship Who Killed
p64
sa(dp65
g10
I602
sg14
VToo Many Esks
p66
sa(dp67
g10
I384
sg14
VPlanet of Fakers
p68
sa(dp69
g10
I89
sg14
VThe Palace of Love (Part 1 of 3)
p70
sa(dp71
g10
I542
sg14
VA Recursion in Metastories
p72
sasb.