ccopy_reg
_reconstructor
p0
(cdataset.Book
Book
p1
c__builtin__
object
p2
Ntp3
Rp4
(dp5
S'content_name'
p6
V28215.txt.utf-8
p7
sS'isbn'
p8
NsS'year'
p9
I1951
sS'author_name'
p10
VClifford D. Simak
p11
sS'images_urls'
p12
(lp13
Vhttp://www.gutenberg.org/files/28215/28215-h/images/001.jpg
p14
asS'language_code'
p15
Veng
p16
sS'id'
p17
I162
sS'category'
p18
VText
p19
sS'genres'
p20
(lp21
sS'copyright'
p22
VPublic domain in the USA.
p23
sS'title'
p24
VEmpire
p25
sS'wikipedia'
p26
(dp27
S'found'
p28
I00
ssS'average_rating'
p29
F4.43
sS'rating_count'
p30
I132
sS'content_available'
p31
I01
sS'goodreads'
p32
(dp33
S'url'
p34
S'https://www.goodreads.com/book/show/6139960-empire'
p35
sS'found'
p36
I01
ssS'similar_books'
p37
(lp38
VMen, Martians and Machines
p39
aVRogue Queen
p40
aVThe Big Jump
p41
aVStar Dragon
p42
aVThe Lion of Farside (Farside, #1)
p43
aVGrey
p44
aVWolfbane
p45
aVDoctor Who: Human Nature
p46
aVSome Will Not Die
p47
aVCity at World's End
p48
aVArkfall
p49
aVBadge of Infamy
p50
aVDangerous Days
p51
aVThe Messiah Choice
p52
aVShiva Descending
p53
aVThe Variable Man
p54
aVStorm
p55
asS'description'
p56
VIn a future time, the solar system is powered by one energy source, controlled by one huge organisation, which has plans to use this control to dominate the planets. Unknown to them, a couple of maverick scientists accidentally develop a completely new form of energy supply and threaten the corporation's monopoly. Naturally, the corporation can't allow this to happen... A stunning story about the manipulation of pure energy, climaxing in interstellar conflict.<br /><br />Approx. 5 hours
p57
sS'gutenberg'
p58
(dp59
S'url'
p60
Vhttp://www.gutenberg.org/ebooks/28215
p61
sS'num'
p62
I28215
ssS'authors'
p63
(lp64
I56
asS'isbn13'
p65
NsS'language'
p66
VEnglish
p67
sS'countries'
p68
(lp69
I2
asS'release_date'
p70
S'2009-02-28T00:00:00'
p71
sS'author'
p72
I56
sS'content_cleaned'
p73
I01
sS'classes'
p74
(lp75
Vto-read
p76
aVcurrently-reading
p77
aVsci-fi
p78
aVscience-fiction
p79
aVkindle
p80
aVebooks
p81
aVscifi
p82
aVsf
p83
aVebook
p84
aVowned
p85
aVhard-sf
p86
aVscifi-fantasy
p87
aVaudio-book
p88
aVspace-opera
p89
aVaudiobooks
p90
aVgolden-age-science-fiction
p91
aVsci-fi-classics
p92
aVtime-travel
p93
aVread-in-a-day
p94
aVscience-fiction-ebooks
p95
aVmelbourne
p96
aVfar-future
p97
aVepub
p98
aV20th-century-lit
p99
aVfiction
p100
aVclassic-sci-fi
p101
aVdnf
p102
aVc3
p103
aVno-audiobook-available
p104
aVfound-it
p105
aVnew
p106
aVwhere-grr-mine
p107
aVhow-audiobook
p108
aV2-process-add-other
p109
aVspace
p110
aVscience-fiction-fantasy
p111
aVscifi-to-read
p112
aVpsi-phi
p113
aVaudiobook
p114
aVclassic-sf
p115
aV2014-books-read
p116
aVbookclub-suggestions
p117
aVown-the-ibook
p118
aVlistened-to
p119
aVread-or-re-read-2014
p120
aVhistoric-challenge
p121
aVcorporate
p122
aVchallenge-2014
p123
aVebook-yes
p124
aVread-2013
p125
aV13
p126
aVsci-fi-or-speculative
p127
aVto-read_narrative
p128
aVaudio_from-other-source
p129
aVaudio_audible-available
p130
aV_ebook_kindle-available
p131
aV05-genre-scifi
p132
aVe-books
p133
aVgenre_sp_sci-fi-misc
p134
aVsoftcover
p135
aVshort
p136
aVhd
p137
aVunsorted
p138
aV\u043d\u0430\u0440\u0443\u0441\u0441\u043a\u043e\u043c
p139
aVscience
p140
aVowned-unread
p141
aVmy-covers
p142
aVlibrivox-to-read
p143
aVlingua-originale
p144
aVmass-romance
p145
aVcalibre
p146
aVe-book
p147
aVfantascienza
p148
aVnovels
p149
aVto-read-owned
p150
asS'loc_class'
p151
VPS: Language and Literatures: American and Canadian literature
p152
sS'n_authors'
p153
I1
sb.