ccopy_reg
_reconstructor
p0
(cdataset.Book
Book
p1
c__builtin__
object
p2
Ntp3
Rp4
(dp5
S'content_name'
p6
V21510.txt.utf-8
p7
sS'isbn'
p8
V0061969559
p9
sS'year'
p10
I1962
sS'author_name'
p11
VJames H. Schmitz
p12
sS'images_urls'
p13
(lp14
Vhttp://www.gutenberg.org/files/21510/21510-h/images/ace_books_logo.jpg
p15
aVhttp://www.gutenberg.org/files/21510/21510-h/images/ace_logo.jpg
p16
aVhttp://www.gutenberg.org/files/21510/21510-h/images/back_cover.jpg
p17
aVhttp://www.gutenberg.org/files/21510/21510-h/images/front_cover.jpg
p18
aVhttp://www.gutenberg.org/files/21510/21510-h/images/legacy_logo.jpg
p19
aVhttp://www.gutenberg.org/files/21510/21510-page-images/c001.png
p20
aVhttp://www.gutenberg.org/files/21510/21510-page-images/c002.png
p21
aVhttp://www.gutenberg.org/files/21510/21510-page-images/f001.png
p22
aVhttp://www.gutenberg.org/files/21510/21510-page-images/f002.png
p23
aVhttp://www.gutenberg.org/files/21510/21510-page-images/f003.png
p24
aVhttp://www.gutenberg.org/files/21510/21510-page-images/f004.png
p25
aVhttp://www.gutenberg.org/files/21510/21510-page-images/p001.png
p26
aVhttp://www.gutenberg.org/files/21510/21510-page-images/p002.png
p27
aVhttp://www.gutenberg.org/files/21510/21510-page-images/p003.png
p28
aVhttp://www.gutenberg.org/files/21510/21510-page-images/p004.png
p29
aVhttp://www.gutenberg.org/files/21510/21510-page-images/p005.png
p30
aVhttp://www.gutenberg.org/files/21510/21510-page-images/p006.png
p31
aVhttp://www.gutenberg.org/files/21510/21510-page-images/p007.png
p32
aVhttp://www.gutenberg.org/files/21510/21510-page-images/p008.png
p33
aVhttp://www.gutenberg.org/files/21510/21510-page-images/p009.png
p34
aVhttp://www.gutenberg.org/files/21510/21510-page-images/p010.png
p35
aVhttp://www.gutenberg.org/files/21510/21510-page-images/p011.png
p36
aVhttp://www.gutenberg.org/files/21510/21510-page-images/p012.png
p37
aVhttp://www.gutenberg.org/files/21510/21510-page-images/p013.png
p38
aVhttp://www.gutenberg.org/files/21510/21510-page-images/p014.png
p39
aVhttp://www.gutenberg.org/files/21510/21510-page-images/p015.png
p40
aVhttp://www.gutenberg.org/files/21510/21510-page-images/p016.png
p41
aVhttp://www.gutenberg.org/files/21510/21510-page-images/p017.png
p42
aVhttp://www.gutenberg.org/files/21510/21510-page-images/p018.png
p43
aVhttp://www.gutenberg.org/files/21510/21510-page-images/p019.png
p44
aVhttp://www.gutenberg.org/files/21510/21510-page-images/p020.png
p45
aVhttp://www.gutenberg.org/files/21510/21510-page-images/p021.png
p46
aVhttp://www.gutenberg.org/files/21510/21510-page-images/p022.png
p47
aVhttp://www.gutenberg.org/files/21510/21510-page-images/p023.png
p48
aVhttp://www.gutenberg.org/files/21510/21510-page-images/p024.png
p49
aVhttp://www.gutenberg.org/files/21510/21510-page-images/p025.png
p50
aVhttp://www.gutenberg.org/files/21510/21510-page-images/p026.png
p51
aVhttp://www.gutenberg.org/files/21510/21510-page-images/p027.png
p52
aVhttp://www.gutenberg.org/files/21510/21510-page-images/p028.png
p53
aVhttp://www.gutenberg.org/files/21510/21510-page-images/p029.png
p54
aVhttp://www.gutenberg.org/files/21510/21510-page-images/p030.png
p55
aVhttp://www.gutenberg.org/files/21510/21510-page-images/p031.png
p56
aVhttp://www.gutenberg.org/files/21510/21510-page-images/p032.png
p57
aVhttp://www.gutenberg.org/files/21510/21510-page-images/p033.png
p58
aVhttp://www.gutenberg.org/files/21510/21510-page-images/p034.png
p59
aVhttp://www.gutenberg.org/files/21510/21510-page-images/p035.png
p60
aVhttp://www.gutenberg.org/files/21510/21510-page-images/p036.png
p61
aVhttp://www.gutenberg.org/files/21510/21510-page-images/p037.png
p62
aVhttp://www.gutenberg.org/files/21510/21510-page-images/p038.png
p63
aVhttp://www.gutenberg.org/files/21510/21510-page-images/p039.png
p64
aVhttp://www.gutenberg.org/files/21510/21510-page-images/p040.png
p65
aVhttp://www.gutenberg.org/files/21510/21510-page-images/p041.png
p66
aVhttp://www.gutenberg.org/files/21510/21510-page-images/p042.png
p67
aVhttp://www.gutenberg.org/files/21510/21510-page-images/p043.png
p68
aVhttp://www.gutenberg.org/files/21510/21510-page-images/p044.png
p69
aVhttp://www.gutenberg.org/files/21510/21510-page-images/p045.png
p70
aVhttp://www.gutenberg.org/files/21510/21510-page-images/p046.png
p71
aVhttp://www.gutenberg.org/files/21510/21510-page-images/p047.png
p72
aVhttp://www.gutenberg.org/files/21510/21510-page-images/p048.png
p73
aVhttp://www.gutenberg.org/files/21510/21510-page-images/p049.png
p74
aVhttp://www.gutenberg.org/files/21510/21510-page-images/p050.png
p75
aVhttp://www.gutenberg.org/files/21510/21510-page-images/p051.png
p76
aVhttp://www.gutenberg.org/files/21510/21510-page-images/p052.png
p77
aVhttp://www.gutenberg.org/files/21510/21510-page-images/p053.png
p78
aVhttp://www.gutenberg.org/files/21510/21510-page-images/p054.png
p79
aVhttp://www.gutenberg.org/files/21510/21510-page-images/p055.png
p80
aVhttp://www.gutenberg.org/files/21510/21510-page-images/p056.png
p81
aVhttp://www.gutenberg.org/files/21510/21510-page-images/p057.png
p82
aVhttp://www.gutenberg.org/files/21510/21510-page-images/p058.png
p83
aVhttp://www.gutenberg.org/files/21510/21510-page-images/p059.png
p84
aVhttp://www.gutenberg.org/files/21510/21510-page-images/p060.png
p85
aVhttp://www.gutenberg.org/files/21510/21510-page-images/p061.png
p86
aVhttp://www.gutenberg.org/files/21510/21510-page-images/p062.png
p87
aVhttp://www.gutenberg.org/files/21510/21510-page-images/p063.png
p88
aVhttp://www.gutenberg.org/files/21510/21510-page-images/p064.png
p89
aVhttp://www.gutenberg.org/files/21510/21510-page-images/p065.png
p90
aVhttp://www.gutenberg.org/files/21510/21510-page-images/p066.png
p91
aVhttp://www.gutenberg.org/files/21510/21510-page-images/p067.png
p92
aVhttp://www.gutenberg.org/files/21510/21510-page-images/p068.png
p93
aVhttp://www.gutenberg.org/files/21510/21510-page-images/p069.png
p94
aVhttp://www.gutenberg.org/files/21510/21510-page-images/p070.png
p95
aVhttp://www.gutenberg.org/files/21510/21510-page-images/p071.png
p96
aVhttp://www.gutenberg.org/files/21510/21510-page-images/p072.png
p97
aVhttp://www.gutenberg.org/files/21510/21510-page-images/p073.png
p98
aVhttp://www.gutenberg.org/files/21510/21510-page-images/p074.png
p99
aVhttp://www.gutenberg.org/files/21510/21510-page-images/p075.png
p100
aVhttp://www.gutenberg.org/files/21510/21510-page-images/p076.png
p101
aVhttp://www.gutenberg.org/files/21510/21510-page-images/p077.png
p102
aVhttp://www.gutenberg.org/files/21510/21510-page-images/p078.png
p103
aVhttp://www.gutenberg.org/files/21510/21510-page-images/p079.png
p104
aVhttp://www.gutenberg.org/files/21510/21510-page-images/p080.png
p105
aVhttp://www.gutenberg.org/files/21510/21510-page-images/p081.png
p106
aVhttp://www.gutenberg.org/files/21510/21510-page-images/p082.png
p107
aVhttp://www.gutenberg.org/files/21510/21510-page-images/p083.png
p108
aVhttp://www.gutenberg.org/files/21510/21510-page-images/p084.png
p109
aVhttp://www.gutenberg.org/files/21510/21510-page-images/p085.png
p110
aVhttp://www.gutenberg.org/files/21510/21510-page-images/p086.png
p111
aVhttp://www.gutenberg.org/files/21510/21510-page-images/p087.png
p112
aVhttp://www.gutenberg.org/files/21510/21510-page-images/p088.png
p113
aVhttp://www.gutenberg.org/files/21510/21510-page-images/p089.png
p114
aVhttp://www.gutenberg.org/files/21510/21510-page-images/p090.png
p115
aVhttp://www.gutenberg.org/files/21510/21510-page-images/p091.png
p116
aVhttp://www.gutenberg.org/files/21510/21510-page-images/p092.png
p117
aVhttp://www.gutenberg.org/files/21510/21510-page-images/p093.png
p118
aVhttp://www.gutenberg.org/files/21510/21510-page-images/p094.png
p119
aVhttp://www.gutenberg.org/files/21510/21510-page-images/p095.png
p120
aVhttp://www.gutenberg.org/files/21510/21510-page-images/p096.png
p121
aVhttp://www.gutenberg.org/files/21510/21510-page-images/p097.png
p122
aVhttp://www.gutenberg.org/files/21510/21510-page-images/p098.png
p123
aVhttp://www.gutenberg.org/files/21510/21510-page-images/p099.png
p124
aVhttp://www.gutenberg.org/files/21510/21510-page-images/p100.png
p125
aVhttp://www.gutenberg.org/files/21510/21510-page-images/p101.png
p126
aVhttp://www.gutenberg.org/files/21510/21510-page-images/p102.png
p127
aVhttp://www.gutenberg.org/files/21510/21510-page-images/p103.png
p128
aVhttp://www.gutenberg.org/files/21510/21510-page-images/p104.png
p129
aVhttp://www.gutenberg.org/files/21510/21510-page-images/p105.png
p130
aVhttp://www.gutenberg.org/files/21510/21510-page-images/p106.png
p131
aVhttp://www.gutenberg.org/files/21510/21510-page-images/p107.png
p132
aVhttp://www.gutenberg.org/files/21510/21510-page-images/p108.png
p133
aVhttp://www.gutenberg.org/files/21510/21510-page-images/p109.png
p134
aVhttp://www.gutenberg.org/files/21510/21510-page-images/p110.png
p135
aVhttp://www.gutenberg.org/files/21510/21510-page-images/p111.png
p136
aVhttp://www.gutenberg.org/files/21510/21510-page-images/p112.png
p137
aVhttp://www.gutenberg.org/files/21510/21510-page-images/p113.png
p138
aVhttp://www.gutenberg.org/files/21510/21510-page-images/p114.png
p139
aVhttp://www.gutenberg.org/files/21510/21510-page-images/p115.png
p140
aVhttp://www.gutenberg.org/files/21510/21510-page-images/p116.png
p141
aVhttp://www.gutenberg.org/files/21510/21510-page-images/p117.png
p142
aVhttp://www.gutenberg.org/files/21510/21510-page-images/p118.png
p143
aVhttp://www.gutenberg.org/files/21510/21510-page-images/p119.png
p144
aVhttp://www.gutenberg.org/files/21510/21510-page-images/p120.png
p145
aVhttp://www.gutenberg.org/files/21510/21510-page-images/p121.png
p146
aVhttp://www.gutenberg.org/files/21510/21510-page-images/p122.png
p147
aVhttp://www.gutenberg.org/files/21510/21510-page-images/p123.png
p148
aVhttp://www.gutenberg.org/files/21510/21510-page-images/p124.png
p149
aVhttp://www.gutenberg.org/files/21510/21510-page-images/p125.png
p150
aVhttp://www.gutenberg.org/files/21510/21510-page-images/p126.png
p151
aVhttp://www.gutenberg.org/files/21510/21510-page-images/p127.png
p152
aVhttp://www.gutenberg.org/files/21510/21510-page-images/p128.png
p153
aVhttp://www.gutenberg.org/files/21510/21510-page-images/p129.png
p154
aVhttp://www.gutenberg.org/files/21510/21510-page-images/p130.png
p155
aVhttp://www.gutenberg.org/files/21510/21510-page-images/p131.png
p156
aVhttp://www.gutenberg.org/files/21510/21510-page-images/p132.png
p157
aVhttp://www.gutenberg.org/files/21510/21510-page-images/p133.png
p158
aVhttp://www.gutenberg.org/files/21510/21510-page-images/p134.png
p159
aVhttp://www.gutenberg.org/files/21510/21510-page-images/p135.png
p160
aVhttp://www.gutenberg.org/files/21510/21510-page-images/p136.png
p161
aVhttp://www.gutenberg.org/files/21510/21510-page-images/p137.png
p162
aVhttp://www.gutenberg.org/files/21510/21510-page-images/p138.png
p163
aVhttp://www.gutenberg.org/files/21510/21510-page-images/p139.png
p164
aVhttp://www.gutenberg.org/files/21510/21510-page-images/p140.png
p165
aVhttp://www.gutenberg.org/files/21510/21510-page-images/p141.png
p166
aVhttp://www.gutenberg.org/files/21510/21510-page-images/p142.png
p167
aVhttp://www.gutenberg.org/files/21510/21510-page-images/p143.png
p168
aVhttp://www.gutenberg.org/files/21510/21510-page-images/p144.png
p169
aVhttp://www.gutenberg.org/files/21510/21510-page-images/p145.png
p170
aVhttp://www.gutenberg.org/files/21510/21510-page-images/p146.png
p171
aVhttp://www.gutenberg.org/files/21510/21510-page-images/p147.png
p172
aVhttp://www.gutenberg.org/files/21510/21510-page-images/p148.png
p173
aVhttp://www.gutenberg.org/files/21510/21510-page-images/p149.png
p174
aVhttp://www.gutenberg.org/files/21510/21510-page-images/p150.png
p175
aVhttp://www.gutenberg.org/files/21510/21510-page-images/p151.png
p176
aVhttp://www.gutenberg.org/files/21510/21510-page-images/p152.png
p177
aVhttp://www.gutenberg.org/files/21510/21510-page-images/p153.png
p178
aVhttp://www.gutenberg.org/files/21510/21510-page-images/p154.png
p179
aVhttp://www.gutenberg.org/files/21510/21510-page-images/p155.png
p180
aVhttp://www.gutenberg.org/files/21510/21510-page-images/p156.png
p181
aVhttp://www.gutenberg.org/files/21510/21510-page-images/p157.png
p182
aVhttp://www.gutenberg.org/files/21510/21510-page-images/p158.png
p183
aVhttp://www.gutenberg.org/files/21510/21510-page-images/p159.png
p184
aVhttp://www.gutenberg.org/files/21510/21510-page-images/p160.png
p185
aVhttp://www.gutenberg.org/files/21510/21510-page-images/p161.png
p186
aVhttp://www.gutenberg.org/files/21510/21510-page-images/p162.png
p187
aVhttp://www.gutenberg.org/files/21510/21510-page-images/p163.png
p188
aVhttp://www.gutenberg.org/files/21510/21510-page-images/p164.png
p189
aVhttp://www.gutenberg.org/files/21510/21510-page-images/p165.png
p190
aVhttp://www.gutenberg.org/files/21510/21510-page-images/p166.png
p191
aVhttp://www.gutenberg.org/files/21510/21510-page-images/p167.png
p192
aVhttp://www.gutenberg.org/files/21510/21510-page-images/p168.png
p193
aVhttp://www.gutenberg.org/files/21510/21510-page-images/p169.png
p194
aVhttp://www.gutenberg.org/files/21510/21510-page-images/p170.png
p195
aVhttp://www.gutenberg.org/files/21510/21510-page-images/p171.png
p196
aVhttp://www.gutenberg.org/files/21510/21510-page-images/p172.png
p197
aVhttp://www.gutenberg.org/files/21510/21510-page-images/p173.png
p198
aVhttp://www.gutenberg.org/files/21510/21510-page-images/p174.png
p199
aVhttp://www.gutenberg.org/files/21510/21510-page-images/p175.png
p200
aVhttp://www.gutenberg.org/files/21510/21510-page-images/p176.png
p201
aVhttp://www.gutenberg.org/files/21510/21510-page-images/p177.png
p202
aVhttp://www.gutenberg.org/files/21510/21510-page-images/p178.png
p203
aVhttp://www.gutenberg.org/files/21510/21510-page-images/p179.png
p204
aVhttp://www.gutenberg.org/files/21510/21510-page-images/p180.png
p205
aVhttp://www.gutenberg.org/files/21510/21510-page-images/p181.png
p206
aVhttp://www.gutenberg.org/files/21510/21510-page-images/p182.png
p207
aVhttp://www.gutenberg.org/files/21510/21510-page-images/p183.png
p208
aVhttp://www.gutenberg.org/files/21510/21510-page-images/p184.png
p209
aVhttp://www.gutenberg.org/files/21510/21510-page-images/p185.png
p210
aVhttp://www.gutenberg.org/files/21510/21510-page-images/p186.png
p211
aVhttp://www.gutenberg.org/files/21510/21510-page-images/p187.png
p212
aVhttp://www.gutenberg.org/files/21510/21510-page-images/p188.png
p213
aVhttp://www.gutenberg.org/files/21510/21510-page-images/p189.png
p214
aVhttp://www.gutenberg.org/files/21510/21510-page-images/p190.png
p215
aVhttp://www.gutenberg.org/files/21510/21510-page-images/p191.png
p216
aVhttp://www.gutenberg.org/files/21510/21510-page-images/p192.png
p217
aVhttp://www.gutenberg.org/files/21510/21510-page-images/p193.png
p218
aVhttp://www.gutenberg.org/files/21510/21510-page-images/p194.png
p219
aVhttp://www.gutenberg.org/files/21510/21510-page-images/p195.png
p220
aVhttp://www.gutenberg.org/files/21510/21510-page-images/p196.png
p221
aVhttp://www.gutenberg.org/files/21510/21510-page-images/p197.png
p222
aVhttp://www.gutenberg.org/files/21510/21510-page-images/p198.png
p223
aVhttp://www.gutenberg.org/files/21510/21510-page-images/p199.png
p224
aVhttp://www.gutenberg.org/files/21510/21510-page-images/p200.png
p225
aVhttp://www.gutenberg.org/files/21510/21510-page-images/p201.png
p226
aVhttp://www.gutenberg.org/files/21510/21510-page-images/p202.png
p227
aVhttp://www.gutenberg.org/files/21510/21510-page-images/p203.png
p228
aVhttp://www.gutenberg.org/files/21510/21510-page-images/p204.png
p229
aVhttp://www.gutenberg.org/files/21510/21510-page-images/p205.png
p230
aVhttp://www.gutenberg.org/files/21510/21510-page-images/p206.png
p231
aVhttp://www.gutenberg.org/files/21510/21510-page-images/p207.png
p232
aVhttp://www.gutenberg.org/files/21510/21510-page-images/p208.png
p233
aVhttp://www.gutenberg.org/files/21510/21510-page-images/p209.png
p234
aVhttp://www.gutenberg.org/files/21510/21510-page-images/p210.png
p235
aVhttp://www.gutenberg.org/files/21510/21510-page-images/p211.png
p236
aVhttp://www.gutenberg.org/files/21510/21510-page-images/p212.png
p237
aVhttp://www.gutenberg.org/files/21510/21510-page-images/p213.png
p238
aVhttp://www.gutenberg.org/files/21510/21510-page-images/p214.png
p239
aVhttp://www.gutenberg.org/files/21510/21510-page-images/p215.png
p240
aVhttp://www.gutenberg.org/files/21510/21510-page-images/p216.png
p241
aVhttp://www.gutenberg.org/files/21510/21510-page-images/p217.png
p242
aVhttp://www.gutenberg.org/files/21510/21510-page-images/p218.png
p243
aVhttp://www.gutenberg.org/files/21510/21510-page-images/p219.png
p244
aVhttp://www.gutenberg.org/files/21510/21510-page-images/p220.png
p245
aVhttp://www.gutenberg.org/files/21510/21510-page-images/p221.png
p246
aVhttp://www.gutenberg.org/files/21510/21510-page-images/p222.png
p247
aVhttp://www.gutenberg.org/files/21510/21510-page-images/p223.png
p248
aVhttp://www.gutenberg.org/files/21510/21510-page-images/p224.png
p249
aVhttp://www.gutenberg.org/files/21510/21510-page-images/p225.png
p250
aVhttp://www.gutenberg.org/files/21510/21510-page-images/p226.png
p251
aVhttp://www.gutenberg.org/files/21510/21510-page-images/p227.png
p252
aVhttp://www.gutenberg.org/files/21510/21510-page-images/p228.png
p253
aVhttp://www.gutenberg.org/files/21510/21510-page-images/p229.png
p254
aVhttp://www.gutenberg.org/files/21510/21510-page-images/p230.png
p255
aVhttp://www.gutenberg.org/files/21510/21510-page-images/p231.png
p256
aVhttp://www.gutenberg.org/files/21510/21510-page-images/p232.png
p257
aVhttp://www.gutenberg.org/files/21510/21510-page-images/p233.png
p258
aVhttp://www.gutenberg.org/files/21510/21510-page-images/p234.png
p259
aVhttp://www.gutenberg.org/files/21510/21510-page-images/p235.png
p260
aVhttp://www.gutenberg.org/files/21510/21510-page-images/p236.png
p261
aVhttp://www.gutenberg.org/files/21510/21510-page-images/p237.png
p262
aVhttp://www.gutenberg.org/files/21510/21510-page-images/p238.png
p263
aVhttp://www.gutenberg.org/files/21510/21510-page-images/p239.png
p264
aVhttp://www.gutenberg.org/files/21510/21510-page-images/p240.png
p265
aVhttp://www.gutenberg.org/files/21510/21510-page-images/p241.png
p266
aVhttp://www.gutenberg.org/files/21510/21510-page-images/p242.png
p267
aVhttp://www.gutenberg.org/files/21510/21510-page-images/p243.png
p268
aVhttp://www.gutenberg.org/files/21510/21510-page-images/p244.png
p269
aVhttp://www.gutenberg.org/files/21510/21510-page-images/p245.png
p270
aVhttp://www.gutenberg.org/files/21510/21510-page-images/p246.png
p271
aVhttp://www.gutenberg.org/files/21510/21510-page-images/p247.png
p272
aVhttp://www.gutenberg.org/files/21510/21510-page-images/p248.png
p273
aVhttp://www.gutenberg.org/files/21510/21510-page-images/p249.png
p274
aVhttp://www.gutenberg.org/files/21510/21510-page-images/p250.png
p275
aVhttp://www.gutenberg.org/files/21510/21510-page-images/p251.png
p276
aVhttp://www.gutenberg.org/files/21510/21510-page-images/p252.png
p277
aVhttp://www.gutenberg.org/files/21510/21510-page-images/p253.png
p278
aVhttp://www.gutenberg.org/files/21510/21510-page-images/p254.png
p279
aVhttp://www.gutenberg.org/files/21510/21510-page-images/p255.png
p280
aVhttp://www.gutenberg.org/files/21510/21510-page-images/p256.png
p281
aVhttp://www.gutenberg.org/files/21510/21510-page-images/p257.png
p282
aVhttp://www.gutenberg.org/files/21510/21510-page-images/p258.png
p283
aVhttp://www.gutenberg.org/files/21510/21510-page-images/p259.png
p284
aVhttp://www.gutenberg.org/files/21510/21510-page-images/p260.png
p285
aVhttp://www.gutenberg.org/files/21510/21510-page-images/p261.png
p286
aVhttp://www.gutenberg.org/files/21510/21510-page-images/p262.png
p287
aVhttp://www.gutenberg.org/files/21510/21510-page-images/p263.png
p288
aVhttp://www.gutenberg.org/files/21510/21510-page-images/p264.png
p289
aVhttp://www.gutenberg.org/files/21510/21510-page-images/p265.png
p290
aVhttp://www.gutenberg.org/files/21510/21510-page-images/p266.png
p291
aVhttp://www.gutenberg.org/files/21510/21510-page-images/p267.png
p292
aVhttp://www.gutenberg.org/files/21510/21510-page-images/p268.png
p293
aVhttp://www.gutenberg.org/files/21510/21510-page-images/p269.png
p294
aVhttp://www.gutenberg.org/files/21510/21510-page-images/p270.png
p295
aVhttp://www.gutenberg.org/files/21510/21510-page-images/p271.png
p296
aVhttp://www.gutenberg.org/files/21510/21510-page-images/p272.png
p297
aVhttp://www.gutenberg.org/files/21510/21510-page-images/p273.png
p298
aVhttp://www.gutenberg.org/files/21510/21510-page-images/p274.png
p299
aVhttp://www.gutenberg.org/files/21510/21510-page-images/p275.png
p300
aVhttp://www.gutenberg.org/files/21510/21510-page-images/p276.png
p301
aVhttp://www.gutenberg.org/files/21510/21510-page-images/p277.png
p302
aVhttp://www.gutenberg.org/files/21510/21510-page-images/p278.png
p303
aVhttp://www.gutenberg.org/files/21510/21510-page-images/p279.png
p304
aVhttp://www.gutenberg.org/files/21510/21510-page-images/p280.png
p305
aVhttp://www.gutenberg.org/files/21510/21510-page-images/p281.png
p306
aVhttp://www.gutenberg.org/files/21510/21510-page-images/p282.png
p307
aVhttp://www.gutenberg.org/files/21510/21510-page-images/p283.png
p308
aVhttp://www.gutenberg.org/files/21510/21510-page-images/p284.png
p309
aVhttp://www.gutenberg.org/files/21510/21510-page-images/p285.png
p310
aVhttp://www.gutenberg.org/files/21510/21510-page-images/p286.png
p311
aVhttp://www.gutenberg.org/files/21510/21510-page-images/p287.png
p312
aVhttp://www.gutenberg.org/files/21510/21510-page-images/p288.png
p313
aVhttp://www.gutenberg.org/files/21510/21510-page-images/p289.png
p314
aVhttp://www.gutenberg.org/files/21510/21510-page-images/p290.png
p315
aVhttp://www.gutenberg.org/files/21510/21510-page-images/p291.png
p316
aVhttp://www.gutenberg.org/files/21510/21510-page-images/p292.png
p317
aVhttp://www.gutenberg.org/files/21510/21510-page-images/p293.png
p318
aVhttp://www.gutenberg.org/files/21510/21510-page-images/p294.png
p319
aVhttp://www.gutenberg.org/files/21510/21510-page-images/p295.png
p320
aVhttp://www.gutenberg.org/files/21510/21510-page-images/p296.png
p321
aVhttp://www.gutenberg.org/files/21510/21510-page-images/p297.png
p322
aVhttp://www.gutenberg.org/files/21510/21510-page-images/p298.png
p323
aVhttp://www.gutenberg.org/files/21510/21510-page-images/p299.png
p324
aVhttp://www.gutenberg.org/files/21510/21510-page-images/p300.png
p325
aVhttp://www.gutenberg.org/files/21510/21510-page-images/p301.png
p326
aVhttp://www.gutenberg.org/files/21510/21510-page-images/p302.png
p327
aVhttp://www.gutenberg.org/files/21510/21510-page-images/p303.png
p328
aVhttp://www.gutenberg.org/files/21510/21510-page-images/p304.png
p329
aVhttp://www.gutenberg.org/files/21510/21510-page-images/p305.png
p330
aVhttp://www.gutenberg.org/files/21510/21510-page-images/p306.png
p331
aVhttp://www.gutenberg.org/files/21510/21510-page-images/p307.png
p332
aVhttp://www.gutenberg.org/files/21510/21510-page-images/p308.png
p333
aVhttp://www.gutenberg.org/files/21510/21510-page-images/p309.png
p334
aVhttp://www.gutenberg.org/files/21510/21510-page-images/p310.png
p335
aVhttp://www.gutenberg.org/files/21510/21510-page-images/p311.png
p336
aVhttp://www.gutenberg.org/files/21510/21510-page-images/p312.png
p337
aVhttp://www.gutenberg.org/files/21510/21510-page-images/p313.png
p338
aVhttp://www.gutenberg.org/files/21510/21510-page-images/p314.png
p339
aVhttp://www.gutenberg.org/files/21510/21510-page-images/p315.png
p340
aVhttp://www.gutenberg.org/files/21510/21510-page-images/p316.png
p341
aVhttp://www.gutenberg.org/files/21510/21510-page-images/p317.png
p342
aVhttp://www.gutenberg.org/files/21510/21510-page-images/p318.png
p343
aVhttp://www.gutenberg.org/files/21510/21510-page-images/p319.png
p344
aVhttp://www.gutenberg.org/files/21510/21510-page-images/p320.png
p345
aVhttp://www.gutenberg.org/files/21510/21510-page-images/p321.png
p346
aVhttp://www.gutenberg.org/files/21510/21510-page-images/p322.png
p347
aVhttp://www.gutenberg.org/files/21510/21510-page-images/p323.png
p348
aVhttp://www.gutenberg.org/files/21510/21510-page-images/p324.png
p349
aVhttp://www.gutenberg.org/files/21510/21510-page-images/p325.png
p350
aVhttp://www.gutenberg.org/files/21510/21510-page-images/p326.png
p351
aVhttp://www.gutenberg.org/files/21510/21510-page-images/p327.png
p352
aVhttp://www.gutenberg.org/files/21510/21510-page-images/p328.png
p353
aVhttp://www.gutenberg.org/files/21510/21510-page-images/p329.png
p354
aVhttp://www.gutenberg.org/files/21510/21510-page-images/p330.png
p355
aVhttp://www.gutenberg.org/files/21510/21510-page-images/p331.png
p356
aVhttp://www.gutenberg.org/files/21510/21510-page-images/p332.png
p357
aVhttp://www.gutenberg.org/files/21510/21510-page-images/p333.png
p358
aVhttp://www.gutenberg.org/files/21510/21510-page-images/p334.png
p359
aVhttp://www.gutenberg.org/files/21510/21510-page-images/p335.png
p360
aVhttp://www.gutenberg.org/files/21510/21510-page-images/p336.png
p361
aVhttp://www.gutenberg.org/files/21510/21510-page-images/p337.png
p362
aVhttp://www.gutenberg.org/files/21510/21510-page-images/p338.png
p363
aVhttp://www.gutenberg.org/files/21510/21510-page-images/p339.png
p364
aVhttp://www.gutenberg.org/files/21510/21510-page-images/p340.png
p365
aVhttp://www.gutenberg.org/files/21510/21510-page-images/p341.png
p366
aVhttp://www.gutenberg.org/files/21510/21510-page-images/p342.png
p367
aVhttp://www.gutenberg.org/files/21510/21510-page-images/p343.png
p368
aVhttp://www.gutenberg.org/files/21510/21510-page-images/p344.png
p369
aVhttp://www.gutenberg.org/files/21510/21510-page-images/p345.png
p370
aVhttp://www.gutenberg.org/files/21510/21510-page-images/p346.png
p371
asS'language_code'
p372
Ven-US
p373
sS'images'
p374
(lp375
sS'id'
p376
I417
sS'category'
p377
VText
p378
sS'genres'
p379
(lp380
sS'copyright'
p381
VPublic domain in the USA.
p382
sS'title'
p383
VLegacy
p384
sS'wikipedia'
p385
(dp386
S'url'
p387
Vhttps://en.wikipedia.org/wiki/Legacy_(Michener_novel)
p388
sS'found'
p389
I01
sS'year'
p390
I-1
ssS'published_in'
p391
NsS'average_rating'
p392
F3.94
sS'rating_count'
p393
I253768
sS'content_available'
p394
I01
sS'cover_art_url'
p395
S'http://www.gutenberg.org/cache/epub/21510/pg21510.cover.medium.jpg'
p396
sS'goodreads'
p397
(dp398
g387
Vhttps://www.goodreads.com/book/show/7747374-i-am-number-four
p399
sg389
I01
sg390
I2010
ssS'similar_books'
p400
(lp401
VBrain Jack
p402
aVVariant (Variant, #1)
p403
aVWatch the Skies (Daniel X, #2)
p404
aVBeastly (Beastly, #1; Kendra Chronicles, #1)
p405
aVSeizure (Virals, #2)
p406
aVVortex (Tempest, #2)
p407
aVDualed (Dualed, #1)
p408
aVHallowed (Unearthly, #2)
p409
aVFirst Kill (The Slayer Chronicles, #1)
p410
aVDay of the Predator (TimeRiders, #2)
p411
aVLies (Gone, #3)
p412
aVGregor and the Marks of Secret (Underland Chronicles, #4)
p413
aVTiger's Quest (The Tiger Saga, #2)
p414
aVAdversary (Ganzfield, #2)
p415
aVUnWholly (Unwind, #2)
p416
aVThe Lost Saint (The Dark Divine, #2)
p417
aVRot & Ruin (Rot & Ruin, #1)
p418
aVHunger (Riders of the Apocalypse, #1)
p419
asS'description'
p420
VNine of us came here. We look like you. We talk like you. We live among you. But we are not you. We can do things you dream of doing. We have powers you dream of having. We are stronger and faster than anything you have ever seen. We are the superheroes you worship in movies and comic books--but we are real.<br /><br />Our plan was to grow, and train, and become strong, and become one, and fight them. But they found us and started hunting us first. Now all of us are running. Spending our lives in shadows, in places where no one would look, blending in. We have lived among you without you knowing.<br /><br />But <i>they</i> know.<br /><br />They caught Number One in Malaysia.<br />Number Two in England.<br />And Number Three in Kenya.<br />They killed them all.<br /><br />I am Number Four.<br /><br />I am next.
p421
sS'format'
p422
VHardcover
p423
sS'gutenberg'
p424
(dp425
g387
Vhttp://www.gutenberg.org/ebooks/21510
p426
sS'num'
p427
I21510
ssS'authors'
p428
(lp429
I136
asS'pages'
p430
I440
sS'isbn13'
p431
V9780061969553
p432
sS'language'
p433
VEnglish
p434
sS'countries'
p435
(lp436
I2
asS'release_date'
p437
S'2007-05-17T00:00:00'
p438
sS'author'
p439
I136
sS'original_title'
p440
VLegacy (Michener novel)
p441
sS'summary'
p442
VLegacy (1987) is a novel by American author James A. Michener. Set during the Iran\u2013Contra affair of the 1980s, the story follows Major Norman Starr, who is called to testify in front of a congressional committee to account for his involvement in covert military actions. The novel is interspersed with historical "flashbacks" as Major Starr reflects on his ancestors and their own roles in American history.
p443
sS'content_cleaned'
p444
I01
sS'classes'
p445
(lp446
Vto-read
p447
aVyoung-adult
p448
aVfantasy
p449
aVsci-fi
p450
aVscience-fiction
p451
aVya
p452
aVcurrently-reading
p453
aVbooks-i-own
p454
aVseries
p455
aValiens
p456
aVfiction
p457
aVfavorites
p458
aVromance
p459
aVparanormal
p460
aVadventure
p461
aVlorien-legacies
p462
aVteen
p463
aVread-in-2011
p464
aVaction
p465
aVscifi
p466
aVkindle
p467
aVsupernatural
p468
aVlibrary
p469
aVowned-books
p470
aVpittacus-lore
p471
aVdystopian
p472
aVto-buy
p473
aVfavourites
p474
aVmy-books
p475
aVebook
p476
aVi-own
p477
aVya-fiction
p478
aVaudiobook
p479
aVebooks
p480
aVsci-fi-fantasy
p481
aVdystopia
p482
aVowned
p483
aVurban-fantasy
p484
aVdnf
p485
aVdefault
p486
aValien
p487
aVyoung-adult-fiction
p488
aVwish-list
p489
aVaction-adventure
p490
aVya-fantasy
p491
aVdid-not-finish
p492
aVbooks
p493
aVi-am-number-four
p494
aVfavorite-books
p495
aVmagic
p496
aVaudiobooks
p497
aVaudio
p498
aVabandoned
p499
aVread-2011
p500
aVmovie
p501
aVread-in-2012
p502
aVfavorite
p503
aVmovies
p504
aVbook-to-movie
p505
aVya-books
p506
aVteen-fiction
p507
aVmy-library
p508
aVreviewed
p509
aVmaybe
p510
aVhigh-school
p511
aVfirst-in-series
p512
aVre-read
p513
aVe-book
p514
aVhave
p515
aVthriller
p516
aVfantasy-sci-fi
p517
aVe-books
p518
aVread-in-2014
p519
aVscifi-fantasy
p520
aVborrowed
p521
aVread-in-2013
p522
aV5-stars
p523
aVown-it
p524
aVmeh
p525
aVfriendship
p526
aVcontemporary
p527
aVya-lit
p528
aVpart-of-a-series
p529
aVbooks-to-movies
p530
aV2011-reads
p531
aVall-time-favorites
p532
aVmystery
p533
aVlorien-legacies-series
p534
aVread-in-2015
p535
aVsurvival
p536
aVsuper-powers
p537
aVbook-club
p538
aVya-sci-fi
p539
aVlove
p540
aVnook
p541
aVwant-to-read
p542
aVparanormal-romance
p543
aVbooks-i-have
p544
aVtbr
p545
aVmale-pov
p546
asS'loc_class'
p547
VPS: Language and Literatures: American and Canadian literature
p548
sS'n_authors'
p549
I1
sb.