ccopy_reg
_reconstructor
p0
(cdataset.Book
Book
p1
c__builtin__
object
p2
Ntp3
Rp4
(dp5
S'content_name'
p6
V31626.txt.utf-8
p7
sS'isbn'
p8
NsS'year'
p9
I1955
sS'author_name'
p10
VEvelyn E. Smith
p11
sS'images_urls'
p12
(lp13
Vhttp://www.gutenberg.org/files/31626/31626-h/images/cover.jpg
p14
aVhttp://www.gutenberg.org/files/31626/31626-h/images/illus1.jpg
p15
asS'language_code'
p16
Veng
p17
sS'images'
p18
(lp19
sS'id'
p20
I782
sS'category'
p21
VText
p22
sS'genres'
p23
(lp24
sS'copyright'
p25
VPublic domain in the USA.
p26
sS'title'
p27
VThe Vilbar Party
p28
sS'wikipedia'
p29
(dp30
S'found'
p31
I00
ssS'average_rating'
p32
F3.57
sS'rating_count'
p33
I4
sS'content_available'
p34
I01
sS'cover_art_url'
p35
S'http://www.gutenberg.org/cache/epub/31626/pg31626.cover.medium.jpg'
p36
sS'goodreads'
p37
(dp38
S'url'
p39
Vhttps://www.goodreads.com/book/show/13349675-the-vilbar-party
p40
sg31
I01
sS'year'
p41
I1953
ssS'similar_books'
p42
(lp43
sS'description'
p44
V"Nuts to you!" was what Narli knew Earthmen would tell him ... only it was frismil nuts!
p45
sS'gutenberg'
p46
(dp47
g39
Vhttp://www.gutenberg.org/ebooks/31626
p48
sS'num'
p49
I31626
ssS'authors'
p50
(lp51
I172
asS'pages'
p52
I20
sS'isbn13'
p53
NsS'language'
p54
VEnglish
p55
sS'countries'
p56
(lp57
I2
asS'release_date'
p58
S'2010-03-13T00:00:00'
p59
sS'author'
p60
I172
sS'cover'
p61
Vhttps://images.gr-assets.com/books/1325375421l/13349675.jpg
p62
sS'content_cleaned'
p63
I01
sS'classes'
p64
(lp65
Vto-read
p66
aVcurrently-reading
p67
aVscience-fiction
p68
aVsci-fi
p69
aVfiction
p70
aVebooks
p71
aV2011-reads
p72
asS'loc_class'
p73
VPS: Language and Literatures: American and Canadian literature
p74
sS'n_authors'
p75
I1
sb.