ccopy_reg
_reconstructor
p0
(cdataset.Book
Book
p1
c__builtin__
object
p2
Ntp3
Rp4
(dp5
S'similar_books'
p6
(lp7
sS'genres'
p8
(lp9
sS'author'
p10
I302
sS'countries'
p11
(lp12
I2
asS'year'
p13
I1974
sS'title'
p14
VGalaxy Magazine February 1974
p15
sS'cover'
p16
Vhttps://ia600207.us.archive.org/BookReader/BookReaderImages.php?zip=/10/items/Galaxy_v34n05_1974-02/Galaxy_v34n05_1974-02_jp2.zip&file=Galaxy_v34n05_1974-02_jp2/Galaxy_v34n05_1974-02_0000.jp2&scale=0&rotate=0
p17
sS'cover_art'
p18
S'http://www.isfdb.org/wiki/images/9/9d/GALFEB74.jpg'
p19
sS'author_name'
p20
VGalaxy Magazine
p21
sS'images_urls'
p22
(lp23
sS'authors'
p24
(lp25
I499
aI341
aI326
aI74
aI730
aI577
aI725
aI731
aI302
asS'images'
p26
(lp27
sS'id'
p28
I1169
sS'contents'
p29
(lp30
(dp31
S'title'
p32
VCreated Equal
p33
sS'author'
p34
I499
sa(dp35
g32
VDeathsong
p36
sg34
I499
sa(dp37
g32
VRivers of Damascus
p38
sg34
I499
sa(dp39
g32
VProtest
p40
sg34
I499
sa(dp41
g32
VInverted World (Part 3 of 4)
p42
sg34
I499
sa(dp43
g32
VGalaxy Bookshelf (Galaxy, February 1974)
p44
sg34
I341
sa(dp45
g32
VGalaxy Stars (Galaxy, February 1974)
p46
sg34
I326
sa(dp47
g32
VRivers of Damascus
p48
sg34
I74
sa(dp49
g32
VCreated Equal
p50
sg34
I730
sa(dp51
g32
VDeathsong
p52
sg34
I577
sa(dp53
g32
VInverted World (Part 3 of 4)
p54
sg34
I725
sa(dp55
g32
VProtest
p56
sg34
I731
sasb.