ccopy_reg
_reconstructor
p0
(cdataset.Book
Book
p1
c__builtin__
object
p2
Ntp3
Rp4
(dp5
S'content_name'
p6
V32032.txt.utf-8
p7
sS'isbn'
p8
NsS'year'
p9
I1953
sS'author_name'
p10
VPhilip K. Dick
p11
sS'images_urls'
p12
(lp13
Vhttp://www.gutenberg.org/files/32032/32032-h/images/cover.jpg
p14
aVhttp://www.gutenberg.org/files/32032/32032-h/images/illo1-left.jpg
p15
aVhttp://www.gutenberg.org/files/32032/32032-h/images/illo1-right.jpg
p16
aVhttp://www.gutenberg.org/files/32032/32032-h/images/illo1-sm.jpg
p17
aVhttp://www.gutenberg.org/files/32032/32032-h/images/illo2-sm.jpg
p18
aVhttp://www.gutenberg.org/files/32032/32032-h/images/illo2.jpg
p19
asS'language_code'
p20
Veng
p21
sS'images'
p22
(lp23
sS'id'
p24
I11
sS'category'
p25
VText
p26
sS'genres'
p27
(lp28
sS'copyright'
p29
VPublic domain in the USA.
p30
sS'title'
p31
VSecond Variety
p32
sS'wikipedia'
p33
(dp34
S'url'
p35
Vhttps://en.wikipedia.org/wiki/The_Best_of_Philip_K._Dick
p36
sS'found'
p37
I01
sS'year'
p38
I-1
ssS'published_in'
p39
NsS'average_rating'
p40
F3.96
sS'rating_count'
p41
I935
sS'content_available'
p42
I01
sS'cover_art_url'
p43
S'http://www.gutenberg.org/cache/epub/32032/pg32032.cover.medium.jpg'
p44
sS'goodreads'
p45
(dp46
g35
Vhttps://www.goodreads.com/book/show/8185014-second-variety
p47
sg37
I01
sg38
I1953
ssS'similar_books'
p48
(lp49
VPress Enter
p50
aVChristmas in the Trenches
p51
aVYouth
p52
aVThe Tunnel Under the World
p53
aVThe Order of Things: How Everything in the World Is Organized Into Hierarchies, Structures, and Pecking Orders
p54
aVWith Morning Comes Mistfall
p55
aVEven the Queen: & Other Short Stories
p56
aVThe Elephant Vanishes: Free Short Story
p57
aVThe Traveler
p58
aVThe U.S. Constitution: And Fascinating Facts about It
p59
aVSailing to Byzantium
p60
aVThe Dreaming Jewels
p61
aVThe Snows of Kilimanjaro/The Short Happy Life of Francis Macomber
p62
aVThe Children's Story
p63
aVDoctor Who and the Talons of Weng-Chiang
p64
aVThe Big Trip Up Yonder by Kurt Vonnegut, Science Fiction, Literary
p65
aVFairy Tales of Oscar Wilde: The Devoted Friend/The Nightingale and the Rose
p66
aVEight O'Clock in the Morning
p67
asS'description'
p68
NsS'format'
p69
VAudiobook
p70
sS'gutenberg'
p71
(dp72
g35
Vhttp://www.gutenberg.org/ebooks/32032
p73
sS'num'
p74
I32032
ssS'authors'
p75
(lp76
I8
asS'isbn13'
p77
NsS'language'
p78
VEnglish
p79
sS'country'
p80
I2
sS'release_date'
p81
S'2010-04-17T00:00:00'
p82
sS'author'
p83
I8
sS'original_title'
p84
VThe Best of Philip K. Dick
p85
sS'summary'
p86
VThe Best of Philip K. Dick is a collection of science fiction stories by Philip K. Dick. It was first published by Del Rey Books in 1977. Many of the stories had originally appeared in the magazines Planet Stories, Fantasy and Science Fiction, Space Science Fiction, Imagination, Astounding Stories, Galaxy Science Fiction, Amazing Stories, Science Fiction Stories and Startling Stories, as well as the anthologies Dangerous Visions and Star Science Fiction Stories No.3.
p87
sS'content_cleaned'
p88
I01
sS'classes'
p89
(lp90
Vto-read
p91
aVscience-fiction
p92
aVsci-fi
p93
aVshort-stories
p94
aVfiction
p95
aVcurrently-reading
p96
aVkindle
p97
aVpost-apocalyptic
p98
aVebook
p99
aVebooks
p100
aVscifi
p101
aVsf
p102
aVhorror
p103
aVdystopian
p104
aVsci-fi-fantasy
p105
aVe-book
p106
aVaudio
p107
aVpkd
p108
aVclassics
p109
aVaudiobooks
p110
aVfavorites
p111
aVshort-fiction
p112
aVaudiobook
p113
aVphilip-k-dick
p114
aVshorts
p115
aVdystopia
p116
aVaudio-books
p117
aVread-2016
p118
aVshort-story
p119
aVbooks-i-own
p120
aVshort
p121
aVwar
p122
aVscifi-fantasy
p123
aVscience-fiction-fantasy
p124
aVown-it
p125
aVlibrary
p126
aVe-books
p127
aVartificial-intelligence
p128
aVowned
p129
aVread-in-2016
p130
aVliterature
p131
aVfantasy
p132
aVowned-books
p133
aVauthor-male
p134
aVread-in-2015
p135
aVshort-reads
p136
aVibooks
p137
aVspeculative-fiction
p138
aVrobots
p139
aVread-in-english
p140
aVproject-gutenberg
p141
aVpost-apocalypse
p142
aVnovellas-short-stories
p143
aVmystery
p144
aVin-english
p145
aVenglish
p146
aVapocalyptic
p147
aVamazon
p148
aV2011-reads
p149
aV1950s
p150
aVonly-rated-yet
p151
aVaudiobooks-completed
p152
aVw-short
p153
aVread-misc
p154
aVauth-m
p155
aVgot-for-free
p156
aVunowned
p157
aVkindlecollection
p158
aVadult-fiction
p159
aV2010-pre-releases
p160
aVdystopian-delight
p161
aVto-read-fic
p162
aVmarathon
p163
aV2017-read
p164
aV2017-100-books
p165
aVread-ebook-online
p166
aVamerican
p167
aVgenre_sort
p168
aVdick-philip-k
p169
aVbooks-read-in-2017
p170
aVamerican-books
p171
aVunder-100
p172
aV0fiction-single
p173
aVsci-fi-earth-setting
p174
aVnovella
p175
aVmindblowing
p176
aVkinda-reading
p177
aVroman
p178
aVsyfy
p179
aVauthor-i-love
p180
aVfinished-in-2017
p181
aVzzz_recommendby2
p182
aVfinish-52-books-in-2017
p183
aVnot-reviewed
p184
aVand-kindle
p185
aVebook-mobile
p186
aV04-format-ebook
p187
aV02-origin-american
p188
aV01-genre-short-stories
p189
aV01-genre-scifi
p190
asS'loc_class'
p191
VPS: Language and Literatures: American and Canadian literature
p192
sS'n_authors'
p193
I1
sb.