ccopy_reg
_reconstructor
p0
(cdataset.Book
Book
p1
c__builtin__
object
p2
Ntp3
Rp4
(dp5
S'content_name'
p6
V51122.txt.utf-8
p7
sS'isbn'
p8
V0060574216
p9
sS'year'
p10
I1963
sS'author_name'
p11
VWilliam Tenn
p12
sS'images_urls'
p13
(lp14
Vhttp://www.gutenberg.org/files/51122/51122-h/images/cover.jpg
p15
aVhttp://www.gutenberg.org/files/51122/51122-h/images/illus1.jpg
p16
aVhttp://www.gutenberg.org/files/51122/51122-h/images/illus2.jpg
p17
aVhttp://www.gutenberg.org/files/51122/51122-h/images/illus3.jpg
p18
aVhttp://www.gutenberg.org/files/51122/51122-h/images/illus4.jpg
p19
asS'language_code'
p20
Ven-US
p21
sS'id'
p22
I682
sS'category'
p23
VText
p24
sS'genres'
p25
(lp26
sS'copyright'
p27
VPublic domain in the USA.
p28
sS'title'
p29
VThe Men in the Walls
p30
sS'wikipedia'
p31
(dp32
S'found'
p33
I00
ssS'average_rating'
p34
F3.52
sS'rating_count'
p35
I114072
sS'content_available'
p36
I01
sS'cover_art_url'
p37
S'http://www.gutenberg.org/cache/epub/51122/pg51122.cover.medium.jpg'
p38
sS'goodreads'
p39
(dp40
S'url'
p41
Vhttps://www.goodreads.com/book/show/1274.Men_Are_from_Mars_Women_Are_from_Venus
p42
sS'found'
p43
I01
sS'year'
p44
I1998
ssS'similar_books'
p45
(lp46
VWhy Men Don't Listen and Women Can't Read Maps: How We're Different and What to Do About It
p47
aVThe Dance Of Anger: A Woman's Guide to Changing the Patterns of Intimate Relationships
p48
aVLove Smart: Find the One You Want--Fix the One You Got
p49
aVDon't Sweat the Small Stuff ... and it's all small stuff: Simple Ways to Keep the Little Things from Taking Over Your Life
p50
aVGetting the Love You Want : A Guide for Couples
p51
aVTen Stupid Things Women Do to Mess Up Their Lives
p52
aVAct Like a Lady, Think Like a Man: What Men Really Think About Love, Relationships, Intimacy, and Commitment
p53
aVWhen I Say No, I Feel Guilty: How to Cope - Using the Skills of Systematic Assertive Therapy
p54
aVGames People Play
p55
aVHow to Talk to Anyone: 92 Little Tricks for Big Success in Relationships
p56
aVAku Terima Nikahnya
p57
aV1001 Ways to Be Romantic: Author's Annotated Edition
p58
aVThe 7 Habits of Highly Effective Families
p59
aVFeeling Good: The New Mood Therapy
p60
aVThe Personality Code
p61
aVLove Must Be Tough: New Hope for Families in Crisis
p62
aV! .. \u0639\u0634\u0627\u0646 \u0645\u0627 \u062a\u0646\u0636\u0631\u0628\u0634 \u0639\u0644\u0649 \u0642\u0641\u0627\u0643
p63
aVWhy Men Love Bitches: From Doormat to Dreamgirl\u2014A Woman's Guide to Holding Her Own in a Relationship
p64
asS'description'
p65
V<p>Once upon a time Martians and Venusians met, fell in love, and had happy relationships together because they respected and accepted their differences. Then they came to Earth and amnesia set in: they forgot they were from different planets.</p><p>Based on years of successful counseling of couples and individuals, <i>Men Are from Mars, Women Are from Venus</i> has helped millions of couples transform their relationships. Now viewed as a modern classic, this phenomenal book has helped men and women realize how different they really are and how to communicate their needs in such a way that conflict doesn't arise and intimacy is given every chance to grow!!!!</p>
p66
sS'format'
p67
NsS'gutenberg'
p68
(dp69
g41
Vhttp://www.gutenberg.org/ebooks/51122
p70
sS'num'
p71
I51122
ssS'authors'
p72
(lp73
I98
asS'isbn13'
p74
V9780060574215
p75
sS'language'
p76
VEnglish
p77
sS'countries'
p78
(lp79
I2
asS'release_date'
p80
S'2016-02-03T00:00:00'
p81
sS'author'
p82
I98
sS'content_cleaned'
p83
I01
sS'classes'
p84
(lp85
Vto-read
p86
aVcurrently-reading
p87
aVnon-fiction
p88
aVself-help
p89
aVpsychology
p90
aVrelationships
p91
aVnonfiction
p92
aVfavorites
p93
aVowned
p94
aVbooks-i-own
p95
aVdefault
p96
aVself-improvement
p97
aVmarriage
p98
aVpersonal-development
p99
aVrelationship
p100
aVself-development
p101
aVowned-books
p102
aVromance
p103
aVphilosophy
p104
aVto-buy
p105
aVmy-library
p106
aVunfinished
p107
aVmy-books
p108
aVenglish
p109
aV\u062a\u0646\u0645\u064a\u0629-\u0628\u0634\u0631\u064a\u0629
p110
aVsociology
p111
aVcommunication
p112
aVabandoned
p113
aVreference
p114
aVother
p115
aVi-own
p116
aVjohn-gray
p117
aVebook
p118
aVlife
p119
aVdid-not-finish
p120
aVbooks
p121
aV1
p122
aVlove
p123
aVchick-lit
p124
aVon-hold
p125
aVpsych
p126
aVlibrary
p127
aVaudiobook
p128
aVin-my-library
p129
aVpsychology-self-help
p130
aVfiction
p131
aVebooks
p132
aVpdf
p133
aVfamily
p134
aVaudiobooks
p135
aVaudio
p136
aVadult
p137
aVothers
p138
aVpersonal-growth
p139
aVwomen
p140
aVfinished
p141
aVbook-club
p142
aV\u062a\u0637\u0648\u064a\u0631-\u0627\u0644\u0630\u0627\u062a
p143
aVown-it
p144
aVnot-finished
p145
aVinspirational
p146
aVfavorite
p147
aVmine
p148
aVborrowed
p149
aVhealth
p150
aVpaused
p151
aVhome
p152
aVgave-up-on
p153
aVe-book
p154
aVenglish-books
p155
aVmisc
p156
aVclassics
p157
aVnever-finished
p158
aVself
p159
aVgender
p160
aVrecommended
p161
aV\u0645\u0643\u062a\u0628\u062a\u064a
p162
aVarabic-books
p163
aVsocial
p164
aVstopped-reading
p165
aVhome-library
p166
aVdnf
p167
aVamerican
p168
aVnon-fic
p169
aVself-help-books
p170
aVeducational
p171
aVarabic
p172
aVhave
p173
aVe-books
p174
aVdropped
p175
aVown-to-read
p176
aVpartially-read
p177
aVcontemporary
p178
aV\u0641\u064a-\u0645\u0643\u062a\u0628\u062a\u064a
p179
aVwant-to-read
p180
aVnot-completed
p181
aV\u062a\u0646\u0645\u064a\u0629-\u0630\u0627\u062a\u064a\u0629
p182
aVkindle
p183
aVaudio-books
p184
aVpsychologie
p185
asS'loc_class'
p186
S''
p187
sS'n_authors'
p188
I1
sb.