ccopy_reg
_reconstructor
p0
(cdataset.Book
Book
p1
c__builtin__
object
p2
Ntp3
Rp4
(dp5
S'content_name'
p6
V18641.txt.utf-8
p7
sS'isbn'
p8
V1428040595
p9
sS'year'
p10
I1959
sS'author_name'
p11
VJohn Joseph McGuire
p12
sS'images_urls'
p13
(lp14
Vhttp://www.gutenberg.org/files/18641/18641-h/images/ill_cover.jpg
p15
asS'language_code'
p16
NsS'images'
p17
(lp18
sS'id'
p19
I298
sS'category'
p20
VText
p21
sS'genres'
p22
(lp23
sS'copyright'
p24
VPublic domain in the USA.
p25
sS'title'
p26
VHunter Patrol
p27
sS'wikipedia'
p28
(dp29
S'found'
p30
I00
ssS'average_rating'
p31
F3.45
sS'rating_count'
p32
I41
sS'content_available'
p33
I01
sS'cover_art_url'
p34
S'http://www.gutenberg.org/cache/epub/18641/pg18641.cover.medium.jpg'
p35
sS'goodreads'
p36
(dp37
S'url'
p38
Vhttps://www.goodreads.com/book/show/1440165.Hunter_Patrol
p39
sg30
I01
sS'year'
p40
I1959
ssS'similar_books'
p41
(lp42
sS'description'
p43
NsS'gutenberg'
p44
(dp45
g38
Vhttp://www.gutenberg.org/ebooks/18641
p46
sS'num'
p47
I18641
ssS'authors'
p48
(lp49
I48
aI19
asS'pages'
p50
I38
sS'isbn13'
p51
V9781428040595
p52
sS'language'
p53
VEnglish
p54
sS'countries'
p55
(lp56
I2
asS'release_date'
p57
S'2006-06-21T00:00:00'
p58
sS'author'
p59
I48
sS'cover'
p60
Vhttps://images.gr-assets.com/books/1357525689l/1440165.jpg
p61
sS'content_cleaned'
p62
I01
sS'classes'
p63
(lp64
Vto-read
p65
aVscience-fiction
p66
aVcurrently-reading
p67
aVsci-fi
p68
aVtime-travel
p69
aVebooks
p70
aVshort-story
p71
aVscifi
p72
aVanthos-shorts
p73
aV2017-challenge-oldish
p74
aVaudio
p75
aVmy-books
p76
aVliterature-20th-century
p77
aVon-disk
p78
aVshort-stories
p79
aVsf-challenge
p80
aVsf
p81
aVscifi-fantasy
p82
aVacquired
p83
aVkindle
p84
aVebook
p85
asS'loc_class'
p86
VPS: Language and Literatures: American and Canadian literature
p87
sS'n_authors'
p88
I2
sb.