ccopy_reg
_reconstructor
p0
(cdataset.Book
Book
p1
c__builtin__
object
p2
Ntp3
Rp4
(dp5
S'content_name'
p6
V20856.txt.utf-8
p7
sS'isbn'
p8
NsS'year'
p9
I1963
sS'author_name'
p10
VPaul W. Fairman
p11
sS'images_urls'
p12
(lp13
Vhttp://www.gutenberg.org/files/20856/20856-h/images/frontis.jpg
p14
aVhttp://www.gutenberg.org/files/20856/20856-page-images/c001.jpg
p15
aVhttp://www.gutenberg.org/files/20856/20856-page-images/c002.png
p16
aVhttp://www.gutenberg.org/files/20856/20856-page-images/c003.png
p17
aVhttp://www.gutenberg.org/files/20856/20856-page-images/f001.png
p18
aVhttp://www.gutenberg.org/files/20856/20856-page-images/f002.png
p19
aVhttp://www.gutenberg.org/files/20856/20856-page-images/p005.png
p20
aVhttp://www.gutenberg.org/files/20856/20856-page-images/p006.png
p21
aVhttp://www.gutenberg.org/files/20856/20856-page-images/p007.png
p22
aVhttp://www.gutenberg.org/files/20856/20856-page-images/p008.png
p23
aVhttp://www.gutenberg.org/files/20856/20856-page-images/p009.png
p24
aVhttp://www.gutenberg.org/files/20856/20856-page-images/p010.png
p25
aVhttp://www.gutenberg.org/files/20856/20856-page-images/p011.png
p26
aVhttp://www.gutenberg.org/files/20856/20856-page-images/p012.png
p27
aVhttp://www.gutenberg.org/files/20856/20856-page-images/p013.png
p28
aVhttp://www.gutenberg.org/files/20856/20856-page-images/p014.png
p29
aVhttp://www.gutenberg.org/files/20856/20856-page-images/p015.png
p30
aVhttp://www.gutenberg.org/files/20856/20856-page-images/p016.png
p31
aVhttp://www.gutenberg.org/files/20856/20856-page-images/p017.png
p32
aVhttp://www.gutenberg.org/files/20856/20856-page-images/p018.png
p33
aVhttp://www.gutenberg.org/files/20856/20856-page-images/p019.png
p34
aVhttp://www.gutenberg.org/files/20856/20856-page-images/p020.png
p35
aVhttp://www.gutenberg.org/files/20856/20856-page-images/p021.png
p36
aVhttp://www.gutenberg.org/files/20856/20856-page-images/p022.png
p37
aVhttp://www.gutenberg.org/files/20856/20856-page-images/p023.png
p38
aVhttp://www.gutenberg.org/files/20856/20856-page-images/p024.png
p39
aVhttp://www.gutenberg.org/files/20856/20856-page-images/p025.png
p40
aVhttp://www.gutenberg.org/files/20856/20856-page-images/p026.png
p41
aVhttp://www.gutenberg.org/files/20856/20856-page-images/p027.png
p42
aVhttp://www.gutenberg.org/files/20856/20856-page-images/p028.png
p43
aVhttp://www.gutenberg.org/files/20856/20856-page-images/p029.png
p44
aVhttp://www.gutenberg.org/files/20856/20856-page-images/p030.png
p45
aVhttp://www.gutenberg.org/files/20856/20856-page-images/p031.png
p46
aVhttp://www.gutenberg.org/files/20856/20856-page-images/p032.png
p47
aVhttp://www.gutenberg.org/files/20856/20856-page-images/p033.png
p48
aVhttp://www.gutenberg.org/files/20856/20856-page-images/p034.png
p49
aVhttp://www.gutenberg.org/files/20856/20856-page-images/p035.png
p50
aVhttp://www.gutenberg.org/files/20856/20856-page-images/p036.png
p51
aVhttp://www.gutenberg.org/files/20856/20856-page-images/p037.png
p52
aVhttp://www.gutenberg.org/files/20856/20856-page-images/p038.png
p53
aVhttp://www.gutenberg.org/files/20856/20856-page-images/p039.png
p54
aVhttp://www.gutenberg.org/files/20856/20856-page-images/p040.png
p55
aVhttp://www.gutenberg.org/files/20856/20856-page-images/p041.png
p56
aVhttp://www.gutenberg.org/files/20856/20856-page-images/p042.png
p57
aVhttp://www.gutenberg.org/files/20856/20856-page-images/p043.png
p58
aVhttp://www.gutenberg.org/files/20856/20856-page-images/p044.png
p59
aVhttp://www.gutenberg.org/files/20856/20856-page-images/p045.png
p60
aVhttp://www.gutenberg.org/files/20856/20856-page-images/p046.png
p61
aVhttp://www.gutenberg.org/files/20856/20856-page-images/p047.png
p62
aVhttp://www.gutenberg.org/files/20856/20856-page-images/p048.png
p63
aVhttp://www.gutenberg.org/files/20856/20856-page-images/p049.png
p64
aVhttp://www.gutenberg.org/files/20856/20856-page-images/p050.png
p65
aVhttp://www.gutenberg.org/files/20856/20856-page-images/p051.png
p66
aVhttp://www.gutenberg.org/files/20856/20856-page-images/p052.png
p67
aVhttp://www.gutenberg.org/files/20856/20856-page-images/p053.png
p68
aVhttp://www.gutenberg.org/files/20856/20856-page-images/p054.png
p69
aVhttp://www.gutenberg.org/files/20856/20856-page-images/p055.png
p70
aVhttp://www.gutenberg.org/files/20856/20856-page-images/p056.png
p71
aVhttp://www.gutenberg.org/files/20856/20856-page-images/p057.png
p72
aVhttp://www.gutenberg.org/files/20856/20856-page-images/p058.png
p73
aVhttp://www.gutenberg.org/files/20856/20856-page-images/p059.png
p74
aVhttp://www.gutenberg.org/files/20856/20856-page-images/p060.png
p75
aVhttp://www.gutenberg.org/files/20856/20856-page-images/p061.png
p76
aVhttp://www.gutenberg.org/files/20856/20856-page-images/p062.png
p77
aVhttp://www.gutenberg.org/files/20856/20856-page-images/p063.png
p78
aVhttp://www.gutenberg.org/files/20856/20856-page-images/p064.png
p79
aVhttp://www.gutenberg.org/files/20856/20856-page-images/p065.png
p80
aVhttp://www.gutenberg.org/files/20856/20856-page-images/p066.png
p81
aVhttp://www.gutenberg.org/files/20856/20856-page-images/p067.png
p82
aVhttp://www.gutenberg.org/files/20856/20856-page-images/p068.png
p83
aVhttp://www.gutenberg.org/files/20856/20856-page-images/p069.png
p84
aVhttp://www.gutenberg.org/files/20856/20856-page-images/p070.png
p85
aVhttp://www.gutenberg.org/files/20856/20856-page-images/p071.png
p86
aVhttp://www.gutenberg.org/files/20856/20856-page-images/p072.png
p87
aVhttp://www.gutenberg.org/files/20856/20856-page-images/p073.png
p88
aVhttp://www.gutenberg.org/files/20856/20856-page-images/p074.png
p89
aVhttp://www.gutenberg.org/files/20856/20856-page-images/p075.png
p90
aVhttp://www.gutenberg.org/files/20856/20856-page-images/p076.png
p91
aVhttp://www.gutenberg.org/files/20856/20856-page-images/p077.png
p92
aVhttp://www.gutenberg.org/files/20856/20856-page-images/p078.png
p93
aVhttp://www.gutenberg.org/files/20856/20856-page-images/p079.png
p94
aVhttp://www.gutenberg.org/files/20856/20856-page-images/p080.png
p95
aVhttp://www.gutenberg.org/files/20856/20856-page-images/p081.png
p96
aVhttp://www.gutenberg.org/files/20856/20856-page-images/p082.png
p97
aVhttp://www.gutenberg.org/files/20856/20856-page-images/p083.png
p98
aVhttp://www.gutenberg.org/files/20856/20856-page-images/p084.png
p99
aVhttp://www.gutenberg.org/files/20856/20856-page-images/p085.png
p100
aVhttp://www.gutenberg.org/files/20856/20856-page-images/p086.png
p101
aVhttp://www.gutenberg.org/files/20856/20856-page-images/p087.png
p102
aVhttp://www.gutenberg.org/files/20856/20856-page-images/p088.png
p103
aVhttp://www.gutenberg.org/files/20856/20856-page-images/p089.png
p104
aVhttp://www.gutenberg.org/files/20856/20856-page-images/p090.png
p105
aVhttp://www.gutenberg.org/files/20856/20856-page-images/p091.png
p106
aVhttp://www.gutenberg.org/files/20856/20856-page-images/p092.png
p107
aVhttp://www.gutenberg.org/files/20856/20856-page-images/p093.png
p108
aVhttp://www.gutenberg.org/files/20856/20856-page-images/p094.png
p109
aVhttp://www.gutenberg.org/files/20856/20856-page-images/p095.png
p110
aVhttp://www.gutenberg.org/files/20856/20856-page-images/p096.png
p111
aVhttp://www.gutenberg.org/files/20856/20856-page-images/p097.png
p112
aVhttp://www.gutenberg.org/files/20856/20856-page-images/p098.png
p113
aVhttp://www.gutenberg.org/files/20856/20856-page-images/p099.png
p114
aVhttp://www.gutenberg.org/files/20856/20856-page-images/p100.png
p115
aVhttp://www.gutenberg.org/files/20856/20856-page-images/p101.png
p116
aVhttp://www.gutenberg.org/files/20856/20856-page-images/p102.png
p117
aVhttp://www.gutenberg.org/files/20856/20856-page-images/p103.png
p118
aVhttp://www.gutenberg.org/files/20856/20856-page-images/p104.png
p119
aVhttp://www.gutenberg.org/files/20856/20856-page-images/p105.png
p120
aVhttp://www.gutenberg.org/files/20856/20856-page-images/p106.png
p121
aVhttp://www.gutenberg.org/files/20856/20856-page-images/p107.png
p122
aVhttp://www.gutenberg.org/files/20856/20856-page-images/p108.png
p123
aVhttp://www.gutenberg.org/files/20856/20856-page-images/p109.png
p124
aVhttp://www.gutenberg.org/files/20856/20856-page-images/p110.png
p125
aVhttp://www.gutenberg.org/files/20856/20856-page-images/p111.png
p126
aVhttp://www.gutenberg.org/files/20856/20856-page-images/p112.png
p127
aVhttp://www.gutenberg.org/files/20856/20856-page-images/p113.png
p128
aVhttp://www.gutenberg.org/files/20856/20856-page-images/p114.png
p129
aVhttp://www.gutenberg.org/files/20856/20856-page-images/p115.png
p130
aVhttp://www.gutenberg.org/files/20856/20856-page-images/p116.png
p131
aVhttp://www.gutenberg.org/files/20856/20856-page-images/p117.png
p132
aVhttp://www.gutenberg.org/files/20856/20856-page-images/p118.png
p133
aVhttp://www.gutenberg.org/files/20856/20856-page-images/p119.png
p134
aVhttp://www.gutenberg.org/files/20856/20856-page-images/p120.png
p135
aVhttp://www.gutenberg.org/files/20856/20856-page-images/p121.png
p136
aVhttp://www.gutenberg.org/files/20856/20856-page-images/p122.png
p137
aVhttp://www.gutenberg.org/files/20856/20856-page-images/p123.png
p138
aVhttp://www.gutenberg.org/files/20856/20856-page-images/p124.png
p139
aVhttp://www.gutenberg.org/files/20856/20856-page-images/p125.png
p140
aVhttp://www.gutenberg.org/files/20856/20856-page-images/p126.png
p141
aVhttp://www.gutenberg.org/files/20856/20856-page-images/p127.png
p142
aVhttp://www.gutenberg.org/files/20856/20856-page-images/p128.png
p143
aVhttp://www.gutenberg.org/files/20856/20856-page-images/p129.png
p144
aVhttp://www.gutenberg.org/files/20856/20856-page-images/p130.png
p145
aVhttp://www.gutenberg.org/files/20856/20856-page-images/p131.png
p146
aVhttp://www.gutenberg.org/files/20856/20856-page-images/p132.png
p147
aVhttp://www.gutenberg.org/files/20856/20856-page-images/p133.png
p148
aVhttp://www.gutenberg.org/files/20856/20856-page-images/p134.png
p149
aVhttp://www.gutenberg.org/files/20856/20856-page-images/p135.png
p150
aVhttp://www.gutenberg.org/files/20856/20856-page-images/p136.png
p151
aVhttp://www.gutenberg.org/files/20856/20856-page-images/p137.png
p152
aVhttp://www.gutenberg.org/files/20856/20856-page-images/p138.png
p153
aVhttp://www.gutenberg.org/files/20856/20856-page-images/p139.png
p154
aVhttp://www.gutenberg.org/files/20856/20856-page-images/p140.png
p155
aVhttp://www.gutenberg.org/files/20856/20856-page-images/p141.png
p156
aVhttp://www.gutenberg.org/files/20856/20856-page-images/p142.png
p157
aVhttp://www.gutenberg.org/files/20856/20856-page-images/p143.png
p158
aVhttp://www.gutenberg.org/files/20856/20856-page-images/p144.png
p159
aVhttp://www.gutenberg.org/files/20856/20856-page-images/p145.png
p160
asS'language_code'
p161
NsS'images'
p162
(lp163
sS'id'
p164
I669
sS'category'
p165
VText
p166
sS'genres'
p167
(lp168
sS'copyright'
p169
VPublic domain in the USA.
p170
sS'title'
p171
VTen From Infinity
p172
sS'wikipedia'
p173
(dp174
S'found'
p175
I00
ssS'average_rating'
p176
F2.95
sS'rating_count'
p177
I16
sS'content_available'
p178
I01
sS'goodreads'
p179
(dp180
S'url'
p181
Vhttps://www.goodreads.com/book/show/8850253-ten-from-infinity
p182
sg175
I01
sS'year'
p183
I1963
ssS'similar_books'
p184
(lp185
sS'description'
p186
VThere was nothing unusual about the traffic accident victim with a broken leg until intern Frank Corson found he had two heartbeats. He thought that strange, but not as strange as passing the identical man in the street a few minutes later. One by one eight identical strangers are discovered, five dead, and each with two hearts. Eight artificial creatures, identical in every respect down to the fingerprints, and none of them human. They claim they are the vanguard of an alien invasion. And there are two more on the loose. To stop the destruction of the human race, we must stop the... Ten From Infinity.
p187
sS'format'
p188
NsS'gutenberg'
p189
(dp190
g181
Vhttp://www.gutenberg.org/ebooks/20856
p191
sS'num'
p192
I20856
ssS'authors'
p193
(lp194
I221
asS'pages'
p195
I139
sS'isbn13'
p196
NsS'language'
p197
VEnglish
p198
sS'countries'
p199
(lp200
I2
asS'release_date'
p201
S'2007-03-20T00:00:00'
p202
sS'author'
p203
I221
sS'content_cleaned'
p204
I01
sS'classes'
p205
(lp206
Vto-read
p207
aVcurrently-reading
p208
aVscience-fiction
p209
aVscifi-new-wave-1960-1979
p210
aVscifi
p211
aVpulp-fiction
p212
aVowned
p213
aVold-skool
p214
aVdad-s-books
p215
aVcollection
p216
aVsf
p217
aV14
p218
aVfeedbooks-com
p219
aVcollection-sci-fi-fantasy
p220
aVfantasy-sci-fi
p221
aVfiction
p222
asS'loc_class'
p223
VPS: Language and Literatures: American and Canadian literature
p224
sS'n_authors'
p225
I1
sb.