ccopy_reg
_reconstructor
p0
(cdataset.Book
Book
p1
c__builtin__
object
p2
Ntp3
Rp4
(dp5
S'content_name'
p6
V27631.txt.utf-8
p7
sS'isbn'
p8
V0786017813
p9
sS'year'
p10
I2006
sS'author_name'
p11
VJack Douglas
p12
sS'images_urls'
p13
(lp14
Vhttp://www.gutenberg.org/files/27631/27631-h/images/001.png
p15
aVhttp://www.gutenberg.org/files/27631/27631-h/images/002.png
p16
aVhttp://www.gutenberg.org/files/27631/27631-page-images/f0084-image1.png
p17
aVhttp://www.gutenberg.org/files/27631/27631-page-images/p0085.png
p18
aVhttp://www.gutenberg.org/files/27631/27631-page-images/p0086.png
p19
aVhttp://www.gutenberg.org/files/27631/27631-page-images/p0087.png
p20
aVhttp://www.gutenberg.org/files/27631/27631-page-images/p0088.png
p21
aVhttp://www.gutenberg.org/files/27631/27631-page-images/p0089.png
p22
aVhttp://www.gutenberg.org/files/27631/27631-page-images/p0090.png
p23
aVhttp://www.gutenberg.org/files/27631/27631-page-images/p0091.png
p24
aVhttp://www.gutenberg.org/files/27631/27631-page-images/p0092.png
p25
aVhttp://www.gutenberg.org/files/27631/27631-page-images/p0093.png
p26
aVhttp://www.gutenberg.org/files/27631/27631-page-images/p0094.png
p27
aVhttp://www.gutenberg.org/files/27631/27631-page-images/p0095.png
p28
aVhttp://www.gutenberg.org/files/27631/27631-page-images/p0096.png
p29
aVhttp://www.gutenberg.org/files/27631/27631-page-images/p0097-image1.png
p30
aVhttp://www.gutenberg.org/files/27631/27631-page-images/p0097.png
p31
asS'language_code'
p32
Veng
p33
sS'images'
p34
(lp35
sS'id'
p36
I391
sS'category'
p37
VText
p38
sS'genres'
p39
(lp40
sS'copyright'
p41
VPublic domain in the USA.
p42
sS'title'
p43
VDead World
p44
sS'wikipedia'
p45
(dp46
S'found'
p47
I00
ssS'average_rating'
p48
F3.77
sS'rating_count'
p49
I4950
sS'content_available'
p50
I01
sS'goodreads'
p51
(dp52
S'url'
p53
Vhttps://www.goodreads.com/book/show/90574.Dead_City
p54
sg47
I01
sS'year'
p55
I2006
ssS'similar_books'
p56
(lp57
VDying to Live (Dying to Live, #1)
p58
aVEden
p59
aVDomain of the Dead (Domain of the Dead #1)
p60
aVDead Sea
p61
aVThunder and Ashes (Morningstar Strain #2)
p62
aVDown the Road
p63
aVThe Infection
p64
aVRise Again (Rise Again #1)
p65
aVTwilight of the Dead
p66
aVEmpire: A Zombie Novel
p67
aVSiege  (As The World Dies, #3)
p68
aVKings of the Dead
p69
aVThe City (Autumn, #2)
p70
aVNew Zed Order: Survive
p71
aVEvery Sigh, the End
p72
aVZombie CSU
p73
aVFlu (Flu, #1)
p74
asS'description'
p75
VAfter the Gulf Coast is battered by three tremendous hurricanes, a deadly virus breaks out, turning the infected into mindless, blood-thirsty zombies. <br /><br />Within hours, the plague has spread throughout most of Texas and shows no signs of slowing down.<br /><br />San Antonio police officer Eddie Hudson finds himself in the middle of the outbreak, along with a few other survivors. <br /><br />Eddie does his best to fight off the zombie horde and locate his wife and son, who he believes still are safe and haven\u2019t been infected by the virus.
p76
sS'format'
p77
VPaperback
p78
sS'gutenberg'
p79
(dp80
g53
Vhttp://www.gutenberg.org/ebooks/27631
p81
sS'num'
p82
I27631
ssS'authors'
p83
(lp84
I126
asS'pages'
p85
I288
sS'isbn13'
p86
V9780786017812
p87
sS'language'
p88
VEnglish
p89
sS'countries'
p90
(lp91
I2
asS'release_date'
p92
S'2008-12-26T00:00:00'
p93
sS'author'
p94
I126
sS'content_cleaned'
p95
I01
sS'classes'
p96
(lp97
Vto-read
p98
aVzombies
p99
aVhorror
p100
aVzombie
p101
aVcurrently-reading
p102
aVfiction
p103
aVpost-apocalyptic
p104
aVseries
p105
aVapocalyptic
p106
aVfavorites
p107
aVapocalypse
p108
aVbooks-i-own
p109
aVsci-fi
p110
aVzombie-books
p111
aVdefault
p112
aVowned
p113
aVscience-fiction
p114
aVto-buy
p115
aVebooks
p116
aVsurvival
p117
aVfantasy
p118
aVaudiobooks
p119
aVzombie-fiction
p120
aVlibrary
p121
aVjoe-mckinney
p122
aVdystopian
p123
aVurban-fantasy
p124
aVfirst-in-series
p125
aVadult
p126
aVaudiobook
p127
aVzombie-apocalypse
p128
aVthriller
p129
aVread-in-2013
p130
aVmy-library
p131
aVebook
p132
aVto-read-horror
p133
aVm
p134
aVaudio
p135
aVz
p136
aVaudio-book
p137
aVundead
p138
aVe-book
p139
aVowned-books
p140
aVnovels
p141
aVtexas
p142
aVkindle
p143
aVpost-apocalypse
p144
aVvirus
p145
aVzombie-to-read
p146
aVend-of-world
p147
aVhave
p148
aVsuspense
p149
aVmy-books
p150
aVdystopia
p151
aVpost-apocolyptic
p152
aVnot-interested
p153
aVhorror-zombies
p154
aVzombie-horror
p155
aVrecommended
p156
aVread-in-2011
p157
aVwant-to-read
p158
aV02-words-sb
p159
aVhorror-thriller
p160
aVbooks-read-in-2016
p161
aVscifi
p162
aVto-check-out
p163
aVbooks
p164
aVto-be-read
p165
aVmaybe
p166
aVsci-fi-fantasy
p167
aVpart-of-series
p168
aVread-2015
p169
aVhave-it
p170
aVread-in-2015
p171
aVseries-read
p172
aVmckinney-joe
p173
aValready-owned
p174
aVpaperback
p175
aVdark-fiction
p176
aVon-hold
p177
aVhard-copy
p178
aVread-in-2014
p179
aVbooks-to-buy
p180
aVzombie-books-to-read
p181
aVapocalyptic-post-apocalyptic
p182
aVe-books
p183
aVthe-horror
p184
aVdead-world-series
p185
aVseries-1
p186
aVadult-novels
p187
aVlibrary-book
p188
aVnook
p189
aVmight-read
p190
aVunread
p191
aVscience-fiction-fantasy
p192
aV2012-read
p193
aVapocalypse-to-read
p194
aVparanormal-fiction
p195
aVpart-of-a-series
p196
aVapocolypse
p197
asS'loc_class'
p198
VPS: Language and Literatures: American and Canadian literature
p199
sS'n_authors'
p200
I1
sb.