ccopy_reg
_reconstructor
p0
(cdataset.Book
Book
p1
c__builtin__
object
p2
Ntp3
Rp4
(dp5
S'content_name'
p6
V24166.txt.utf-8
p7
sS'isbn'
p8
V075924085X
p9
sS'year'
p10
I1971
sS'author_name'
p11
VRandall Garrett
p12
sS'images_urls'
p13
(lp14
Vhttp://www.gutenberg.org/files/24166/24166-h/images/illus1.png
p15
aVhttp://www.gutenberg.org/files/24166/24166-h/images/illus2.png
p16
aVhttp://www.gutenberg.org/files/24166/24166-h/images/illus3.png
p17
aVhttp://www.gutenberg.org/files/24166/24166-h/images/illus5.png
p18
aVhttp://www.gutenberg.org/files/24166/24166-h/images/ilus4.png
p19
asS'language_code'
p20
NsS'images'
p21
(lp22
sS'id'
p23
I370
sS'category'
p24
VText
p25
sS'genres'
p26
(lp27
sS'copyright'
p28
VPublic domain in the USA.
p29
sS'title'
p30
VThe Destroyers
p31
sS'wikipedia'
p32
(dp33
S'found'
p34
I00
ssS'average_rating'
p35
F3.79
sS'rating_count'
p36
I984
sS'content_available'
p37
I01
sS'goodreads'
p38
(dp39
S'url'
p40
Vhttps://www.goodreads.com/book/show/815176.Created_the_Destroyer
p41
sg34
I01
sS'year'
p42
I1971
ssS'similar_books'
p43
(lp44
VMiami Massacre (The Executioner, #4)
p45
aVWhite Water  (The Destroyer, #106)
p46
aVThe Amun Chamber
p47
aVCipher (Robin Hood Hacker, #2)
p48
aVThe Secret Life of Lady Lucinda (Summersby, #3)
p49
aVMidnight Tribunal (Trese, # 5)
p50
aVCroaker: Kill Me Again (Fey Croaker Novels - Book 1)
p51
aVJet (Jet, #1)
p52
aVSuperbia 2
p53
aVTumultus
p54
aVChill Run
p55
aVSlaves of Valhalla (The Prometheus Wars, #2)
p56
aVVowed (The Blackhart Legacy, #2)
p57
aVPersistence of Vision
p58
aVCallsign: King (Jack Sigler) (Chess Team, #1)
p59
asS'description'
p60
NsS'format'
p61
NsS'gutenberg'
p62
(dp63
g40
Vhttp://www.gutenberg.org/ebooks/24166
p64
sS'num'
p65
I24166
ssS'authors'
p66
(lp67
I49
asS'isbn13'
p68
V9780759240858
p69
sS'language'
p70
VEnglish
p71
sS'country'
p72
I2
sS'release_date'
p73
S'2008-01-04T00:00:00'
p74
sS'author'
p75
I49
sS'content_cleaned'
p76
I01
sS'classes'
p77
(lp78
Vto-read
p79
aVcurrently-reading
p80
aVadventure
p81
aVaction
p82
aVcrime
p83
aVdestroyer
p84
aVthriller
p85
aVkindle
p86
aVdefault
p87
aVebook
p88
aVowned
p89
aVthe-destroyer
p90
aVfavorites
p91
aVfiction
p92
aVmartial-arts
p93
aVebooks
p94
aVspy
p95
aVaction-adventure
p96
aVpulp
p97
aVnook
p98
aVe-books
p99
aVpulp-fiction
p100
aVassassins
p101
aVclassics
p102
aVdestroyer-series
p103
aVdestroyer-novels
p104
aVre-reading
p105
aVmystery
p106
aVreviewed
p107
aVbooks-i-own
p108
aVread-in-2014
p109
aVcrime-thriller
p110
aVunrated
p111
aVwilliams
p112
aVremo
p113
aVfictitious
p114
aVchiun
p115
aVcharacter
p116
aVlibrary
p117
aVaction-thriller
p118
aV4-star
p119
aVcrime-mystery
p120
aVspies
p121
aVto-buy
p122
aVnot-read
p123
aVown-ebook
p124
aVmen-s-adventure
p125
aVdigital
p126
aVyear-2016
p127
aVnot-owned
p128
aVthings-read-on-my-deathbed
p129
aVre-read
p130
aVread-2017
p131
aVthriller-action
p132
aVaa-have-no-copy
p133
aVhave-waiting-to-read
p134
aVthrillers
p135
aVmy-e-books
p136
aVread-owned
p137
aVnovels
p138
aVmystery-adventure
p139
aVread-reviewed-2017
p140
aVghosts-and-spirits
p141
aVseries-part-of
p142
aVpop-sugar-challange-2017
p143
aVchurn
p144
aVe-book
p145
aVpulp-trash
p146
aV40-books-in-2017
p147
aVtie-elib
p148
aV1970-2009read
p149
aVtbr-added-in-2015
p150
aVebooks-i-own
p151
aV2
p152
aVto-read-someday
p153
aVno_thanks
p154
aVfun-reads
p155
aVreading-challenge-2016
p156
aVown-eb
p157
aVshelf-m-authors
p158
aVa-pending-placement
p159
aVespionage-and-secret-agents
p160
aVhumor
p161
aVma-adventure
p162
aVseries
p163
aVpulp-action
p164
aV20th-century
p165
aVto-read-owned
p166
aVcrime-fiction
p167
aVbidders
p168
aV2016-challenge
p169
aVpsychological-thrillers
p170
aVoccult
p171
aVlight-horror
p172
aVhome-library
p173
aVhome
p174
aVsounds-interesting
p175
aVneed-to-buy
p176
aVmen-s-adventure-books
p177
aV5-please-buy-me
p178
asS'loc_class'
p179
VPS: Language and Literatures: American and Canadian literature
p180
sS'n_authors'
p181
I1
sb.