ccopy_reg
_reconstructor
p0
(cdataset.Book
Book
p1
c__builtin__
object
p2
Ntp3
Rp4
(dp5
S'similar_books'
p6
(lp7
sS'genres'
p8
(lp9
sS'author'
p10
I302
sS'countries'
p11
(lp12
I2
asS'year'
p13
I1952
sS'title'
p14
VGalaxy Magazine March 1952
p15
sS'cover'
p16
Vhttps://ia600208.us.archive.org/BookReader/BookReaderImages.php?zip=/25/items/Galaxy_v03n06_1952-03/Galaxy_v03n06_1952-03_jp2.zip&file=Galaxy_v03n06_1952-03_jp2/Galaxy_v03n06_1952-03_0000.jp2&scale=0&rotate=0
p17
sS'cover_art'
p18
S'http://www.isfdb.org/wiki/images/3/3a/GALMAR1952.jpg'
p19
sS'author_name'
p20
VGalaxy Magazine
p21
sS'images_urls'
p22
(lp23
sS'authors'
p24
(lp25
I363
aI390
aI352
aI326
aI305
aI339
aI340
aI371
aI385
aI94
aI391
aI204
aI302
asS'images'
p26
(lp27
sS'id'
p28
I990
sS'contents'
p29
(lp30
(dp31
S'title'
p32
VThe Year of the Jackpot
p33
sS'author'
p34
I363
sa(dp35
g32
VThe Year of the Jackpot [2]
p36
sg34
I363
sa(dp37
g32
VThe Year of the Jackpot [3]
p38
sg34
I363
sa(dp39
g32
VManners of the Age
p40
sg34
I390
sa(dp41
g32
VManners of the Age [2]
p42
sg34
I390
sa(dp43
g32
VManners of the Age [3]
p44
sg34
I390
sa(dp45
g32
VThe 7th Order
p46
sg34
I363
sa(dp47
g32
VThe 7th Order [2]
p48
sg34
I363
sa(dp49
g32
VThe 7th Order [3]
p50
sg34
I363
sa(dp51
g32
VCatch That Martian
p52
sg34
I352
sa(dp53
g32
VThe Demolished Man (Part 3 of 3)
p54
sg34
I326
sa(dp55
g32
VThe Demolished Man (Part 3 of 3) [2]
p56
sg34
I326
sa(dp57
g32
VThe Demolished Man (Part 3 of 3) [3]
p58
sg34
I326
sa(dp59
g32
VThe Demolished Man (Part 3 of 3) [4]
p60
sg34
I326
sa(dp61
g32
VIn This Corner
p62
sg34
I305
sa(dp63
g32
VFor Your Information (Galaxy, March 1952)
p64
sg34
I339
sa(dp65
g32
VGalaxy's 5 Star Shelf (Galaxy, March 1952)
p66
sg34
I340
sa(dp67
g32
VThe Year of the Jackpot
p68
sg34
I371
sa(dp69
g32
VThe Demolished Man (Part 3 of 3)
p70
sg34
I385
sa(dp71
g32
VManners of the Age
p72
sg34
I94
sa(dp73
g32
VThe 7th Order
p74
sg34
I391
sa(dp75
g32
VCatch That Martian
p76
sg34
I204
sasb.