ccopy_reg
_reconstructor
p0
(cdataset.Book
Book
p1
c__builtin__
object
p2
Ntp3
Rp4
(dp5
S'content_name'
p6
V29735.txt.utf-8
p7
sS'isbn'
p8
NsS'year'
p9
I1952
sS'author_name'
p10
VLucius Daniel
p11
sS'images_urls'
p12
(lp13
Vhttp://www.gutenberg.org/files/29735/29735-h/images/001.png
p14
aVhttp://www.gutenberg.org/files/29735/29735-h/images/002-1.jpg
p15
aVhttp://www.gutenberg.org/files/29735/29735-h/images/002-2.jpg
p16
asS'language_code'
p17
Veng
p18
sS'images'
p19
(lp20
sS'id'
p21
I957
sS'category'
p22
VText
p23
sS'genres'
p24
(lp25
sS'copyright'
p26
VPublic domain in the USA.
p27
sS'title'
p28
VMartians Never Die
p29
sS'wikipedia'
p30
(dp31
S'found'
p32
I00
ssS'average_rating'
p33
F2.83
sS'rating_count'
p34
I6
sS'content_available'
p35
I01
sS'goodreads'
p36
(dp37
S'url'
p38
Vhttps://www.goodreads.com/book/show/13435698-martians-never-die
p39
sg32
I01
sS'year'
p40
I1952
ssS'similar_books'
p41
(lp42
sS'description'
p43
V<b>It was a wonderful bodyguard: no bark, no bite, no sting ... just conversion of the enemy!</b><br /><i>Interplanetary travel - Love - Jealousy \u2013 Possession</i><br /><br />Play Duration: 00:27:03 <br />Downloaded File Sizes<br />[mp3@64kbps - 12.9MB]<br />[mp3@128kbps - 25.9MB]<br /><br />Public Domain stories from Project Gutenberg, that are read by volunteers. <br /><i>First published in Galaxy Science Fiction</i>
p44
sS'format'
p45
VAudiobook
p46
sS'gutenberg'
p47
(dp48
g38
Vhttp://www.gutenberg.org/ebooks/29735
p49
sS'num'
p50
I29735
ssS'authors'
p51
(lp52
I293
asS'isbn13'
p53
NsS'language'
p54
VEnglish
p55
sS'release_date'
p56
S'2009-08-19T00:00:00'
p57
sS'author'
p58
I293
sS'content_cleaned'
p59
I01
sS'classes'
p60
(lp61
Vscience-fiction
p62
aVto-read
p63
aVshort-fiction
p64
aV20th-century
p65
aVsci-fi
p66
asS'loc_class'
p67
VPS: Language and Literatures: American and Canadian literature
p68
sS'n_authors'
p69
I1
sb.