ccopy_reg
_reconstructor
p0
(cdataset.Book
Book
p1
c__builtin__
object
p2
Ntp3
Rp4
(dp5
S'content_name'
p6
V22545.txt.utf-8
p7
sS'isbn'
p8
NsS'year'
p9
I1959
sS'author_name'
p10
VRon Cocking
p11
sS'images_urls'
p12
(lp13
Vhttp://www.gutenberg.org/files/22545/22545-h/images/001.png
p14
aVhttp://www.gutenberg.org/files/22545/22545-h/images/002.jpg
p15
aVhttp://www.gutenberg.org/files/22545/22545-h/images/002t.jpg
p16
aVhttp://www.gutenberg.org/files/22545/22545-page-images/c001.jpg
p17
aVhttp://www.gutenberg.org/files/22545/22545-page-images/p007.png
p18
aVhttp://www.gutenberg.org/files/22545/22545-page-images/p008.png
p19
aVhttp://www.gutenberg.org/files/22545/22545-page-images/p009.png
p20
aVhttp://www.gutenberg.org/files/22545/22545-page-images/p010.png
p21
aVhttp://www.gutenberg.org/files/22545/22545-page-images/p011.png
p22
aVhttp://www.gutenberg.org/files/22545/22545-page-images/p012.png
p23
aVhttp://www.gutenberg.org/files/22545/22545-page-images/p013.png
p24
aVhttp://www.gutenberg.org/files/22545/22545-page-images/p014.png
p25
aVhttp://www.gutenberg.org/files/22545/22545-page-images/p015.png
p26
aVhttp://www.gutenberg.org/files/22545/22545-page-images/p016.png
p27
aVhttp://www.gutenberg.org/files/22545/22545-page-images/p017.png
p28
aVhttp://www.gutenberg.org/files/22545/22545-page-images/p018.png
p29
aVhttp://www.gutenberg.org/files/22545/22545-page-images/p019.png
p30
aVhttp://www.gutenberg.org/files/22545/22545-page-images/p020.png
p31
aVhttp://www.gutenberg.org/files/22545/22545-page-images/p021.png
p32
aVhttp://www.gutenberg.org/files/22545/22545-page-images/p022.png
p33
asS'language_code'
p34
NsS'images'
p35
(lp36
sS'id'
p37
I561
sS'category'
p38
VText
p39
sS'genres'
p40
(lp41
sS'copyright'
p42
VPublic domain in the USA.
p43
sS'title'
p44
VWarning from the Stars
p45
sS'wikipedia'
p46
(dp47
S'found'
p48
I00
ssS'average_rating'
p49
F2.74
sS'rating_count'
p50
I23
sS'content_available'
p51
I01
sS'goodreads'
p52
(dp53
S'url'
p54
Vhttps://www.goodreads.com/book/show/5954793-warning-from-the-stars
p55
sg48
I01
sS'year'
p56
I2007
ssS'similar_books'
p57
(lp58
sS'description'
p59
NsS'gutenberg'
p60
(dp61
g54
Vhttp://www.gutenberg.org/ebooks/22545
p62
sS'num'
p63
I22545
ssS'authors'
p64
(lp65
I187
asS'isbn13'
p66
NsS'language'
p67
VEnglish
p68
sS'countries'
p69
(lp70
I3
asS'release_date'
p71
S'2007-09-09T00:00:00'
p72
sS'author'
p73
I187
sS'cover'
p74
Vhttps://s.gr-assets.com/assets/nophoto/book/111x148-bcc042a9c91a29c1d680899eff700a03.png
p75
sS'content_cleaned'
p76
I01
sS'classes'
p77
(lp78
Vto-read
p79
aVcurrently-reading
p80
aVscience-fiction
p81
aVshort-story
p82
aVaudio
p83
aVaudiobooks
p84
aVaudio-obtained-lvss
p85
aVnovellas-poems-shorts
p86
aVscifi-and-horror
p87
aVavailable-on-website
p88
aVshort-stories
p89
aVaudiobook
p90
aVsci-fi
p91
aVunfinished
p92
aVtype-short-story
p93
aVaudio-obtained-ss
p94
aVaudio-books
p95
asS'loc_class'
p96
VPS: Language and Literatures: American and Canadian literature
p97
sS'n_authors'
p98
I1
sb.