ccopy_reg
_reconstructor
p0
(cdataset.Book
Book
p1
c__builtin__
object
p2
Ntp3
Rp4
(dp5
S'content_name'
p6
V29046.txt.utf-8
p7
sS'isbn'
p8
NsS'year'
p9
I1931
sS'author_name'
p10
VGeorge Henry Weiss
p11
sS'images_urls'
p12
(lp13
Vhttp://www.gutenberg.org/files/29046/29046-h/images/image_001.jpg
p14
asS'language_code'
p15
NsS'images'
p16
(lp17
sS'id'
p18
I938
sS'category'
p19
VText
p20
sS'genres'
p21
(lp22
sS'copyright'
p23
VPublic domain in the USA.
p24
sS'title'
p25
VThe Heads of Apex
p26
sS'wikipedia'
p27
(dp28
S'found'
p29
I00
ssS'average_rating'
p30
F2.0
sS'rating_count'
p31
I5
sS'content_available'
p32
I01
sS'goodreads'
p33
(dp34
S'url'
p35
S'https://www.goodreads.com/book/show/6545141-the-heads-of-apex'
p36
sS'found'
p37
I01
ssS'similar_books'
p38
(lp39
sS'description'
p40
NsS'gutenberg'
p41
(dp42
S'url'
p43
Vhttp://www.gutenberg.org/ebooks/29046
p44
sS'num'
p45
I29046
ssS'authors'
p46
(lp47
I286
asS'isbn13'
p48
NsS'language'
p49
VEnglish
p50
sS'countries'
p51
(lp52
I2
asS'release_date'
p53
S'2009-06-05T00:00:00'
p54
sS'author'
p55
I286
sS'content_cleaned'
p56
I01
sS'classes'
p57
(lp58
Vcalibre
p59
aV15
p60
aVscience-fiction
p61
aVcurrently-reading
p62
asS'loc_class'
p63
VPS: Language and Literatures: American and Canadian literature
p64
sS'n_authors'
p65
I1
sb.