ccopy_reg
_reconstructor
p0
(cdataset.Book
Book
p1
c__builtin__
object
p2
Ntp3
Rp4
(dp5
S'similar_books'
p6
(lp7
sS'genres'
p8
(lp9
sS'author'
p10
I918
sS'countries'
p11
(lp12
I2
asS'year'
p13
I1962
sS'title'
p14
VIF Magazine November 1962
p15
sS'cover'
p16
Vhttps://ia600206.us.archive.org/BookReader/BookReaderImages.php?zip=/14/items/1962-11_IF_modified/1962-11_IF_modified_jp2.zip&file=1962-11_IF_modified_jp2/1962-11_IF_modified_0000.jp2&scale=0&rotate=0
p17
sS'cover_art'
p18
S'http://www.isfdb.org/wiki/images/9/9e/WOFIFNOV1962.jpg'
p19
sS'author_name'
p20
VIF Magazine
p21
sS'images_urls'
p22
(lp23
sS'authors'
p24
(lp25
I497
aI499
aI578
aI341
aI40
aI30
aI371
aI267
aI596
aI67
aI1083
aI194
aI229
aI918
asS'images'
p26
(lp27
sS'id'
p28
I1288
sS'contents'
p29
(lp30
(dp31
g10
I497
sg14
VPodkayne of Mars (Part 1 of 3)
p32
sa(dp33
g10
I497
sg14
VPodkayne of Mars (Part 1 of 3) [2]
p34
sa(dp35
g10
I499
sg14
VThe Desert and the Stars
p36
sa(dp37
g10
I578
sg14
VThe Critique of Impure Reason
p38
sa(dp39
g10
I341
sg14
VMost Personal
p40
sa(dp41
g10
I341
sg14
VThe Popoff
p42
sa(dp43
g10
I40
sg14
VHue and Cry (If, November 1962)
p44
sa(dp45
g10
I30
sg14
VThe Critique of Impure Reason
p46
sa(dp47
g10
I371
sg14
VPodkayne of Mars (Part 1 of 3)
p48
sa(dp49
g10
I267
sg14
VThe Real Thing
p50
sa(dp51
g10
I596
sg14
VThe Reluctant Immortals
p52
sa(dp53
g10
I67
sg14
VThe Desert and the Stars
p54
sa(dp55
g10
I1083
sg14
VThe Man Who Flew
p56
sa(dp57
g10
I194
sg14
VToo Many Eggs
p58
sa(dp59
g10
I229
sg14
VThe Dragon-Slayers
p60
sasb.