ccopy_reg
_reconstructor
p0
(cdataset.Book
Book
p1
c__builtin__
object
p2
Ntp3
Rp4
(dp5
S'similar_books'
p6
(lp7
sS'genres'
p8
(lp9
sS'author'
p10
I302
sS'countries'
p11
(lp12
I2
asS'year'
p13
I1970
sS'title'
p14
VGalaxy Magazine July 1970
p15
sS'cover'
p16
Vhttps://ia600204.us.archive.org/BookReader/BookReaderImages.php?zip=/9/items/Galaxy_v30n04_1970-07/Galaxy_v30n04_1970-07_jp2.zip&file=Galaxy_v30n04_1970-07_jp2/Galaxy_v30n04_1970-07_0000.jp2&scale=0&rotate=0
p17
sS'cover_art'
p18
S'http://www.isfdb.org/wiki/images/3/3f/GALJUL70.jpg'
p19
sS'author_name'
p20
VGalaxy Magazine
p21
sS'images_urls'
p22
(lp23
sS'authors'
p24
(lp25
I326
aI681
aI499
aI667
aI682
aI613
aI91
aI50
aI74
aI371
aI662
aI549
aI302
asS'images'
p26
(lp27
sS'id'
p28
I1143
sS'contents'
p29
(lp30
(dp31
g10
I326
sg14
VI Will Fear No Evil (Part 1 of 4)
p32
sa(dp33
g10
I326
sg14
VThe Throwbacks
p34
sa(dp35
g10
I326
sg14
VThe Throwbacks [2]
p36
sa(dp37
g10
I326
sg14
VThe Throwbacks [3]
p38
sa(dp39
g10
I681
sg14
VGood
p40
sa(dp41
g10
I326
sg14
VThe All-at-Once Man
p42
sa(dp43
g10
I326
sg14
VThe Hookup
p44
sa(dp45
g10
I326
sg14
VAsk a Silly Question
p46
sa(dp47
g10
I499
sg14
VSittik
p48
sa(dp49
g10
I326
sg14
VI Will Fear No Evil (Part 1 of 4) [2]
p50
sa(dp51
g10
I326
sg14
VI Will Fear No Evil (Part 1 of 4) [3]
p52
sa(dp53
g10
I326
sg14
VI Will Fear No Evil (Part 1 of 4) [4]
p54
sa(dp55
g10
I667
sg14
VAsbestos, Too
p56
sa(dp57
g10
I682
sg14
VContainers for the Condition of Man
p58
sa(dp59
g10
I613
sg14
VGalaxy Stars (Galaxy, July 1970)
p60
sa(dp61
g10
I91
sg14
VGalaxy Bookshelf (Galaxy, July 1970)
p62
sa(dp63
g10
I50
sg14
VThe Throwbacks
p64
sa(dp65
g10
I74
sg14
VThe All-at-Once Man
p66
sa(dp67
g10
I371
sg14
VI Will Fear No Evil (Part 1 of 4)
p68
sa(dp69
g10
I662
sg14
VThe Hookup
p70
sa(dp71
g10
I549
sg14
VAsk a Silly Question
p72
sa(dp73
g10
I613
sg14
VSittik
p74
sasb.