ccopy_reg
_reconstructor
p0
(cdataset.Book
Book
p1
c__builtin__
object
p2
Ntp3
Rp4
(dp5
S'content_name'
p6
V28643.txt.utf-8
p7
sS'isbn'
p8
NsS'year'
p9
I1953
sS'author_name'
p10
VRandall Garrett
p11
sS'images_urls'
p12
(lp13
Vhttp://www.gutenberg.org/files/28643/28643-h/images/001.png
p14
asS'language_code'
p15
NsS'id'
p16
I363
sS'category'
p17
VText
p18
sS'genres'
p19
(lp20
sS'copyright'
p21
VPublic domain in the USA.
p22
sS'title'
p23
VBelly Laugh
p24
sS'wikipedia'
p25
(dp26
S'found'
p27
I00
ssS'average_rating'
p28
F3.72
sS'rating_count'
p29
I17
sS'content_available'
p30
I01
sS'goodreads'
p31
(dp32
S'url'
p33
S'https://www.goodreads.com/book/show/8702868-belly-laugh'
p34
sS'found'
p35
I01
ssS'similar_books'
p36
(lp37
sS'description'
p38
NsS'gutenberg'
p39
(dp40
S'url'
p41
Vhttp://www.gutenberg.org/ebooks/28643
p42
sS'num'
p43
I28643
ssS'authors'
p44
(lp45
I49
asS'isbn13'
p46
NsS'language'
p47
VEnglish
p48
sS'countries'
p49
(lp50
I2
asS'release_date'
p51
S'2009-04-30T00:00:00'
p52
sS'author'
p53
I49
sS'cover'
p54
Vhttps://s.gr-assets.com/assets/nophoto/book/111x148-bcc042a9c91a29c1d680899eff700a03.png
p55
sS'content_cleaned'
p56
I01
sS'classes'
p57
(lp58
Vto-read
p59
aVfree-from-amazon
p60
aVclassic
p61
aVscience-fiction
p62
aVnovellas-poems-shorts
p63
aVeua
p64
aV13
p65
aVsci-fi
p66
aVaudio-books
p67
asS'loc_class'
p68
VPS: Language and Literatures: American and Canadian literature
p69
sS'n_authors'
p70
I1
sb.