ccopy_reg
_reconstructor
p0
(cdataset.Book
Book
p1
c__builtin__
object
p2
Ntp3
Rp4
(dp5
S'content_name'
p6
V50622.txt.utf-8
p7
sS'isbn'
p8
V1479407887
p9
sS'year'
p10
I-1
sS'author_name'
p11
VMurray Leinster
p12
sS'images_urls'
p13
(lp14
Vhttp://www.gutenberg.org/files/50622/50622-h/images/cover.jpg
p15
aVhttp://www.gutenberg.org/files/50622/50622-h/images/cover2.jpg
p16
aVhttp://www.gutenberg.org/files/50622/50622-h/images/illus1.jpg
p17
aVhttp://www.gutenberg.org/files/50622/50622-h/images/illus2.jpg
p18
asS'language_code'
p19
NsS'images'
p20
(lp21
sS'id'
p22
I552
sS'category'
p23
VText
p24
sS'genres'
p25
(lp26
sS'copyright'
p27
VPublic domain in the USA.
p28
sS'title'
p29
VThe Silver Menace
p30
sS'wikipedia'
p31
(dp32
S'found'
p33
I00
ssS'average_rating'
p34
F0.0
sS'rating_count'
p35
I0
sS'content_available'
p36
I01
sS'cover_art_url'
p37
S'http://www.gutenberg.org/cache/epub/50622/pg50622.cover.medium.jpg'
p38
sS'goodreads'
p39
(dp40
S'url'
p41
Vhttps://www.goodreads.com/book/show/28196213-the-silver-menace
p42
sg33
I01
sS'year'
p43
I-1
ssS'similar_books'
p44
(lp45
sS'description'
p46
VAt last the government could keep silence no longer, and the world was informed of the true malignity of the Silver Menace. The silvery jelly had reached the American coasts, invaded and conquered the harbors, and was even then rapidly solidifying the rivers, but its threat did not end there. Just as it had crept up the sides of Gerrod's test tubes, and as it had overwhelmed the yacht, now it crept up the beaches. Slowly and inexorably die slimy masses of jelly crept above the water line. The beaches were buried below thick blankets of sticky, shimmering animalcules and still the menace grew.<br /><br />They overwhelmed all obstacles placed in their path. The whole green, fertile earth was threatened with burial beneath a mantle of slimy, silvery, glistening horror!
p47
sS'format'
p48
VPaperback
p49
sS'gutenberg'
p50
(dp51
g41
Vhttp://www.gutenberg.org/ebooks/50622
p52
sS'num'
p53
I50622
ssS'authors'
p54
(lp55
I61
asS'pages'
p56
I68
sS'isbn13'
p57
V9781479407880
p58
sS'language'
p59
VEnglish
p60
sS'country'
p61
I3
sS'release_date'
p62
S'2015-12-05T00:00:00'
p63
sS'author'
p64
I61
sS'content_cleaned'
p65
I01
sS'classes'
p66
(lp67
Vto-read
p68
aVscience-fiction
p69
aVgutenberg
p70
asS'loc_class'
p71
VPS: Language and Literatures: American and Canadian literature
p72
sS'n_authors'
p73
I1
sb.