ccopy_reg
_reconstructor
p0
(cdataset.Book
Book
p1
c__builtin__
object
p2
Ntp3
Rp4
(dp5
S'similar_books'
p6
(lp7
sS'genres'
p8
(lp9
sS'author'
p10
I918
sS'countries'
p11
(lp12
I2
asS'year'
p13
I1956
sS'title'
p14
VIF Magazine October 1956
p15
sS'cover'
p16
Vhttps://ia600201.us.archive.org/BookReader/BookReaderImages.php?zip=/22/items/1956-10_IF_modified/1956-10_IF_modified_jp2.zip&file=1956-10_IF_modified_jp2/1956-10_IF_modified_0000.jp2&scale=0&rotate=0
p17
sS'cover_art'
p18
S'http://www.isfdb.org/wiki/images/3/33/WOFIFOCT1956.jpg'
p19
sS'author_name'
p20
VIF Magazine
p21
sS'images_urls'
p22
(lp23
sS'authors'
p24
(lp25
I363
aI956
aI427
aI948
aI326
aI88
aI30
aI153
aI991
aI144
aI1026
aI39
aI1027
aI1028
aI918
asS'images'
p26
(lp27
sS'id'
p28
I1253
sS'contents'
p29
(lp30
(dp31
g10
I363
sg14
VThe Happy Herd
p32
sa(dp33
g10
I363
sg14
VRoom with View
p34
sa(dp35
g10
I363
sg14
VDetails
p36
sa(dp37
g10
I956
sg14
VDearest Enemy
p38
sa(dp39
g10
I956
sg14
VYour Servant, Sir
p40
sa(dp41
g10
I956
sg14
VBrain Teaser
p42
sa(dp43
g10
I427
sg14
VCorbow's Theory
p44
sa(dp45
g10
I948
sg14
VEditor's Report (If, October 1956)
p46
sa(dp47
g10
I326
sg14
VWhat Is Your Science I. Q.? (If October 1956)
p48
sa(dp49
g10
I326
sg14
VScience Briefs (If, October 1956)
p50
sa(dp51
g10
I326
sg14
VHue and Cry (If, October 1956)
p52
sa(dp53
g10
I88
sg14
VThe Happy Herd
p54
sa(dp55
g10
I30
sg14
VDetails
p56
sa(dp57
g10
I153
sg14
VRoom with View
p58
sa(dp59
g10
I991
sg14
VDearest Enemy
p60
sa(dp61
g10
I144
sg14
VCommunication
p62
sa(dp63
g10
I1026
sg14
VYour Servant, Sir
p64
sa(dp65
g10
I39
sg14
VBrain Teaser
p66
sa(dp67
g10
I1027
sg14
VCorbow's Theory
p68
sa(dp69
g10
I1028
sg14
VShock Troop
p70
sasb.