ccopy_reg
_reconstructor
p0
(cdataset.Book
Book
p1
c__builtin__
object
p2
Ntp3
Rp4
(dp5
S'similar_books'
p6
(lp7
sS'genres'
p8
(lp9
sS'author'
p10
I302
sS'countries'
p11
(lp12
I2
asS'year'
p13
I1959
sS'title'
p14
VGalaxy Magazine October 1959
p15
sS'cover'
p16
Vhttps://ia601307.us.archive.org/BookReader/BookReaderImages.php?zip=/34/items/Galaxy_v18n01_1959-10/Galaxy_v18n01_1959-10_jp2.zip&file=Galaxy_v18n01_1959-10_jp2/Galaxy_v18n01_1959-10_0000.jp2&scale=0&rotate=0
p17
sS'cover_art'
p18
S'http://www.isfdb.org/wiki/images/1/11/GALOCT1959.jpg'
p19
sS'author_name'
p20
VGalaxy Magazine
p21
sS'images_urls'
p22
(lp23
sS'authors'
p24
(lp25
I419
aI525
aI545
aI506
aI305
aI339
aI326
aI483
aI546
aI40
aI493
aI56
aI547
aI548
aI302
asS'images'
p26
(lp27
sS'id'
p28
I1075
sS'contents'
p29
(lp30
(dp31
g10
I419
sg14
VSomeone to Watch Over Me
p32
sa(dp33
g10
I419
sg14
VSomeone to Watch Over Me [2]
p34
sa(dp35
g10
I419
sg14
VSomeone to Watch Over Me [3]
p36
sa(dp37
g10
I525
sg14
VLast of the Morticians
p38
sa(dp39
g10
I419
sg14
VA Death in the House
p40
sa(dp41
g10
I419
sg14
VA Death in the House [2]
p42
sa(dp43
g10
I419
sg14
VA Death in the House [3]
p44
sa(dp45
g10
I419
sg14
VKing of the Planet
p46
sa(dp47
g10
I545
sg14
VSilence
p48
sa(dp49
g10
I545
sg14
VSilence [2]
p50
sa(dp51
g10
I545
sg14
VSilence [3]
p52
sa(dp53
g10
I419
sg14
VTrue Self
p54
sa(dp55
g10
I506
sg14
VWay Up Yonder
p56
sa(dp57
g10
I506
sg14
VWay Up Yonder [2]
p58
sa(dp59
g10
I506
sg14
VWay Up Yonder [3]
p60
sa(dp61
g10
I305
sg14
VOther People's Mail
p62
sa(dp63
g10
I339
sg14
VFor Your Information: The Accident That Didn't Happen
p64
sa(dp65
g10
I326
sg14
VForecast (Galaxy, October 1959)
p66
sa(dp67
g10
I483
sg14
VGalaxy's 5 Star Shelf (Galaxy, October 1969)
p68
sa(dp69
g10
I483
sg14
VReview of "Van Nostrand's Scientific Encyclopedia"
p70
sa(dp71
g10
I546
sg14
VSilence
p72
sa(dp73
g10
I40
sg14
VWay Up Yonder
p74
sa(dp75
g10
I305
sg14
VSomeone to Watch Over Me
p76
sa(dp77
g10
I493
sg14
VLast of the Morticians
p78
sa(dp79
g10
I56
sg14
VA Death in the House
p80
sa(dp81
g10
I547
sg14
VKing of the Planet
p82
sa(dp83
g10
I548
sg14
VTrue Self
p84
sasb.