ccopy_reg
_reconstructor
p0
(cdataset.Book
Book
p1
c__builtin__
object
p2
Ntp3
Rp4
(dp5
S'content_name'
p6
V32832.txt.utf-8
p7
sS'isbn'
p8
NsS'cover'
p9
Vhttps://s.gr-assets.com/assets/nophoto/book/111x148-bcc042a9c91a29c1d680899eff700a03.png
p10
sS'year'
p11
I1953
sS'author_name'
p12
VPhilip K. Dick
p13
sS'images_urls'
p14
(lp15
Vhttp://www.gutenberg.org/files/32832/32832-h/images/001.png
p16
aVhttp://www.gutenberg.org/files/32832/32832-h/images/002-1.jpg
p17
aVhttp://www.gutenberg.org/files/32832/32832-h/images/002-2.jpg
p18
asS'language_code'
p19
Veng
p20
sS'images'
p21
(lp22
Vhttps://upload.wikimedia.org/wikipedia/commons/4/45/Imagination_195302.jpg
p23
asS'id'
p24
I50
sS'category'
p25
VText
p26
sS'plot'
p27
NsS'genres'
p28
(lp29
sS'copyright'
p30
VPublic domain in the USA.
p31
sS'title'
p32
VPiper in the Woods
p33
sS'wikipedia'
p34
(dp35
S'url'
p36
S'https://en.wikipedia.org/wiki/Piper_in_the_Woods'
p37
sS'found'
p38
I01
sS'year'
p39
I-1
ssS'published_in'
p40
NsS'average_rating'
p41
F3.57
sS'rating_count'
p42
I176
sS'publisher_in'
p43
NsS'content_available'
p44
I01
sS'goodreads'
p45
(dp46
g36
Vhttps://www.goodreads.com/book/show/11062716-piper-in-the-woods
p47
sg38
I01
sg39
I1953
ssS'similar_books'
p48
(lp49
VWith Morning Comes Mistfall
p50
aVEven the Queen: & Other Short Stories
p51
aVSailing to Byzantium
p52
aVYouth
p53
aVThe Unveiling
p54
aVChristmas in the Trenches
p55
aVPress Enter
p56
aVThe Traveler
p57
aVPigs Is Pigs
p58
aVThe Dreaming Jewels
p59
aVBears Discover Fire and Other Stories
p60
aVThe Last Joy
p61
aVThe Elephant Vanishes: Free Short Story
p62
aVThe Problem with Thor Bridge
p63
aVThe Snows of Kilimanjaro/The Short Happy Life of Francis Macomber
p64
aVClifford Gets a Job
p65
aVThe Goonies
p66
aVThe Children's Story
p67
asS'description'
p68
VPhilip Kindred Dick was an American novelist, short story writer, and essayist in the science fiction genre. Dick explored sociological, political and metaphysical themes in novels dominated by monopolistic corporations, authoritarian governments, and altered states.<br /><br />In his later works, Dick's thematic focus strongly reflected his personal interest in metaphysics and theology. He often drew upon his own life experiences and addressed the nature of drug abuse, paranoia and schizophrenia, and transcendental experiences in both his short fiction and novels.<br /><br />This collection brings together 11 rare short stories and novellas culled from premier editions of such classic magazines as "Amazing Stories," "If," "Galaxy" and "Planets."<br /><br />Piper in the Woods<br />The Variable Man<br />Beyond the Door<br />The Crystal Crypt<br />The Defenders<br />The Gun<br />The Skull<br />The Eyes Have It<br />Second Variety<br />Beyond Lies the Wub<br />Mr. Spaceship
p69
sS'gutenberg'
p70
(dp71
g36
Vhttp://www.gutenberg.org/ebooks/32832
p72
sS'num'
p73
I32832
ssS'authors'
p74
(lp75
I8
asS'publisher'
p76
NsS'isbn13'
p77
NsS'language'
p78
VEnglish
p79
sS'countries'
p80
(lp81
I2
asS'release_date'
p82
S'2010-06-16T00:00:00'
p83
sS'author'
p84
I8
sS'original_title'
p85
VPiper in the Woods
p86
sS'summary'
p87
VPiper in the Woods is a science fiction short story by Philip K. Dick, first published in 1953 in Imagination, and later in The Collected Stories of Philip K. Dick. It has since been republished several times, including in Beyond Lies the Wub in 1988.
p88
sS'content_cleaned'
p89
I01
sS'classes'
p90
(lp91
Vto-read
p92
aVscience-fiction
p93
aVsci-fi
p94
aVshort-stories
p95
aVfiction
p96
aVcurrently-reading
p97
aVebook
p98
aVebooks
p99
aVkindle
p100
aVscifi
p101
aVsf
p102
aVe-book
p103
aVshort-story
p104
aVphilip-k-dick
p105
aVamazon
p106
aVe-books
p107
aVgot-for-free
p108
aVaudiobooks
p109
aVroman
p110
aVmy-books
p111
aVclassics
p112
aVboxed-set
p113
aVnew
p114
aVkindle-books
p115
aVown-kindle
p116
aVtbr
p117
aVread-short-stories
p118
aVfantasy
p119
aVz_fiction
p120
aVx_collection
p121
aVp-k-d
p122
aVnot-started
p123
aVw_us_modern
p124
aVsci-fi-fantasy
p125
aVphillip-k-dick-scifi
p126
aVother
p127
aVsoon-tbr
p128
aVdystopias-and-sci-fi
p129
aVowned-books
p130
aVowned-to-read
p131
aVread-2013
p132
aV1950s-to-read
p133
aVkeith-s-read
p134
aVun-sure
p135
aVscifi-fantasy
p136
aVphillip-k-dick
p137
aVgabe
p138
aVei-suom
p139
aVenglish
p140
aV2-partly-read
p141
aVshorts
p142
aV2b
p143
aVv-anglophone
p144
aVspeculative-fiction
p145
aVpsychologisch
p146
aVla_dick-philip-k
p147
aVklassiker
p148
aVhumoristische
p149
aVfiktion
p150
aVdramen
p151
aV0_e-free
p152
aV13
p153
aVowned
p154
aVowned-backlog
p155
aV1950-1959
p156
aVqueued
p157
aVspace
p158
aVreview-needed
p159
aVpoetry-shortstory
p160
aVlit-science-fiction
p161
aVin-the-house-and-in-line
p162
aVfuturistic
p163
aVebooks-i-books
p164
aVdysto-uto-poapoc
p165
aVaward-winning-book-or-author
p166
aVread-in-college
p167
aVebooks-i-own
p168
aVto-read-on-nook
p169
aVowned-tbr
p170
aVkindle-other
p171
aVcalibre
p172
aVto-read-sci-fi
p173
aVbooks-i-own-on-kindle
p174
aVpulp
p175
aVkurzgeschichte
p176
aVweltanschauung
p177
aVwanderlust
p178
aVouter-space
p179
aVnook
p180
aVmystery
p181
aVmale-protagonist
p182
aVdetektiv
p183
aV1950s
p184
aVown-ebook
p185
aVz-dick-philip
p186
aVgenre-sci-fi
p187
aVa-own
p188
aVa-ebooks
p189
aVa-audios
p190
aVread-2003-to-2008
p191
asS'loc_class'
p192
VPS: Language and Literatures: American and Canadian literature
p193
sS'cover_artist'
p194
NsS'n_authors'
p195
I1
sb.