ccopy_reg
_reconstructor
p0
(cdataset.Book
Book
p1
c__builtin__
object
p2
Ntp3
Rp4
(dp5
S'content_name'
p6
V51050.txt.utf-8
p7
sS'isbn'
p8
V1598163574
p9
sS'year'
p10
I1955
sS'author_name'
p11
VEvelyn E. Smith
p12
sS'images_urls'
p13
(lp14
Vhttp://www.gutenberg.org/files/51050/51050-h/images/cover.jpg
p15
aVhttp://www.gutenberg.org/files/51050/51050-h/images/illus.jpg
p16
asS'language_code'
p17
Veng
p18
sS'id'
p19
I898
sS'category'
p20
VText
p21
sS'genres'
p22
(lp23
sS'copyright'
p24
VPublic domain in the USA.
p25
sS'title'
p26
VMan's Best Friend
p27
sS'wikipedia'
p28
(dp29
S'found'
p30
I00
ssS'average_rating'
p31
F3.89
sS'rating_count'
p32
I688
sS'content_available'
p33
I01
sS'cover_art_url'
p34
S'http://www.gutenberg.org/cache/epub/51050/pg51050.cover.medium.jpg'
p35
sS'goodreads'
p36
(dp37
S'url'
p38
Vhttps://www.goodreads.com/book/show/50448.Man_s_Best_Friend
p39
sS'found'
p40
I01
sS'year'
p41
I2004
ssS'similar_books'
p42
(lp43
VLove Mode, Vol. 4
p44
aVThe Devil's Secret
p45
aVInnocent Bird, Volume 2
p46
aVFake, Volume 02
p47
aVPet on Duty
p48
aVYokai's Hunger
p49
aVBrother
p50
aVA Foreign Love Affair
p51
aVJ-Boy By Biblos
p52
asS'description'
p53
NsS'format'
p54
NsS'gutenberg'
p55
(dp56
g38
Vhttp://www.gutenberg.org/ebooks/51050
p57
sS'num'
p58
I51050
ssS'authors'
p59
(lp60
I172
asS'isbn13'
p61
V9781598163575
p62
sS'language'
p63
VEnglish
p64
sS'countries'
p65
(lp66
I2
asS'release_date'
p67
S'2016-01-27T00:00:00'
p68
sS'author'
p69
I172
sS'content_cleaned'
p70
I01
sS'classes'
p71
(lp72
Vto-read
p73
aVmanga
p74
aVyaoi
p75
aVm-m
p76
aVromance
p77
aVbl
p78
aVfavorites
p79
aVyaoi-manga
p80
aVmanga-yaoi
p81
aVgraphic-novels
p82
aVfantasy
p83
aVmanga-read
p84
aVowned
p85
aVdefault
p86
aVerotica
p87
aVmangas
p88
aVmanga-manhwa
p89
aVmanga-comics
p90
aVlgbt
p91
aVcurrently-reading
p92
aVm-m-romance
p93
aVmanga-to-read
p94
aVcomics
p95
aVyaoi-bl
p96
aVbooks-i-own
p97
aVshifters
p98
aVcomedy
p99
aVbl-yaoi
p100
aVm-m-manga
p101
aVyaoi-and-shounen-ai
p102
aVborrowed
p103
aVgay
p104
aVmm-yaoi
p105
aVowned-mangas
p106
aVone-shots
p107
aVshape-shifting
p108
aVsexy-times
p109
aVanimal-stories
p110
aVlgbtqia
p111
aVfumetti
p112
aVto-read-manga-gn
p113
aVsort
p114
aVto-read_manga
p115
aVebooks
p116
aVmanga-bl
p117
aVchallenge-2016
p118
aV2000s
p119
aVyaoi-gave-up-on
p120
aV0-manga-i-own
p121
aVslash
p122
aV5-stars
p123
aVto-reread
p124
aVgraphic-narrative
p125
aVone-shot
p126
aVstatus-library
p127
aVcategory-manga
p128
aVtokyo-pop
p129
aVcomic
p130
aVmm-ya
p131
aVmale-male-romance
p132
aVsmut
p133
aVmanga-translated
p134
aVto-read-at-home
p135
aVhome
p136
aVe-comics
p137
aVkazusa-takashima
p138
aVkeep
p139
aVowned-books
p140
aVrelationships
p141
aVjapanese
p142
aVexplicit
p143
aVmanga-in-german
p144
aVcancelled
p145
aVshounen-ai-yaoi-manga
p146
aVbuy-borrow
p147
aVmm-manga
p148
aVyoung-adult
p149
aVstand-alone
p150
aVnon-e-book
p151
aVmangas-comics
p152
aVtbm
p153
aVm-m-erotica
p154
aVread-bl
p155
aVani-manga
p156
aVhard-copy
p157
aVlove
p158
aVsecond-hand
p159
aVmanga-graphic-novels
p160
aVlgbtq
p161
aVboys-love-manga
p162
aVmy-books
p163
aVall-gn
p164
aVmutants
p165
aVhigh-school
p166
aValternative-universe
p167
aVz7-smanga
p168
aVromance-mm
p169
aV5stars
p170
aVzz8-s-trade
p171
aVtakashima-kazusha
p172
asS'loc_class'
p173
S''
p174
sS'n_authors'
p175
I1
sb.