ccopy_reg
_reconstructor
p0
(cdataset.Book
Book
p1
c__builtin__
object
p2
Ntp3
Rp4
(dp5
S'content_name'
p6
V22239.txt.utf-8
p7
sS'isbn'
p8
V1603122923
p9
sS'year'
p10
I1953
sS'author_name'
p11
VPoul Anderson
p12
sS'images_urls'
p13
(lp14
Vhttp://www.gutenberg.org/files/22239/22239-h/images/001.png
p15
aVhttp://www.gutenberg.org/files/22239/22239-page-images/p121.jpg
p16
aVhttp://www.gutenberg.org/files/22239/22239-page-images/p122.png
p17
aVhttp://www.gutenberg.org/files/22239/22239-page-images/p123.png
p18
aVhttp://www.gutenberg.org/files/22239/22239-page-images/p124.png
p19
aVhttp://www.gutenberg.org/files/22239/22239-page-images/p125.png
p20
aVhttp://www.gutenberg.org/files/22239/22239-page-images/p126.png
p21
aVhttp://www.gutenberg.org/files/22239/22239-page-images/p127.png
p22
aVhttp://www.gutenberg.org/files/22239/22239-page-images/p128.png
p23
aVhttp://www.gutenberg.org/files/22239/22239-page-images/p129.png
p24
aVhttp://www.gutenberg.org/files/22239/22239-page-images/p130.png
p25
aVhttp://www.gutenberg.org/files/22239/22239-page-images/p131.png
p26
aVhttp://www.gutenberg.org/files/22239/22239-page-images/p132.png
p27
aVhttp://www.gutenberg.org/files/22239/22239-page-images/p133.png
p28
aVhttp://www.gutenberg.org/files/22239/22239-page-images/p134.png
p29
aVhttp://www.gutenberg.org/files/22239/22239-page-images/p135.png
p30
aVhttp://www.gutenberg.org/files/22239/22239-page-images/p136.png
p31
aVhttp://www.gutenberg.org/files/22239/22239-page-images/p137.png
p32
aVhttp://www.gutenberg.org/files/22239/22239-page-images/p138.png
p33
aVhttp://www.gutenberg.org/files/22239/22239-page-images/p139.png
p34
aVhttp://www.gutenberg.org/files/22239/22239-page-images/p140.png
p35
aVhttp://www.gutenberg.org/files/22239/22239-page-images/p141.png
p36
aVhttp://www.gutenberg.org/files/22239/22239-page-images/p142.png
p37
aVhttp://www.gutenberg.org/files/22239/22239-page-images/p143.png
p38
aVhttp://www.gutenberg.org/files/22239/22239-page-images/p144.png
p39
aVhttp://www.gutenberg.org/files/22239/22239-page-images/p145.png
p40
aVhttp://www.gutenberg.org/files/22239/22239-page-images/p146.png
p41
aVhttp://www.gutenberg.org/files/22239/22239-page-images/p147.png
p42
aVhttp://www.gutenberg.org/files/22239/22239-page-images/p148.png
p43
aVhttp://www.gutenberg.org/files/22239/22239-page-images/p149.png
p44
aVhttp://www.gutenberg.org/files/22239/22239-page-images/p150.png
p45
aVhttp://www.gutenberg.org/files/22239/22239-page-images/p151.png
p46
aVhttp://www.gutenberg.org/files/22239/22239-page-images/p152.png
p47
asS'language_code'
p48
NsS'id'
p49
I181
sS'category'
p50
VText
p51
sS'genres'
p52
(lp53
sS'copyright'
p54
VPublic domain in the USA.
p55
sS'title'
p56
VSecurity
p57
sS'wikipedia'
p58
(dp59
S'found'
p60
I00
ssS'average_rating'
p61
F4.13
sS'rating_count'
p62
I44
sS'content_available'
p63
I01
sS'goodreads'
p64
(dp65
S'url'
p66
S'https://www.goodreads.com/book/show/1996963.Security'
p67
sS'found'
p68
I01
ssS'similar_books'
p69
(lp70
sS'description'
p71
VPoul Anderson was one of the most popular authors in SF. Born in 1921, he began his career in the Golden Age of SF in the 1950s, and was a regular contributor to "Astounding" SF magazine (later "Analog SF") edited by John W. Campbell. His work encompassed science fiction and fantasy, including the Polesotechnic League series and the Terran Empire series featuring Dominic Flandry, and the fantasy Kingdoms of Ys series, written with his wife Karen. He received seven Hugo and three Nebula Awards, and a SFWA Grandmaster Award among other honors. He died in 2001. "Security" takes place in a future America, where Control and Efficiency are emphasized, and unquestioned loyalty is required. Nobody wants a repeat of the catastrophic war that happened seventy-five years previously, and sacrifices must be made to insure the ultimate peace. Or so Dr. Allen Lancaster, a Sector Chief on a Project believes, until Security decides his planned vacation will be spent in space on a top secret project. People who learn too much have been jailed or even shot as security risks. Is Dr. Lancaster's new assignment a blessing or a curse? He will find out . . .
p72
sS'gutenberg'
p73
(dp74
S'url'
p75
Vhttp://www.gutenberg.org/ebooks/22239
p76
sS'num'
p77
I22239
ssS'authors'
p78
(lp79
I30
asS'pages'
p80
I120
sS'isbn13'
p81
V9781603122924
p82
sS'language'
p83
VEnglish
p84
sS'countries'
p85
(lp86
I2
asS'release_date'
p87
S'2007-08-04T00:00:00'
p88
sS'author'
p89
I30
sS'content_cleaned'
p90
I01
sS'classes'
p91
(lp92
Vto-read
p93
aVscience-fiction
p94
aVfiction
p95
aVsci-fi
p96
aVcurrently-reading
p97
aVscifi
p98
aVaudiobooks
p99
aVshort-stories
p100
aVunread
p101
aVsf
p102
aVread-2013
p103
aVaudio-book
p104
aVsci-fi-fantasy
p105
aVebooks
p106
aVowned
p107
aVhave
p108
aVroundtuit
p109
aVon-pc-to-read
p110
aVbest-free-reads
p111
aVamerican
p112
aVfrom-usa
p113
aVtbr-owned
p114
aVshort
p115
aVown-audiobook
p116
aVhoopla
p117
aVowned-pending-kindle-free-ebook
p118
aVkindle-free-ebook
p119
aVno-time-soon
p120
aVscifi-fantasy
p121
aVshelfari-english
p122
aVshelfari-e-book
p123
aVsf-amp-f
p124
aVproject-gutenberg
p125
aVenglisch
p126
aVebook
p127
aVundecided
p128
aVmy-library
p129
aVpaul
p130
aVsci-fi-or-speculative
p131
aVto-investigate
p132
aVadventure-suspense
p133
aVutopia-dystopia
p134
aVmy-ebooks
p135
aVkindle
p136
aVe-book
p137
aVown-on-kindle
p138
aVe-books
p139
aVburroughs-books
p140
aV3-ebooks
p141
aVpublic-domain
p142
aVaudio
p143
aVbacklog
p144
aVhigh-priority-tbr
p145
aVround-tuit
p146
aVe-books-to-read
p147
aV3a-ebooks
p148
aVbacklogue
p149
asS'loc_class'
p150
VPS: Language and Literatures: American and Canadian literature
p151
sS'n_authors'
p152
I1
sb.