ccopy_reg
_reconstructor
p0
(cdataset.Book
Book
p1
c__builtin__
object
p2
Ntp3
Rp4
(dp5
S'content_name'
p6
V51814.txt.utf-8
p7
sS'isbn'
p8
V0345285751
p9
sS'year'
p10
I1955
sS'author_name'
p11
VEdson McCann
p12
sS'images_urls'
p13
(lp14
Vhttp://www.gutenberg.org/files/51814/51814-h/images/cover.jpg
p15
aVhttp://www.gutenberg.org/files/51814/51814-h/images/cover2.jpg
p16
aVhttp://www.gutenberg.org/files/51814/51814-h/images/cover3.jpg
p17
aVhttp://www.gutenberg.org/files/51814/51814-h/images/cover4.jpg
p18
aVhttp://www.gutenberg.org/files/51814/51814-h/images/illus1.jpg
p19
aVhttp://www.gutenberg.org/files/51814/51814-h/images/illus2.jpg
p20
aVhttp://www.gutenberg.org/files/51814/51814-h/images/illus3.jpg
p21
aVhttp://www.gutenberg.org/files/51814/51814-h/images/illus4.jpg
p22
aVhttp://www.gutenberg.org/files/51814/51814-h/images/illus5.jpg
p23
aVhttp://www.gutenberg.org/files/51814/51814-h/images/illus6.jpg
p24
aVhttp://www.gutenberg.org/files/51814/51814-h/images/illus7.jpg
p25
aVhttp://www.gutenberg.org/files/51814/51814-h/images/illus8.jpg
p26
aVhttp://www.gutenberg.org/files/51814/51814-h/images/illus9.jpg
p27
aVhttp://www.gutenberg.org/files/51814/51814-h/images/illus10.jpg
p28
aVhttp://www.gutenberg.org/files/51814/51814-h/images/illus11.jpg
p29
aVhttp://www.gutenberg.org/files/51814/51814-h/images/illus12.jpg
p30
aVhttp://www.gutenberg.org/files/51814/51814-h/images/illus13.jpg
p31
aVhttp://www.gutenberg.org/files/51814/51814-h/images/illus14.jpg
p32
aVhttp://www.gutenberg.org/files/51814/51814-h/images/illus15.jpg
p33
aVhttp://www.gutenberg.org/files/51814/51814-h/images/illus16.jpg
p34
asS'language_code'
p35
NsS'images'
p36
(lp37
sS'id'
p38
I248
sS'category'
p39
VText
p40
sS'genres'
p41
(lp42
sS'copyright'
p43
VPublic domain in the USA.
p44
sS'title'
p45
VPreferred Risk
p46
sS'wikipedia'
p47
(dp48
S'found'
p49
I00
ssS'average_rating'
p50
F3.21
sS'rating_count'
p51
I49
sS'content_available'
p52
I01
sS'cover_art_url'
p53
S'http://www.gutenberg.org/cache/epub/51814/pg51814.cover.medium.jpg'
p54
sS'goodreads'
p55
(dp56
S'url'
p57
Vhttps://www.goodreads.com/book/show/872988.Preferred_Risk
p58
sg49
I01
sS'year'
p59
I1955
ssS'similar_books'
p60
(lp61
sS'description'
p62
VThe Company was a powerful, efficient, and monstrous insurance organization that controlled the entire world, scientifically regulating everything in life: war, epidemics, one-a-day food pills and test-tube sex...all through the use of its patented, terrifying human deep-freeze vault. Claims Adjuster Wills, a great believer in the Company, begins to have second thoughts when he meets beautiful and sorrowful Rena, whose radical father lies in a frozen subterranean vault.
p63
sS'format'
p64
VMass Market Paperback
p65
sS'gutenberg'
p66
(dp67
g57
Vhttp://www.gutenberg.org/ebooks/51814
p68
sS'num'
p69
I51814
ssS'authors'
p70
(lp71
I82
asS'pages'
p72
I187
sS'isbn13'
p73
V9780345285751
p74
sS'language'
p75
VEnglish
p76
sS'country'
p77
I3
sS'release_date'
p78
S'2016-04-21T00:00:00'
p79
sS'author'
p80
I82
sS'content_cleaned'
p81
I01
sS'classes'
p82
(lp83
Vto-read
p84
aVscience-fiction
p85
aVsci-fi
p86
aVsf
p87
aVcollection
p88
aVsold
p89
aVscifi
p90
aVdefault
p91
aVfiction
p92
aVpaperback
p93
aVsoftcover
p94
aVcurrently-reading
p95
aVpre-goodreads
p96
aVdystopie
p97
aVaudiobook
p98
aVpreviously-read-1980-2014
p99
aVaudiobooks
p100
aVowned
p101
aVlost-interest
p102
aVmy
p103
aVclassics
p104
aV_moewig-taschenbuch
p105
aVscience-fiction-uncategorized
p106
aVavailable
p107
aVdad-paperback
p108
aV201
p109
aVnovels
p110
aVowned-books
p111
aVxx
p112
aVbelletristik
p113
aVmy-collection
p114
aVpaul
p115
aVdeutsch
p116
aVdidnt-finish
p117
aVowned-unread
p118
aVowned-not-read
p119
aVmine
p120
aVwish-list
p121
aVfantasy-science-fiction
p122
aVi-own
p123
aVz-pohl-frederik
p124
aVgenre-sci-fi
p125
aVa-own
p126
aVa-audios
p127
aVread-in-1985
p128
aVread70s
p129
aVgolden-age-science-fiction
p130
aVmarket
p131
aVmass
p132
aVebooks
p133
asS'loc_class'
p134
S''
p135
sS'n_authors'
p136
I1
sb.