ccopy_reg
_reconstructor
p0
(cdataset.Book
Book
p1
c__builtin__
object
p2
Ntp3
Rp4
(dp5
S'similar_books'
p6
(lp7
sS'genres'
p8
(lp9
sS'author'
p10
I918
sS'countries'
p11
(lp12
I2
asS'year'
p13
I1953
sS'title'
p14
VIF Magazine March 1953
p15
sS'cover'
p16
Vhttps://ia600207.us.archive.org/BookReader/BookReaderImages.php?zip=/3/items/1953-03_IF/1953-03_IF_jp2.zip&file=1953-03_IF_jp2/1953-03_IF_0000.jp2&scale=0&rotate=0
p17
sS'cover_art'
p18
S'http://www.philsp.com/visco/Magazines/WIF123/WIF1_0001.jpg'
p19
sS'author_name'
p20
VIF Magazine
p21
sS'images_urls'
p22
(lp23
sS'authors'
p24
(lp25
I951
aI363
aI931
aI412
aI944
aI424
aI497
aI948
aI952
aI326
aI221
aI953
aI88
aI249
aI109
aI954
aI955
aI918
asS'images'
p26
(lp27
sS'id'
p28
I1224
sS'contents'
p29
(lp30
(dp31
g10
I951
sg14
VDefense Base On the Moon
p32
sa(dp33
g10
I363
sg14
VDeadly City
p34
sa(dp35
g10
I931
sg14
VMargin of Error
p36
sa(dp37
g10
I412
sg14
VThe Victor
p38
sa(dp39
g10
I944
sg14
VThy Name Is Woman
p40
sa(dp41
g10
I424
sg14
VThe Sword
p42
sa(dp43
g10
I497
sg14
VThe Rotifers
p44
sa(dp45
g10
I951
sg14
VThe Black Tide
p46
sa(dp47
g10
I951
sg14
VOn Target
p48
sa(dp49
g10
I948
sg14
VA Chat with the Editor (If, March 1953)
p50
sa(dp51
g10
I952
sg14
VPersonalities in Science: Galileo
p52
sa(dp53
g10
I326
sg14
VScience Briefs (If, March 1953)
p54
sa(dp55
g10
I326
sg14
VThe Postman Cometh (If, March 1953)
p56
sa(dp57
g10
I221
sg14
VDeadly City
p58
sa(dp59
g10
I953
sg14
VMargin of Error
p60
sa(dp61
g10
I88
sg14
VThe Victor
p62
sa(dp63
g10
I88
sg14
VThy Name Is Woman
p64
sa(dp65
g10
I249
sg14
VThe Sword
p66
sa(dp67
g10
I109
sg14
VThe Rotifers
p68
sa(dp69
g10
I954
sg14
VThe Black Tide
p70
sa(dp71
g10
I955
sg14
VThe Salesman
p72
sasb.