ccopy_reg
_reconstructor
p0
(cdataset.Book
Book
p1
c__builtin__
object
p2
Ntp3
Rp4
(dp5
S'similar_books'
p6
(lp7
sS'genres'
p8
(lp9
sS'author'
p10
I918
sS'countries'
p11
(lp12
I2
asS'year'
p13
I1952
sS'title'
p14
VIF Magazine September 1952
p15
sS'cover'
p16
Vhttps://ia600201.us.archive.org/BookReader/BookReaderImages.php?zip=/27/items/1952-09_IF/1952-09_IF_jp2.zip&file=1952-09_IF_jp2/1952-09_IF_0000.jp2&scale=0&rotate=0
p17
sS'cover_art'
p18
S'http://www.isfdb.org/wiki/images/4/4e/WOFIFSEP1952.jpg'
p19
sS'author_name'
p20
VIF Magazine
p21
sS'images_urls'
p22
(lp23
sS'authors'
p24
(lp25
I931
aI929
aI938
aI326
aI939
aI221
aI920
aI940
aI941
aI8
aI135
aI942
aI943
aI441
aI935
aI345
aI933
aI255
aI918
asS'images'
p26
(lp27
sS'id'
p28
I1221
sS'contents'
p29
(lp30
(dp31
g10
I931
sg14
VThe Beautiful People
p32
sa(dp33
g10
I929
sg14
VHoles, Incorporated
p34
sa(dp35
g10
I938
sg14
VMarley's Chain
p36
sa(dp37
g10
I326
sg14
VAn Empty Bottle
p38
sa(dp39
g10
I939
sg14
VShock Treatment
p40
sa(dp41
g10
I326
sg14
VSinister Paradise
p42
sa(dp43
g10
I221
sg14
VA Chat with the Editor ... (If, September 1952)
p44
sa(dp45
g10
I221
sg14
VPersonalities in Science Fiction: Jules Verne
p46
sa(dp47
g10
I920
sg14
VScience Briefs (If, September 1952)
p48
sa(dp49
g10
I940
sg14
VGuest Editorial
p50
sa(dp51
g10
I326
sg14
VThe Postman Cometh ... (If, September 1952)
p52
sa(dp53
g10
I941
sg14
VShock Treatment
p54
sa(dp55
g10
I8
sg14
VThe Skull
p56
sa(dp57
g10
I135
sg14
VSinister Paradise
p58
sa(dp59
g10
I942
sg14
VThe Beautiful People
p60
sa(dp61
g10
I943
sg14
VHoles, Incorporated
p62
sa(dp63
g10
I441
sg14
VMarley's Chain
p64
sa(dp65
g10
I935
sg14
VAn Empty Bottle
p66
sa(dp67
g10
I345
sg14
VThe Space Clause
p68
sa(dp69
g10
I933
sg14
VThe Clean and Wholesome Land
p70
sa(dp71
g10
I255
sg14
VThe Last Supper
p72
sasb.