ccopy_reg
_reconstructor
p0
(cdataset.Book
Book
p1
c__builtin__
object
p2
Ntp3
Rp4
(dp5
S'content_name'
p6
V50719.txt.utf-8
p7
sS'isbn'
p8
V0986037362
p9
sS'year'
p10
I2013
sS'author_name'
p11
VMurray Leinster
p12
sS'images_urls'
p13
(lp14
Vhttp://www.gutenberg.org/files/50719/50719-h/images/cover.jpg
p15
aVhttp://www.gutenberg.org/files/50719/50719-h/images/illus.jpg
p16
asS'language_code'
p17
Veng
p18
sS'images'
p19
(lp20
sS'id'
p21
I590
sS'category'
p22
VText
p23
sS'genres'
p24
(lp25
sS'copyright'
p26
VPublic domain in the USA.
p27
sS'title'
p28
VJuju
p29
sS'wikipedia'
p30
(dp31
S'found'
p32
I00
ssS'average_rating'
p33
F4.12
sS'rating_count'
p34
I15
sS'content_available'
p35
I01
sS'cover_art_url'
p36
S'http://www.gutenberg.org/cache/epub/50719/pg50719.cover.medium.jpg'
p37
sS'goodreads'
p38
(dp39
S'url'
p40
Vhttps://www.goodreads.com/book/show/18816137-the-starburst-juju
p41
sg32
I01
sS'year'
p42
I2013
ssS'similar_books'
p43
(lp44
VPinkalicious: Pink or Treat!
p45
aVSecrets at the Chocolate Mansion
p46
aVRobomop
p47
aVDinosaurology (Ologies, #12)
p48
aVGrave Images
p49
aVLone Wolves
p50
aVThe Lost Planet (Chase Garrety #1)
p51
aVMillions, Billions, & Trillions
p52
aVLost on Mars
p53
aVNothing... Except My Genius
p54
aVRufus Goes to School
p55
aVA Perfect Storm (Saranormal, #10)
p56
aVStick!
p57
aVRunt
p58
aVBlucy: The Blue Cat
p59
aVRaids and Rescues (The Secret Zoo #5)
p60
aVDarkbeast Rebellion (Darkbeast, #2)
p61
aVThe Changeling
p62
asS'description'
p63
VPerfect for Middle Graders: Pepper, a 15-year-old girl living in the aftermath of an economically collapsed earth, prepares to witness the annual abduction of humans by extraterrestrials. When its Pepper's parents who are taken, she learns that they are not the humble human schoolteachers she thought she knew, but two of the most powerful inventors throughout many worlds. Desperate to find them, Pepper will do anything to get them back, even if it means finding the otherworldly Starburst Juju, a stone that can free her parents from alien confinement.<br /><br />A percentage of this purchase will go to Book Trust, whose mission is to deliver choice and ownership of books to children from low-income families, increasing their literacy skills and fostering life-long learning.<br /><br /><a target="_blank" href="http://www.BookTrust.org" rel="nofollow">www.BookTrust.org</a><br /><br />Designer: David M.F. Powers
p64
sS'format'
p65
VPaperback
p66
sS'gutenberg'
p67
(dp68
g40
Vhttp://www.gutenberg.org/ebooks/50719
p69
sS'num'
p70
I50719
ssS'authors'
p71
(lp72
I61
asS'pages'
p73
I280
sS'isbn13'
p74
V9780986037368
p75
sS'language'
p76
VEnglish
p77
sS'country'
p78
I2
sS'release_date'
p79
S'2015-12-19T00:00:00'
p80
sS'author'
p81
I61
sS'content_cleaned'
p82
I01
sS'classes'
p83
(lp84
Vto-read
p85
aVsci-fi
p86
aVi-need-these
p87
aVread-but-not-finished
p88
aVto-read-or-not-to-read
p89
aVentered-in-giveaway
p90
aVyoung-adult
p91
aVfemale-pov
p92
aV2013-release
p93
aVfirst-reads
p94
aVon-deck
p95
aVrandom
p96
aVreordering
p97
aVentered-to-win
p98
aVmaybe-read
p99
aVkindle-books
p100
aVbooks-i-own
p101
asS'loc_class'
p102
VPS: Language and Literatures: American and Canadian literature
p103
sS'n_authors'
p104
I1
sb.