ccopy_reg
_reconstructor
p0
(cdataset.Book
Book
p1
c__builtin__
object
p2
Ntp3
Rp4
(dp5
S'content_name'
p6
V23028.txt.utf-8
p7
sS'isbn'
p8
V1437800351
p9
sS'year'
p10
I1951
sS'author_name'
p11
VKeith Laumer
p12
sS'images_urls'
p13
(lp14
Vhttp://www.gutenberg.org/files/23028/23028-page-images/p029.png
p15
aVhttp://www.gutenberg.org/files/23028/23028-page-images/p030.png
p16
aVhttp://www.gutenberg.org/files/23028/23028-page-images/p031.png
p17
aVhttp://www.gutenberg.org/files/23028/23028-page-images/p032.png
p18
aVhttp://www.gutenberg.org/files/23028/23028-page-images/p033.png
p19
aVhttp://www.gutenberg.org/files/23028/23028-page-images/p034.png
p20
aVhttp://www.gutenberg.org/files/23028/23028-page-images/p035.png
p21
aVhttp://www.gutenberg.org/files/23028/23028-page-images/p036.png
p22
aVhttp://www.gutenberg.org/files/23028/23028-page-images/p037.png
p23
aVhttp://www.gutenberg.org/files/23028/23028-page-images/p038.png
p24
aVhttp://www.gutenberg.org/files/23028/23028-page-images/p039.png
p25
aVhttp://www.gutenberg.org/files/23028/23028-page-images/p040.png
p26
aVhttp://www.gutenberg.org/files/23028/23028-page-images/p041.png
p27
aVhttp://www.gutenberg.org/files/23028/23028-page-images/p042.png
p28
aVhttp://www.gutenberg.org/files/23028/23028-page-images/p043.png
p29
aVhttp://www.gutenberg.org/files/23028/23028-page-images/p044.png
p30
aVhttp://www.gutenberg.org/files/23028/23028-page-images/p045.png
p31
aVhttp://www.gutenberg.org/files/23028/23028-page-images/p046.png
p32
aVhttp://www.gutenberg.org/files/23028/23028-page-images/p047.png
p33
aVhttp://www.gutenberg.org/files/23028/23028-page-images/p048.png
p34
aVhttp://www.gutenberg.org/files/23028/23028-page-images/p049.png
p35
aVhttp://www.gutenberg.org/files/23028/23028-page-images/p050.png
p36
aVhttp://www.gutenberg.org/files/23028/23028-page-images/p051.png
p37
aVhttp://www.gutenberg.org/files/23028/23028-page-images/p052.png
p38
aVhttp://www.gutenberg.org/files/23028/23028-page-images/p053.png
p39
aVhttp://www.gutenberg.org/files/23028/23028-page-images/p054.png
p40
aVhttp://www.gutenberg.org/files/23028/23028-page-images/p055.png
p41
aVhttp://www.gutenberg.org/files/23028/23028-page-images/p056.png
p42
aVhttp://www.gutenberg.org/files/23028/23028-page-images/p057.png
p43
aVhttp://www.gutenberg.org/files/23028/23028-page-images/p058.png
p44
aVhttp://www.gutenberg.org/files/23028/23028-page-images/p059.png
p45
aVhttp://www.gutenberg.org/files/23028/23028-page-images/p060.png
p46
aVhttp://www.gutenberg.org/files/23028/23028-page-images/p061.png
p47
aVhttp://www.gutenberg.org/files/23028/23028-page-images/p062.png
p48
aVhttp://www.gutenberg.org/files/23028/23028-page-images/p063.png
p49
aVhttp://www.gutenberg.org/files/23028/23028-page-images/p064.png
p50
aVhttp://www.gutenberg.org/files/23028/23028-page-images/p065.png
p51
aVhttp://www.gutenberg.org/files/23028/23028-page-images/p066.png
p52
aVhttp://www.gutenberg.org/files/23028/23028-page-images/p067.png
p53
aVhttp://www.gutenberg.org/files/23028/23028-page-images/p068.png
p54
aVhttp://www.gutenberg.org/files/23028/23028-page-images/p069.png
p55
aVhttp://www.gutenberg.org/files/23028/23028-page-images/p070.png
p56
asS'language_code'
p57
NsS'images'
p58
(lp59
sS'id'
p60
I476
sS'category'
p61
VText
p62
sS'genres'
p63
(lp64
sS'copyright'
p65
VPublic domain in the USA.
p66
sS'title'
p67
VGreylorn
p68
sS'wikipedia'
p69
(dp70
S'found'
p71
I00
ssS'average_rating'
p72
F3.47
sS'rating_count'
p73
I70
sS'content_available'
p74
I01
sS'goodreads'
p75
(dp76
S'url'
p77
Vhttps://www.goodreads.com/book/show/4788240-greylorn
p78
sg71
I01
sS'year'
p79
I1951
ssS'similar_books'
p80
(lp81
sS'description'
p82
VCommander Greylorn leads humanity's last hope, one spaceship racing through the voids of the universe. The Red Tide has all but engulfed the Earth, just enough time to find planet Omega, colonized long ago and vanished. After four years, food stores are destroyed by meteor, crew set to mutiny, and alien ship with cargo of human bodies. 1 Greylorn 1959. <br />2 The Night of the Trolls (Bolo) 1963<br />3 The Other Sky 1968 aka The Further Sky<br />4 The King of the City 1961
p83
sS'format'
p84
NsS'gutenberg'
p85
(dp86
g77
Vhttp://www.gutenberg.org/ebooks/23028
p87
sS'num'
p88
I23028
ssS'authors'
p89
(lp90
I67
asS'isbn13'
p91
V9781437800357
p92
sS'language'
p93
VEnglish
p94
sS'release_date'
p95
S'2007-10-13T00:00:00'
p96
sS'author'
p97
I67
sS'content_cleaned'
p98
I01
sS'classes'
p99
(lp100
Vto-read
p101
aVscience-fiction
p102
aVscifi
p103
aVcurrently-reading
p104
aVsci-fi
p105
aVshort-stories
p106
aVcataloged
p107
aVaudiobook
p108
aVsf
p109
aVaudiobooks
p110
aVwar
p111
aVadventure
p112
aVhard-science-fiction
p113
aVon-calibre-to-read
p114
aVroundtuit
p115
aVunread
p116
aVtbr-owned
p117
aVsolo
p118
aVscif-fi
p119
aVdefault
p120
aVown-audiobook
p121
aVowned-pending-kindle-free-ebook
p122
aVno-time-soon
p123
aVshelfari-war
p124
aVshelfari-sci-fi
p125
aVshelfari-psychology
p126
aVshelfari-humor
p127
aVshelfari-fiction
p128
aVshelfari-detective
p129
aVshelfari-deception
p130
aVshelfari-aliens
p131
aVshelfari-adventure
p132
aVsf-f
p133
aVsf-amp-f
p134
aVkeith-laumer
p135
aVclassic-science-fiction
p136
aVebooks
p137
aVliterature-20th-century
p138
aVowned-amazon
p139
aVeb-other
p140
aVeb
p141
aVamazon
p142
aVfantasy
p143
aVfan
p144
aVaction
p145
aVp-mass-market-pb
p146
aVfun
p147
aVold-scifi
p148
aVall-paper
p149
aVaudio
p150
aVreview
p151
aVdetective
p152
aValiens
p153
aVclassic
p154
aVpsychology
p155
aVdeception
p156
aVscience
p157
aVhumor
p158
aVsci-fi-fantasy
p159
aVfiction
p160
aVbacklog
p161
aVhigh-priority-tbr
p162
aVround-tuit
p163
aVbacklogue
p164
asS'loc_class'
p165
VPS: Language and Literatures: American and Canadian literature
p166
sS'n_authors'
p167
I1
sb.