ccopy_reg
_reconstructor
p0
(cdataset.Book
Book
p1
c__builtin__
object
p2
Ntp3
Rp4
(dp5
S'content_name'
p6
V23636.txt.utf-8
p7
sS'isbn'
p8
NsS'year'
p9
I1959
sS'author_name'
p10
VMurray Leinster
p11
sS'images_urls'
p12
(lp13
Vhttp://www.gutenberg.org/files/23636/23636-h/images/illus1.jpg
p14
aVhttp://www.gutenberg.org/files/23636/23636-h/images/illus2.jpg
p15
aVhttp://www.gutenberg.org/files/23636/23636-h/images/illus3.jpg
p16
aVhttp://www.gutenberg.org/files/23636/23636-h/images/illus4.jpg
p17
aVhttp://www.gutenberg.org/files/23636/23636-page-images/p066-image.png
p18
aVhttp://www.gutenberg.org/files/23636/23636-page-images/p066.png
p19
aVhttp://www.gutenberg.org/files/23636/23636-page-images/p067.png
p20
aVhttp://www.gutenberg.org/files/23636/23636-page-images/p068.png
p21
aVhttp://www.gutenberg.org/files/23636/23636-page-images/p069.png
p22
aVhttp://www.gutenberg.org/files/23636/23636-page-images/p070.png
p23
aVhttp://www.gutenberg.org/files/23636/23636-page-images/p071.png
p24
aVhttp://www.gutenberg.org/files/23636/23636-page-images/p072.png
p25
aVhttp://www.gutenberg.org/files/23636/23636-page-images/p073.png
p26
aVhttp://www.gutenberg.org/files/23636/23636-page-images/p074-image.png
p27
aVhttp://www.gutenberg.org/files/23636/23636-page-images/p074.png
p28
aVhttp://www.gutenberg.org/files/23636/23636-page-images/p075.png
p29
aVhttp://www.gutenberg.org/files/23636/23636-page-images/p076.png
p30
aVhttp://www.gutenberg.org/files/23636/23636-page-images/p077.png
p31
aVhttp://www.gutenberg.org/files/23636/23636-page-images/p078.png
p32
aVhttp://www.gutenberg.org/files/23636/23636-page-images/p079.png
p33
aVhttp://www.gutenberg.org/files/23636/23636-page-images/p080.png
p34
aVhttp://www.gutenberg.org/files/23636/23636-page-images/p081.png
p35
aVhttp://www.gutenberg.org/files/23636/23636-page-images/p082.png
p36
aVhttp://www.gutenberg.org/files/23636/23636-page-images/p083.png
p37
aVhttp://www.gutenberg.org/files/23636/23636-page-images/p084.png
p38
aVhttp://www.gutenberg.org/files/23636/23636-page-images/p085.png
p39
aVhttp://www.gutenberg.org/files/23636/23636-page-images/p086.png
p40
aVhttp://www.gutenberg.org/files/23636/23636-page-images/p087.png
p41
aVhttp://www.gutenberg.org/files/23636/23636-page-images/p088.png
p42
aVhttp://www.gutenberg.org/files/23636/23636-page-images/p089.png
p43
aVhttp://www.gutenberg.org/files/23636/23636-page-images/p090.png
p44
aVhttp://www.gutenberg.org/files/23636/23636-page-images/p091.png
p45
aVhttp://www.gutenberg.org/files/23636/23636-page-images/p092-image.png
p46
aVhttp://www.gutenberg.org/files/23636/23636-page-images/p092.png
p47
aVhttp://www.gutenberg.org/files/23636/23636-page-images/p093.png
p48
aVhttp://www.gutenberg.org/files/23636/23636-page-images/p094.png
p49
aVhttp://www.gutenberg.org/files/23636/23636-page-images/p095.png
p50
aVhttp://www.gutenberg.org/files/23636/23636-page-images/p096.png
p51
aVhttp://www.gutenberg.org/files/23636/23636-page-images/p097.png
p52
asS'language_code'
p53
NsS'images'
p54
(lp55
sS'id'
p56
I959
sS'category'
p57
VText
p58
sS'genres'
p59
(lp60
sS'copyright'
p61
VPublic domain in the USA.
p62
sS'title'
p63
VA Matter of Importance
p64
sS'wikipedia'
p65
(dp66
S'found'
p67
I00
ssS'average_rating'
p68
F3.15
sS'rating_count'
p69
I9
sS'content_available'
p70
I01
sS'goodreads'
p71
(dp72
S'url'
p73
S'https://www.goodreads.com/book/show/6303377-a-matter-of-importance'
p74
sS'found'
p75
I01
ssS'similar_books'
p76
(lp77
sS'description'
p78
NsS'gutenberg'
p79
(dp80
S'url'
p81
Vhttp://www.gutenberg.org/ebooks/23636
p82
sS'num'
p83
I23636
ssS'authors'
p84
(lp85
I61
asS'isbn13'
p86
NsS'language'
p87
VEnglish
p88
sS'countries'
p89
(lp90
I2
asS'release_date'
p91
S'2007-11-26T00:00:00'
p92
sS'author'
p93
I61
sS'content_cleaned'
p94
I01
sS'classes'
p95
(lp96
Vto-read
p97
aVsci-fi
p98
aVcurrently-reading
p99
aVlibrary
p100
aVebooks
p101
aVlistened-on-podcast
p102
aVforgotten-classics
p103
aVaudiobooks
p104
aVpodcast
p105
aVscience-fiction
p106
aVscifi
p107
aVclassic-sci-fi
p108
asS'loc_class'
p109
VPS: Language and Literatures: American and Canadian literature
p110
sS'n_authors'
p111
I1
sb.