ccopy_reg
_reconstructor
p0
(cdataset.Book
Book
p1
c__builtin__
object
p2
Ntp3
Rp4
(dp5
S'similar_books'
p6
(lp7
sS'genres'
p8
(lp9
sS'author'
p10
I302
sS'countries'
p11
(lp12
I2
asS'year'
p13
I1952
sS'title'
p14
VGalaxy Magazine October 1952
p15
sS'cover'
p16
Vhttps://ia600205.us.archive.org/BookReader/BookReaderImages.php?zip=/9/items/Galaxy_v05n01_1952-10/Galaxy_v05n01_1952-10_jp2.zip&file=Galaxy_v05n01_1952-10_jp2/Galaxy_v05n01_1952-10_0000.jp2&scale=0&rotate=0
p17
sS'cover_art'
p18
S'http://www.isfdb.org/wiki/images/4/46/GALOCT1952.jpg'
p19
sS'author_name'
p20
VGalaxy Magazine
p21
sS'images_urls'
p22
(lp23
sS'authors'
p24
(lp25
I326
aI405
aI406
aI407
aI408
aI409
aI410
aI402
aI342
aI363
aI411
aI336
aI412
aI305
aI339
aI340
aI70
aI413
aI414
aI24
aI289
aI137
aI302
asS'images'
p26
(lp27
sS'id'
p28
I997
sS'contents'
p29
(lp30
(dp31
g10
I326
sg14
VGalaxy's Birthday Party
p32
sa(dp33
g10
I405
sg14
VBa
p34
sa(dp35
g10
I406
sg14
VBa
p36
sa(dp37
g10
I407
sg14
VBa
p38
sa(dp39
g10
I408
sg14
VBa
p40
sa(dp41
g10
I409
sg14
VBa
p42
sa(dp43
g10
I410
sg14
VBa
p44
sa(dp45
g10
I402
sg14
VZen
p46
sa(dp47
g10
I342
sg14
VWait for Weight
p48
sa(dp49
g10
I363
sg14
VHalo
p50
sa(dp51
g10
I363
sg14
VHalo [2]
p52
sa(dp53
g10
I363
sg14
VHalo [3]
p54
sa(dp55
g10
I363
sg14
VHalo [4]
p56
sa(dp57
g10
I411
sg14
VTree, Spare That Woodman
p58
sa(dp59
g10
I336
sg14
VGame for Blondes
p60
sa(dp61
g10
I412
sg14
VA Little Oil ...
p62
sa(dp63
g10
I412
sg14
VA Little Oil ... [2]
p64
sa(dp65
g10
I412
sg14
VA Little Oil ... [3]
p66
sa(dp67
g10
I305
sg14
VAnnual Report to Our Readers
p68
sa(dp69
g10
I339
sg14
VFor Your Information: The World of 2052
p70
sa(dp71
g10
I340
sg14
VGalaxy's Five Star Shelf (Galaxy, October 1952)
p72
sa(dp73
g10
I326
sg14
VForecast (Galaxy, October 1952)
p74
sa(dp75
g10
I70
sg14
VHalo
p76
sa(dp77
g10
I413
sg14
VA Little Oil ...
p78
sa(dp79
g10
I414
sg14
VZen
p80
sa(dp81
g10
I24
sg14
VWait for Weight
p82
sa(dp83
g10
I289
sg14
VTree, Spare That Woodman
p84
sa(dp85
g10
I137
sg14
VGame for Blondes
p86
sasb.