ccopy_reg
_reconstructor
p0
(cdataset.Book
Book
p1
c__builtin__
object
p2
Ntp3
Rp4
(dp5
S'content_name'
p6
V17026.txt.utf-8
p7
sS'isbn'
p8
V3655161603
p9
sS'year'
p10
I1998
sS'author_name'
p11
VCory Doctorow
p12
sS'images_urls'
p13
(lp14
sS'language_code'
p15
Veng
p16
sS'id'
p17
I380
sS'category'
p18
VText
p19
sS'genres'
p20
(lp21
sS'copyright'
p22
VCopyrighted. Read the copyright notice inside this book for details.
p23
sS'title'
p24
VCraphound
p25
sS'wikipedia'
p26
(dp27
S'found'
p28
I00
ssS'average_rating'
p29
F3.67
sS'rating_count'
p30
I296
sS'content_available'
p31
I01
sS'goodreads'
p32
(dp33
S'url'
p34
Vhttps://www.goodreads.com/book/show/12188858-craphound
p35
sS'found'
p36
I01
sS'year'
p37
I1998
ssS'similar_books'
p38
(lp39
VAppeals Court
p40
aVExhalation
p41
aVBonds of Fire
p42
aVBritish Flash: A revealing collection of short LGBT fiction
p43
aVThe Nemesis Worm
p44
aVSecret Santa Surprise
p45
aVBlindsided
p46
aVThe Hanging Stranger
p47
aVStarting Over
p48
aVSome Desperado
p49
aVPoint Apocalypse
p50
aVLittle Brother (Cory Doctorow Novel)
p51
aVBlack as Blood (InCryptid, #2.6)
p52
aVSaints and Sinners: Paint Your Dragon and Open Sesame
p53
aVIf at First . . .
p54
aVThe Dead Love Longer
p55
aVDon't Read in the Closet: Volume Four
p56
aVMuse of Fire
p57
asS'description'
p58
VFrom "A Place So Foreign and Eight More," a short story collection published in September, 2003 by Four Walls Eight Windows Press (ISBN 1568582862). See <a target="_blank" href="http://craphound.com/place" rel="nofollow">http://craphound.com/place</a> for more.<br /><br />Originally Published in Science Fiction Age, March 1998 Reprinted in:<br /><br />* Northern Suns (Tor, 1999, David Hartwell and Glenn Grant, editors)<br />* Year's Best Science Fiction XVI (Morrow, 1999, Gardner Dozois, editor)<br />* Hayakawa Science Fiction Magazine (Japan) September 2001<br /><br />"Like most aliens-mingling-with-human-society stories, Doctorow's story serves mostly to hold a mirror up to human nature, but the odd corner of human nature it examines is fascinating, and the story is smoothly and expertly written, with some good detail and local color and some shrewd insights into human nature and human culture, and an almost Bradburian vein of rich nostalgia running through it (although the nostalgia is quirky enough that perhaps it might more usefully be compared to R.A. Lafferty or Terry Bisson than to Bradbury)."- Gardner Dozois Editor, Asimov's Science Fiction Magazine
p59
sS'gutenberg'
p60
(dp61
g34
Vhttp://www.gutenberg.org/ebooks/17026
p62
sS'num'
p63
I17026
ssS'authors'
p64
(lp65
I33
asS'pages'
p66
I10
sS'isbn13'
p67
V9783655161609
p68
sS'language'
p69
VEnglish
p70
sS'countries'
p71
(lp72
I8
aI1
asS'release_date'
p73
S'2005-11-20T00:00:00'
p74
sS'author'
p75
I33
sS'content_cleaned'
p76
I01
sS'classes'
p77
(lp78
Vto-read
p79
aVscience-fiction
p80
aVsci-fi
p81
aVebook
p82
aVshort-stories
p83
aVfiction
p84
aVkindle
p85
aVe-book
p86
aVsf
p87
aVshort-story
p88
aVfree
p89
aVscifi
p90
aVcyberpunk
p91
aVebooks
p92
aVinterested
p93
aVcalibre
p94
aVshorts-to-read
p95
aVshort-fic
p96
aVanother-to-read
p97
aVcory-doctorow
p98
aVavailable-at-library-from-friends
p99
aVnook-book
p100
aVaudio-obtained
p101
aVvery-short
p102
aVto-read-in-2016
p103
aVa-on-nook
p104
aVa-adobe-editions
p105
aVreadbooks
p106
aVowned
p107
aVscifi-fantasy
p108
aVvjj
p109
aVread-in-2013
p110
aVaudio-collection
p111
aVnon-indie
p112
aVsingle-short-stories
p113
aVsci-fi-and-stuff
p114
aVshort
p115
aV1990s
p116
aVanticipation
p117
aVscience-flavour-fictionals
p118
aVstory-collections
p119
aVsff
p120
aVscience-fiction-fantasy
p121
aVformat-audio
p122
aVsoft-sf
p123
aValien
p124
aVdo-not-own
p125
aVkindle-ebook
p126
aVfree-reads
p127
aVbooks
p128
aVrandom-added
p129
aValiens
p130
aVtd
p131
aVsf-dystopias
p132
aVearly-2000s-reading
p133
aVscience
p134
aVread-in-2011
p135
aVcurious-about
p136
aVdoctorow
p137
aVread-2011
p138
aVasdf
p139
aVaudio
p140
aVsciencefiction
p141
aVown-ebook
p142
aVfuture-setting
p143
aVavailable-free
p144
aV-science-fiction
p145
aVfree-kindle-to-read
p146
aVcomics-graphic-novels
p147
aVfeedbooks
p148
aVtype-short-story
p149
aVaudio-obtained-ss
p150
aVa3
p151
aVlibrary
p152
aV0-tbr
p153
asS'loc_class'
p154
VPS: Language and Literatures: American and Canadian literature
p155
sS'n_authors'
p156
I1
sb.