ccopy_reg
_reconstructor
p0
(cdataset.Book
Book
p1
c__builtin__
object
p2
Ntp3
Rp4
(dp5
S'content_name'
p6
V22590.txt.utf-8
p7
sS'isbn'
p8
NsS'year'
p9
I1959
sS'author_name'
p10
VCharles L. Fontenay
p11
sS'images_urls'
p12
(lp13
Vhttp://www.gutenberg.org/files/22590/22590-page-images/p074.png
p14
aVhttp://www.gutenberg.org/files/22590/22590-page-images/p075.png
p15
aVhttp://www.gutenberg.org/files/22590/22590-page-images/p076.png
p16
aVhttp://www.gutenberg.org/files/22590/22590-page-images/p077.png
p17
aVhttp://www.gutenberg.org/files/22590/22590-page-images/p078.png
p18
aVhttp://www.gutenberg.org/files/22590/22590-page-images/p079.png
p19
aVhttp://www.gutenberg.org/files/22590/22590-page-images/p080.png
p20
aVhttp://www.gutenberg.org/files/22590/22590-page-images/p081.png
p21
aVhttp://www.gutenberg.org/files/22590/22590-page-images/p082.png
p22
aVhttp://www.gutenberg.org/files/22590/22590-page-images/p083.png
p23
aVhttp://www.gutenberg.org/files/22590/22590-page-images/p084.png
p24
aVhttp://www.gutenberg.org/files/22590/22590-page-images/p085.png
p25
aVhttp://www.gutenberg.org/files/22590/22590-page-images/p086.png
p26
asS'language_code'
p27
NsS'id'
p28
I755
sS'category'
p29
VText
p30
sS'genres'
p31
(lp32
sS'copyright'
p33
VPublic domain in the USA.
p34
sS'title'
p35
VWind
p36
sS'wikipedia'
p37
(dp38
S'found'
p39
I00
ssS'average_rating'
p40
F4.28
sS'rating_count'
p41
I4
sS'content_available'
p42
I01
sS'goodreads'
p43
(dp44
S'url'
p45
S'https://www.goodreads.com/book/show/25603543-wind'
p46
sS'found'
p47
I01
ssS'similar_books'
p48
(lp49
sS'description'
p50
VWhen you have an engine with no fuel, and fuel without an engine, and a life-and-death deadline to meet, you have a problem indeed. Unless you are a stubborn Dutchman--and Jan Van Artevelde was the stubbornest Dutchman on Venus.
p51
sS'gutenberg'
p52
(dp53
S'url'
p54
Vhttp://www.gutenberg.org/ebooks/22590
p55
sS'num'
p56
I22590
ssS'authors'
p57
(lp58
I144
asS'pages'
p59
I27
sS'isbn13'
p60
NsS'language'
p61
VEnglish
p62
sS'countries'
p63
(lp64
I2
asS'release_date'
p65
S'2007-09-12T00:00:00'
p66
sS'author'
p67
I144
sS'content_cleaned'
p68
I01
sS'classes'
p69
(lp70
Vone-book-a-day
p71
aVone-a-day-4
p72
aVanthology
p73
aVshort-story
p74
aVaudio-obtained-lvss
p75
aV15
p76
aVtype-short-story
p77
aVto-read
p78
aVaudio-obtained-ss
p79
asS'loc_class'
p80
VPS: Language and Literatures: American and Canadian literature
p81
sS'n_authors'
p82
I1
sb.