ccopy_reg
_reconstructor
p0
(cdataset.Book
Book
p1
c__builtin__
object
p2
Ntp3
Rp4
(dp5
S'content_name'
p6
V50800.txt.utf-8
p7
sS'isbn'
p8
V1530458110
p9
sS'year'
p10
I1962
sS'author_name'
p11
VSydney Van Scyoc
p12
sS'images_urls'
p13
(lp14
Vhttp://www.gutenberg.org/files/50800/50800-h/images/cover.jpg
p15
asS'language_code'
p16
NsS'images'
p17
(lp18
sS'id'
p19
I939
sS'category'
p20
VText
p21
sS'genres'
p22
(lp23
sS'copyright'
p24
VPublic domain in the USA.
p25
sS'title'
p26
VBimmie Says
p27
sS'wikipedia'
p28
(dp29
S'found'
p30
I00
ssS'average_rating'
p31
F2.5
sS'rating_count'
p32
I1
sS'content_available'
p33
I01
sS'cover_art_url'
p34
S'http://www.gutenberg.org/cache/epub/50800/pg50800.cover.medium.jpg'
p35
sS'goodreads'
p36
(dp37
S'url'
p38
Vhttps://www.goodreads.com/book/show/29531521-bimmie-says
p39
sg30
I01
sS'year'
p40
I-1
ssS'similar_books'
p41
(lp42
sS'description'
p43
VThis collection of literature attempts to compile many of the classic works that have stood the test of time and offer them at a reduced, affordable price, in an attractive volume so that everyone can enjoy them.
p44
sS'format'
p45
VPaperback
p46
sS'gutenberg'
p47
(dp48
g38
Vhttp://www.gutenberg.org/ebooks/50800
p49
sS'num'
p50
I50800
ssS'authors'
p51
(lp52
I287
asS'pages'
p53
I26
sS'isbn13'
p54
V9781530458110
p55
sS'language'
p56
VEnglish
p57
sS'countries'
p58
(lp59
I2
asS'release_date'
p60
S'2015-12-30T00:00:00'
p61
sS'author'
p62
I287
sS'content_cleaned'
p63
I01
sS'classes'
p64
(lp65
sS'loc_class'
p66
S''
p67
sS'n_authors'
p68
I1
sb.