ccopy_reg
_reconstructor
p0
(cdataset.Book
Book
p1
c__builtin__
object
p2
Ntp3
Rp4
(dp5
S'content_name'
p6
V27645.txt.utf-8
p7
sS'isbn'
p8
V0439206472
p9
sS'year'
p10
I1999
sS'author_name'
p11
VHenry Hasse
p12
sS'images_urls'
p13
(lp14
Vhttp://www.gutenberg.org/files/27645/27645-h/images/001.png
p15
aVhttp://www.gutenberg.org/files/27645/27645-h/images/002.png
p16
aVhttp://www.gutenberg.org/files/27645/27645-page-images/p0059-image1.png
p17
aVhttp://www.gutenberg.org/files/27645/27645-page-images/p0059.png
p18
aVhttp://www.gutenberg.org/files/27645/27645-page-images/p0060.png
p19
aVhttp://www.gutenberg.org/files/27645/27645-page-images/p0061.png
p20
aVhttp://www.gutenberg.org/files/27645/27645-page-images/p0062.png
p21
aVhttp://www.gutenberg.org/files/27645/27645-page-images/p0063.png
p22
aVhttp://www.gutenberg.org/files/27645/27645-page-images/p0064.png
p23
aVhttp://www.gutenberg.org/files/27645/27645-page-images/p0065.png
p24
aVhttp://www.gutenberg.org/files/27645/27645-page-images/p0066.png
p25
aVhttp://www.gutenberg.org/files/27645/27645-page-images/p0067-image1.png
p26
aVhttp://www.gutenberg.org/files/27645/27645-page-images/p0068.png
p27
aVhttp://www.gutenberg.org/files/27645/27645-page-images/p0069.png
p28
aVhttp://www.gutenberg.org/files/27645/27645-page-images/p0070.png
p29
aVhttp://www.gutenberg.org/files/27645/27645-page-images/p0071.png
p30
aVhttp://www.gutenberg.org/files/27645/27645-page-images/p0072.png
p31
aVhttp://www.gutenberg.org/files/27645/27645-page-images/p0073.png
p32
aVhttp://www.gutenberg.org/files/27645/27645-page-images/p0074.png
p33
aVhttp://www.gutenberg.org/files/27645/27645-page-images/p0075.png
p34
asS'language_code'
p35
Veng
p36
sS'images'
p37
(lp38
sS'id'
p39
I737
sS'category'
p40
VText
p41
sS'genres'
p42
(lp43
sS'copyright'
p44
VPublic domain in the USA.
p45
sS'title'
p46
VThe Beginning
p47
sS'wikipedia'
p48
(dp49
S'found'
p50
I00
ssS'average_rating'
p51
F3.89
sS'rating_count'
p52
I276138
sS'content_available'
p53
I01
sS'goodreads'
p54
(dp55
S'url'
p56
Vhttps://www.goodreads.com/book/show/78411.The_Bad_Beginning
p57
sg50
I01
sS'year'
p58
I1999
ssS'similar_books'
p59
(lp60
VStanding in the Light: The Captive Diary of Catharine Carey Logan, Delaware Valley, Pennsylvania, 1763 (Dear America)
p61
aVThe Field Guide (The Spiderwick Chronicles, #1)
p62
aVFergus Crane (Far-Flung Adventures, #1)
p63
aVTerrible Times (Eddie Dickens Trilogy, #3)
p64
aVKissing Trouble
p65
aVA Week in the Woods
p66
aVIf You're Reading This, It's Too Late (Secret, #2)
p67
aVMidnight for Charlie Bone (The Children of the Red King, #1)
p68
aVThe Tale of Despereaux
p69
aVMolly Moon Stops the World (Molly Moon, #2)
p70
aVThe Doll People (Doll People, #1)
p71
aVPermanent Rose (Casson Family, #3)
p72
aVJunie B. Jones and a Little Monkey Business (Junie B. Jones, #2)
p73
aVSummer Reading is Killing Me! (Time Warp Trio #7)
p74
aVSophie's Secret (Sophie, #2)
p75
aVWhich Witch?
p76
asS'description'
p77
VDear Reader,<br /><br />I'm sorry to say that the book you are holding in your hands is extremely unpleasant. It tells an unhappy tale about three very unlucky children. Even though they are charming and clever, the Baudelaire siblings lead lives filled with misery and woe. From the very first page of this book when the children are at the beach and receive terrible news, continuing on through the entire story, disaster lurks at their heels. One might say they are magnets for misfortune.<br /><br />In this short book alone, the three youngsters encounter a greedy and repulsive villain, itchy clothing, a disastrous fire, a plot to steal their fortune, and cold porridge for breakfast.<br /><br />It is my sad duty to write down these unpleasant tales, but there is nothing stopping you from putting this book down at once and reading something happy, if you prefer that sort of thing.<br /><br />With all due respect,<br /><i>Lemony Snicket</i>
p78
sS'format'
p79
VPaperback
p80
sS'gutenberg'
p81
(dp82
g56
Vhttp://www.gutenberg.org/ebooks/27645
p83
sS'num'
p84
I27645
ssS'authors'
p85
(lp86
I239
asS'pages'
p87
I176
sS'isbn13'
p88
V9780439206471
p89
sS'language'
p90
VEnglish
p91
sS'country'
p92
I3
sS'release_date'
p93
S'2008-12-28T00:00:00'
p94
sS'author'
p95
I239
sS'content_cleaned'
p96
I01
sS'classes'
p97
(lp98
Vto-read
p99
aVcurrently-reading
p100
aVfiction
p101
aVfavorites
p102
aVchildrens
p103
aVfantasy
p104
aVmiddle-grade
p105
aVyoung-adult
p106
aVbooks-i-own
p107
aVowned
p108
aVchildren
p109
aVseries
p110
aVchildren-s
p111
aVmystery
p112
aVchildhood
p113
aVya
p114
aVchildren-s-books
p115
aVread-in-2017
p116
aVread-in-2016
p117
aVaudiobooks
p118
aVaudiobook
p119
aVowned-books
p120
aVkids
p121
aVa-series-of-unfortunate-events
p122
aVread-in-2015
p123
aVadventure
p124
aVlibrary
p125
aVlemony-snicket
p126
aVdefault
p127
aVchildrens-books
p128
aVreread
p129
aVhumor
p130
aVre-read
p131
aVclassics
p132
aVebook
p133
aVchildren-s-lit
p134
aVread-2017
p135
aVmy-books
p136
aVchildren-s-literature
p137
aVchildhood-favorites
p138
aVe-books
p139
aVfavourites
p140
aVaudio
p141
aVkids-books
p142
aVaudio-books
p143
aVmy-library
p144
aVe-book
p145
aV2017-reads
p146
aVread-2016
p147
aVkindle
p148
aV4-stars
p149
aVto-buy
p150
aVebooks
p151
aVnovels
p152
aVjuvenile
p153
aVorphans
p154
aVread-in-english
p155
aVbooks
p156
aVchildhood-books
p157
aVclassic
p158
aVfamily
p159
aVgothic
p160
aVre-reads
p161
aVdark-humor
p162
aVrereads
p163
aVchildhood-reads
p164
aVread-2015
p165
aVmiddle-school
p166
aVabandoned
p167
aV2016-reads
p168
aVchildren-books
p169
aVread-again
p170
aVmiddle-grades
p171
aVjuvenile-fiction
p172
aVenglish
p173
aVown-it
p174
aVaudio-book
p175
aVaudible
p176
aV2015-reads
p177
aV3-stars
p178
aVseries-of-unfortunate-events
p179
aVreviewed
p180
aV5-stars
p181
aVya-fiction
p182
aVchapter-books
p183
aVchildren-s-fiction
p184
aVhave
p185
aVamerican-literature
p186
aV2017-read
p187
aVfirst-in-a-series
p188
aV20th-century
p189
aVfor-the-kids
p190
aVmine
p191
aVshelfari-favorites
p192
aVmy-childhood
p193
aVchildrens-lit
p194
aVto-re-read
p195
aVlibrary-books
p196
aVkindle-books
p197
aVyouth
p198
asS'loc_class'
p199
VPS: Language and Literatures: American and Canadian literature
p200
sS'n_authors'
p201
I1
sb.