ccopy_reg
_reconstructor
p0
(cdataset.Book
Book
p1
c__builtin__
object
p2
Ntp3
Rp4
(dp5
S'content_name'
p6
V28118.txt.utf-8
p7
sS'isbn'
p8
NsS'year'
p9
I1962
sS'author_name'
p10
VRaymond F. Jones
p11
sS'images_urls'
p12
(lp13
Vhttp://www.gutenberg.org/files/28118/28118-h/images/cover.jpg
p14
aVhttp://www.gutenberg.org/files/28118/28118-h/images/illus1.jpg
p15
aVhttp://www.gutenberg.org/files/28118/28118-h/images/illus2.jpg
p16
aVhttp://www.gutenberg.org/files/28118/28118-h/images/illus3.jpg
p17
aVhttp://www.gutenberg.org/files/28118/28118-h/images/illus4.jpg
p18
aVhttp://www.gutenberg.org/files/28118/28118-h/images/illus5.jpg
p19
aVhttp://www.gutenberg.org/files/28118/28118-h/images/illus6.jpg
p20
aVhttp://www.gutenberg.org/files/28118/28118-h/images/illus7.jpg
p21
asS'language_code'
p22
Veng
p23
sS'images'
p24
(lp25
sS'id'
p26
I834
sS'category'
p27
VText
p28
sS'genres'
p29
(lp30
sS'copyright'
p31
VPublic domain in the USA.
p32
sS'title'
p33
VThe Great Gray Plague
p34
sS'wikipedia'
p35
(dp36
S'found'
p37
I00
ssS'average_rating'
p38
F3.7
sS'rating_count'
p39
I6
sS'content_available'
p40
I01
sS'cover_art_url'
p41
S'http://www.gutenberg.org/cache/epub/28118/pg28118.cover.medium.jpg'
p42
sS'goodreads'
p43
(dp44
S'url'
p45
Vhttps://www.goodreads.com/book/show/10741156-the-great-gray-plague
p46
sg37
I01
sS'year'
p47
I1962
ssS'similar_books'
p48
(lp49
sS'description'
p50
VThis Halcyon Classics ebook is Raymond F. Jones' sci-fi thriller THE GREAT GREY PLAGUE. <br /><br />There is no enemy so hard to fight as a dull gray fog. It's not solid enough to beat, too indefinite to kill, and too omnipresent to escape.
p51
sS'format'
p52
NsS'gutenberg'
p53
(dp54
g45
Vhttp://www.gutenberg.org/ebooks/28118
p55
sS'num'
p56
I28118
ssS'authors'
p57
(lp58
I129
asS'isbn13'
p59
V2940011833090
p60
sS'language'
p61
VEnglish
p62
sS'release_date'
p63
S'2009-02-18T00:00:00'
p64
sS'author'
p65
I129
sS'content_cleaned'
p66
I01
sS'classes'
p67
(lp68
Vto-read
p69
aVebook
p70
aVscience-fiction
p71
aVfiction
p72
aVowned
p73
aV20th-century
p74
aVrandom-project-gutenberg
p75
aVunread
p76
aVto-read-1
p77
aVebooks
p78
aVsf-fantasy
p79
aVeb-other
p80
aVeb
p81
aVshort-stories
p82
aV13
p83
aVe-books
p84
aVread-in-2013
p85
aVscience
p86
aVgeneral
p87
aVfantasy
p88
aVadventure
p89
aVmy-books
p90
aVto-read-temp
p91
asS'loc_class'
p92
VPS: Language and Literatures: American and Canadian literature
p93
sS'n_authors'
p94
I1
sb.