ccopy_reg
_reconstructor
p0
(cdataset.Book
Book
p1
c__builtin__
object
p2
Ntp3
Rp4
(dp5
S'content_name'
p6
V41049.txt.utf-8
p7
sS'isbn'
p8
NsS'year'
p9
I1932
sS'author_name'
p10
VFletcher Pratt
p11
sS'images_urls'
p12
(lp13
Vhttp://www.gutenberg.org/files/41049/41049-h/images/author.jpg
p14
aVhttp://www.gutenberg.org/files/41049/41049-h/images/cover.jpg
p15
aVhttp://www.gutenberg.org/files/41049/41049-h/images/illus1.jpg
p16
aVhttp://www.gutenberg.org/files/41049/41049-h/images/illus2.jpg
p17
aVhttp://www.gutenberg.org/files/41049/41049-h/images/illus3.jpg
p18
aVhttp://www.gutenberg.org/files/41049/41049-h/images/illus4.jpg
p19
aVhttp://www.gutenberg.org/files/41049/41049-h/images/illus5.jpg
p20
aVhttp://www.gutenberg.org/files/41049/41049-h/images/illus6.jpg
p21
aVhttp://www.gutenberg.org/files/41049/41049-h/images/illus7.jpg
p22
aVhttp://www.gutenberg.org/files/41049/41049-h/images/illus8.jpg
p23
asS'language_code'
p24
NsS'id'
p25
I309
sS'category'
p26
VText
p27
sS'genres'
p28
(lp29
sS'copyright'
p30
VPublic domain in the USA.
p31
sS'title'
p32
VThe Onslaught from Rigel
p33
sS'wikipedia'
p34
(dp35
S'found'
p36
I00
ssS'average_rating'
p37
F2.75
sS'rating_count'
p38
I5
sS'content_available'
p39
I01
sS'cover_art_url'
p40
S'http://www.gutenberg.org/cache/epub/41049/pg41049.cover.medium.jpg'
p41
sS'goodreads'
p42
(dp43
S'url'
p44
Vhttps://www.goodreads.com/book/show/19057224-the-onslaught-from-rigel
p45
sS'found'
p46
I01
sS'year'
p47
I2009
ssS'similar_books'
p48
(lp49
sS'description'
p50
NsS'gutenberg'
p51
(dp52
g44
Vhttp://www.gutenberg.org/ebooks/41049
p53
sS'num'
p54
I41049
ssS'authors'
p55
(lp56
I101
asS'isbn13'
p57
NsS'language'
p58
VEnglish
p59
sS'countries'
p60
(lp61
I2
asS'release_date'
p62
S'2012-10-14T00:00:00'
p63
sS'author'
p64
I101
sS'cover'
p65
Vhttps://s.gr-assets.com/assets/nophoto/book/111x148-bcc042a9c91a29c1d680899eff700a03.png
p66
sS'content_cleaned'
p67
I01
sS'classes'
p68
(lp69
Vto-read
p70
aVcurrently-reading
p71
aVscience-fiction
p72
aVon-calibre-to-read
p73
aValien-invasion
p74
aV21st-century-lit
p75
aVclassics
p76
aVsci-fi-classics
p77
aVowned
p78
aVkindle
p79
aVsomething-to-consider
p80
asS'loc_class'
p81
VPS: Language and Literatures: American and Canadian literature
p82
sS'n_authors'
p83
I1
sb.