ccopy_reg
_reconstructor
p0
(cdataset.Book
Book
p1
c__builtin__
object
p2
Ntp3
Rp4
(dp5
S'content_name'
p6
V51436.txt.utf-8
p7
sS'isbn'
p8
NsS'year'
p9
I-1
sS'author_name'
p10
VFritz Leiber
p11
sS'images_urls'
p12
(lp13
Vhttp://www.gutenberg.org/files/51436/51436-h/images/cover.jpg
p14
aVhttp://www.gutenberg.org/files/51436/51436-h/images/illus1.jpg
p15
aVhttp://www.gutenberg.org/files/51436/51436-h/images/illus2.jpg
p16
aVhttp://www.gutenberg.org/files/51436/51436-h/images/illus3.jpg
p17
asS'language_code'
p18
NsS'images'
p19
(lp20
sS'id'
p21
I445
sS'category'
p22
VText
p23
sS'genres'
p24
(lp25
sS'copyright'
p26
VPublic domain in the USA.
p27
sS'title'
p28
VBullet With His Name
p29
sS'wikipedia'
p30
(dp31
S'found'
p32
I00
ssS'average_rating'
p33
F3.0
sS'rating_count'
p34
I3
sS'content_available'
p35
I01
sS'cover_art_url'
p36
S'http://www.gutenberg.org/cache/epub/51436/pg51436.cover.medium.jpg'
p37
sS'goodreads'
p38
(dp39
S'url'
p40
Vhttps://www.goodreads.com/book/show/29543159-bullet-with-his-name
p41
sg32
I01
sS'year'
p42
I-1
ssS'similar_books'
p43
(lp44
sS'description'
p45
NsS'format'
p46
NsS'gutenberg'
p47
(dp48
g40
Vhttp://www.gutenberg.org/ebooks/51436
p49
sS'num'
p50
I51436
ssS'authors'
p51
(lp52
I32
asS'isbn13'
p53
NsS'language'
p54
VEnglish
p55
sS'country'
p56
I3
sS'release_date'
p57
S'2016-03-13T00:00:00'
p58
sS'author'
p59
I32
sS'content_cleaned'
p60
I01
sS'classes'
p61
(lp62
Vto-read
p63
aVshort-stories
p64
aVunknown-publication-dates
p65
aVsci-fi
p66
aVscience-fiction
p67
asS'loc_class'
p68
S''
p69
sS'n_authors'
p70
I1
sb.