ccopy_reg
_reconstructor
p0
(cdataset.Book
Book
p1
c__builtin__
object
p2
Ntp3
Rp4
(dp5
S'content_name'
p6
V48880.txt.utf-8
p7
sS'isbn'
p8
NsS'year'
p9
I1962
sS'author_name'
p10
VRoger D. Aycock
p11
sS'images_urls'
p12
(lp13
Vhttp://www.gutenberg.org/files/48880/48880-h/images/beast.jpg
p14
aVhttp://www.gutenberg.org/files/48880/48880-h/images/cover.jpg
p15
asS'language_code'
p16
Veng
p17
sS'images'
p18
(lp19
sS'id'
p20
I775
sS'category'
p21
VText
p22
sS'genres'
p23
(lp24
sS'copyright'
p25
VPublic domain in the USA.
p26
sS'title'
p27
VRough Beast
p28
sS'wikipedia'
p29
(dp30
S'found'
p31
I00
ssS'average_rating'
p32
F4.67
sS'rating_count'
p33
I3
sS'content_available'
p34
I01
sS'cover_art_url'
p35
S'http://www.gutenberg.org/cache/epub/48880/pg48880.cover.medium.jpg'
p36
sS'goodreads'
p37
(dp38
S'url'
p39
S'https://www.goodreads.com/book/show/33916557-rough-beast'
p40
sS'found'
p41
I01
ssS'similar_books'
p42
(lp43
sS'description'
p44
NsS'gutenberg'
p45
(dp46
S'url'
p47
Vhttp://www.gutenberg.org/ebooks/48880
p48
sS'num'
p49
I48880
ssS'authors'
p50
(lp51
I162
asS'isbn13'
p52
NsS'language'
p53
VEnglish
p54
sS'countries'
p55
(lp56
I2
asS'release_date'
p57
S'2015-05-05T00:00:00'
p58
sS'author'
p59
I162
sS'content_cleaned'
p60
I00
sS'classes'
p61
(lp62
Vscience-fiction
p63
aVshort-stories
p64
asS'loc_class'
p65
S''
p66
sS'n_authors'
p67
I1
sb.