ccopy_reg
_reconstructor
p0
(cdataset.Book
Book
p1
c__builtin__
object
p2
Ntp3
Rp4
(dp5
S'content_name'
p6
V30691.txt.utf-8
p7
sS'isbn'
p8
NsS'year'
p9
I1930
sS'author_name'
p10
VVarious
p11
sS'images_urls'
p12
(lp13
Vhttp://www.gutenberg.org/files/30691/30691-h/images/295.jpg
p14
aVhttp://www.gutenberg.org/files/30691/30691-h/images/310.jpg
p15
aVhttp://www.gutenberg.org/files/30691/30691-h/images/311.jpg
p16
aVhttp://www.gutenberg.org/files/30691/30691-h/images/336.jpg
p17
aVhttp://www.gutenberg.org/files/30691/30691-h/images/354.jpg
p18
aVhttp://www.gutenberg.org/files/30691/30691-h/images/370.jpg
p19
aVhttp://www.gutenberg.org/files/30691/30691-h/images/371.jpg
p20
aVhttp://www.gutenberg.org/files/30691/30691-h/images/421.jpg
p21
aVhttp://www.gutenberg.org/files/30691/30691-h/images/cover.jpg
p22
asS'language_code'
p23
Veng
p24
sS'id'
p25
I81
sS'category'
p26
VText
p27
sS'genres'
p28
(lp29
sS'copyright'
p30
VPublic domain in the USA.
p31
sS'title'
p32
VAstounding Stories of Super-Science, December 1930
p33
sS'wikipedia'
p34
(dp35
S'found'
p36
I00
ssS'average_rating'
p37
F3.32
sS'rating_count'
p38
I19
sS'content_available'
p39
I01
sS'cover_art_url'
p40
S'http://www.gutenberg.org/cache/epub/30691/pg30691.cover.medium.jpg'
p41
sS'goodreads'
p42
(dp43
S'url'
p44
Vhttps://www.goodreads.com/book/show/18755984-astounding-stories-of-super-science-december-1930
p45
sS'found'
p46
I01
sS'year'
p47
I2010
ssS'similar_books'
p48
(lp49
sS'description'
p50
NsS'format'
p51
NsS'gutenberg'
p52
(dp53
g44
Vhttp://www.gutenberg.org/ebooks/30691
p54
sS'num'
p55
I30691
ssS'authors'
p56
(lp57
I17
asS'isbn13'
p58
NsS'language'
p59
VEnglish
p60
sS'countries'
p61
(lp62
I3
asS'release_date'
p63
S'2009-12-17T00:00:00'
p64
sS'author'
p65
I17
sS'content_cleaned'
p66
I01
sS'classes'
p67
(lp68
Vto-read
p69
aVcurrently-reading
p70
aVshort-stories
p71
aVsci-fi
p72
aVclassics
p73
aVadventure
p74
aVebooks
p75
aVcalibre
p76
aVbooks-i-own-on-kindle
p77
aVshortstories
p78
aV2010s
p79
aVon-the-kindle
p80
aVscience-fiction
p81
aVpg
p82
aVmy-ebooks
p83
aVamazon
p84
aVgutenberg
p85
asS'loc_class'
p86
VPN: Language and Literatures: Literature: General, Criticism, Collections
p87
sS'n_authors'
p88
I1
sb.