ccopy_reg
_reconstructor
p0
(cdataset.Book
Book
p1
c__builtin__
object
p2
Ntp3
Rp4
(dp5
S'content_name'
p6
V28644.txt.utf-8
p7
sS'isbn'
p8
NsS'year'
p9
I1954
sS'author_name'
p10
VPhilip K. Dick
p11
sS'images_urls'
p12
(lp13
Vhttp://www.gutenberg.org/files/28644/28644-h/images/001-1.jpg
p14
aVhttp://www.gutenberg.org/files/28644/28644-h/images/001-2.jpg
p15
asS'language_code'
p16
Veng
p17
sS'images'
p18
(lp19
sS'id'
p20
I14
sS'category'
p21
VText
p22
sS'plot'
p23
VLarry Thomas buys a cuckoo clock for his wife Doris, just like her mother had. He makes clear that he bought it wholesale and otherwise ruins the moment. Doris talks to the cuckoo and becomes convinced that the cuckoo likes her but does not like Larry. Larry is being cuckolded by antique-enthusiast Bob Chambers. When he is at the Thomas' house, and Doris is showing him the clock, Larry returns home unexpectedly and catches them; he throws both out but keeps the clock because he paid for it. Larry keeps winding the clock because he dislikes the empty, quiet house. The clock sometimes does not chime for Larry, who ends up arguing with the cuckoo for not coming out when he should. Eventually, he threatens the clock with a hammer. At this point the cuckoo comes out and catches him in the eye, causing him to fall off a chair and break his neck in the fall. His death is judged an accident by a doctor but Bob thinks "something else" might be the cause.
p24
sS'genres'
p25
(lp26
sS'copyright'
p27
VPublic domain in the USA.
p28
sS'title'
p29
VBeyond the Door
p30
sS'wikipedia'
p31
(dp32
S'url'
p33
Vhttps://en.wikipedia.org/wiki/Beyond_the_Door_(short_story)
p34
sS'found'
p35
I01
sS'year'
p36
I-1
ssS'published_in'
p37
NsS'average_rating'
p38
F3.04
sS'rating_count'
p39
I662
sS'content_available'
p40
I01
sS'goodreads'
p41
(dp42
g33
Vhttps://www.goodreads.com/book/show/6468230-beyond-the-door
p43
sg35
I01
sg36
I1954
ssS'similar_books'
p44
(lp45
VEven the Queen: & Other Short Stories
p46
aVSailing to Byzantium
p47
aVChristmas in the Trenches
p48
aVWith Morning Comes Mistfall
p49
aVDer Struwwelpeter
p50
aVClifford Gets a Job
p51
aVThe Traveler
p52
aVThe Snows of Kilimanjaro/The Short Happy Life of Francis Macomber
p53
aVFairy Tales of Oscar Wilde: The Devoted Friend/The Nightingale and the Rose
p54
aVPigs Is Pigs
p55
aVThe Elephant Vanishes: Free Short Story
p56
aVGod Sees the Truth, but Waits
p57
aVPress Enter
p58
aVThe Boy Who Cried Wolf
p59
aVThe U.S. Constitution: And Fascinating Facts about It
p60
aVThe Unveiling
p61
aVThe Children's Story
p62
aVThe Rover
p63
asS'description'
p64
NsS'format'
p65
NsS'gutenberg'
p66
(dp67
g33
Vhttp://www.gutenberg.org/ebooks/28644
p68
sS'num'
p69
I28644
ssS'authors'
p70
(lp71
I8
asS'isbn13'
p72
NsS'language'
p73
VEnglish
p74
sS'release_date'
p75
S'2009-04-30T00:00:00'
p76
sS'author'
p77
I8
sS'original_title'
p78
VBeyond the Door (short story)
p79
sS'summary'
p80
V"Beyond the Door" is a low fantasy short story by American writer Philip K. Dick, first published in the January 1954 issue of Fantastic Universe. The plot follows a cuckoo clock, which may or may not be intelligent, and a cuckolded husband.
p81
sS'content_cleaned'
p82
I01
sS'classes'
p83
(lp84
Vto-read
p85
aVshort-stories
p86
aVscience-fiction
p87
aVfiction
p88
aVsci-fi
p89
aVfantasy
p90
aVkindle
p91
aVcurrently-reading
p92
aVebooks
p93
aVhorror
p94
aVshort-story
p95
aVebook
p96
aVphilip-k-dick
p97
aVclassics
p98
aVe-book
p99
aVscifi
p100
aVe-books
p101
aVsf
p102
aVaudiobooks
p103
aV1950s
p104
aVown-kindle
p105
aVsci-fi-fantasy
p106
aVread-in-2016
p107
aVshortstories
p108
aVother
p109
aVbooks-i-own
p110
aVibooks
p111
aVfreebies
p112
aVowned-books
p113
aVamazon
p114
aVaudiobook
p115
aVread-2013
p116
aVshorts
p117
aVstories
p118
aVowned
p119
aVowned-to-read
p120
aVaudio-books
p121
aVnovels
p122
aVnook
p123
aVscifi-fantasy
p124
aVfavorites
p125
aVsci-fic
p126
aV2oth-century
p127
aVto-read-short-story
p128
aVweird-fiction
p129
aV20th-c-amer
p130
aV2017-read
p131
aVfg
p132
aVon-ebook
p133
aVread-in-2017
p134
aVebook-short-stories
p135
aVroman
p136
aVamerican
p137
aVi-own
p138
aVdick-philip
p139
aVficcao
p140
aV20th-century-literature
p141
aVowned-drm-free-ebook
p142
aV2016-reading-challenge
p143
aVsci-fi-and-fantasy-fiction
p144
aVfree-on-kindle
p145
aVunsorted-read
p146
aVon-librivox-web-site
p147
aVshort-fiction
p148
aVstand-alone
p149
aVdigital-copy
p150
aVplex-audiobooks
p151
aVaudio
p152
aVonline
p153
aVtbr
p154
aV_audiobooks
p155
aVclassic
p156
aVenglish-edition
p157
aVlistened-audiobooos
p158
aVread-short-stories
p159
aVaudiobook_2014
p160
aV2016-first-time-read
p161
aV4-stars
p162
aVg-authors
p163
aVon-kobo
p164
aVown-audiobook
p165
aVmoon-reader
p166
aVlr-english
p167
aV20th-century
p168
aVbooks
p169
aVz_fiction
p170
aVx_shortstory
p171
aVanthos-shorts
p172
aV2015-challenge-oldish
p173
aVp-k-d
p174
aVus
p175
aVmy-ebooks
p176
aVpkd-project
p177
aV2015-readings
p178
aVloc-kindle
p179
aVauthor-male
p180
aVwhy-havent-i-read-this-earlier
p181
aVw_us_modern
p182
aVone-nighter
p183
aVkindle-books-i-own
p184
asS'loc_class'
p185
VPS: Language and Literatures: American and Canadian literature
p186
sS'n_authors'
p187
I1
sb.