ccopy_reg
_reconstructor
p0
(cdataset.Book
Book
p1
c__builtin__
object
p2
Ntp3
Rp4
(dp5
S'similar_books'
p6
(lp7
sS'genres'
p8
(lp9
sS'author'
p10
I302
sS'countries'
p11
(lp12
I2
asS'year'
p13
I1959
sS'title'
p14
VGalaxy Magazine April 1959
p15
sS'cover'
p16
Vhttps://ia600208.us.archive.org/BookReader/BookReaderImages.php?zip=/30/items/Galaxy_v17n04_1959-04/Galaxy_v17n04_1959-04_jp2.zip&file=Galaxy_v17n04_1959-04_jp2/Galaxy_v17n04_1959-04_0000.jp2&scale=0&rotate=0
p17
sS'cover_art'
p18
S'http://www.isfdb.org/wiki/images/5/56/GALAPR1959.jpg'
p19
sS'author_name'
p20
VGalaxy Magazine
p21
sS'images_urls'
p22
(lp23
sS'authors'
p24
(lp25
I506
aI519
aI525
aI523
aI543
aI544
aI305
aI326
aI339
aI483
aI384
aI315
aI220
aI530
aI40
aI514
aI23
aI479
aI302
asS'images'
p26
(lp27
sS'id'
p28
I1072
sS'contents'
p29
(lp30
(dp31
g10
I506
sg14
VThe City of Force
p32
sa(dp33
g10
I506
sg14
VThe City of Force [2]
p34
sa(dp35
g10
I506
sg14
VThe City of Force [3]
p36
sa(dp37
g10
I519
sg14
VSecurity Plan
p38
sa(dp39
g10
I525
sg14
VThe Bitterest Pill
p40
sa(dp41
g10
I519
sg14
VKingslayer
p42
sa(dp43
g10
I519
sg14
VKingslayer [2]
p44
sa(dp45
g10
I519
sg14
VKingslayer [3]
p46
sa(dp47
g10
I523
sg14
VLove Called This Thing
p48
sa(dp49
g10
I543
sg14
VThe Sweeper of Loray
p50
sa(dp51
g10
I544
sg14
VWhen the People Fell
p52
sa(dp53
g10
I519
sg14
VThe Man in the Mailbag
p54
sa(dp55
g10
I519
sg14
VThe Man in the Mailbag [2]
p56
sa(dp57
g10
I519
sg14
VThe Man in the Mailbag [3]
p58
sa(dp59
g10
I305
sg14
VSo Far
p60
sa(dp61
g10
I326
sg14
VForecast (Galaxy, April 1959)
p62
sa(dp63
g10
I339
sg14
VFor Your Information: The Atlantic Missile Range
p64
sa(dp65
g10
I483
sg14
VGalaxy's 5 Star Bookshelf (Galaxy, April 1959)
p66
sa(dp67
g10
I384
sg14
VKingslayer
p68
sa(dp69
g10
I315
sg14
VThe Man in the Mailbag
p70
sa(dp71
g10
I220
sg14
VThe City of Force
p72
sa(dp73
g10
I530
sg14
VSecurity Plan
p74
sa(dp75
g10
I40
sg14
VThe Bitterest Pill
p76
sa(dp77
g10
I514
sg14
VLove Called This Thing
p78
sa(dp79
g10
I23
sg14
VThe Sweeper of Loray
p80
sa(dp81
g10
I479
sg14
VWhen the People Fell
p82
sasb.