ccopy_reg
_reconstructor
p0
(cdataset.Book
Book
p1
c__builtin__
object
p2
Ntp3
Rp4
(dp5
S'content_name'
p6
V22869.txt.utf-8
p7
sS'isbn'
p8
NsS'year'
p9
I1953
sS'author_name'
p10
S'Alan E Nourse'
p11
sS'images_urls'
p12
(lp13
Vhttp://www.gutenberg.org/files/22869/22869-page-images/p051.png
p14
aVhttp://www.gutenberg.org/files/22869/22869-page-images/p052.png
p15
aVhttp://www.gutenberg.org/files/22869/22869-page-images/p053.png
p16
aVhttp://www.gutenberg.org/files/22869/22869-page-images/p054.png
p17
aVhttp://www.gutenberg.org/files/22869/22869-page-images/p055.png
p18
aVhttp://www.gutenberg.org/files/22869/22869-page-images/p056.png
p19
aVhttp://www.gutenberg.org/files/22869/22869-page-images/p057.png
p20
aVhttp://www.gutenberg.org/files/22869/22869-page-images/p058.png
p21
aVhttp://www.gutenberg.org/files/22869/22869-page-images/p059.png
p22
aVhttp://www.gutenberg.org/files/22869/22869-page-images/p060.png
p23
aVhttp://www.gutenberg.org/files/22869/22869-page-images/p061.png
p24
aVhttp://www.gutenberg.org/files/22869/22869-page-images/p062.png
p25
aVhttp://www.gutenberg.org/files/22869/22869-page-images/p063.png
p26
aVhttp://www.gutenberg.org/files/22869/22869-page-images/p064.png
p27
aVhttp://www.gutenberg.org/files/22869/22869-page-images/p065.png
p28
aVhttp://www.gutenberg.org/files/22869/22869-page-images/p066.png
p29
aVhttp://www.gutenberg.org/files/22869/22869-page-images/p067.png
p30
aVhttp://www.gutenberg.org/files/22869/22869-page-images/p068.png
p31
aVhttp://www.gutenberg.org/files/22869/22869-page-images/p069.png
p32
aVhttp://www.gutenberg.org/files/22869/22869-page-images/p070.png
p33
aVhttp://www.gutenberg.org/files/22869/22869-page-images/p071.png
p34
aVhttp://www.gutenberg.org/files/22869/22869-page-images/p072.png
p35
aVhttp://www.gutenberg.org/files/22869/22869-page-images/p073.png
p36
aVhttp://www.gutenberg.org/files/22869/22869-page-images/p074.png
p37
aVhttp://www.gutenberg.org/files/22869/22869-page-images/p075.png
p38
aVhttp://www.gutenberg.org/files/22869/22869-page-images/p076.png
p39
aVhttp://www.gutenberg.org/files/22869/22869-page-images/p077.png
p40
aVhttp://www.gutenberg.org/files/22869/22869-page-images/p078.png
p41
asS'language_code'
p42
Veng
p43
sS'images'
p44
(lp45
sS'id'
p46
I372
sS'category'
p47
VText
p48
sS'genres'
p49
(lp50
sS'copyright'
p51
VPublic domain in the USA.
p52
sS'title'
p53
VThe Dark Door
p54
sS'wikipedia'
p55
(dp56
S'found'
p57
I00
ssS'average_rating'
p58
F4.17
sS'rating_count'
p59
I14
sS'content_available'
p60
I01
sS'goodreads'
p61
(dp62
S'url'
p63
S'https://www.goodreads.com/book/show/8810255-the-dark-door'
p64
sS'found'
p65
I01
ssS'similar_books'
p66
(lp67
sS'description'
p68
V"...he knew the game-playing was over. They wanted to kill him now. And he knew that ultimately they would kill him. There was no way for him to escape." From Text<br /><br />First published in The Counterfeit Man More Science Fiction Stories by Alan E. Nourse.
p69
sS'gutenberg'
p70
(dp71
S'url'
p72
Vhttp://www.gutenberg.org/ebooks/22869
p73
sS'num'
p74
I22869
ssS'authors'
p75
(lp76
I108
asS'isbn13'
p77
NsS'language'
p78
VEnglish
p79
sS'countries'
p80
(lp81
I2
asS'release_date'
p82
S'2007-10-03T00:00:00'
p83
sS'author'
p84
I108
sS'content_cleaned'
p85
I01
sS'classes'
p86
(lp87
Vto-read
p88
aVrandoms
p89
aVaudio
p90
aVnovellas-poems-shorts
p91
aVfiction
p92
aVshort-story
p93
aVto-read-1
p94
aV13
p95
aVtype-short-story
p96
aVto-read-temp
p97
asS'loc_class'
p98
VPS: Language and Literatures: American and Canadian literature
p99
sS'n_authors'
p100
I1
sb.