ccopy_reg
_reconstructor
p0
(cdataset.Book
Book
p1
c__builtin__
object
p2
Ntp3
Rp4
(dp5
S'content_name'
p6
V29204.txt.utf-8
p7
sS'isbn'
p8
NsS'year'
p9
I1958
sS'author_name'
p10
VHarry Harrison
p11
sS'images_urls'
p12
(lp13
Vhttp://www.gutenberg.org/files/29204/29204-h/images/001-1.jpg
p14
aVhttp://www.gutenberg.org/files/29204/29204-h/images/001-2.jpg
p15
asS'language_code'
p16
NsS'images'
p17
(lp18
sS'id'
p19
I192
sS'category'
p20
VText
p21
sS'genres'
p22
(lp23
sS'copyright'
p24
VPublic domain in the USA.
p25
sS'title'
p26
VArm of the Law
p27
sS'wikipedia'
p28
(dp29
S'found'
p30
I00
ssS'average_rating'
p31
F3.75
sS'rating_count'
p32
I119
sS'content_available'
p33
I01
sS'goodreads'
p34
(dp35
S'url'
p36
Vhttps://www.goodreads.com/book/show/10225016-arm-of-the-law
p37
sg30
I01
sS'year'
p38
I1958
ssS'similar_books'
p39
(lp40
sS'description'
p41
NsS'format'
p42
NsS'gutenberg'
p43
(dp44
g36
Vhttp://www.gutenberg.org/ebooks/29204
p45
sS'num'
p46
I29204
ssS'authors'
p47
(lp48
I16
asS'pages'
p49
I26
sS'isbn13'
p50
V2940012541628
p51
sS'language'
p52
VEnglish
p53
sS'countries'
p54
(lp55
I2
asS'release_date'
p56
S'2009-06-22T00:00:00'
p57
sS'author'
p58
I16
sS'content_cleaned'
p59
I01
sS'classes'
p60
(lp61
Vto-read
p62
aVscience-fiction
p63
aVsci-fi
p64
aVfiction
p65
aVshort-stories
p66
aVaudiobook
p67
aVcurrently-reading
p68
aVebook
p69
aVshort-story
p70
aVkindle
p71
aVread-sci-fi
p72
aVstored-ebooks
p73
aVsirchutney
p74
aVreviewed
p75
aVmegapack
p76
aVhumour
p77
aV2017-challenge
p78
aVscience-fiction-shelf
p79
aVwplc-holdings
p80
aVenglish
p81
aVsci-fi-fantasy
p82
aV20th-century-lit
p83
aVsf
p84
aV4-stories
p85
aV7-audiobook
p86
aVnot-owned
p87
aVshelf-h-authors
p88
aVa-pending-placement
p89
aVnarration
p90
aVvintage-sci-fi
p91
aVaudiobooks
p92
aVowned-pending-kindle-free-ebook
p93
aVhow-kindle
p94
aVrobots
p95
aVcalibre
p96
aVearly-mid-1900s
p97
aVbooks-i-reviewed
p98
aVspeculative-fiction
p99
aVlibrivox-org
p100
aVaudio-books-read
p101
aVaudio-obtained
p102
aVaudio-books
p103
aVscifi
p104
aVamazon
p105
aVfeedbooks-com
p106
aVeb-other
p107
aVeb
p108
aVmy-ebooks
p109
aVnot-read
p110
aVread-in-2013
p111
aVgenre-short-stories
p112
aVgenre-science-fiction
p113
aV_publicdomain
p114
aVsciencefiction
p115
aV__ebook
p116
aVe-reader
p117
aVowned
p118
aVold-scifi
p119
aVaudio-book
p120
aVharry-harrison
p121
aVread-or-re-read-2010-2011
p122
aVtype-short-story
p123
aVaudio-obtained-ss
p124
aV3-novals
p125
aVunread
p126
aV__ebk
p127
aVaudio-books-to-read
p128
asS'loc_class'
p129
VPS: Language and Literatures: American and Canadian literature
p130
sS'n_authors'
p131
I1
sb.