ccopy_reg
_reconstructor
p0
(cdataset.Book
Book
p1
c__builtin__
object
p2
Ntp3
Rp4
(dp5
S'similar_books'
p6
(lp7
sS'genres'
p8
(lp9
sS'author'
p10
I302
sS'countries'
p11
(lp12
I2
asS'year'
p13
I1994
sS'title'
p14
VGalaxy Magazine January 1994
p15
sS'cover'
p16
Vhttps://ia801402.us.archive.org/BookReader/BookReaderImages.php?zip=/22/items/Galaxy_2nd_Series_v01n01_1994-01/Galaxy_2nd_Series_v01n01_1994-01_jp2.zip&file=Galaxy_2nd_Series_v01n01_1994-01_jp2/Galaxy_2nd_Series_v01n01_1994-01_0000.jp2&scale=0&rotate=0
p17
sS'cover_art'
p18
S'http://www.philsp.com/data/images/g/galaxy_199401-02.jpg'
p19
sS'author_name'
p20
VGalaxy Magazine
p21
sS'images_urls'
p22
(lp23
sS'authors'
p24
(lp25
I303
aI103
aI23
aI304
aI305
aI50
aI40
aI306
aI307
aI308
aI309
aI310
aI311
aI312
aI302
asS'images'
p26
(lp27
sS'id'
p28
I971
sS'contents'
p29
(lp30
(dp31
S'title'
p32
VEditorial: Durston's Last Ride (Galaxy, #1)
p33
sS'author'
p34
I303
sa(dp35
g32
VThe Man with Nine Lives: Vincent Price 1911 - 1993
p36
sg34
I103
sa(dp37
g32
VThe City of the Dead (Part 1 of 3)
p38
sg34
I23
sa(dp39
g32
VVampire's Fast (Part 1 of 2)
p40
sg34
I304
sa(dp41
g32
VThat's the Spirit
p42
sg34
I305
sa(dp43
g32
VThe Nature of the Place
p44
sg34
I50
sa(dp45
g32
VPythias
p46
sg34
I40
sa(dp47
g32
VPerfectly Preserved
p48
sg34
I306
sa(dp49
g32
VWhat Comes Naturally
p50
sg34
I307
sa(dp51
g32
VCigarbox
p52
sg34
I308
sa(dp53
g32
VLet Sleeping Sigils Lie
p54
sg34
I309
sa(dp55
g32
VLast Appointment
p56
sg34
I310
sa(dp57
g32
VCyberactions
p58
sg34
I311
sa(dp59
g32
VIn the Canal Zone
p60
sg34
I312
sasb.