ccopy_reg
_reconstructor
p0
(cdataset.Book
Book
p1
c__builtin__
object
p2
Ntp3
Rp4
(dp5
S'content_name'
p6
V50835.txt.utf-8
p7
sS'isbn'
p8
NsS'year'
p9
I1952
sS'author_name'
p10
VC. M. Kornbluth
p11
sS'images_urls'
p12
(lp13
Vhttp://www.gutenberg.org/files/50835/50835-h/images/cover.jpg
p14
aVhttp://www.gutenberg.org/files/50835/50835-h/images/illus.jpg
p15
asS'language_code'
p16
NsS'id'
p17
I829
sS'category'
p18
VText
p19
sS'genres'
p20
(lp21
sS'copyright'
p22
VPublic domain in the USA.
p23
sS'title'
p24
VThe Luckiest Man in Denv
p25
sS'wikipedia'
p26
(dp27
S'found'
p28
I00
ssS'average_rating'
p29
F4.0
sS'rating_count'
p30
I1
sS'content_available'
p31
I01
sS'cover_art_url'
p32
S'http://www.gutenberg.org/cache/epub/50835/pg50835.cover.medium.jpg'
p33
sS'goodreads'
p34
(dp35
S'url'
p36
Vhttps://www.goodreads.com/book/show/28950722-the-syndic-not-this-august-8-short-stories-the-little-black-bag-th
p37
sS'found'
p38
I01
sS'year'
p39
I-1
ssS'similar_books'
p40
(lp41
sS'description'
p42
NsS'format'
p43
NsS'gutenberg'
p44
(dp45
g36
Vhttp://www.gutenberg.org/ebooks/50835
p46
sS'num'
p47
I50835
ssS'authors'
p48
(lp49
I51
asS'isbn13'
p50
NsS'language'
p51
VEnglish
p52
sS'countries'
p53
(lp54
I2
asS'release_date'
p55
S'2016-01-03T00:00:00'
p56
sS'author'
p57
I51
sS'content_cleaned'
p58
I01
sS'classes'
p59
(lp60
sS'loc_class'
p61
S''
p62
sS'n_authors'
p63
I1
sb.