ccopy_reg
_reconstructor
p0
(cdataset.Book
Book
p1
c__builtin__
object
p2
Ntp3
Rp4
(dp5
S'similar_books'
p6
(lp7
sS'genres'
p8
(lp9
sS'author'
p10
I302
sS'countries'
p11
(lp12
I2
asS'year'
p13
I1976
sS'title'
p14
VGalaxy Magazine February 1976
p15
sS'cover'
p16
Vhttps://ia600200.us.archive.org/BookReader/BookReaderImages.php?zip=/29/items/Galaxy_v37n02_1976-02/Galaxy_v37n02_1976-02_jp2.zip&file=Galaxy_v37n02_1976-02_jp2/Galaxy_v37n02_1976-02_0000.jp2&scale=0&rotate=0
p17
sS'cover_art'
p18
S'http://www.isfdb.org/wiki/images/4/44/GALFEB1976.jpg'
p19
sS'author_name'
p20
VGalaxy Magazine
p21
sS'images_urls'
p22
(lp23
sS'authors'
p24
(lp25
I763
aI744
aI742
aI796
aI753
aI326
aI734
aI770
aI767
aI604
aI797
aI728
aI798
aI799
aI800
aI302
asS'images'
p26
(lp27
sS'id'
p28
I1190
sS'contents'
p29
(lp30
(dp31
S'title'
p32
VDown and Out
p33
sS'author'
p34
I763
sa(dp35
g32
VDown and Out [2]
p36
sg34
I763
sa(dp37
g32
VOnly Outlaws and Women
p38
sg34
I744
sa(dp39
g32
VThe Phantom of Kansas
p40
sg34
I742
sa(dp41
g32
VThe Phantom of Kansas [2]
p42
sg34
I742
sa(dp43
g32
VA Better Time
p44
sg34
I796
sa(dp45
g32
VWe Who Are About To... (Part 2 of 2)
p46
sg34
I744
sa(dp47
g32
VWe Who Are About To... (Part 2 of 2) [2]
p48
sg34
I744
sa(dp49
g32
VStorymaker
p50
sg34
I742
sa(dp51
g32
VStorymaker [2]
p52
sg34
I742
sa(dp53
g32
VShowcase (Galaxy, February 1976)
p54
sg34
I753
sa(dp55
g32
VS. F. Calendar (Galaxy, February 1976)
p56
sg34
I326
sa(dp57
g32
VOn Cultures Beyond the Earth
p58
sg34
I734
sa(dp59
g32
VBookshelf (Galaxy, February 1976)
p60
sg34
I770
sa(dp61
g32
VThe Alien Viewpoint (Galaxy, February 1976)
p62
sg34
I767
sa(dp63
g32
VStatement of Ownership (Galaxy, February 1976) (Circulation: 56,361)
p64
sg34
I326
sa(dp65
g32
VDirections (Galaxy, February 1976)
p66
sg34
I326
sa(dp67
g32
VDown and Out
p68
sg34
I604
sa(dp69
g32
VThe Phantom of Kansas
p70
sg34
I797
sa(dp71
g32
VWe Who Are About to ... (Part 2 of 2)
p72
sg34
I728
sa(dp73
g32
VOnly Outlaws and Women
p74
sg34
I798
sa(dp75
g32
VA Better Time
p76
sg34
I799
sa(dp77
g32
VStorymaker
p78
sg34
I800
sasb.