ccopy_reg
_reconstructor
p0
(cdataset.Book
Book
p1
c__builtin__
object
p2
Ntp3
Rp4
(dp5
S'content_name'
p6
V17026.txt.utf-8
p7
sS'isbn'
p8
V3655161603
p9
sS'year'
p10
I1998
sS'author_name'
p11
VCory Doctorow
p12
sS'images_urls'
p13
(lp14
sS'language_code'
p15
Veng
p16
sS'images'
p17
(lp18
sS'id'
p19
I380
sS'category'
p20
VText
p21
sS'plot'
p22
VThe novel is a fixup of two novellas, "Jury Duty" and "Appeals Court", along with a new third section, "Parole Board". The book, set in the late 21st century, takes a generally comic look at the technological singularity through the eyes of Huw, a technophobic member of a "Tech Jury Service" tasked with determining the value of various technological innovations and deciding whether to release them.
p23
sS'genres'
p24
(lp25
sS'copyright'
p26
VCopyrighted. Read the copyright notice inside this book for details.
p27
sS'title'
p28
VCraphound
p29
sS'wikipedia'
p30
(dp31
S'url'
p32
Vhttps://en.wikipedia.org/wiki/The_Rapture_of_the_Nerds
p33
sS'found'
p34
I01
sS'year'
p35
I-1
ssS'published_in'
p36
NsS'average_rating'
p37
F3.67
sS'rating_count'
p38
I296
sS'content_available'
p39
I01
sS'goodreads'
p40
(dp41
g32
Vhttps://www.goodreads.com/book/show/12188858-craphound
p42
sg34
I01
sg35
I1998
ssS'similar_books'
p43
(lp44
VAppeals Court
p45
aVExhalation
p46
aVBonds of Fire
p47
aVBritish Flash: A revealing collection of short LGBT fiction
p48
aVThe Nemesis Worm
p49
aVSecret Santa Surprise
p50
aVBlindsided
p51
aVThe Hanging Stranger
p52
aVStarting Over
p53
aVSome Desperado
p54
aVPoint Apocalypse
p55
aVLittle Brother (Cory Doctorow Novel)
p56
aVBlack as Blood (InCryptid, #2.6)
p57
aVSaints and Sinners: Paint Your Dragon and Open Sesame
p58
aVIf at First . . .
p59
aVThe Dead Love Longer
p60
aVDon't Read in the Closet: Volume Four
p61
aVMuse of Fire
p62
asS'description'
p63
VFrom "A Place So Foreign and Eight More," a short story collection published in September, 2003 by Four Walls Eight Windows Press (ISBN 1568582862). See <a target="_blank" href="http://craphound.com/place" rel="nofollow">http://craphound.com/place</a> for more.<br /><br />Originally Published in Science Fiction Age, March 1998 Reprinted in:<br /><br />* Northern Suns (Tor, 1999, David Hartwell and Glenn Grant, editors)<br />* Year's Best Science Fiction XVI (Morrow, 1999, Gardner Dozois, editor)<br />* Hayakawa Science Fiction Magazine (Japan) September 2001<br /><br />"Like most aliens-mingling-with-human-society stories, Doctorow's story serves mostly to hold a mirror up to human nature, but the odd corner of human nature it examines is fascinating, and the story is smoothly and expertly written, with some good detail and local color and some shrewd insights into human nature and human culture, and an almost Bradburian vein of rich nostalgia running through it (although the nostalgia is quirky enough that perhaps it might more usefully be compared to R.A. Lafferty or Terry Bisson than to Bradbury)."- Gardner Dozois Editor, Asimov's Science Fiction Magazine
p64
sS'format'
p65
NsS'gutenberg'
p66
(dp67
g32
Vhttp://www.gutenberg.org/ebooks/17026
p68
sS'num'
p69
I17026
ssS'authors'
p70
(lp71
I33
asS'pages'
p72
I10
sS'isbn13'
p73
V9783655161609
p74
sS'language'
p75
VEnglish
p76
sS'country'
p77
I5
sS'release_date'
p78
S'2005-11-20T00:00:00'
p79
sS'author'
p80
I33
sS'original_title'
p81
VThe Rapture of the Nerds
p82
sS'summary'
p83
VThe Rapture of the Nerds is a 2012 novel by Cory Doctorow and Charles Stross. It was released on September 4, 2012 through Tor Books and as an ebook, DRM free, under the CC BY-NC-ND. The book can also be downloaded for free.
p84
sS'content_cleaned'
p85
I01
sS'classes'
p86
(lp87
Vto-read
p88
aVscience-fiction
p89
aVsci-fi
p90
aVebook
p91
aVshort-stories
p92
aVfiction
p93
aVkindle
p94
aVe-book
p95
aVsf
p96
aVshort-story
p97
aVfree
p98
aVscifi
p99
aVcyberpunk
p100
aVebooks
p101
aVinterested
p102
aVcalibre
p103
aVshorts-to-read
p104
aVshort-fic
p105
aVanother-to-read
p106
aVcory-doctorow
p107
aVavailable-at-library-from-friends
p108
aVnook-book
p109
aVaudio-obtained
p110
aVvery-short
p111
aVto-read-in-2016
p112
aVa-on-nook
p113
aVa-adobe-editions
p114
aVreadbooks
p115
aVowned
p116
aVscifi-fantasy
p117
aVvjj
p118
aVread-in-2013
p119
aVaudio-collection
p120
aVnon-indie
p121
aVsingle-short-stories
p122
aVsci-fi-and-stuff
p123
aVshort
p124
aV1990s
p125
aVanticipation
p126
aVscience-flavour-fictionals
p127
aVstory-collections
p128
aVsff
p129
aVscience-fiction-fantasy
p130
aVformat-audio
p131
aVsoft-sf
p132
aValien
p133
aVdo-not-own
p134
aVkindle-ebook
p135
aVfree-reads
p136
aVbooks
p137
aVrandom-added
p138
aValiens
p139
aVtd
p140
aVsf-dystopias
p141
aVearly-2000s-reading
p142
aVscience
p143
aVread-in-2011
p144
aVcurious-about
p145
aVdoctorow
p146
aVread-2011
p147
aVasdf
p148
aVaudio
p149
aVsciencefiction
p150
aVown-ebook
p151
aVfuture-setting
p152
aVavailable-free
p153
aV-science-fiction
p154
aVfree-kindle-to-read
p155
aVcomics-graphic-novels
p156
aVfeedbooks
p157
aVtype-short-story
p158
aVaudio-obtained-ss
p159
aVa3
p160
aVlibrary
p161
aV0-tbr
p162
asS'loc_class'
p163
VPS: Language and Literatures: American and Canadian literature
p164
sS'n_authors'
p165
I1
sb.