ccopy_reg
_reconstructor
p0
(cdataset.Book
Book
p1
c__builtin__
object
p2
Ntp3
Rp4
(dp5
S'content_name'
p6
V24276.txt.utf-8
p7
sS'isbn'
p8
NsS'year'
p9
I1957
sS'author_name'
p10
S'Alan E Nourse'
p11
sS'images_urls'
p12
(lp13
sS'language_code'
p14
Veng
p15
sS'id'
p16
I656
sS'category'
p17
VText
p18
sS'genres'
p19
(lp20
sS'copyright'
p21
VPublic domain in the USA.
p22
sS'title'
p23
VThe Coffin Cure
p24
sS'wikipedia'
p25
(dp26
S'found'
p27
I00
ssS'average_rating'
p28
F3.38
sS'rating_count'
p29
I18
sS'content_available'
p30
I01
sS'goodreads'
p31
(dp32
S'url'
p33
Vhttps://www.goodreads.com/book/show/6582987-the-coffin-cure
p34
sS'found'
p35
I01
sS'year'
p36
I1957
ssS'similar_books'
p37
(lp38
sS'description'
p39
V<b>'Report on a Vaccine for the Treatment and Cure of the Common Cold</b><br />Cold Humor, by Alan E. Nourse.
p40
sS'gutenberg'
p41
(dp42
g33
Vhttp://www.gutenberg.org/ebooks/24276
p43
sS'num'
p44
I24276
ssS'authors'
p45
(lp46
I108
asS'isbn13'
p47
NsS'language'
p48
VEnglish
p49
sS'countries'
p50
(lp51
I2
asS'release_date'
p52
S'2008-01-14T00:00:00'
p53
sS'author'
p54
I108
sS'cover'
p55
Vhttps://s.gr-assets.com/assets/nophoto/book/111x148-bcc042a9c91a29c1d680899eff700a03.png
p56
sS'content_cleaned'
p57
I01
sS'classes'
p58
(lp59
Vrandoms
p60
aVaudiobooks
p61
aVshort-story
p62
aVscience-fiction-fantasy
p63
aVuncovered
p64
aValternate-fiction
p65
aVin-a-collection
p66
aV13
p67
aVaudio-ebooks
p68
aVtype-short-story
p69
asS'loc_class'
p70
VPS: Language and Literatures: American and Canadian literature
p71
sS'n_authors'
p72
I1
sb.