ccopy_reg
_reconstructor
p0
(cdataset.Book
Book
p1
c__builtin__
object
p2
Ntp3
Rp4
(dp5
S'content_name'
p6
V32665.txt.utf-8
p7
sS'isbn'
p8
NsS'year'
p9
I2010
sS'author_name'
p10
VRoger D. Aycock
p11
sS'images_urls'
p12
(lp13
Vhttp://www.gutenberg.org/files/32665/32665-h/images/cover.jpg
p14
aVhttp://www.gutenberg.org/files/32665/32665-h/images/illus.jpg
p15
asS'language_code'
p16
NsS'images'
p17
(lp18
sS'id'
p19
I566
sS'category'
p20
VText
p21
sS'genres'
p22
(lp23
sS'copyright'
p24
VPublic domain in the USA.
p25
sS'title'
p26
VThe Anglers of Arz
p27
sS'wikipedia'
p28
(dp29
S'found'
p30
I00
ssS'average_rating'
p31
F2.67
sS'rating_count'
p32
I6
sS'content_available'
p33
I01
sS'cover_art_url'
p34
S'http://www.gutenberg.org/cache/epub/32665/pg32665.cover.medium.jpg'
p35
sS'goodreads'
p36
(dp37
S'url'
p38
Vhttps://www.goodreads.com/book/show/8631460-the-anglers-of-arz
p39
sg30
I01
sS'year'
p40
I2010
ssS'similar_books'
p41
(lp42
sS'description'
p43
NsS'format'
p44
NsS'gutenberg'
p45
(dp46
g38
Vhttp://www.gutenberg.org/ebooks/32665
p47
sS'num'
p48
I32665
ssS'authors'
p49
(lp50
I162
asS'isbn13'
p51
NsS'language'
p52
VEnglish
p53
sS'countries'
p54
(lp55
I2
asS'release_date'
p56
S'2010-06-02T00:00:00'
p57
sS'author'
p58
I162
sS'content_cleaned'
p59
I01
sS'classes'
p60
(lp61
Vto-read
p62
aVscience-fiction
p63
aVshort-stories
p64
aVsf-short-stories
p65
aVshort-story
p66
aVaudio-obtained
p67
aVtype-short-story
p68
aVaudio-obtained-ss
p69
asS'loc_class'
p70
VPS: Language and Literatures: American and Canadian literature
p71
sS'n_authors'
p72
I1
sb.