ccopy_reg
_reconstructor
p0
(cdataset.Book
Book
p1
c__builtin__
object
p2
Ntp3
Rp4
(dp5
S'content_name'
p6
V51129.txt.utf-8
p7
sS'isbn'
p8
V0345350510
p9
sS'year'
p10
I1968
sS'author_name'
p11
VManly Banister
p12
sS'images_urls'
p13
(lp14
Vhttp://www.gutenberg.org/files/51129/51129-h/images/cover.jpg
p15
aVhttp://www.gutenberg.org/files/51129/51129-h/images/illus.jpg
p16
asS'language_code'
p17
Ven-US
p18
sS'images'
p19
(lp20
sS'id'
p21
I588
sS'category'
p22
VText
p23
sS'genres'
p24
(lp25
sS'copyright'
p26
VPublic domain in the USA.
p27
sS'title'
p28
VA Gift from Earth
p29
sS'wikipedia'
p30
(dp31
S'found'
p32
I00
ssS'average_rating'
p33
F3.83
sS'rating_count'
p34
I2640
sS'content_available'
p35
I01
sS'cover_art_url'
p36
S'http://www.gutenberg.org/cache/epub/51129/pg51129.cover.medium.jpg'
p37
sS'goodreads'
p38
(dp39
S'url'
p40
Vhttps://www.goodreads.com/book/show/218461.A_Gift_from_Earth
p41
sg32
I01
sS'year'
p42
I1968
ssS'similar_books'
p43
(lp44
VEnsign Flandry (Flandry, #1)
p45
aVHomeworld (To The Stars, #1)
p46
aVTelempath
p47
aVLord Kalvan of Otherwhen (Paratime Police)
p48
aVBeyond the Tomorrow Mountains (Children of the Star, #2)
p49
aVThe Last Starship from Earth
p50
aVNor Crystal Tears (Humanx Commonwealth, #9)
p51
aVThe Green Odyssey
p52
aVWarm Worlds and Otherwise
p53
aVThe World Inside
p54
aVTimes Without Number
p55
aVThe Left Hand of the Electron
p56
aVWaldo and Magic, Inc
p57
aVEndgame Enigma
p58
aVPilgrimage: The Book of the People (The People)
p59
aVTest of Fire
p60
aVEmpire Star
p61
aVThe Dream Master
p62
asS'description'
p63
NsS'format'
p64
VMass Market Paperback
p65
sS'gutenberg'
p66
(dp67
g40
Vhttp://www.gutenberg.org/ebooks/51129
p68
sS'num'
p69
I51129
ssS'authors'
p70
(lp71
I195
asS'pages'
p72
I256
sS'isbn13'
p73
V9780345350510
p74
sS'language'
p75
VEnglish
p76
sS'country'
p77
I3
sS'release_date'
p78
S'2016-02-05T00:00:00'
p79
sS'author'
p80
I195
sS'content_cleaned'
p81
I01
sS'classes'
p82
(lp83
Vto-read
p84
aVscience-fiction
p85
aVsci-fi
p86
aVdefault
p87
aVfiction
p88
aVowned
p89
aVscifi
p90
aVsf
p91
aVknown-space
p92
aVlarry-niven
p93
aVscience
p94
aVcurrently-reading
p95
aVfavorites
p96
aVniven
p97
aVlibrary
p98
aVpaperback
p99
aVscience-fiction-fantasy
p100
aVhard-sf
p101
aVsf-fantasy
p102
aVsci-fi-fantasy
p103
aVnovels
p104
aVshort-stories
p105
aVmy-library
p106
aVcollection
p107
aVnot-read
p108
aVsf-f
p109
aVspace-opera
p110
aVamong-others
p111
aVre-read
p112
aVseries-known-space
p113
aVsciencefiction
p114
aVcalibre
p115
aV1960s
p116
aVscience-fiction-and-fantasy
p117
aVunread
p118
aVaudiobooks
p119
aVebook
p120
aVsff
p121
aV1
p122
aVsave-for-later
p123
aVwish-list
p124
aVsci-fi-and-fantasy
p125
aVhave
p126
aVgone
p127
aVfavourites
p128
aVnovel
p129
aVniven-larry
p130
aVbrett
p131
aVe-books
p132
aVclassic-science-fiction
p133
aVon-the-shelf
p134
aVseries
p135
aVreread-again
p136
aVowned-and-ready-to-read
p137
aVpre-goodreads
p138
aVsci-tech
p139
aVmy-bookshelf
p140
aV0-4-star-rating
p141
aVto-read-and-own
p142
aVon-calibre-to-read
p143
aV1980-s
p144
aValan-11
p145
aVstudy_author-series
p146
aVsmall
p147
aVtop-sifi-books
p148
aV00-to-read-00
p149
aVcolony-planet
p150
aVformerly-owned
p151
aVboxed
p152
aVjonah-s-list
p153
aV000rsw-su-20-05-earth-wind-fire
p154
aVbibliothek
p155
aVread-but-i-can-t-remember-when
p156
aVmsf
p157
aVrtc
p158
aVbrussels
p159
aVto-read-have
p160
aVrecommended-by-matty
p161
aVown-to-read
p162
aVsuspense
p163
aVcatalogued
p164
aVbooks
p165
aV31
p166
aVphantastik
p167
aVabenteuer
p168
aVpz-1-sci
p169
aVold-stony-way
p170
aVbooks-sci-fi-7
p171
aVgood
p172
aVread-2nd-time
p173
aVto-read-space-opera
p174
aVbook-tote-1
p175
aVto-check-out
p176
aVread-as-paper
p177
aVz-1968-pub
p178
aVbooks-space-opera-7
p179
aVsf-novel
p180
aVa_to-read-kindle
p181
aVscience-fiction-to-read
p182
aVphysical
p183
asS'loc_class'
p184
S''
p185
sS'n_authors'
p186
I1
sb.