ccopy_reg
_reconstructor
p0
(cdataset.Book
Book
p1
c__builtin__
object
p2
Ntp3
Rp4
(dp5
S'similar_books'
p6
(lp7
sS'genres'
p8
(lp9
sS'author'
p10
I918
sS'countries'
p11
(lp12
I2
asS'year'
p13
I1965
sS'title'
p14
VIF Magazine March 1965
p15
sS'cover'
p16
Vhttps://ia800203.us.archive.org/BookReader/BookReaderImages.php?zip=/26/items/1965-03_IF/1965-03_IF_jp2.zip&file=1965-03_IF_jp2/1965-03_IF_0000.jp2&scale=0&rotate=0
p17
sS'cover_art'
p18
S'http://www.isfdb.org/wiki/images/1/1b/WOFIFMAR1965.jpg'
p19
sS'author_name'
p20
VIF Magazine
p21
sS'images_urls'
p22
(lp23
sS'authors'
p24
(lp25
I499
aI545
aI40
aI561
aI1111
aI86
aI413
aI88
aI1112
aI918
asS'images'
p26
(lp27
sS'id'
p28
I1305
sS'contents'
p29
(lp30
(dp31
g10
I499
sg14
VStone Place
p32
sa(dp33
g10
I545
sg14
VOf One Mind
p34
sa(dp35
g10
I545
sg14
VStarchild (Part 3 of 3)
p36
sa(dp37
g10
I40
sg14
VWhat Fans Do
p38
sa(dp39
g10
I40
sg14
VHue and Cry (If, March 1965)
p40
sa(dp41
g10
I561
sg14
VStone Place
p42
sa(dp43
g10
I1111
sg14
VOf One Mind
p44
sa(dp45
g10
I86
sg14
VStarchild (Part 3 of 3)
p46
sa(dp47
g10
I413
sg14
VMeeting On Kangshan
p48
sa(dp49
g10
I88
sg14
VAll We Unemployed
p50
sa(dp51
g10
I1112
sg14
VMillion-Mile Hunt
p52
sasb.