ccopy_reg
_reconstructor
p0
(cdataset.Book
Book
p1
c__builtin__
object
p2
Ntp3
Rp4
(dp5
S'content_name'
p6
V31929.txt.utf-8
p7
sS'isbn'
p8
NsS'year'
p9
I1952
sS'author_name'
p10
VRaymond Z. Gallun
p11
sS'images_urls'
p12
(lp13
Vhttp://www.gutenberg.org/files/31929/31929-h/images/cover.jpg
p14
aVhttp://www.gutenberg.org/files/31929/31929-h/images/image_001.jpg
p15
aVhttp://www.gutenberg.org/files/31929/31929-h/images/image_b.jpg
p16
aVhttp://www.gutenberg.org/files/31929/31929-h/images/image_d.jpg
p17
aVhttp://www.gutenberg.org/files/31929/31929-h/images/image_h.jpg
p18
aVhttp://www.gutenberg.org/files/31929/31929-h/images/image_t.jpg
p19
aVhttp://www.gutenberg.org/files/31929/31929-h/images/image_u.jpg
p20
aVhttp://www.gutenberg.org/files/31929/31929-h/images/image_u1.jpg
p21
aVhttp://www.gutenberg.org/files/31929/31929-h/images/image_w.jpg
p22
asS'language_code'
p23
NsS'images'
p24
(lp25
sS'id'
p26
I679
sS'category'
p27
VText
p28
sS'genres'
p29
(lp30
sS'copyright'
p31
VPublic domain in the USA.
p32
sS'title'
p33
VBig Pill
p34
sS'wikipedia'
p35
(dp36
S'found'
p37
I00
ssS'average_rating'
p38
F3.25
sS'rating_count'
p39
I8
sS'content_available'
p40
I01
sS'cover_art_url'
p41
S'http://www.gutenberg.org/cache/epub/31929/pg31929.cover.medium.jpg'
p42
sS'goodreads'
p43
(dp44
S'url'
p45
Vhttps://www.goodreads.com/book/show/12992193-big-pill
p46
sg37
I01
sS'year'
p47
I2010
ssS'similar_books'
p48
(lp49
sS'description'
p50
Vcopyright free short SF story
p51
sS'gutenberg'
p52
(dp53
g45
Vhttp://www.gutenberg.org/ebooks/31929
p54
sS'num'
p55
I31929
ssS'authors'
p56
(lp57
I148
asS'isbn13'
p58
NsS'language'
p59
VEnglish
p60
sS'countries'
p61
(lp62
I2
asS'release_date'
p63
S'2010-04-09T00:00:00'
p64
sS'author'
p65
I148
sS'content_cleaned'
p66
I01
sS'classes'
p67
(lp68
Vto-read
p69
aVsci-fi
p70
aVcurrently-reading
p71
aV21st-century-lit
p72
aVowned-pending-kindle-free-ebook
p73
aVscience-fiction
p74
aVshort-story
p75
aVaudio-obtained
p76
aVtype-short-story
p77
aVaudio-obtained-ss
p78
asS'loc_class'
p79
VPS: Language and Literatures: American and Canadian literature
p80
sS'n_authors'
p81
I1
sb.