ccopy_reg
_reconstructor
p0
(cdataset.Book
Book
p1
c__builtin__
object
p2
Ntp3
Rp4
(dp5
S'content_name'
p6
V51241.txt.utf-8
p7
sS'isbn'
p8
V1480272310
p9
sS'year'
p10
I2013
sS'author_name'
p11
VDave Dryfoos
p12
sS'images_urls'
p13
(lp14
Vhttp://www.gutenberg.org/files/51241/51241-h/images/cover.jpg
p15
aVhttp://www.gutenberg.org/files/51241/51241-h/images/illus1.jpg
p16
aVhttp://www.gutenberg.org/files/51241/51241-h/images/illus2.jpg
p17
asS'language_code'
p18
Veng
p19
sS'images'
p20
(lp21
sS'id'
p22
I945
sS'category'
p23
VText
p24
sS'genres'
p25
(lp26
sS'copyright'
p27
VPublic domain in the USA.
p28
sS'title'
p29
VBridge Crossing
p30
sS'wikipedia'
p31
(dp32
S'found'
p33
I00
ssS'average_rating'
p34
F3.47
sS'rating_count'
p35
I35
sS'content_available'
p36
I01
sS'cover_art_url'
p37
S'http://www.gutenberg.org/cache/epub/51241/pg51241.cover.medium.jpg'
p38
sS'goodreads'
p39
(dp40
S'url'
p41
Vhttps://www.goodreads.com/book/show/16171582-burned-bridges
p42
sg33
I01
sS'year'
p43
I2013
ssS'similar_books'
p44
(lp45
VLost Angel Walkabout: One Traveler's Tales
p46
aVL'imperatore del mondo vol.1: Il filantropo
p47
aVFierce Peace
p48
aVCould You Be With Her Now: Two Novellas
p49
aVReunion: A Search for Ancestors
p50
aVA Kiss from Krampus
p51
aVWhen the Turaco Calls
p52
aVSeasons of Death
p53
aVThe Sword of Angels (The Bronze Knight, #3)
p54
aVStar Hounds: The Classic Space Adventure Series (Volume 1)
p55
aVThe Northern Star: The Beginning
p56
aVPhoenix Splinter (Project Horizon)
p57
aVPoison Pill
p58
aVBloodlines - The Quest
p59
aVGhost Circuit
p60
aVThe Two Truths about Love: The Art and Wisdom of Extraordinary Relationships
p61
aVA Time to Cast Away Stones
p62
aVThe Movie House Mystery
p63
asS'description'
p64
VNewly sober and dating the man of her dreams, Traci Collins is ready to enjoy the good life, until her new best friend, Olivia Durning, confides a dreadful secret far worse than Traci could imagine. <br /><br />Sealed by a shared bond, and unaware there is more to the secret than what she was told, Collins feels honor bound to protect her friend when a confrontation between Olivia and her childhood tormentor turns deadly. <br /><br />A mysterious text forces Traci to question Olivia's actions and re-examine her loyalties. When the answers to Traci's questions endanger a life she treasures more than her own, she must decide if friendship has a limit. For a bridge once burnt severs ties forever...
p65
sS'format'
p66
VPaperback
p67
sS'gutenberg'
p68
(dp69
g41
Vhttp://www.gutenberg.org/ebooks/51241
p70
sS'num'
p71
I51241
ssS'authors'
p72
(lp73
I289
asS'pages'
p74
I230
sS'isbn13'
p75
V9781480272316
p76
sS'language'
p77
VEnglish
p78
sS'release_date'
p79
S'2016-02-17T00:00:00'
p80
sS'author'
p81
I289
sS'content_cleaned'
p82
I01
sS'classes'
p83
(lp84
Vto-read
p85
aVcurrently-reading
p86
aVkindle
p87
aVseries
p88
aVmysteries
p89
aVhave-ebook
p90
aVrecs-not-interested
p91
aVkindle-i-own
p92
aVunorganized
p93
aVkeep
p94
aVi-ve-never-finished
p95
aVcompleted-write-review
p96
aVdnf
p97
aV1-star
p98
aVstopped-reading
p99
aVqueued
p100
aVshelfari-suspense
p101
aVmystery
p102
aVyoung-adult
p103
aVshelf-a-authors
p104
aVpending-placement
p105
aV1-a-freebies
p106
aV1-a-ebook-clearout
p107
aVtinas-kindle
p108
aVe-books
p109
aVkindle-4
p110
aVkindle-purchases
p111
aVe-books-kindle
p112
aVhave-to-read-fiction
p113
aVread-2013
p114
aVowned
p115
aVkindle-books
p116
aVowned-to-read
p117
aV250-pages-or-less
p118
aVfiction
p119
aVto-read-nf
p120
aVlib-kindle
p121
aVfree-kindle-books
p122
aVarmchair-southwest-u-s
p123
aVa1-i-own-books
p124
aVloanable
p125
aVnook-books
p126
aVmysteries-thrillers
p127
aVmf-romance
p128
aVkindle-already-own
p129
aVmy-kindle-books
p130
aVwsv
p131
aVmaybe
p132
aVmy-e-book-freebies
p133
aVfreebie
p134
aVread-august-2013
p135
aVkindle-read
p136
aVfree
p137
aV2013-read-books
p138
aVkindle-ebooks
p139
aVfree-books
p140
aVebook
p141
aVhave
p142
aVsuspense
p143
aVowned-in-kindle-app
p144
aVgiveaways-enteredx
p145
aVbook-club
p146
aVon-the-kindle
p147
aVcrime-and-mystery
p148
aVsigned-books
p149
aVunaquired
p150
aVgiveaway-over
p151
aVwins-to-read
p152
aVfirst-read-books
p153
aVto-review
p154
aV12-31
p155
aVchrissy-s-hope-to-reads
p156
aVrandom
p157
aVowned-but-not-read
p158
aVburned-bridges
p159
aVe-book-freebies
p160
aVbook-1-series
p161
aV200s
p162
aVunacquired
p163
asS'loc_class'
p164
S''
p165
sS'n_authors'
p166
I1
sb.