ccopy_reg
_reconstructor
p0
(cdataset.Book
Book
p1
c__builtin__
object
p2
Ntp3
Rp4
(dp5
S'similar_books'
p6
(lp7
sS'genres'
p8
(lp9
sS'author'
p10
I302
sS'countries'
p11
(lp12
I2
asS'year'
p13
I1971
sS'title'
p14
VGalaxy Magazine November 1971
p15
sS'cover'
p16
Vhttps://ia600200.us.archive.org/BookReader/BookReaderImages.php?zip=/31/items/Galaxy_v32n03_1971-11/Galaxy_v32n03_1971-11_jp2.zip&file=Galaxy_v32n03_1971-11_jp2/Galaxy_v32n03_1971-11_0000.jp2&scale=0&rotate=0
p17
sS'cover_art'
p18
S'http://www.isfdb.org/wiki/images/2/27/GALNOVDEC71.jpg'
p19
sS'author_name'
p20
VGalaxy Magazine
p21
sS'images_urls'
p22
(lp23
sS'authors'
p24
(lp25
I499
aI326
aI699
aI91
aI478
aI604
aI700
aI86
aI701
aI702
aI74
aI302
asS'images'
p26
(lp27
sS'id'
p28
I1154
sS'contents'
p29
(lp30
(dp31
g10
I499
sg14
VBirds Fly South in Winter
p32
sa(dp33
g10
I499
sg14
VAutumntime
p34
sa(dp35
g10
I326
sg14
VRammer
p36
sa(dp37
g10
I326
sg14
VI'll Be Judge, I'll Be Jury
p38
sa(dp39
g10
I699
sg14
VStarcult
p40
sa(dp41
g10
I699
sg14
VStarcult [2]
p42
sa(dp43
g10
I499
sg14
VBubbles When They Burst
p44
sa(dp45
g10
I499
sg14
VThe Moon Children (Part 3 of 3)
p46
sa(dp47
g10
I326
sg14
VGalaxy Stars (Galaxy, November-December 1971)
p48
sa(dp49
g10
I91
sg14
VGalaxy Book Shelf (Galaxy, November-December 1971)
p50
sa(dp51
g10
I326
sg14
VJohn W. Campbell: June 8, 1910-July11, 1971 (Obituary)
p52
sa(dp53
g10
I478
sg14
VBirds Fly South in Winter
p54
sa(dp55
g10
I604
sg14
VRammer
p56
sa(dp57
g10
I700
sg14
VStarcult
p58
sa(dp59
g10
I86
sg14
VThe Moon Children (Part 3 of 3)
p60
sa(dp61
g10
I701
sg14
VAutumntime
p62
sa(dp63
g10
I702
sg14
VI'll Be Judge, I'll Be Jury
p64
sa(dp65
g10
I74
sg14
VBubbles When They Burst
p66
sasb.