ccopy_reg
_reconstructor
p0
(cdataset.Book
Book
p1
c__builtin__
object
p2
Ntp3
Rp4
(dp5
S'content_name'
p6
V28437.txt.utf-8
p7
sS'isbn'
p8
NsS'year'
p9
I1957
sS'author_name'
p10
VAllan Howard
p11
sS'images_urls'
p12
(lp13
sS'language_code'
p14
Veng
p15
sS'images'
p16
(lp17
sS'id'
p18
I840
sS'category'
p19
VText
p20
sS'genres'
p21
(lp22
sS'copyright'
p23
VPublic domain in the USA.
p24
sS'title'
p25
VIt's a Small Solar System
p26
sS'wikipedia'
p27
(dp28
S'found'
p29
I00
ssS'average_rating'
p30
F2.74
sS'rating_count'
p31
I11
sS'content_available'
p32
I01
sS'goodreads'
p33
(dp34
S'url'
p35
Vhttps://www.goodreads.com/book/show/9749568-it-s-a-small-solar-system
p36
sg29
I01
sS'year'
p37
I2009
ssS'similar_books'
p38
(lp39
sS'description'
p40
NsS'gutenberg'
p41
(dp42
g35
Vhttp://www.gutenberg.org/ebooks/28437
p43
sS'num'
p44
I28437
ssS'authors'
p45
(lp46
I264
asS'isbn13'
p47
NsS'language'
p48
VEnglish
p49
sS'countries'
p50
(lp51
I3
asS'release_date'
p52
S'2009-03-29T00:00:00'
p53
sS'author'
p54
I264
sS'cover'
p55
Vhttps://s.gr-assets.com/assets/nophoto/book/111x148-bcc042a9c91a29c1d680899eff700a03.png
p56
sS'content_cleaned'
p57
I01
sS'classes'
p58
(lp59
Vscience-fiction
p60
aVaudiobooks
p61
aVshort-story
p62
aV14
p63
aVsci-fi
p64
aVtype-short-story
p65
asS'loc_class'
p66
VPS: Language and Literatures: American and Canadian literature
p67
sS'n_authors'
p68
I1
sb.