ccopy_reg
_reconstructor
p0
(cdataset.Book
Book
p1
c__builtin__
object
p2
Ntp3
Rp4
(dp5
S'content_name'
p6
V18346.txt.utf-8
p7
sS'isbn'
p8
V1557429200
p9
sS'year'
p10
I1953
sS'author_name'
p11
VJohn Joseph McGuire
p12
sS'images_urls'
p13
(lp14
Vhttp://www.gutenberg.org/files/18346/18346-h/images/image_004.jpg
p15
aVhttp://www.gutenberg.org/files/18346/18346-h/images/image_023.jpg
p16
aVhttp://www.gutenberg.org/files/18346/18346-h/images/image_045.jpg
p17
aVhttp://www.gutenberg.org/files/18346/18346-h/images/image_069.jpg
p18
aVhttp://www.gutenberg.org/files/18346/18346-h/images/image_091.jpg
p19
aVhttp://www.gutenberg.org/files/18346/18346-h/images/image_092.jpg
p20
aVhttp://www.gutenberg.org/files/18346/18346-h/images/image_109.jpg
p21
aVhttp://www.gutenberg.org/files/18346/18346-h/images/image_131.jpg
p22
aVhttp://www.gutenberg.org/files/18346/18346-h/images/image_153.jpg
p23
asS'language_code'
p24
NsS'images'
p25
(lp26
sS'id'
p27
I273
sS'category'
p28
VText
p29
sS'genres'
p30
(lp31
sS'copyright'
p32
VPublic domain in the USA.
p33
sS'title'
p34
VNull-ABC
p35
sS'wikipedia'
p36
(dp37
S'found'
p38
I00
ssS'average_rating'
p39
F3.38
sS'rating_count'
p40
I47
sS'content_available'
p41
I01
sS'goodreads'
p42
(dp43
S'url'
p44
Vhttps://www.goodreads.com/book/show/2504732.Null_ABC
p45
sg38
I01
sS'year'
p46
I1953
ssS'similar_books'
p47
(lp48
sS'description'
p49
VThere's some reaction these days that holds scientists responsible for war. Take it one step further: What happens if "book-learnin'" is held responsible...? A startling science fiction novel by H. Beam Piper (author of the classic LITTLE FUZZY) and John J. McGuire!
p50
sS'format'
p51
VPaperback
p52
sS'gutenberg'
p53
(dp54
g44
Vhttp://www.gutenberg.org/ebooks/18346
p55
sS'num'
p56
I18346
ssS'authors'
p57
(lp58
I48
aI19
asS'pages'
p59
I132
sS'isbn13'
p60
V9781557429209
p61
sS'language'
p62
VEnglish
p63
sS'countries'
p64
(lp65
I2
asS'release_date'
p66
S'2006-05-08T00:00:00'
p67
sS'author'
p68
I48
sS'content_cleaned'
p69
I01
sS'classes'
p70
(lp71
Vto-read
p72
aVcurrently-reading
p73
aVscience-fiction
p74
aVsci-fi
p75
aVfiction
p76
aVkindle
p77
aVsi-fi
p78
aVsf
p79
aVebook
p80
aVscience
p81
aVtbr-and-have
p82
aVscifi
p83
aVnovella
p84
aVlibrary-book
p85
aVa-owned
p86
aV20th-century-lit
p87
aVlistened
p88
aVthe-real-stuff
p89
aVfantasy-sf
p90
aVhealth-food-cooking
p91
aVaction-adventure
p92
aVace-doubles-science-fiction
p93
aVon-disk
p94
aVreading
p95
aVdiff-ed
p96
aVebook-yes
p97
aVlooking-for
p98
aVdystopia-and-utopia
p99
aVh-beam-piper
p100
aVcrap
p101
aVacquired
p102
aVvintage-scifi
p103
aVlibrivox-audiobooks-they-re-free
p104
aVgenre-science-fiction
p105
aVnot-regency
p106
aVfavorite-authors
p107
aVanthology
p108
aVtexts
p109
aVbeam
p110
aVh-
p111
aVclassic
p112
aVmcguire
p113
aVpiper
p114
aVonline
p115
aVfree
p116
aVliteracy
p117
aVliterature-
p118
aVnovel
p119
aVwarfare
p120
aVnuclear
p121
aVclassics
p122
aVstories
p123
aVshort
p124
aVfantasy
p125
aVgeneral
p126
aV-
p127
aVclassic-lit
p128
aVcollected-classics
p129
aVbooks-on-kindle
p130
aVgenre-a-none
p131
asS'loc_class'
p132
VPS: Language and Literatures: American and Canadian literature
p133
sS'n_authors'
p134
I2
sb.