ccopy_reg
_reconstructor
p0
(cdataset.Book
Book
p1
c__builtin__
object
p2
Ntp3
Rp4
(dp5
S'content_name'
p6
V24370.txt.utf-8
p7
sS'isbn'
p8
NsS'year'
p9
I1962
sS'author_name'
p10
VMack Reynolds
p11
sS'images_urls'
p12
(lp13
Vhttp://www.gutenberg.org/files/24370/24370-h/images/001-1.png
p14
aVhttp://www.gutenberg.org/files/24370/24370-h/images/001-2.png
p15
aVhttp://www.gutenberg.org/files/24370/24370-h/images/002.png
p16
aVhttp://www.gutenberg.org/files/24370/24370-h/images/003-1.png
p17
aVhttp://www.gutenberg.org/files/24370/24370-h/images/003-2.png
p18
aVhttp://www.gutenberg.org/files/24370/24370-h/images/004.png
p19
aVhttp://www.gutenberg.org/files/24370/24370-h/images/005.png
p20
aVhttp://www.gutenberg.org/files/24370/24370-h/images/006.png
p21
asS'language_code'
p22
NsS'id'
p23
I430
sS'category'
p24
VText
p25
sS'genres'
p26
(lp27
sS'copyright'
p28
VPublic domain in the USA.
p29
sS'title'
p30
VMercenary
p31
sS'wikipedia'
p32
(dp33
S'found'
p34
I00
ssS'average_rating'
p35
F3.99
sS'rating_count'
p36
I27
sS'content_available'
p37
I01
sS'goodreads'
p38
(dp39
S'url'
p40
S'https://www.goodreads.com/book/show/5973083-mercenary'
p41
sS'found'
p42
I01
ssS'similar_books'
p43
(lp44
sS'description'
p45
NsS'gutenberg'
p46
(dp47
S'url'
p48
Vhttp://www.gutenberg.org/ebooks/24370
p49
sS'num'
p50
I24370
ssS'authors'
p51
(lp52
I69
asS'isbn13'
p53
NsS'language'
p54
VEnglish
p55
sS'countries'
p56
(lp57
I2
asS'release_date'
p58
S'2008-01-20T00:00:00'
p59
sS'author'
p60
I69
sS'content_cleaned'
p61
I01
sS'classes'
p62
(lp63
Vto-read
p64
aVscience-fiction
p65
aVsci-fi
p66
aVfiction
p67
aVnext
p68
aVsf
p69
aVkindle
p70
aVbacklog
p71
aVnext-fiction-tbr
p72
aV2017-or-later
p73
aVtbr-owned
p74
aVbland-land-here-we-go
p75
aVshort-stories
p76
aVspeculative-fiction
p77
aVaudiobooks
p78
aVno-time-soon
p79
aVunread
p80
aVunknown-genre
p81
aVpaperwhite-active
p82
aVebooks
p83
aVmaybe-someday
p84
aVcurrently-reading
p85
aVfeedbooks-com
p86
aVlibrivox-audiobooks-they-re-free
p87
aVvintage-scifi
p88
aVclassic-lit
p89
aVcollected-classics
p90
aV2017-2019
p91
aVhigh-priority
p92
aV2018-or-later
p93
aVlower-priority-tbr
p94
aVround-tuit
p95
aVdawn-of-the-unread
p96
aVowned-and-unread
p97
aVbacklogue
p98
asS'loc_class'
p99
VPS: Language and Literatures: American and Canadian literature
p100
sS'n_authors'
p101
I1
sb.