ccopy_reg
_reconstructor
p0
(cdataset.Book
Book
p1
c__builtin__
object
p2
Ntp3
Rp4
(dp5
S'isbn'
p6
NsS'year'
p7
I1953
sS'author_name'
p8
VGeorge O. Smith
p9
sS'images_urls'
p10
(lp11
Vhttp://www.gutenberg.org/files/19963/19963-h/images/image01.png
p12
aVhttp://www.gutenberg.org/files/19963/19963-tei/images/image01.png
p13
asS'language_code'
p14
NsS'id'
p15
I718
sS'category'
p16
VText
p17
sS'genres'
p18
(lp19
sS'copyright'
p20
VPublic domain in the USA.
p21
sS'title'
p22
VStop Look and Dig
p23
sS'wikipedia'
p24
(dp25
S'found'
p26
I00
ssS'average_rating'
p27
F3.36
sS'rating_count'
p28
I12
sS'content_available'
p29
I00
sS'goodreads'
p30
(dp31
S'url'
p32
Vhttps://www.goodreads.com/book/show/20408661-stop-look-and-dig
p33
sS'found'
p34
I01
sS'year'
p35
I2007
ssS'similar_books'
p36
(lp37
sS'description'
p38
NsS'gutenberg'
p39
(dp40
g32
Vhttp://www.gutenberg.org/ebooks/19963
p41
sS'num'
p42
I19963
ssS'authors'
p43
(lp44
I95
asS'isbn13'
p45
NsS'language'
p46
VEnglish
p47
sS'countries'
p48
(lp49
I2
asS'release_date'
p50
S'2006-11-29T00:00:00'
p51
sS'author'
p52
I95
sS'cover'
p53
Vhttps://s.gr-assets.com/assets/nophoto/book/111x148-bcc042a9c91a29c1d680899eff700a03.png
p54
sS'classes'
p55
(lp56
Vto-read
p57
aVsf
p58
aVfree-from-amazon
p59
aVscience-fiction
p60
aVshort-story
p61
aVaudio-obtained-lvss
p62
aVlibrivox-free-editions
p63
aV15
p64
aVread-in-2014
p65
aVon-disk
p66
aVtype-short-story
p67
aVaudio-obtained-ss
p68
asS'loc_class'
p69
VPS: Language and Literatures: American and Canadian literature
p70
sS'n_authors'
p71
I1
sb.