ccopy_reg
_reconstructor
p0
(cdataset.Book
Book
p1
c__builtin__
object
p2
Ntp3
Rp4
(dp5
S'content_name'
p6
V42236.txt.utf-8
p7
sS'isbn'
p8
V0937986135
p9
sS'year'
p10
I1997
sS'author_name'
p11
VRobert E. Howard
p12
sS'images_urls'
p13
(lp14
Vhttp://www.gutenberg.org/files/42236/42236-h/images/cover.jpg
p15
asS'language_code'
p16
Veng
p17
sS'images'
p18
(lp19
sS'id'
p20
I170
sS'category'
p21
VText
p22
sS'genres'
p23
(lp24
sS'copyright'
p25
VPublic domain in the USA.
p26
sS'title'
p27
VJewels of Gwahlur
p28
sS'wikipedia'
p29
(dp30
S'url'
p31
Vhttps://en.wikipedia.org/wiki/Jewels_of_Gwahlur_(collection)
p32
sS'found'
p33
I01
sS'year'
p34
I-1
ssS'published_in'
p35
NsS'average_rating'
p36
F3.82
sS'rating_count'
p37
I174
sS'content_available'
p38
I01
sS'cover_art_url'
p39
S'http://www.gutenberg.org/cache/epub/42236/pg42236.cover.medium.jpg'
p40
sS'goodreads'
p41
(dp42
g31
Vhttps://www.goodreads.com/book/show/1502416.Jewels_of_Gwahlur
p43
sg33
I01
sg34
I1997
ssS'similar_books'
p44
(lp45
VThe Monk and the Hangman's Daughter
p46
aVThe Girl in the Golden Atom
p47
aVBlack Spirits and White - A Book of Ghost Stories
p48
aVThe Wind in the Rosebush and Other Stories of the Supernatural
p49
aVThe Pirates of Ersatz
p50
aVForests of the Night (Moreau, #1)
p51
aVPagan Passions
p52
aVBlack & White
p53
aVThe Circular Study (Mr. Gryce #10)
p54
aVGifts with No Giver: A Love Affair with Truth
p55
aVThe Devil's Dictionary and Other Works
p56
aVThe Gods of Pegana
p57
aVThe Dunwich Cycle: Where the Old Gods Wait (Cthulhu Cycle Book, #9)
p58
aVCrawling Chaos: Selected Works 1920-1935
p59
aVCarnacki, the Ghost Finder
p60
aVThe Rainbow Trail ( Riders of the Purple Sage#2)
p61
aVSpectre Nightmares and Visitations
p62
aVThe Hidden Stars (Rune of Unmaking #1)
p63
asS'description'
p64
V"The cliffs rose sheer from the jungle, towering ramparts of stone that glinted jade-blue and dull crimson in the rising sun, and curved away and away to east and west above the waving emerald ocean of fronds and leaves. It looked insurmountable, that giant palisade with its sheer curtains of solid rock in which bits of quartz winked dazzlingly in the sunlight. But the man who was working his tedious way upward was already halfway to the top."<br /><br />The Teeth of Gwahlur are legendary jewels, kept in an abandoned city in the country of Keshan. Conan, following legends of this treasure, has travelled to the lost city, where supernatural gives way to intrigue.
p65
sS'format'
p66
VHardcover
p67
sS'gutenberg'
p68
(dp69
g31
Vhttp://www.gutenberg.org/ebooks/42236
p70
sS'num'
p71
I42236
ssS'authors'
p72
(lp73
I22
asS'isbn13'
p74
V9780937986134
p75
sS'language'
p76
VEnglish
p77
sS'countries'
p78
(lp79
I2
asS'release_date'
p80
S'2013-03-01T00:00:00'
p81
sS'author'
p82
I22
sS'original_title'
p83
VJewels of Gwahlur (collection)
p84
sS'summary'
p85
VJewels of Gwahlur is a 1979 collection of two fantasy short stories written by Robert E. Howard featuring his sword and sorcery hero Conan the Barbarian. The book was published in 1979 by Donald M. Grant, Publisher, Inc. as volume VIII of their deluxe Conan set. The title story originally appeared in the magazine Weird Tales. "The Snout in the Dark" is the original fragment of a story that Howard never completed. It first appeared, completed by L. Sprague de Camp and Lin Carter, in the collection Conan of Cimmeria.
p86
sS'content_cleaned'
p87
I01
sS'classes'
p88
(lp89
Vfantasy
p90
aVto-read
p91
aVfiction
p92
aVconan
p93
aVshort-stories
p94
aVadventure
p95
aVscience-fiction
p96
aVebook
p97
aVclassics
p98
aVcurrently-reading
p99
aVpulp
p100
aVaudio
p101
aVgutenberg
p102
aVshort-story
p103
aVebooks
p104
aVsci-fi-fantasy
p105
aVto-read-ebook
p106
aV01-classic-fantasy
p107
aV20th-century-lit
p108
aVread-2017
p109
aVnook
p110
aVi-own
p111
aVpublic-domain
p112
aVkindle
p113
aVdigital
p114
aVamerican
p115
aVseries
p116
aVgenero-fantasia
p117
aVfree-ebooks
p118
aVowned
p119
aVswords-and-sorcery
p120
aVpathfinder-recommendations
p121
aVz_fiction
p122
aVx_shortstory
p123
aVw_us_federal
p124
aVlit-anglosajona
p125
aVthriller
p126
aVsword-and-sorcery
p127
aVdark-fantasy
p128
aVaction
p129
aVhyborean-age
p130
aVcuentos
p131
aVshorts
p132
aVrobert-e-howard
p133
aVgreatest-sffh-novellas
p134
aVmount-tbr-2014
p135
aVshelved
p136
aVfeedbooks-com
p137
aVto-read-fantasy
p138
aVscience-fic-fantasy
p139
aVclassic
p140
aVsword-sorcery
p141
aVzebert
p142
aVyes
p143
aVgoodreads
p144
aVfantasy-epic
p145
aVlibrivox
p146
aVnovels
p147
aVmystery
p148
aVrobert-howard
p149
aVamerican-literature
p150
aVgothic-literature
p151
aVamerican-lit
p152
aVpulps-and-sci-fi
p153
aVtestosterone-fun
p154
aVfun
p155
aVe-book
p156
aVconan-reh
p157
aVa-great-list-of-sf-fantasy
p158
aVa-great-list-of-top-books-to-read
p159
aVfantasy-masterworks
p160
aVsecond-hand-bookshop-wishlist
p161
aVmystery-and-suspense
p162
aVlibrary
p163
asS'loc_class'
p164
VPS: Language and Literatures: American and Canadian literature
p165
sS'n_authors'
p166
I1
sb.