ccopy_reg
_reconstructor
p0
(cdataset.Book
Book
p1
c__builtin__
object
p2
Ntp3
Rp4
(dp5
S'content_name'
p6
V22467.txt.utf-8
p7
sS'isbn'
p8
NsS'year'
p9
I1946
sS'author_name'
p10
VMurray Leinster
p11
sS'images_urls'
p12
(lp13
Vhttp://www.gutenberg.org/files/22467/22467-h/images/illus-cousin.png
p14
aVhttp://www.gutenberg.org/files/22467/22467-h/images/illus-cover.jpg
p15
aVhttp://www.gutenberg.org/files/22467/22467-h/images/illus-grid.png
p16
aVhttp://www.gutenberg.org/files/22467/22467-h/images/illus-last.png
p17
aVhttp://www.gutenberg.org/files/22467/22467-h/images/illus-talk.png
p18
aVhttp://www.gutenberg.org/files/22467/22467-h/images/illus-title.png
p19
aVhttp://www.gutenberg.org/files/22467/22467-page-images/c001.jpg
p20
aVhttp://www.gutenberg.org/files/22467/22467-page-images/p006-image.png
p21
aVhttp://www.gutenberg.org/files/22467/22467-page-images/p006.png
p22
aVhttp://www.gutenberg.org/files/22467/22467-page-images/p007.png
p23
aVhttp://www.gutenberg.org/files/22467/22467-page-images/p008.png
p24
aVhttp://www.gutenberg.org/files/22467/22467-page-images/p009.png
p25
aVhttp://www.gutenberg.org/files/22467/22467-page-images/p010.png
p26
aVhttp://www.gutenberg.org/files/22467/22467-page-images/p011.png
p27
aVhttp://www.gutenberg.org/files/22467/22467-page-images/p012.png
p28
aVhttp://www.gutenberg.org/files/22467/22467-page-images/p013.png
p29
aVhttp://www.gutenberg.org/files/22467/22467-page-images/p014.png
p30
aVhttp://www.gutenberg.org/files/22467/22467-page-images/p015-image.png
p31
aVhttp://www.gutenberg.org/files/22467/22467-page-images/p015.png
p32
aVhttp://www.gutenberg.org/files/22467/22467-page-images/p016.png
p33
aVhttp://www.gutenberg.org/files/22467/22467-page-images/p017.png
p34
aVhttp://www.gutenberg.org/files/22467/22467-page-images/p018.png
p35
aVhttp://www.gutenberg.org/files/22467/22467-page-images/p019.png
p36
aVhttp://www.gutenberg.org/files/22467/22467-page-images/p020.png
p37
aVhttp://www.gutenberg.org/files/22467/22467-page-images/p021.png
p38
aVhttp://www.gutenberg.org/files/22467/22467-page-images/p022-image.png
p39
aVhttp://www.gutenberg.org/files/22467/22467-page-images/p022.png
p40
aVhttp://www.gutenberg.org/files/22467/22467-page-images/p023.png
p41
aVhttp://www.gutenberg.org/files/22467/22467-page-images/p024.png
p42
aVhttp://www.gutenberg.org/files/22467/22467-page-images/p025.png
p43
aVhttp://www.gutenberg.org/files/22467/22467-page-images/p026.png
p44
aVhttp://www.gutenberg.org/files/22467/22467-page-images/p027.png
p45
aVhttp://www.gutenberg.org/files/22467/22467-page-images/p028.png
p46
aVhttp://www.gutenberg.org/files/22467/22467-page-images/p029.png
p47
aVhttp://www.gutenberg.org/files/22467/22467-page-images/p030.png
p48
aVhttp://www.gutenberg.org/files/22467/22467-page-images/p031-image.png
p49
aVhttp://www.gutenberg.org/files/22467/22467-page-images/p031.png
p50
aVhttp://www.gutenberg.org/files/22467/22467-page-images/p032.png
p51
aVhttp://www.gutenberg.org/files/22467/22467-page-images/p033.png
p52
aVhttp://www.gutenberg.org/files/22467/22467-page-images/p034.png
p53
aVhttp://www.gutenberg.org/files/22467/22467-page-images/p035.png
p54
aVhttp://www.gutenberg.org/files/22467/22467-page-images/p036.png
p55
aVhttp://www.gutenberg.org/files/22467/22467-page-images/p037.png
p56
aVhttp://www.gutenberg.org/files/22467/22467-page-images/p038.png
p57
aVhttp://www.gutenberg.org/files/22467/22467-page-images/p039-image.png
p58
aVhttp://www.gutenberg.org/files/22467/22467-page-images/p039.png
p59
aVhttp://www.gutenberg.org/files/22467/22467-page-images/p040.png
p60
aVhttp://www.gutenberg.org/files/22467/22467-page-images/p041.png
p61
aVhttp://www.gutenberg.org/files/22467/22467-page-images/p042.png
p62
aVhttp://www.gutenberg.org/files/22467/22467-page-images/p043.png
p63
aVhttp://www.gutenberg.org/files/22467/22467-page-images/p044.png
p64
asS'language_code'
p65
NsS'id'
p66
I441
sS'category'
p67
VText
p68
sS'genres'
p69
(lp70
sS'copyright'
p71
VPublic domain in the USA.
p72
sS'title'
p73
VSand Doom
p74
sS'wikipedia'
p75
(dp76
S'found'
p77
I00
ssS'average_rating'
p78
F3.15
sS'rating_count'
p79
I8
sS'content_available'
p80
I01
sS'cover_art_url'
p81
S'http://www.gutenberg.org/cache/epub/22467/pg22467.cover.medium.jpg'
p82
sS'goodreads'
p83
(dp84
S'url'
p85
Vhttps://www.goodreads.com/book/show/9501933-sand-doom
p86
sS'found'
p87
I01
sS'year'
p88
I2007
ssS'similar_books'
p89
(lp90
sS'description'
p91
NsS'gutenberg'
p92
(dp93
g85
Vhttp://www.gutenberg.org/ebooks/22467
p94
sS'num'
p95
I22467
ssS'authors'
p96
(lp97
I61
asS'isbn13'
p98
NsS'language'
p99
VEnglish
p100
sS'countries'
p101
(lp102
I2
asS'release_date'
p103
S'2007-08-31T00:00:00'
p104
sS'author'
p105
I61
sS'cover'
p106
Vhttps://s.gr-assets.com/assets/nophoto/book/111x148-bcc042a9c91a29c1d680899eff700a03.png
p107
sS'content_cleaned'
p108
I01
sS'classes'
p109
(lp110
Vto-read
p111
aVcurrently-reading
p112
aVscience-fiction
p113
aV21st-century-lit
p114
aVlibrary
p115
aVshelf-l-authors
p116
aVgenre-syfi-fan-horr
p117
aVsff
p118
aVfiction
p119
aVscifi
p120
aVnovella
p121
asS'loc_class'
p122
VPS: Language and Literatures: American and Canadian literature
p123
sS'n_authors'
p124
I1
sb.