ccopy_reg
_reconstructor
p0
(cdataset.Book
Book
p1
c__builtin__
object
p2
Ntp3
Rp4
(dp5
S'content_name'
p6
V50885.txt.utf-8
p7
sS'isbn'
p8
V1523904704
p9
sS'year'
p10
I1953
sS'author_name'
p11
VJoseph Samachson
p12
sS'images_urls'
p13
(lp14
Vhttp://www.gutenberg.org/files/50885/50885-h/images/cover.jpg
p15
aVhttp://www.gutenberg.org/files/50885/50885-h/images/illus1.jpg
p16
aVhttp://www.gutenberg.org/files/50885/50885-h/images/illus2.jpg
p17
aVhttp://www.gutenberg.org/files/50885/50885-h/images/illus3.jpg
p18
asS'language_code'
p19
NsS'images'
p20
(lp21
sS'id'
p22
I469
sS'category'
p23
VText
p24
sS'genres'
p25
(lp26
sS'copyright'
p27
VPublic domain in the USA.
p28
sS'title'
p29
VThe Weather on Mercury
p30
sS'wikipedia'
p31
(dp32
S'found'
p33
I00
ssS'average_rating'
p34
F2.33
sS'rating_count'
p35
I1
sS'content_available'
p36
I01
sS'cover_art_url'
p37
S'http://www.gutenberg.org/cache/epub/50885/pg50885.cover.medium.jpg'
p38
sS'goodreads'
p39
(dp40
S'url'
p41
Vhttps://www.goodreads.com/book/show/29144163-the-weather-on-mercury
p42
sg33
I01
sS'year'
p43
I-1
ssS'similar_books'
p44
(lp45
sS'description'
p46
VThis collection of literature attempts to compile many of the classic works that have stood the test of time and offer them at a reduced, affordable price, in an attractive volume so that everyone can enjoy them.
p47
sS'format'
p48
VPaperback
p49
sS'gutenberg'
p50
(dp51
g41
Vhttp://www.gutenberg.org/ebooks/50885
p52
sS'num'
p53
I50885
ssS'authors'
p54
(lp55
I157
asS'pages'
p56
I40
sS'isbn13'
p57
V9781523904709
p58
sS'language'
p59
VEnglish
p60
sS'countries'
p61
(lp62
I2
asS'release_date'
p63
S'2016-01-09T00:00:00'
p64
sS'author'
p65
I157
sS'content_cleaned'
p66
I01
sS'classes'
p67
(lp68
Vto-read
p69
aVunknown-publication-dates
p70
aVshelf-m-authors
p71
aVgenre-syfi-fan-horr
p72
aVcurrently-reading
p73
aVsci-fi
p74
asS'loc_class'
p75
S''
p76
sS'n_authors'
p77
I1
sb.