ccopy_reg
_reconstructor
p0
(cdataset.Book
Book
p1
c__builtin__
object
p2
Ntp3
Rp4
(dp5
S'content_name'
p6
V33854.txt.utf-8
p7
sS'isbn'
p8
NsS'year'
p9
I1953
sS'author_name'
p10
VRobert Sheckley
p11
sS'images_urls'
p12
(lp13
Vhttp://www.gutenberg.org/files/33854/33854-h/images/cover.jpg
p14
aVhttp://www.gutenberg.org/files/33854/33854-h/images/image_001.jpg
p15
aVhttp://www.gutenberg.org/files/33854/33854-h/images/image_003.jpg
p16
aVhttp://www.gutenberg.org/files/33854/33854-h/images/image_a.jpg
p17
aVhttp://www.gutenberg.org/files/33854/33854-h/images/image_a1.jpg
p18
aVhttp://www.gutenberg.org/files/33854/33854-h/images/image_e.jpg
p19
aVhttp://www.gutenberg.org/files/33854/33854-h/images/image_t.jpg
p20
asS'language_code'
p21
Veng
p22
sS'images'
p23
(lp24
sS'id'
p25
I116
sS'category'
p26
VText
p27
sS'genres'
p28
(lp29
sS'copyright'
p30
VPublic domain in the USA.
p31
sS'title'
p32
VAsk a Foolish Question
p33
sS'wikipedia'
p34
(dp35
S'url'
p36
Vhttps://en.wikipedia.org/wiki/Citizen_in_Space
p37
sS'found'
p38
I01
sS'year'
p39
I-1
ssS'published_in'
p40
NsS'average_rating'
p41
F3.69
sS'rating_count'
p42
I65
sS'content_available'
p43
I01
sS'cover_art_url'
p44
S'http://www.gutenberg.org/cache/epub/33854/pg33854.cover.medium.jpg'
p45
sS'goodreads'
p46
(dp47
g36
Vhttps://www.goodreads.com/book/show/10215277-ask-a-foolish-question
p48
sg38
I01
sg39
I1953
ssS'similar_books'
p49
(lp50
sS'description'
p51
V"It's well established now that the way you put a question often determines not only the answer you'll get, but the type of answer possible. So ... a mechanical answerer, geared to produce the ultimate revelations in reference to anything you want to know, might have unsuspected limitations."-From Ask A Foolish Question<br />This short science fiction story by Robert Sheckley was first publsihed in Science Fiction magazine but is now available on the Kindle with illustrations and original text.
p52
sS'format'
p53
NsS'gutenberg'
p54
(dp55
g36
Vhttp://www.gutenberg.org/ebooks/33854
p56
sS'num'
p57
I33854
ssS'authors'
p58
(lp59
I23
asS'isbn13'
p60
NsS'language'
p61
VEnglish
p62
sS'countries'
p63
(lp64
I2
asS'release_date'
p65
S'2010-10-11T00:00:00'
p66
sS'author'
p67
I23
sS'original_title'
p68
VCitizen in Space
p69
sS'summary'
p70
VCitizen in Space is a collection of science fiction short stories by Robert Sheckley. It was first published in 1955 by Ballantine Books (catalogue number 126). It includes the following stories (magazines in which the stories originally appeared given in parentheses):\u000a"The Mountain Without a Name" (1955)\u000a"The Accountant" (F&SF 1954/7)\u000a"Hunting Problem" (Galaxy 1955/9)\u000a"A Thief in Time" (Galaxy 1954/7)\u000a"The Luckiest Man in the World" (Fantastic Universe 1955/2; also known as "Fortunate Person")\u000a"Hands Off" (Galaxy 1954/4)\u000a"Something for Nothing" (Galaxy 1954/6)\u000a"A Ticket to Tranai" (Galaxy 1955/10)\u000a"The Battle" (If 1954/9)\u000a"Skulking Permit" (Galaxy 1954/12)\u000a"Citizen in Space" (Playboy 1955/9; also known as "Spy Story")\u000a"Ask a Foolish Question" (Science Fiction Stories No. 1, 1953)\u000aGalaxy reviewer Floyd C. Gale praised the stories as "very high in inventiveness, ingenuity and reader appeal."
p71
sS'content_cleaned'
p72
I01
sS'classes'
p73
(lp74
Vto-read
p75
aVscience-fiction
p76
aVshort-stories
p77
aVsci-fi
p78
aVfiction
p79
aVcurrently-reading
p80
aVclassics
p81
aVglowing-stuff
p82
aVbuddyreads-bookclub
p83
aVlibrivox-short-story-collection-046
p84
aVaudiobooks
p85
aVshelfari-fiction
p86
aVshelfari-english
p87
aVshelfari-e-book
p88
aVshelfari-communication
p89
aVsf-amp-f
p90
aVsci-fi-fantasy
p91
aVclassic-science-fiction
p92
aVshort-story
p93
aVe-book
p94
aVbooks-i-own
p95
aV_fun-stuff
p96
aVpg
p97
aVaudio-obtained
p98
aVread-in-my-50s
p99
aVliked-it
p100
aVebooks
p101
aVauthor-s
p102
aVfiction-sf
p103
aVshort
p104
aVgutenberg
p105
aVebook
p106
aVanthology
p107
aVsci-fi-and-horror
p108
aVsi-fi-fantasy
p109
aVbooks-to-read-in-2012
p110
aVclassic-sci-fi
p111
aVtype-short-story
p112
aVaudio-obtained-ss
p113
aV_fiction-and-fun
p114
aVaudio-books
p115
asS'loc_class'
p116
VPS: Language and Literatures: American and Canadian literature
p117
sS'n_authors'
p118
I1
sb.