ccopy_reg
_reconstructor
p0
(cdataset.Book
Book
p1
c__builtin__
object
p2
Ntp3
Rp4
(dp5
S'content_name'
p6
V24187.txt.utf-8
p7
sS'isbn'
p8
NsS'year'
p9
I1960
sS'author_name'
p10
VH. B. Fyfe
p11
sS'images_urls'
p12
(lp13
Vhttp://www.gutenberg.org/files/24187/24187-h/images/001.png
p14
aVhttp://www.gutenberg.org/files/24187/24187-h/images/002.png
p15
aVhttp://www.gutenberg.org/files/24187/24187-h/images/003.png
p16
asS'language_code'
p17
NsS'images'
p18
(lp19
sS'id'
p20
I734
sS'category'
p21
VText
p22
sS'genres'
p23
(lp24
sS'copyright'
p25
VPublic domain in the USA.
p26
sS'title'
p27
VA Transmutation of Muddles
p28
sS'wikipedia'
p29
(dp30
S'found'
p31
I00
ssS'average_rating'
p32
F2.7
sS'rating_count'
p33
I8
sS'content_available'
p34
I01
sS'goodreads'
p35
(dp36
S'url'
p37
Vhttps://www.goodreads.com/book/show/8654901-a-transmutation-of-muddles
p38
sg31
I01
sS'year'
p39
I1960
ssS'similar_books'
p40
(lp41
sS'description'
p42
V<b>An experienced horse-trader, bargain-haggler, and general swapper has a very special talent for turning two headaches into one aspirin pill....</b><br /><i>Science Fiction</i><br /><br />Play Duration: 00:44:27 <br />Public Domain stories from Project Gutenberg, that are read by volunteers. <br />First published in <i>\u201cAstounding Science Fiction\u201d</i> <br /><br /><u>Free download from LibriVox.org</u> <br />Down load file sizes<br />[mp3@64kbps - 21.3MB]<br />[mp3@128kbps - 42.6MB]<br />[ogg vorbis - 29MB]
p43
sS'gutenberg'
p44
(dp45
g37
Vhttp://www.gutenberg.org/ebooks/24187
p46
sS'num'
p47
I24187
ssS'authors'
p48
(lp49
I94
asS'isbn13'
p50
NsS'language'
p51
VEnglish
p52
sS'countries'
p53
(lp54
I2
asS'release_date'
p55
S'2008-01-07T00:00:00'
p56
sS'author'
p57
I94
sS'content_cleaned'
p58
I01
sS'classes'
p59
(lp60
Vto-read
p61
aVscience-fiction
p62
aVfree-from-amazon
p63
aVclassic
p64
aVsci-fi
p65
aVhumor
p66
aVfiction
p67
aV20th-century
p68
aVpg
p69
aV15
p70
aVcalibre
p71
asS'loc_class'
p72
VPS: Language and Literatures: American and Canadian literature
p73
sS'n_authors'
p74
I1
sb.