ccopy_reg
_reconstructor
p0
(cdataset.Book
Book
p1
c__builtin__
object
p2
Ntp3
Rp4
(dp5
S'content_name'
p6
V29908.txt.utf-8
p7
sS'isbn'
p8
NsS'year'
p9
I1955
sS'author_name'
p10
VC. M. Kornbluth
p11
sS'images_urls'
p12
(lp13
Vhttp://www.gutenberg.org/files/29908/29908-h/images/001.png
p14
aVhttp://www.gutenberg.org/files/29908/29908-h/images/002.png
p15
aVhttp://www.gutenberg.org/files/29908/29908-h/images/003-1.jpg
p16
aVhttp://www.gutenberg.org/files/29908/29908-h/images/003-2.jpg
p17
asS'language_code'
p18
NsS'id'
p19
I485
sS'category'
p20
VText
p21
sS'genres'
p22
(lp23
sS'copyright'
p24
VPublic domain in the USA.
p25
sS'title'
p26
VThe Adventurer
p27
sS'wikipedia'
p28
(dp29
S'found'
p30
I00
ssS'average_rating'
p31
F3.88
sS'rating_count'
p32
I22
sS'content_available'
p33
I01
sS'goodreads'
p34
(dp35
S'url'
p36
S'https://www.goodreads.com/book/show/10106857-the-adventurer'
p37
sS'found'
p38
I01
ssS'similar_books'
p39
(lp40
sS'description'
p41
NsS'gutenberg'
p42
(dp43
S'url'
p44
Vhttp://www.gutenberg.org/ebooks/29908
p45
sS'num'
p46
I29908
ssS'authors'
p47
(lp48
I51
asS'isbn13'
p49
V2940012054579
p50
sS'language'
p51
VEnglish
p52
sS'countries'
p53
(lp54
I2
asS'release_date'
p55
S'2009-09-04T00:00:00'
p56
sS'author'
p57
I51
sS'content_cleaned'
p58
I01
sS'classes'
p59
(lp60
Vto-read
p61
aVscience-fiction
p62
aVcurrently-reading
p63
aVshort-stories
p64
aVjunk
p65
aVowned
p66
aVebooks
p67
aVebooks-owned
p68
aVbooks-owned
p69
aVfik
p70
aVgutenberg
p71
aVaudiobooks
p72
aVmaybe-reads
p73
aVon-tablet
p74
aVz_fiction
p75
aVx_shortstory
p76
aVwo_scifi
p77
aVsci-fi
p78
aVw_us_modern
p79
aVown-not-read
p80
aVshort-story
p81
aVlibrivox-free-editions
p82
aVaudio-obtained
p83
aVliterature
p84
aVeua
p85
aVowned-kindle
p86
aVdepressing
p87
aVshelved
p88
aVowned-e-books
p89
aVclassics
p90
aVkindle-shorts
p91
aV13
p92
aVkindle
p93
aVbooks-i-own
p94
aVmass-romance
p95
aVcalibre
p96
aVfront-shelf
p97
aVhow-books-i-own
p98
aVe-reader
p99
aVtype-short-story
p100
aVaudio-obtained-ss
p101
asS'loc_class'
p102
VPS: Language and Literatures: American and Canadian literature
p103
sS'n_authors'
p104
I1
sb.