ccopy_reg
_reconstructor
p0
(cdataset.Book
Book
p1
c__builtin__
object
p2
Ntp3
Rp4
(dp5
S'similar_books'
p6
(lp7
sS'genres'
p8
(lp9
sS'author'
p10
I302
sS'countries'
p11
(lp12
I2
asS'year'
p13
I1978
sS'title'
p14
VGalaxy Magazine March 1978
p15
sS'cover'
p16
Vhttps://ia601302.us.archive.org/BookReader/BookReaderImages.php?zip=/26/items/Galaxy_v39n03_1978-03/Galaxy_v39n03_1978-03_jp2.zip&file=Galaxy_v39n03_1978-03_jp2/Galaxy_v39n03_1978-03_0000.jp2&scale=0&rotate=0
p17
sS'cover_art'
p18
S'http://www.isfdb.org/wiki/images/4/42/GALMAR78.jpg'
p19
sS'author_name'
p20
VGalaxy Magazine
p21
sS'images_urls'
p22
(lp23
sS'authors'
p24
(lp25
I860
aI848
aI849
aI842
aI326
aI734
aI843
aI767
aI844
aI861
aI857
aI862
aI714
aI817
aI302
asS'images'
p26
(lp27
sS'id'
p28
I1209
sS'contents'
p29
(lp30
(dp31
S'title'
p32
VShowcase (Galaxy, March 1978)
p33
sS'author'
p34
I860
sa(dp35
g32
VMoonless Night
p36
sg34
I848
sa(dp37
g32
VMoonless Night [2]
p38
sg34
I848
sa(dp39
g32
VBugs
p40
sg34
I849
sa(dp41
g32
VBugs [2]
p42
sg34
I849
sa(dp43
g32
VThe Exchange
p44
sg34
I842
sa(dp45
g32
VThe Exchange [2]
p46
sg34
I842
sa(dp47
g32
VThe Exchange [3]
p48
sg34
I842
sa(dp49
g32
VThe Norns' Loom
p50
sg34
I849
sa(dp51
g32
VThe Norns' Loom [2]
p52
sg34
I849
sa(dp53
g32
VKilling Vector
p54
sg34
I849
sa(dp55
g32
VKilling Vector [2]
p56
sg34
I849
sa(dp57
g32
VKilling Vector [3]
p58
sg34
I849
sa(dp59
g32
VThe Faded Sun: Kesrith (Part 2 of 4)
p60
sg34
I842
sa(dp61
g32
VThe Faded Sun: Kesrith (Part 2 of 4) [2]
p62
sg34
I842
sa(dp63
g32
VThe Faded Sun: Kesrith (Part 2 of 4) [3]
p64
sg34
I842
sa(dp65
g32
VThe Faded Sun: Kesrith (Part 2 of 4) [4]
p66
sg34
I842
sa(dp67
g32
VThe Faded Sun: Kesrith (Part 2 of 4) [5]
p68
sg34
I842
sa(dp69
g32
VForecast (Galaxy, March 1978)
p70
sg34
I326
sa(dp71
g32
VThe Moral Equivalent of War
p72
sg34
I734
sa(dp73
g32
VGalaxy Bookshelf (Galaxy, March 1978)
p74
sg34
I843
sa(dp75
g32
VThe Alien Viewpoint (Galaxy, March 1978)
p76
sg34
I767
sa(dp77
g32
VWho's Minding the Store?
p78
sg34
I844
sa(dp79
g32
VDirections (Galaxy, March 1978)
p80
sg34
I844
sa(dp81
g32
VThe Exchange
p82
sg34
I861
sa(dp83
g32
VThe Faded Sun: Kesrith (Part 2 of 4)
p84
sg34
I857
sa(dp85
g32
VMoonless Night
p86
sg34
I862
sa(dp87
g32
VBugs
p88
sg34
I843
sa(dp89
g32
VThe Norns' Loom
p90
sg34
I714
sa(dp91
g32
VKilling Vector
p92
sg34
I817
sasb.