ccopy_reg
_reconstructor
p0
(cdataset.Book
Book
p1
c__builtin__
object
p2
Ntp3
Rp4
(dp5
S'content_name'
p6
V19102.txt.utf-8
p7
sS'isbn'
p8
NsS'year'
p9
I1951
sS'author_name'
p10
VH. Beam Piper
p11
sS'images_urls'
p12
(lp13
Vhttp://www.gutenberg.org/files/19102/19102-h/images/fig.jpg
p14
asS'language_code'
p15
Veng
p16
sS'images'
p17
(lp18
sS'id'
p19
I319
sS'category'
p20
VText
p21
sS'genres'
p22
(lp23
sS'copyright'
p24
VPublic domain in the USA.
p25
sS'title'
p26
VDearest
p27
sS'wikipedia'
p28
(dp29
S'found'
p30
I00
ssS'average_rating'
p31
F4.13
sS'rating_count'
p32
I34
sS'content_available'
p33
I01
sS'goodreads'
p34
(dp35
S'url'
p36
S'https://www.goodreads.com/book/show/6474912-dearest'
p37
sS'found'
p38
I01
ssS'similar_books'
p39
(lp40
sS'description'
p41
V<b>I'm convinced that I'm in direct-voice communication with the spirit of a young girl who was killed by Indians in this section about a hundred and seventy-five years ago.</b><br />First published in Weird Tales Vol. 43, No. 3<br /><u>Free download from Gutenburg.org</u>
p42
sS'gutenberg'
p43
(dp44
S'url'
p45
Vhttp://www.gutenberg.org/ebooks/19102
p46
sS'num'
p47
I19102
ssS'authors'
p48
(lp49
I19
asS'isbn13'
p50
NsS'language'
p51
VEnglish
p52
sS'countries'
p53
(lp54
I2
asS'release_date'
p55
S'2006-08-22T00:00:00'
p56
sS'author'
p57
I19
sS'content_cleaned'
p58
I01
sS'classes'
p59
(lp60
Vto-read
p61
aVscience-fiction
p62
aVsci-fi
p63
aVshort-stories
p64
aVh-beam-piper
p65
aVfantasy
p66
aVshort-story
p67
aVkindle
p68
aVfiction
p69
aVcurrently-reading
p70
aVaudiobooks
p71
aVlibrivox-free-editions
p72
aV15
p73
aVthe-real-stuff
p74
aVon-disk
p75
aVsf-challenge
p76
aVsf
p77
aVnook
p78
aVacquired
p79
aVe-books
p80
aVclassic-lit
p81
aVcollected-classics
p82
aVbooks-on-kindle
p83
aVtype-short-story
p84
asS'loc_class'
p85
VPS: Language and Literatures: American and Canadian literature
p86
sS'n_authors'
p87
I1
sb.