ccopy_reg
_reconstructor
p0
(cdataset.Book
Book
p1
c__builtin__
object
p2
Ntp3
Rp4
(dp5
S'similar_books'
p6
(lp7
sS'genres'
p8
(lp9
sS'author'
p10
I302
sS'countries'
p11
(lp12
I2
asS'year'
p13
I1971
sS'title'
p14
VGalaxy Magazine January 1971
p15
sS'cover'
p16
Vhttps://ia600209.us.archive.org/BookReader/BookReaderImages.php?zip=/9/items/Galaxy_v31n02_1971-01/Galaxy_v31n02_1971-01_jp2.zip&file=Galaxy_v31n02_1971-01_jp2/Galaxy_v31n02_1971-01_0000.jp2&scale=0&rotate=0
p17
sS'cover_art'
p18
S'http://www.isfdb.org/wiki/images/0/0f/GALJAN71.jpg'
p19
sS'author_name'
p20
VGalaxy Magazine
p21
sS'images_urls'
p22
(lp23
sS'authors'
p24
(lp25
I326
aI499
aI667
aI91
aI597
aI623
aI675
aI630
aI47
aI663
aI651
aI689
aI690
aI505
aI302
asS'images'
p26
(lp27
sS'id'
p28
I1147
sS'contents'
p29
(lp30
(dp31
g10
I326
sg14
VToo Many People
p32
sa(dp33
g10
I326
sg14
VSnow Princess
p34
sa(dp35
g10
I326
sg14
VIntersect Green
p36
sa(dp37
g10
I326
sg14
VThe Teacher
p38
sa(dp39
g10
I499
sg14
VWhat You Know
p40
sa(dp41
g10
I326
sg14
VSchnoppsday
p42
sa(dp43
g10
I326
sg14
VLot 22a
p44
sa(dp45
g10
I326
sg14
VWhen You Hear the Tone
p46
sa(dp47
g10
I499
sg14
VExiled From Earth (Part 1 of 2)
p48
sa(dp49
g10
I667
sg14
VWealth
p50
sa(dp51
g10
I326
sg14
VGalaxy's Stars (Galaxy, January 1971)
p52
sa(dp53
g10
I91
sg14
VGalaxy Bookshelf (Galaxy, January 1971)
p54
sa(dp55
g10
I326
sg14
VStatement of Ownership (Galaxy, January 1971) (Circulation: 46,091)
p56
sa(dp57
g10
I597
sg14
VWho's Who On the Moon
p58
sa(dp59
g10
I623
sg14
VToo Many People
p60
sa(dp61
g10
I675
sg14
VSnow Princess
p62
sa(dp63
g10
I630
sg14
VWhat You Know
p64
sa(dp65
g10
I47
sg14
VExiled From Earth (Part 1 of 2)
p66
sa(dp67
g10
I663
sg14
VIntersect Green
p68
sa(dp69
g10
I651
sg14
VThe Teacher
p70
sa(dp71
g10
I689
sg14
VSchnoppsday
p72
sa(dp73
g10
I690
sg14
VLot 22a
p74
sa(dp75
g10
I505
sg14
VWhen You Hear the Tone
p76
sasb.