ccopy_reg
_reconstructor
p0
(cdataset.Book
Book
p1
c__builtin__
object
p2
Ntp3
Rp4
(dp5
S'similar_books'
p6
(lp7
sS'genres'
p8
(lp9
sS'author'
p10
I302
sS'countries'
p11
(lp12
I2
asS'year'
p13
I1954
sS'title'
p14
VGalaxy Magazine July 1954
p15
sS'cover'
p16
Vhttps://ia600209.us.archive.org/BookReader/BookReaderImages.php?zip=/10/items/Galaxy_v08n04_1954-07/Galaxy_v08n04_1954-07_jp2.zip&file=Galaxy_v08n04_1954-07_jp2/Galaxy_v08n04_1954-07_0000.jp2&scale=0&rotate=0
p17
sS'cover_art'
p18
S'http://www.isfdb.org/wiki/images/7/75/MLO4334.jpg'
p19
sS'author_name'
p20
VGalaxy Magazine
p21
sS'images_urls'
p22
(lp23
sS'authors'
p24
(lp25
I451
aI419
aI452
aI431
aI363
aI305
aI339
aI340
aI326
aI23
aI56
aI40
aI446
aI453
aI421
aI302
asS'images'
p26
(lp27
sS'id'
p28
I1018
sS'contents'
p29
(lp30
(dp31
g10
I451
sg14
VA Thief in Time
p32
sa(dp33
g10
I451
sg14
VA Thief in Time [2]
p34
sa(dp35
g10
I451
sg14
VA Thief in Time [3]
p36
sa(dp37
g10
I419
sg14
VThis Side Up
p38
sa(dp39
g10
I419
sg14
VThis Side Up [2]
p40
sa(dp41
g10
I452
sg14
VGreen Thumb
p42
sa(dp43
g10
I419
sg14
VWhat Rough Beast?
p44
sa(dp45
g10
I419
sg14
VWhat Rough Beast? [2]
p46
sa(dp47
g10
I431
sg14
VFelony
p48
sa(dp49
g10
I363
sg14
VGladiator at Law (Part 2 of 3)
p50
sa(dp51
g10
I363
sg14
VGladiator at Law (Part 2 of 3) [2]
p52
sa(dp53
g10
I363
sg14
VGladiator at Law (Part 2 of 3) [3]
p54
sa(dp55
g10
I363
sg14
VGladiator at Law (Part 2 of 3) [4]
p56
sa(dp57
g10
I363
sg14
VGladiator at Law (Part 2 of 3) [5]
p58
sa(dp59
g10
I305
sg14
VCareer Offered
p60
sa(dp61
g10
I339
sg14
VFor Your Information: Closeup of Mars
p62
sa(dp63
g10
I340
sg14
VGalaxy's 5 Star Shelf (Galaxy, July 1954)
p64
sa(dp65
g10
I326
sg14
VForecast (Galaxy, July 1954)
p66
sa(dp67
g10
I23
sg14
VA Thief in Time
p68
sa(dp69
g10
I56
sg14
VGreen Thumb
p70
sa(dp71
g10
I40
sg14
VGladiator at Law (Part 2 of 3)
p72
sa(dp73
g10
I446
sg14
VThis Side Up
p74
sa(dp75
g10
I453
sg14
VWhat Rough Beast?
p76
sa(dp77
g10
I421
sg14
VFelony
p78
sasb.