ccopy_reg
_reconstructor
p0
(cdataset.Book
Book
p1
c__builtin__
object
p2
Ntp3
Rp4
(dp5
S'similar_books'
p6
(lp7
sS'genres'
p8
(lp9
sS'author'
p10
I302
sS'countries'
p11
(lp12
I2
asS'year'
p13
I1952
sS'title'
p14
VGalaxy Magazine September 1952
p15
sS'cover'
p16
Vhttps://ia600206.us.archive.org/BookReader/BookReaderImages.php?zip=/34/items/Galaxy_v04n06_1952-09/Galaxy_v04n06_1952-09_jp2.zip&file=Galaxy_v04n06_1952-09_jp2/Galaxy_v04n06_1952-09_0000.jp2&scale=0&rotate=0
p17
sS'cover_art'
p18
S'http://www.isfdb.org/wiki/images/4/4f/GALSEP1952.jpg'
p19
sS'author_name'
p20
VGalaxy Magazine
p21
sS'images_urls'
p22
(lp23
sS'authors'
p24
(lp25
I342
aI363
aI402
aI352
aI305
aI326
aI404
aI340
aI393
aI136
aI36
aI400
aI237
aI172
aI315
aI302
asS'images'
p26
(lp27
sS'id'
p28
I996
sS'contents'
p29
(lp30
(dp31
g10
I342
sg14
VDelay in Transit
p32
sa(dp33
g10
I342
sg14
VDelay in Transit [2]
p34
sa(dp35
g10
I342
sg14
VDelay in Transit [3]
p36
sa(dp37
g10
I342
sg14
VDelay in Transit [4]
p38
sa(dp39
g10
I363
sg14
VThe Snowball Effect
p40
sa(dp41
g10
I363
sg14
VToday Is Forever
p42
sa(dp43
g10
I363
sg14
VThe Moons of Mars
p44
sa(dp45
g10
I363
sg14
VThe Moons of Mars [2]
p46
sa(dp47
g10
I402
sg14
VTea Tray in the Sky
p48
sa(dp49
g10
I402
sg14
VTea Tray in the Sky [2]
p50
sa(dp51
g10
I402
sg14
VTea Tray in the Sky [3]
p52
sa(dp53
g10
I402
sg14
VTea Tray in the Sky [4]
p54
sa(dp55
g10
I352
sg14
VThe Mousetrap
p56
sa(dp57
g10
I402
sg14
VThe Altruist
p58
sa(dp59
g10
I402
sg14
VThe Altruist [2]
p60
sa(dp61
g10
I402
sg14
VThe Altruist [3]
p62
sa(dp63
g10
I402
sg14
VThe Altruist [4]
p64
sa(dp65
g10
I305
sg14
VOn Heroes
p66
sa(dp67
g10
I326
sg14
VForecast (Galaxy, September 1952)
p68
sa(dp69
g10
I404
sg14
VFor Your Information: Space Travel
p70
sa(dp71
g10
I340
sg14
VGalaxy's Five Star Shelf (Galaxy, September 1952)
p72
sa(dp73
g10
I393
sg14
VDelay in Transit
p74
sa(dp75
g10
I136
sg14
VThe Altruist
p76
sa(dp77
g10
I36
sg14
VThe Snowball Effect
p78
sa(dp79
g10
I400
sg14
VToday Is Forever
p80
sa(dp81
g10
I237
sg14
VThe Moons of Mars
p82
sa(dp83
g10
I172
sg14
VTea Tray in the Sky
p84
sa(dp85
g10
I315
sg14
VThe Mousetrap
p86
sasb.