ccopy_reg
_reconstructor
p0
(cdataset.Book
Book
p1
c__builtin__
object
p2
Ntp3
Rp4
(dp5
S'content_name'
p6
V29542.txt.utf-8
p7
sS'isbn'
p8
NsS'year'
p9
I2010
sS'author_name'
p10
VPoul Anderson
p11
sS'images_urls'
p12
(lp13
sS'language_code'
p14
NsS'images'
p15
(lp16
sS'id'
p17
I183
sS'category'
p18
VText
p19
sS'genres'
p20
(lp21
sS'copyright'
p22
VPublic domain in the USA.
p23
sS'title'
p24
VThe Valor of Cappen Varra
p25
sS'wikipedia'
p26
(dp27
S'found'
p28
I00
ssS'average_rating'
p29
F3.52
sS'rating_count'
p30
I40
sS'content_available'
p31
I01
sS'goodreads'
p32
(dp33
S'url'
p34
Vhttps://www.goodreads.com/book/show/19273502-the-valor-of-cappen-varra
p35
sg28
I01
sS'year'
p36
I2010
ssS'similar_books'
p37
(lp38
sS'description'
p39
NsS'format'
p40
NsS'gutenberg'
p41
(dp42
g34
Vhttp://www.gutenberg.org/ebooks/29542
p43
sS'num'
p44
I29542
ssS'authors'
p45
(lp46
I30
asS'isbn13'
p47
NsS'language'
p48
VEnglish
p49
sS'countries'
p50
(lp51
I2
asS'release_date'
p52
S'2009-07-29T00:00:00'
p53
sS'author'
p54
I30
sS'content_cleaned'
p55
I01
sS'classes'
p56
(lp57
Vto-read
p58
aVfantasy
p59
aVshort-stories
p60
aVsci-fi
p61
aVscience-fiction
p62
aVebooks
p63
aVscience
p64
aVfiction
p65
aVenglish
p66
aVclassics
p67
aVnext-up
p68
aVhave
p69
aVroundtuit
p70
aVunread
p71
aVshort-story-or-novella
p72
aVparanormal-fantasy
p73
aV2016-read-challenge
p74
aVtbr-owned
p75
aVcurrently-reading
p76
aVebook
p77
aVno-time-soon
p78
aVsf-fan
p79
aVundecided
p80
aVphysical
p81
aVfantasy-and-sci-fi
p82
aVelectronic-book-editions
p83
aValiens
p84
aVshort
p85
aVsci-fi-fantasy
p86
aVbacklog
p87
aVsf
p88
aVtype-short-story
p89
aVaudio-obtained-ss
p90
aVhigh-priority-tbr
p91
aVround-tuit
p92
aVbacklogue
p93
aVaudio-books
p94
asS'loc_class'
p95
VPS: Language and Literatures: American and Canadian literature
p96
sS'n_authors'
p97
I1
sb.