ccopy_reg
_reconstructor
p0
(cdataset.Book
Book
p1
c__builtin__
object
p2
Ntp3
Rp4
(dp5
S'similar_books'
p6
(lp7
sS'genres'
p8
(lp9
sS'author'
p10
I302
sS'countries'
p11
(lp12
I2
asS'year'
p13
I1956
sS'title'
p14
VGalaxy Magazine September 1956
p15
sS'cover'
p16
Vhttps://ia601309.us.archive.org/BookReader/BookReaderImages.php?zip=/6/items/Galaxy_v12n05_1956-09/Galaxy_v12n05_1956-09_jp2.zip&file=Galaxy_v12n05_1956-09_jp2/Galaxy_v12n05_1956-09_0000.jp2&scale=0&rotate=0
p17
sS'cover_art'
p18
S'http://www.isfdb.org/wiki/images/b/b8/MLO4429.jpg'
p19
sS'author_name'
p20
VGalaxy Magazine
p21
sS'images_urls'
p22
(lp23
sS'authors'
p24
(lp25
I499
aI494
aI419
aI486
aI500
aI339
aI483
aI501
aI326
aI443
aI341
aI475
aI23
aI220
aI396
aI302
asS'images'
p26
(lp27
sS'id'
p28
I1043
sS'contents'
p29
(lp30
(dp31
g10
I499
sg14
VThe Other Man
p32
sa(dp33
g10
I499
sg14
VThe Other Man [2]
p34
sa(dp35
g10
I499
sg14
VThe Other Man [3]
p36
sa(dp37
g10
I494
sg14
VNothing but the Best
p38
sa(dp39
g10
I419
sg14
VVerbal Agreement
p40
sa(dp41
g10
I419
sg14
VVerbal Agreement [2]
p42
sa(dp43
g10
I419
sg14
VVerbal Agreement [3]
p44
sa(dp45
g10
I486
sg14
VHuman Man's Burden
p46
sa(dp47
g10
I494
sg14
VSeeing-Eye Dog
p48
sa(dp49
g10
I500
sg14
VChain Reaction
p50
sa(dp51
g10
I500
sg14
VChain Reaction [2]
p52
sa(dp53
g10
I500
sg14
VChain Reaction [3]
p54
sa(dp55
g10
I339
sg14
VFor Your Information: Project Vanguard
p56
sa(dp57
g10
I483
sg14
VGalaxy's 5 Star Shelf (Galaxy, September 1956)
p58
sa(dp59
g10
I501
sg14
VReview of the Nonfiction Work "Mysteries of the North Pole"
p60
sa(dp61
g10
I326
sg14
VForecast (Galaxy, September 1956)
p62
sa(dp63
g10
I443
sg14
VVerbal Agreement
p64
sa(dp65
g10
I341
sg14
VThe Other Man
p66
sa(dp67
g10
I475
sg14
VNothing but the Best
p68
sa(dp69
g10
I23
sg14
VHuman Man's Burden
p70
sa(dp71
g10
I220
sg14
VSeeing-Eye Dog
p72
sa(dp73
g10
I396
sg14
VChain Reaction
p74
sasb.