ccopy_reg
_reconstructor
p0
(cdataset.Book
Book
p1
c__builtin__
object
p2
Ntp3
Rp4
(dp5
S'content_name'
p6
V22958.txt.utf-8
p7
sS'isbn'
p8
NsS'year'
p9
I1955
sS'author_name'
p10
VJames Blish
p11
sS'images_urls'
p12
(lp13
Vhttp://www.gutenberg.org/files/22958/22958-h/images/001.png
p14
aVhttp://www.gutenberg.org/files/22958/22958-h/images/002.png
p15
aVhttp://www.gutenberg.org/files/22958/22958-h/images/003.png
p16
aVhttp://www.gutenberg.org/files/22958/22958-page-images/p127-image.png
p17
aVhttp://www.gutenberg.org/files/22958/22958-page-images/p127.png
p18
aVhttp://www.gutenberg.org/files/22958/22958-page-images/p128.png
p19
aVhttp://www.gutenberg.org/files/22958/22958-page-images/p129.png
p20
aVhttp://www.gutenberg.org/files/22958/22958-page-images/p130.png
p21
aVhttp://www.gutenberg.org/files/22958/22958-page-images/p131.png
p22
aVhttp://www.gutenberg.org/files/22958/22958-page-images/p132.png
p23
aVhttp://www.gutenberg.org/files/22958/22958-page-images/p133-image.png
p24
aVhttp://www.gutenberg.org/files/22958/22958-page-images/p133.png
p25
aVhttp://www.gutenberg.org/files/22958/22958-page-images/p134.png
p26
aVhttp://www.gutenberg.org/files/22958/22958-page-images/p135.png
p27
aVhttp://www.gutenberg.org/files/22958/22958-page-images/p136.png
p28
aVhttp://www.gutenberg.org/files/22958/22958-page-images/p137.png
p29
asS'language_code'
p30
NsS'id'
p31
I198
sS'category'
p32
VText
p33
sS'genres'
p34
(lp35
sS'copyright'
p36
VPublic domain in the USA.
p37
sS'title'
p38
VOne-Shot
p39
sS'wikipedia'
p40
(dp41
S'found'
p42
I00
ssS'average_rating'
p43
F4.2
sS'rating_count'
p44
I48
sS'content_available'
p45
I01
sS'goodreads'
p46
(dp47
S'url'
p48
S'https://www.goodreads.com/book/show/6567676-one-shot'
p49
sS'found'
p50
I01
ssS'similar_books'
p51
(lp52
sS'description'
p53
NsS'gutenberg'
p54
(dp55
S'url'
p56
Vhttp://www.gutenberg.org/ebooks/22958
p57
sS'num'
p58
I22958
ssS'authors'
p59
(lp60
I55
asS'isbn13'
p61
NsS'language'
p62
VEnglish
p63
sS'countries'
p64
(lp65
I2
asS'release_date'
p66
S'2007-10-11T00:00:00'
p67
sS'author'
p68
I55
sS'content_cleaned'
p69
I01
sS'classes'
p70
(lp71
Vto-read
p72
aVscience-fiction
p73
aVshort-stories
p74
aVsci-fi
p75
aVfiction
p76
aVebook
p77
aVshort-story
p78
aVaudiobooks-read
p79
aV3-stars
p80
aV20th-century-lit
p81
aVfree-from-amazon
p82
aVaudio
p83
aVaudiobooks
p84
aVscience
p85
aVz_fiction
p86
aVx_shortstory
p87
aVwo_scifi
p88
aVw_us_modern
p89
aVlibrivox-free-editions
p90
aVreviewed
p91
aVto-read-kindle
p92
aVaudio-obtained
p93
aVfinished-science-fiction
p94
aVeua
p95
aVshelfari
p96
aVreimport
p97
aVlibrivox-short-scifi
p98
aVscifi
p99
aVsi-fi-fantasy
p100
aVaudiobook
p101
aVkindle
p102
aVshort
p103
aVebooks
p104
aVaudio-obtained-ss
p105
aVreorganize2
p106
aVreorganize
p107
aVsci-fi-fantasy
p108
aVaudio-books
p109
aVaaaaaaaa
p110
asS'loc_class'
p111
VPS: Language and Literatures: American and Canadian literature
p112
sS'n_authors'
p113
I1
sb.