ccopy_reg
_reconstructor
p0
(cdataset.Book
Book
p1
c__builtin__
object
p2
Ntp3
Rp4
(dp5
S'content_name'
p6
V24558.txt.utf-8
p7
sS'isbn'
p8
V1484708334
p9
sS'year'
p10
I1962
sS'author_name'
p11
VJames H. Schmitz
p12
sS'images_urls'
p13
(lp14
Vhttp://www.gutenberg.org/files/24558/24558-h/images/001.png
p15
aVhttp://www.gutenberg.org/files/24558/24558-h/images/002.png
p16
aVhttp://www.gutenberg.org/files/24558/24558-h/images/003.png
p17
asS'language_code'
p18
NsS'images'
p19
(lp20
sS'id'
p21
I860
sS'category'
p22
VText
p23
sS'plot'
p24
VThe evil alien Daniel has to defeat in this novel \u2013 No. 5 on the List of Alien Outlaws on Earth \u2013 is torturing and killing humans to create an entertaining reality television show for his home planet.
p25
sS'genres'
p26
(lp27
sS'copyright'
p28
VPublic domain in the USA.
p29
sS'title'
p30
VWatch the Sky
p31
sS'wikipedia'
p32
(dp33
S'url'
p34
Vhttps://en.wikipedia.org/wiki/Daniel_X:_Watch_the_Skies
p35
sS'found'
p36
I01
sS'year'
p37
I-1
ssS'published_in'
p38
NsS'average_rating'
p39
F3.46
sS'rating_count'
p40
I403
sS'content_available'
p41
I01
sS'goodreads'
p42
(dp43
g34
Vhttps://www.goodreads.com/book/show/22875507-watch-the-sky
p44
sg36
I01
sg37
I2015
ssS'similar_books'
p45
(lp46
VV for Violet
p47
aVWaiting For Gonzo
p48
aVThe Accidental Afterlife of Thomas Marsden
p49
aVDan vs. Nature
p50
aVMy Life with the Liars
p51
aVOne True Thing
p52
aVI Heart Band (I Heart Band #1)
p53
aVInbetween Days
p54
aVWords in Deep Blue
p55
aVAnybody Shining
p56
aVThe Guy, the Girl, the Artist and His Ex
p57
aVIn the Skin of a Monster
p58
aVBreathing Under Water
p59
aVThe Fall
p60
aVDating Down
p61
aVThe Tanglewood Terror
p62
aVSurvival Strategies of the Almost Brave
p63
aVThe Bone Sparrow
p64
asS'description'
p65
VThe signs are everywhere, Jory's stepfather, Caleb, says. Red leaves in the springtime. Pages torn from a library book. All the fish in the aquarium facing the same way. A cracked egg with twin yolks. Everywhere and anywhere. And because of them Jory's life is far from ordinary. He must follow a very specific set of rules: don't trust anyone outside the family, have your works at the ready just in case, and always, <i>always</i> watch out for the signs. The end is coming, and they must be prepared.<br /><br />School is Jory's only escape from Caleb's tight grasp, and with the help of new friends Jory begins to explore a world beyond his family's farm. As Jory's friendships grow, Caleb notifies Jory's mother and siblings that the time has come for final preparations.<br /><br />They begin an exhausting schedule digging a mysterious tunnel in anticipation of the disaster. But as the hold gets deeper, so does the family's doubt about whether Caleb's prophecy is true. When the stark reality of his stepfather's plans becomes clear, Jory must choose between living his own life or following Caleb, shutting his eyes to the bright world he's just begun to see.
p66
sS'format'
p67
VHardcover
p68
sS'gutenberg'
p69
(dp70
g34
Vhttp://www.gutenberg.org/ebooks/24558
p71
sS'num'
p72
I24558
ssS'authors'
p73
(lp74
I136
asS'pages'
p75
I272
sS'isbn13'
p76
V9781484708330
p77
sS'language'
p78
VEnglish
p79
sS'countries'
p80
(lp81
I2
asS'release_date'
p82
S'2008-02-09T00:00:00'
p83
sS'author'
p84
I136
sS'original_title'
p85
VDaniel X: Watch the Skies
p86
sS'summary'
p87
VDaniel X: Watch the Skies is a teen science fiction novel written by James Patterson and Ned Rust. It is the second novel in the Daniel X series and was released on July 27, 2009.
p88
sS'content_cleaned'
p89
I01
sS'classes'
p90
(lp91
Vto-read
p92
aVmiddle-grade
p93
aVyoung-adult
p94
aVcurrently-reading
p95
aVrealistic-fiction
p96
aVya
p97
aVfamily
p98
aVfiction
p99
aVto-buy
p100
aVmystery
p101
aVfavorites
p102
aVwish-list
p103
aVlibrary
p104
aVchildren-s
p105
aVbooks-i-own
p106
aVbullying
p107
aVmiddle-grades
p108
aVarc
p109
aVcontemporary
p110
aVread-in-2015
p111
aVtween
p112
aVmental-illness
p113
aVfriendship
p114
aVchildren
p115
aV2015-books
p116
aVowned
p117
aVmiddle-school
p118
aVcontemporary-fiction
p119
aVnetgalley
p120
aVschool
p121
aVkids
p122
aVcontemp
p123
aVchildrens
p124
aVdisney-hyperion
p125
aVlibrary-list
p126
aVnovel
p127
aVdisney
p128
aVchapter-books
p129
aVjunior-fiction
p130
aVsecrets
p131
aV2015-2016
p132
aVgeneral-fiction
p133
aVstand-alone
p134
aVreviewed
p135
aVlooks-interesting
p136
aVinterested
p137
aVgiveaways
p138
aVgiveaway-books
p139
aVfantasy
p140
aVebooks
p141
aVbooks-read-in-2015
p142
aVbeautiful-cover
p143
aVbea-2015
p144
aVamazing-covers
p145
aVowened-tbr
p146
aVnutmeg-2019
p147
aVconsidering
p148
aVget-from-library
p149
aVwould-not-recommend
p150
aVparker-favs
p151
aV2018-6th-grade
p152
aVi-need-these
p153
aVchapter-book-reviews
p154
aVgirls-to-read
p155
aVsummer-2017
p156
aVcin
p157
aVtbr-maybe
p158
aVdigitally-honed
p159
aV2015-comic-con
p160
aVprk-5-books
p161
aVteen-issues
p162
aVfamilies
p163
aVcontemporary-issues
p164
aVbooks-not-in-a-series
p165
aVnew-2015
p166
aVall-owned
p167
aVmine
p168
aVfantasy-sci-fi
p169
aVcourier
p170
aVto-read-ya-contemporary
p171
aVon-library-lists
p172
aVtbr-children
p173
aVyouth
p174
aV2016-2017-school-year
p175
aVkid-lit
p176
aVfamily-room
p177
aVneed-to-obtain
p178
aVnttbf
p179
aVbooks-at-home
p180
aVx
p181
aVshane-h
p182
aV2017-books
p183
aVto-read-fiction
p184
aV2017-list
p185
aV50-book-challenge
p186
aV2016-hween-starts
p187
aV2016-halloween
p188
aV2015-scream-month-distilled
p189
aV2015-h-week
p190
aV2
p191
asS'loc_class'
p192
VPS: Language and Literatures: American and Canadian literature
p193
sS'n_authors'
p194
I1
sb.