ccopy_reg
_reconstructor
p0
(cdataset.Book
Book
p1
c__builtin__
object
p2
Ntp3
Rp4
(dp5
S'content_name'
p6
V32077.txt.utf-8
p7
sS'isbn'
p8
V1463898312
p9
sS'year'
p10
I2010
sS'author_name'
p11
VWinston K. Marks
p12
sS'images_urls'
p13
(lp14
Vhttp://www.gutenberg.org/files/32077/32077-h/images/back_cover.jpg
p15
aVhttp://www.gutenberg.org/files/32077/32077-h/images/cover.jpg
p16
aVhttp://www.gutenberg.org/files/32077/32077-h/images/image_001.jpg
p17
aVhttp://www.gutenberg.org/files/32077/32077-h/images/image_i.jpg
p18
aVhttp://www.gutenberg.org/files/32077/32077-h/images/image_j.jpg
p19
aVhttp://www.gutenberg.org/files/32077/32077-h/images/image_m.jpg
p20
aVhttp://www.gutenberg.org/files/32077/32077-h/images/image_t.jpg
p21
aVhttp://www.gutenberg.org/files/32077/32077-h/images/image_w.jpg
p22
asS'language_code'
p23
NsS'images'
p24
(lp25
sS'id'
p26
I867
sS'category'
p27
VText
p28
sS'genres'
p29
(lp30
sS'copyright'
p31
VPublic domain in the USA.
p32
sS'title'
p33
VBreeder Reaction
p34
sS'wikipedia'
p35
(dp36
S'found'
p37
I00
ssS'average_rating'
p38
F3.25
sS'rating_count'
p39
I10
sS'content_available'
p40
I01
sS'cover_art_url'
p41
S'http://www.gutenberg.org/cache/epub/32077/pg32077.cover.medium.jpg'
p42
sS'goodreads'
p43
(dp44
S'url'
p45
Vhttps://www.goodreads.com/book/show/14403093-breeder-reaction
p46
sg37
I01
sS'year'
p47
I2010
ssS'similar_books'
p48
(lp49
sS'description'
p50
VThe advertising game is not as cut and dried as many people think. Sometimes you spend a million dollars and get no results, and then some little low-budget campaign will catch the public's fancy and walk away with merchandising honors of the year.<br /><br />Let me sound a warning, however. When this happens, watch out! There's always a reason for it, and it isn't always just a matter of bright slogans and semantic genius. Sometimes the product itself does the trick. And when this happens people in the industry lose their heads trying to capitalize on the "freak" good fortune.<br /><br />This can lead to disaster. May I cite one example?<br /><br />I was on loan to Elaine Templeton, Inc., the big cosmetics firm, when one of these "prairie fires" took off and, as product engineer from the firm of Bailey Hazlitt &amp; Persons, Advertising Agency, I figured I had struck pure gold. My assay was wrong. It was fool's gold on a pool of quicksand.
p51
sS'format'
p52
VHardcover
p53
sS'gutenberg'
p54
(dp55
g45
Vhttp://www.gutenberg.org/ebooks/32077
p56
sS'num'
p57
I32077
ssS'authors'
p58
(lp59
I228
asS'pages'
p60
I24
sS'isbn13'
p61
V9781463898311
p62
sS'language'
p63
VEnglish
p64
sS'country'
p65
I2
sS'release_date'
p66
S'2010-04-21T00:00:00'
p67
sS'author'
p68
I228
sS'content_cleaned'
p69
I01
sS'classes'
p70
(lp71
Vto-read
p72
aVcurrently-reading
p73
aVlibrary
p74
aVhd
p75
aVe-books
p76
aVscience-fiction
p77
aVowned-pending-kindle-free-ebook
p78
aVcalibre
p79
aVarchive
p80
aVbooks-i-own
p81
aVa-fantasy-and-sci-fi
p82
aVmainstream-lit
p83
asS'loc_class'
p84
VPS: Language and Literatures: American and Canadian literature
p85
sS'n_authors'
p86
I1
sb.