ccopy_reg
_reconstructor
p0
(cdataset.Book
Book
p1
c__builtin__
object
p2
Ntp3
Rp4
(dp5
S'content_name'
p6
V29204.txt.utf-8
p7
sS'isbn'
p8
NsS'year'
p9
I1958
sS'author_name'
p10
VHarry Harrison
p11
sS'images_urls'
p12
(lp13
Vhttp://www.gutenberg.org/files/29204/29204-h/images/001-1.jpg
p14
aVhttp://www.gutenberg.org/files/29204/29204-h/images/001-2.jpg
p15
asS'language_code'
p16
NsS'images'
p17
(lp18
sS'id'
p19
I192
sS'category'
p20
VText
p21
sS'genres'
p22
(lp23
sS'copyright'
p24
VPublic domain in the USA.
p25
sS'title'
p26
VArm of the Law
p27
sS'wikipedia'
p28
(dp29
S'found'
p30
I00
ssS'average_rating'
p31
F3.75
sS'rating_count'
p32
I119
sS'content_available'
p33
I01
sS'goodreads'
p34
(dp35
S'url'
p36
Vhttps://www.goodreads.com/book/show/10225016-arm-of-the-law
p37
sg30
I01
sS'year'
p38
I1958
ssS'similar_books'
p39
(lp40
sS'description'
p41
NsS'gutenberg'
p42
(dp43
g36
Vhttp://www.gutenberg.org/ebooks/29204
p44
sS'num'
p45
I29204
ssS'authors'
p46
(lp47
I16
asS'pages'
p48
I26
sS'isbn13'
p49
V2940012541628
p50
sS'language'
p51
VEnglish
p52
sS'countries'
p53
(lp54
I2
asS'release_date'
p55
S'2009-06-22T00:00:00'
p56
sS'author'
p57
I16
sS'cover'
p58
Vhttps://s.gr-assets.com/assets/nophoto/book/111x148-bcc042a9c91a29c1d680899eff700a03.png
p59
sS'content_cleaned'
p60
I01
sS'classes'
p61
(lp62
Vto-read
p63
aVscience-fiction
p64
aVsci-fi
p65
aVfiction
p66
aVshort-stories
p67
aVaudiobook
p68
aVcurrently-reading
p69
aVebook
p70
aVshort-story
p71
aVkindle
p72
aVread-sci-fi
p73
aVstored-ebooks
p74
aVsirchutney
p75
aVreviewed
p76
aVmegapack
p77
aVhumour
p78
aV2017-challenge
p79
aVscience-fiction-shelf
p80
aVwplc-holdings
p81
aVenglish
p82
aVsci-fi-fantasy
p83
aV20th-century-lit
p84
aVsf
p85
aV4-stories
p86
aV7-audiobook
p87
aVnot-owned
p88
aVshelf-h-authors
p89
aVa-pending-placement
p90
aVnarration
p91
aVvintage-sci-fi
p92
aVaudiobooks
p93
aVowned-pending-kindle-free-ebook
p94
aVhow-kindle
p95
aVrobots
p96
aVcalibre
p97
aVearly-mid-1900s
p98
aVbooks-i-reviewed
p99
aVspeculative-fiction
p100
aVlibrivox-org
p101
aVaudio-books-read
p102
aVaudio-obtained
p103
aVaudio-books
p104
aVscifi
p105
aVamazon
p106
aVfeedbooks-com
p107
aVeb-other
p108
aVeb
p109
aVmy-ebooks
p110
aVnot-read
p111
aVread-in-2013
p112
aVgenre-short-stories
p113
aVgenre-science-fiction
p114
aV_publicdomain
p115
aVsciencefiction
p116
aV__ebook
p117
aVe-reader
p118
aVowned
p119
aVold-scifi
p120
aVaudio-book
p121
aVharry-harrison
p122
aVread-or-re-read-2010-2011
p123
aVtype-short-story
p124
aVaudio-obtained-ss
p125
aV3-novals
p126
aVunread
p127
aV__ebk
p128
aVaudio-books-to-read
p129
asS'loc_class'
p130
VPS: Language and Literatures: American and Canadian literature
p131
sS'n_authors'
p132
I1
sb.