ccopy_reg
_reconstructor
p0
(cdataset.Book
Book
p1
c__builtin__
object
p2
Ntp3
Rp4
(dp5
S'content_name'
p6
V51571.txt.utf-8
p7
sS'isbn'
p8
NsS'year'
p9
I1960
sS'author_name'
p10
VRon Goulart
p11
sS'images_urls'
p12
(lp13
Vhttp://www.gutenberg.org/files/51571/51571-h/images/cover.jpg
p14
aVhttp://www.gutenberg.org/files/51571/51571-h/images/illus1.jpg
p15
aVhttp://www.gutenberg.org/files/51571/51571-h/images/illus2.jpg
p16
asS'language_code'
p17
NsS'id'
p18
I686
sS'category'
p19
VText
p20
sS'genres'
p21
(lp22
sS'copyright'
p23
VPublic domain in the USA.
p24
sS'title'
p25
VSubject to Change
p26
sS'wikipedia'
p27
(dp28
S'found'
p29
I00
ssS'average_rating'
p30
F3.52
sS'rating_count'
p31
I1
sS'content_available'
p32
I01
sS'cover_art_url'
p33
S'http://www.gutenberg.org/cache/epub/51571/pg51571.cover.medium.jpg'
p34
sS'goodreads'
p35
(dp36
S'url'
p37
S'https://www.goodreads.com/book/show/29952824-subject-to-change'
p38
sS'found'
p39
I01
ssS'similar_books'
p40
(lp41
sS'description'
p42
NsS'gutenberg'
p43
(dp44
S'url'
p45
Vhttp://www.gutenberg.org/ebooks/51571
p46
sS'num'
p47
I51571
ssS'authors'
p48
(lp49
I225
asS'isbn13'
p50
NsS'language'
p51
VEnglish
p52
sS'countries'
p53
(lp54
I2
asS'release_date'
p55
S'2016-03-26T00:00:00'
p56
sS'author'
p57
I225
sS'cover'
p58
Vhttps://s.gr-assets.com/assets/nophoto/book/111x148-bcc042a9c91a29c1d680899eff700a03.png
p59
sS'content_cleaned'
p60
I01
sS'classes'
p61
(lp62
Vgutenberg
p63
aVscience-fiction
p64
asS'loc_class'
p65
S''
p66
sS'n_authors'
p67
I1
sb.