ccopy_reg
_reconstructor
p0
(cdataset.Book
Book
p1
c__builtin__
object
p2
Ntp3
Rp4
(dp5
S'content_name'
p6
V19478.txt.utf-8
p7
sS'isbn'
p8
V1598182285
p9
sS'year'
p10
I1961
sS'author_name'
p11
VH. Beam Piper
p12
sS'images_urls'
p13
(lp14
Vhttp://www.gutenberg.org/files/19478/19478-h/images/image_01.jpg
p15
asS'language_code'
p16
NsS'images'
p17
(lp18
sS'id'
p19
I193
sS'category'
p20
VText
p21
sS'genres'
p22
(lp23
sS'copyright'
p24
VPublic domain in the USA.
p25
sS'title'
p26
VFour-Day Planet
p27
sS'wikipedia'
p28
(dp29
S'found'
p30
I00
ssS'average_rating'
p31
F3.71
sS'rating_count'
p32
I328
sS'content_available'
p33
I01
sS'goodreads'
p34
(dp35
S'url'
p36
Vhttps://www.goodreads.com/book/show/1663342.Four_Day_Planet
p37
sg30
I01
sS'year'
p38
I1961
ssS'similar_books'
p39
(lp40
VThe Repairman
p41
aVBarsoom: The Third Omnibus (Barsoom, #6-7)
p42
aVPlague Ship (Solar Queen, #2)
p43
aVThrough the Eye of a Needle (Needle, #2)
p44
aVSubterranean Scalzi Super Bundle
p45
aVThe Devil's Game
p46
aVThe Dorsai Companion (Childe Cycle, #8)
p47
aVCity at World's End
p48
aVSector General (Sector General, #5)
p49
aVGreyhaven
p50
aVIn Paul Klee's Enchanted Garden
p51
aVSinister Barrier
p52
aVAsimov on Science Fiction
p53
asS'description'
p54
VFour-Day Planet "Four-Day Planet" . . . where the killing heat of a thousand-hour "day" drives men underground, and the glorious hundred-hour sunset is followed by a thousand-hour night so cold that only an Extreme Environment Suit can preserve the life of anyone caught outside.<br /><br />Fenris isn't a hell planet, but it's nobody's bargain. With 2,000-hour days and an 8,000-hour year, it alternates blazing heat with killing cold. A planet like that tends to breed a special kind of person: tough enough to stay alive and smart enough to make the best of it. When that kind of person discovers he's being cheated of wealth he's risked his life for, that kind of planet is ripe for revolution.
p55
sS'format'
p56
VHardcover
p57
sS'gutenberg'
p58
(dp59
g36
Vhttp://www.gutenberg.org/ebooks/19478
p60
sS'num'
p61
I19478
ssS'authors'
p62
(lp63
I19
asS'pages'
p64
I172
sS'isbn13'
p65
V9781598182286
p66
sS'language'
p67
VEnglish
p68
sS'countries'
p69
(lp70
I2
asS'release_date'
p71
S'2006-10-06T00:00:00'
p72
sS'author'
p73
I19
sS'content_cleaned'
p74
I01
sS'classes'
p75
(lp76
Vcurrently-reading
p77
aVscience-fiction
p78
aVsci-fi
p79
aVfiction
p80
aVsf
p81
aVowned
p82
aVkindle
p83
aVebook
p84
aVaudiobooks
p85
aVaudiobook
p86
aVaudible
p87
aVaudio
p88
aVshort-stories
p89
aVh-beam-piper
p90
aVscience
p91
aVto-read
p92
aVsff
p93
aVsi-fi
p94
aVsf-fantasy
p95
aVscifi-fantasy
p96
aVlistened
p97
aVe-book
p98
aVclassic
p99
aVscifi
p100
aVnovel
p101
aVav-unknown
p102
aVto-read-sometime
p103
aVscifi-sciencefantasy
p104
aV2017-book-reads-n-gnovels-started
p105
aVto-read-sf
p106
aVon-calibre-to-read
p107
aVgalaktyka-gutenberga
p108
aVgolden-age-scfi
p109
aV20th-century-lit
p110
aVfantastyka
p111
aVgrp-favorites
p112
aV2017-challenge-oldish
p113
aV4day
p114
aVi-own
p115
aVfavourite
p116
aVowned-as-ebook
p117
aVtranslated-en
p118
aVsf-f-horror
p119
aVseries
p120
aVneed-to-buy
p121
aVshelfari-fiction
p122
aVshelfari-e-book
p123
aVsf-amp-f
p124
aVclassic-science-fiction
p125
aVshelfari-classic
p126
aVaudible-immersion-whispersync
p127
aV20th-century-sff
p128
aVnovella-novelette
p129
aVfav-authors-tr
p130
aVto-read-1a-sf
p131
aVto-read-1
p132
aVup-next
p133
aVsf-hard
p134
aVreviewed
p135
aV2015-completed
p136
aVto-read-sort
p137
aVkindle-own
p138
aVebook_only
p139
aV2014-reading-list
p140
aVowned-audio-to-listen-audible
p141
aVsci
p142
aVebook-yes
p143
aVown-not-read
p144
aVon-disk
p145
aVbooks
p146
aVfeedbooks-com
p147
aVaudio-books
p148
aV99-not-popular-sci-fi
p149
aV20-science-fiction
p150
aVcouldn-t-finish
p151
aVignore
p152
aVsf-challenge
p153
aVscience-fiction-times
p154
aVgutenberg
p155
aVto-buy
p156
aVe-books
p157
aVmmm2013
p158
aVtero-human-future-history
p159
aVbeam-h-piper
p160
aVepic
p161
aVe-books-to-read
p162
aVaudible-to-read
p163
aVpulp
p164
aVfree
p165
aVebooks
p166
aVpre-2011
p167
aVdystopian
p168
aVacquired
p169
aVlibrivox-listens
p170
aVaudio_2012
p171
aVfree-reads
p172
aVold-scifi
p173
aVadventures
p174
aV0_books-i-d-like-to-own
p175
aVfantasy-science-fiction
p176
asS'loc_class'
p177
VPS: Language and Literatures: American and Canadian literature
p178
sS'n_authors'
p179
I1
sb.