ccopy_reg
_reconstructor
p0
(cdataset.Book
Book
p1
c__builtin__
object
p2
Ntp3
Rp4
(dp5
S'content_name'
p6
V41481.txt.utf-8
p7
sS'isbn'
p8
NsS'year'
p9
I1930
sS'author_name'
p10
VRay Cummings et al.
p11
sS'images_urls'
p12
(lp13
Vhttp://www.gutenberg.org/files/41481/41481-h/images/cover.jpg
p14
aVhttp://www.gutenberg.org/files/41481/41481-h/images/illus1.jpg
p15
aVhttp://www.gutenberg.org/files/41481/41481-h/images/illus2.jpg
p16
aVhttp://www.gutenberg.org/files/41481/41481-h/images/illus3.jpg
p17
aVhttp://www.gutenberg.org/files/41481/41481-h/images/illus4.jpg
p18
aVhttp://www.gutenberg.org/files/41481/41481-h/images/illus5.jpg
p19
aVhttp://www.gutenberg.org/files/41481/41481-h/images/illus6.jpg
p20
aVhttp://www.gutenberg.org/files/41481/41481-h/images/illus7.jpg
p21
asS'language_code'
p22
NsS'images'
p23
(lp24
sS'id'
p25
I19
sS'category'
p26
VText
p27
sS'genres'
p28
(lp29
sS'copyright'
p30
VPublic domain in the USA.
p31
sS'title'
p32
VAstounding Stories of Super-Science January 1930
p33
sS'wikipedia'
p34
(dp35
S'url'
p36
Vhttps://en.wikipedia.org/wiki/Science_Fiction_of_the_Thirties
p37
sS'found'
p38
I01
sS'year'
p39
I-1
ssS'published_in'
p40
NsS'average_rating'
p41
F3.38
sS'rating_count'
p42
I21
sS'content_available'
p43
I01
sS'cover_art_url'
p44
S'http://www.gutenberg.org/cache/epub/41481/pg41481.cover.medium.jpg'
p45
sS'goodreads'
p46
(dp47
g36
Vhttps://www.goodreads.com/book/show/16172887-astounding-stories-of-super-science-january-1930
p48
sg38
I01
sg39
I1930
ssS'similar_books'
p49
(lp50
sS'description'
p51
V<img src="https://i.gr-assets.com/images/S/compressed.photo.goodreads.com/hostedimages/1380931493i/3357331.jpg" class="gr-hostedUserImg">COVER DESIGN<br>H. W. WESSOLOWSKI - Painted in Water-colors from a Scene in "The Beetle Horde."<br><br>Title: Astounding Stories of Super-Science January 1930<br><br>Author: Victor Rousseau<br> Captain S. P. Meek<br> Ray Cummings<br> M. L. Staley<br> C. V. Tench<br> Murray Leinster<br> Anthony Pelcher<br><br>Editor: Harry Bates<br><br>Release Date: November 25, 2012 [EBook #41481]<br><br>Language: English<br><br>The second part of THE BEETLE HORDE can be found here: <a target="_blank" href="http://www.gutenberg.org/files/28617/28617-h/28617-h.htm#The_Beetle_Horde" rel="nofollow">http://www.gutenberg.org/files/28617/...</a>
p52
sS'format'
p53
NsS'gutenberg'
p54
(dp55
g36
Vhttp://www.gutenberg.org/ebooks/41481
p56
sS'num'
p57
I41481
ssS'authors'
p58
(lp59
I12
asS'pages'
p60
I146
sS'isbn13'
p61
NsS'language'
p62
VEnglish
p63
sS'country'
p64
I2
sS'release_date'
p65
S'2012-11-25T00:00:00'
p66
sS'author'
p67
I12
sS'original_title'
p68
VScience Fiction of the Thirties
p69
sS'summary'
p70
VScience Fiction of the Thirties is an anthology of science fiction short stories edited by Damon Knight. It was first published in hardcover by Bobbs-Merrill in January 1976; a book club edition was issued simultaneously by the same publisher together with the Science Fiction Book Club, and a trade paperback edition by Avon Books in March 1977.\u000aThe book collects eighteen tales by various authors originally published in the 1930s and exemplifying American magazine science fiction of that decade, together with a foreword and three essays on the period by the editor, and a bibliography. The stories were originally published in Astounding Stories and Amazing Stories, the premier science fiction magazines of the time. The book reproduces period illustrations that accompanied the stories' original appearances by H. W. Wesso, Leo Morey, Paul Orban, Howard V. Brown, Elliott Dold, Jr., Thompson, and Charles Schneeman.
p71
sS'content_cleaned'
p72
I01
sS'classes'
p73
(lp74
Vto-read
p75
aVsci-fi
p76
aVshort-stories
p77
aVscience-fiction
p78
aVaudiobooks
p79
aVanthology
p80
aVcurrently-reading
p81
aVsf-f
p82
aVstalled
p83
aVlovecraft
p84
aVgraphic-novel
p85
aVfiction
p86
aVnew
p87
aVebook
p88
aVgutenberg-org
p89
aViown
p90
aVi-own-an-ebook
p91
aVhistorical-fiction
p92
aVfantasy
p93
aVaudio
p94
aVaudio-books
p95
aVenglish
p96
aVebooks
p97
aVsci-fi-mags
p98
aV2013-around-the-world-in-52-books
p99
aVgetabstract
p100
aVbook-i-own
p101
aVmaybe
p102
aVevaluated-no
p103
aVi-own-a-copy
p104
aVaudio-books-to-read
p105
aVmagazines
p106
aVnot-reviewed
p107
asS'loc_class'
p108
VPN: Language and Literatures: Literature: General, Criticism, Collections
p109
sS'n_authors'
p110
I1
sb.