ccopy_reg
_reconstructor
p0
(cdataset.Book
Book
p1
c__builtin__
object
p2
Ntp3
Rp4
(dp5
S'similar_books'
p6
(lp7
sS'genres'
p8
(lp9
sS'author'
p10
I302
sS'countries'
p11
(lp12
I2
asS'year'
p13
I1952
sS'title'
p14
VGalaxy Magazine August 1952
p15
sS'cover'
p16
Vhttps://ia600208.us.archive.org/BookReader/BookReaderImages.php?zip=/26/items/Galaxy_v04n05_1952-08/Galaxy_v04n05_1952-08_jp2.zip&file=Galaxy_v04n05_1952-08_jp2/Galaxy_v04n05_1952-08_0000.jp2&scale=0&rotate=0
p17
sS'cover_art'
p18
S'http://www.isfdb.org/wiki/images/0/02/GALAUG1952.jpg'
p19
sS'author_name'
p20
VGalaxy Magazine
p21
sS'images_urls'
p22
(lp23
sS'authors'
p24
(lp25
I363
aI402
aI342
aI305
aI339
aI340
aI55
aI32
aI40
aI23
aI403
aI302
asS'images'
p26
(lp27
sS'id'
p28
I995
sS'contents'
p29
(lp30
(dp31
S'title'
p32
VSurface Tension
p33
sS'author'
p34
I363
sa(dp35
g32
VSurface Tension [2]
p36
sg34
I363
sa(dp37
g32
VSurface Tension [3]
p38
sg34
I363
sa(dp39
g32
VSurface Tension [4]
p40
sg34
I363
sa(dp41
g32
VSurface Tension [5]
p42
sg34
I363
sa(dp43
g32
VProof of the Pudding
p44
sg34
I363
sa(dp45
g32
VProof of the Pudding [2]
p46
sg34
I363
sa(dp47
g32
VYesterday House
p48
sg34
I402
sa(dp49
g32
VYesterday House [2]
p50
sg34
I402
sa(dp51
g32
VYesterday House [3]
p52
sg34
I402
sa(dp53
g32
VEducation of a Martian
p54
sg34
I363
sa(dp55
g32
VGravy Planet (Part 3 of 3)
p56
sg34
I342
sa(dp57
g32
VGravy Planet (Part 3 of 3) [2]
p58
sg34
I342
sa(dp59
g32
VGravy Planet (Part 3 of 3) [3]
p60
sg34
I342
sa(dp61
g32
VGravy Planet (Part 3 of 3) [4]
p62
sg34
I342
sa(dp63
g32
VGravy Planet (Part 3 of 3) [5]
p64
sg34
I342
sa(dp65
g32
VAction &Amp; Reaction
p66
sg34
I305
sa(dp67
g32
VFor Your Information: The Supersonic Bot Fly
p68
sg34
I339
sa(dp69
g32
VGalaxy's Five Star Shelf (Galaxy, August 1952)
p70
sg34
I340
sa(dp71
g32
VSurface Tension
p72
sg34
I55
sa(dp73
g32
VYesterday House
p74
sg34
I32
sa(dp75
g32
VGravy Planet (Part 3 of 3)
p76
sg34
I40
sa(dp77
g32
VProof of the Pudding
p78
sg34
I23
sa(dp79
g32
VEducation of a Martian
p80
sg34
I403
sasb.