ccopy_reg
_reconstructor
p0
(cdataset.Book
Book
p1
c__builtin__
object
p2
Ntp3
Rp4
(dp5
S'content_name'
p6
V18346.txt.utf-8
p7
sS'isbn'
p8
V1557429200
p9
sS'year'
p10
I1953
sS'author_name'
p11
VJohn Joseph McGuire
p12
sS'images_urls'
p13
(lp14
Vhttp://www.gutenberg.org/files/18346/18346-h/images/image_004.jpg
p15
aVhttp://www.gutenberg.org/files/18346/18346-h/images/image_023.jpg
p16
aVhttp://www.gutenberg.org/files/18346/18346-h/images/image_045.jpg
p17
aVhttp://www.gutenberg.org/files/18346/18346-h/images/image_069.jpg
p18
aVhttp://www.gutenberg.org/files/18346/18346-h/images/image_091.jpg
p19
aVhttp://www.gutenberg.org/files/18346/18346-h/images/image_092.jpg
p20
aVhttp://www.gutenberg.org/files/18346/18346-h/images/image_109.jpg
p21
aVhttp://www.gutenberg.org/files/18346/18346-h/images/image_131.jpg
p22
aVhttp://www.gutenberg.org/files/18346/18346-h/images/image_153.jpg
p23
asS'language_code'
p24
NsS'images'
p25
(lp26
sS'id'
p27
I273
sS'category'
p28
VText
p29
sS'genres'
p30
(lp31
sS'copyright'
p32
VPublic domain in the USA.
p33
sS'title'
p34
VNull-ABC
p35
sS'wikipedia'
p36
(dp37
S'found'
p38
I00
ssS'average_rating'
p39
F3.38
sS'rating_count'
p40
I47
sS'content_available'
p41
I01
sS'goodreads'
p42
(dp43
S'url'
p44
Vhttps://www.goodreads.com/book/show/2504732.Null_ABC
p45
sg38
I01
sS'year'
p46
I1953
ssS'similar_books'
p47
(lp48
sS'description'
p49
VThere's some reaction these days that holds scientists responsible for war. Take it one step further: What happens if "book-learnin'" is held responsible...? A startling science fiction novel by H. Beam Piper (author of the classic LITTLE FUZZY) and John J. McGuire!
p50
sS'format'
p51
VPaperback
p52
sS'gutenberg'
p53
(dp54
g44
Vhttp://www.gutenberg.org/ebooks/18346
p55
sS'num'
p56
I18346
ssS'authors'
p57
(lp58
I48
aI19
asS'pages'
p59
I132
sS'isbn13'
p60
V9781557429209
p61
sS'language'
p62
VEnglish
p63
sS'country'
p64
I3
sS'release_date'
p65
S'2006-05-08T00:00:00'
p66
sS'author'
p67
I48
sS'content_cleaned'
p68
I01
sS'classes'
p69
(lp70
Vto-read
p71
aVcurrently-reading
p72
aVscience-fiction
p73
aVsci-fi
p74
aVfiction
p75
aVkindle
p76
aVsi-fi
p77
aVsf
p78
aVebook
p79
aVscience
p80
aVtbr-and-have
p81
aVscifi
p82
aVnovella
p83
aVlibrary-book
p84
aVa-owned
p85
aV20th-century-lit
p86
aVlistened
p87
aVthe-real-stuff
p88
aVfantasy-sf
p89
aVhealth-food-cooking
p90
aVaction-adventure
p91
aVace-doubles-science-fiction
p92
aVon-disk
p93
aVreading
p94
aVdiff-ed
p95
aVebook-yes
p96
aVlooking-for
p97
aVdystopia-and-utopia
p98
aVh-beam-piper
p99
aVcrap
p100
aVacquired
p101
aVvintage-scifi
p102
aVlibrivox-audiobooks-they-re-free
p103
aVgenre-science-fiction
p104
aVnot-regency
p105
aVfavorite-authors
p106
aVanthology
p107
aVtexts
p108
aVbeam
p109
aVh-
p110
aVclassic
p111
aVmcguire
p112
aVpiper
p113
aVonline
p114
aVfree
p115
aVliteracy
p116
aVliterature-
p117
aVnovel
p118
aVwarfare
p119
aVnuclear
p120
aVclassics
p121
aVstories
p122
aVshort
p123
aVfantasy
p124
aVgeneral
p125
aV-
p126
aVclassic-lit
p127
aVcollected-classics
p128
aVbooks-on-kindle
p129
aVgenre-a-none
p130
asS'loc_class'
p131
VPS: Language and Literatures: American and Canadian literature
p132
sS'n_authors'
p133
I2
sb.