ccopy_reg
_reconstructor
p0
(cdataset.Book
Book
p1
c__builtin__
object
p2
Ntp3
Rp4
(dp5
S'similar_books'
p6
(lp7
sS'genres'
p8
(lp9
sS'author'
p10
I302
sS'countries'
p11
(lp12
I2
asS'year'
p13
I1956
sS'title'
p14
VGalaxy Magazine June 1956
p15
sS'cover'
p16
Vhttps://ia600206.us.archive.org/BookReader/BookReaderImages.php?zip=/12/items/Galaxy_v12n02_1956-06/Galaxy_v12n02_1956-06_jp2.zip&file=Galaxy_v12n02_1956-06_jp2/Galaxy_v12n02_1956-06_0000.jp2&scale=0&rotate=0
p17
sS'cover_art'
p18
S'http://www.isfdb.org/wiki/images/2/2f/MLO4396.jpg'
p19
sS'author_name'
p20
VGalaxy Magazine
p21
sS'images_urls'
p22
(lp23
sS'authors'
p24
(lp25
I363
aI486
aI419
aI305
aI326
aI339
aI483
aI393
aI172
aI475
aI23
aI495
aI496
aI302
asS'images'
p26
(lp27
sS'id'
p28
I1040
sS'contents'
p29
(lp30
(dp31
g10
I363
sg14
VMezzerow Loves Company
p32
sa(dp33
g10
I363
sg14
VMezzerow Loves Company [2]
p34
sa(dp35
g10
I363
sg14
VMezzerow Loves Company [3]
p36
sa(dp37
g10
I486
sg14
VDeath Wish
p38
sa(dp39
g10
I486
sg14
VThe Scapegoat
p40
sa(dp41
g10
I419
sg14
VThe Venus Trap
p42
sa(dp43
g10
I419
sg14
VThe Venus Trap [2]
p44
sa(dp45
g10
I419
sg14
VThe Venus Trap [3]
p46
sa(dp47
g10
I486
sg14
VThe Moralist
p48
sa(dp49
g10
I363
sg14
VIn the Cards
p50
sa(dp51
g10
I363
sg14
VIn the Cards [2]
p52
sa(dp53
g10
I363
sg14
VIn the Cards [3]
p54
sa(dp55
g10
I305
sg14
VFreedom From Everything
p56
sa(dp57
g10
I326
sg14
VForecast (Galaxy, June 1956)
p58
sa(dp59
g10
I339
sg14
VFor Your Information: Mutant of the Iron Horse
p60
sa(dp61
g10
I483
sg14
VGalaxy's 5 Star Shelf (Galaxy, June 1956)
p62
sa(dp63
g10
I393
sg14
VMezzerow Loves Company
p64
sa(dp65
g10
I172
sg14
VThe Venus Trap
p66
sa(dp67
g10
I475
sg14
VIn the Cards
p68
sa(dp69
g10
I23
sg14
VDeath Wish
p70
sa(dp71
g10
I495
sg14
VThe Scapegoat
p72
sa(dp73
g10
I496
sg14
VThe Moralist
p74
sasb.