ccopy_reg
_reconstructor
p0
(cdataset.Book
Book
p1
c__builtin__
object
p2
Ntp3
Rp4
(dp5
S'similar_books'
p6
(lp7
sS'genres'
p8
(lp9
sS'author'
p10
I302
sS'countries'
p11
(lp12
I2
asS'year'
p13
I1973
sS'title'
p14
VGalaxy Magazine May 1973
p15
sS'cover'
p16
Vhttps://ia600200.us.archive.org/BookReader/BookReaderImages.php?zip=/13/items/Galaxy_v33n06_1973-05/Galaxy_v33n06_1973-05_jp2.zip&file=Galaxy_v33n06_1973-05_jp2/Galaxy_v33n06_1973-05_0000.jp2&scale=0&rotate=0
p17
sS'cover_art'
p18
S'http://www.isfdb.org/wiki/images/f/ff/GALMAYJUN73.jpg'
p19
sS'author_name'
p20
VGalaxy Magazine
p21
sS'images_urls'
p22
(lp23
sS'authors'
p24
(lp25
I499
aI326
aI341
aI630
aI153
aI713
aI74
aI716
aI605
aI302
asS'images'
p26
(lp27
sS'id'
p28
I1163
sS'contents'
p29
(lp30
(dp31
g10
I499
sg14
VThe Doomsday Gene (Part 1 of 2)
p32
sa(dp33
g10
I499
sg14
VParthen
p34
sa(dp35
g10
I499
sg14
VOn the Account
p36
sa(dp37
g10
I326
sg14
VIn This Dark Sky
p38
sa(dp39
g10
I499
sg14
VGirl Saturday
p40
sa(dp41
g10
I499
sg14
VFuture Forbidden
p42
sa(dp43
g10
I326
sg14
VDirections (Galaxy, May-June 1973)
p44
sa(dp45
g10
I326
sg14
VGalaxy Stars (Galaxy, May-June 1973)
p46
sa(dp47
g10
I341
sg14
VGalaxy Bookshelf (Galaxy, May-June 1973)
p48
sa(dp49
g10
I630
sg14
VOn the Account
p50
sa(dp51
g10
I153
sg14
VGirl Saturday
p52
sa(dp53
g10
I713
sg14
VThe Doomsday Gene (Part 1 of 2)
p54
sa(dp55
g10
I74
sg14
VParthen
p56
sa(dp57
g10
I716
sg14
VIn This Dark Sky
p58
sa(dp59
g10
I605
sg14
VFuture Forbidden
p60
sasb.