ccopy_reg
_reconstructor
p0
(cdataset.Book
Book
p1
c__builtin__
object
p2
Ntp3
Rp4
(dp5
S'similar_books'
p6
(lp7
sS'genres'
p8
(lp9
sS'author'
p10
I302
sS'countries'
p11
(lp12
I2
asS'year'
p13
I1967
sS'title'
p14
VGalaxy Magazine December 1967
p15
sS'cover'
p16
Vhttps://ia800200.us.archive.org/BookReader/BookReaderImages.php?zip=/22/items/Galaxy_v26n02_1967-12_modified/Galaxy_v26n02_1967-12_modified_jp2.zip&file=Galaxy_v26n02_1967-12_modified_jp2/Galaxy_v26n02_1967-12_modified_0000.jp2&scale=0&rotate=0
p17
sS'cover_art'
p18
S'http://www.isfdb.org/wiki/images/e/eb/GALDEC67.jpg'
p19
sS'author_name'
p20
VGalaxy Magazine
p21
sS'images_urls'
p22
(lp23
sS'authors'
p24
(lp25
I545
aI499
aI326
aI40
aI339
aI91
aI604
aI30
aI217
aI50
aI32
aI605
aI546
aI16
aI302
asS'images'
p26
(lp27
sS'id'
p28
I1120
sS'contents'
p29
(lp30
(dp31
g10
I545
sg14
VOutpost of Empire
p32
sa(dp33
g10
I545
sg14
VOutpost of Empire [2]
p34
sa(dp35
g10
I545
sg14
VOutpost of Empire [3]
p36
sa(dp37
g10
I545
sg14
VOutpost of Empire [4]
p38
sa(dp39
g10
I499
sg14
VThe South Waterford Rumple Club
p40
sa(dp41
g10
I326
sg14
VBlack Corridor
p42
sa(dp43
g10
I499
sg14
VGalactic Consumer Report No. 3: A Survey of the Membership
p44
sa(dp45
g10
I499
sg14
VHandicap
p46
sa(dp47
g10
I499
sg14
VHandicap [2]
p48
sa(dp49
g10
I499
sg14
VHandicap [3]
p50
sa(dp51
g10
I499
sg14
VHandicap [4]
p52
sa(dp53
g10
I499
sg14
VThe Fairly Civil Service
p54
sa(dp55
g10
I40
sg14
VOn Hugos
p56
sa(dp57
g10
I326
sg14
VForecast (Galaxy, December 1967)
p58
sa(dp59
g10
I339
sg14
VFor Your Information: Astronautics International
p60
sa(dp61
g10
I91
sg14
VGalaxy Bookshelf (Galaxy, December 1967)
p62
sa(dp63
g10
I604
sg14
VHandicap
p64
sa(dp65
g10
I30
sg14
VOutpost of Empire
p66
sa(dp67
g10
I217
sg14
VThe South Waterford Rumple Club
p68
sa(dp69
g10
I50
sg14
VKing of the Golden World
p70
sa(dp71
g10
I32
sg14
VBlack Corridor
p72
sa(dp73
g10
I605
sg14
VThe Red Euphoric Bands
p74
sa(dp75
g10
I546
sg14
VGalactic Consumer Report No. 3: A Survey of the Membership
p76
sa(dp77
g10
I16
sg14
VThe Fairly Civil Service
p78
sasb.