ccopy_reg
_reconstructor
p0
(cdataset.Book
Book
p1
c__builtin__
object
p2
Ntp3
Rp4
(dp5
S'content_name'
p6
V51767.txt.utf-8
p7
sS'isbn'
p8
NsS'year'
p9
I1960
sS'author_name'
p10
VJim Wannamaker
p11
sS'images_urls'
p12
(lp13
Vhttp://www.gutenberg.org/files/51767/51767-h/images/cover.jpg
p14
aVhttp://www.gutenberg.org/files/51767/51767-h/images/illus1.jpg
p15
aVhttp://www.gutenberg.org/files/51767/51767-h/images/illus2.jpg
p16
aVhttp://www.gutenberg.org/files/51767/51767-h/images/illus3.jpg
p17
asS'language_code'
p18
NsS'images'
p19
(lp20
sS'id'
p21
I922
sS'category'
p22
VText
p23
sS'genres'
p24
(lp25
sS'copyright'
p26
VPublic domain in the USA.
p27
sS'title'
p28
VDeath's Wisher
p29
sS'wikipedia'
p30
(dp31
S'found'
p32
I00
ssS'average_rating'
p33
F3.95
sS'rating_count'
p34
I1
sS'content_available'
p35
I01
sS'cover_art_url'
p36
S'http://www.gutenberg.org/cache/epub/51767/pg51767.cover.medium.jpg'
p37
sS'goodreads'
p38
(dp39
S'url'
p40
S'https://www.goodreads.com/book/show/29969096-death-s-wisher'
p41
sS'found'
p42
I01
ssS'similar_books'
p43
(lp44
sS'description'
p45
NsS'gutenberg'
p46
(dp47
S'url'
p48
Vhttp://www.gutenberg.org/ebooks/51767
p49
sS'num'
p50
I51767
ssS'authors'
p51
(lp52
I280
asS'isbn13'
p53
NsS'language'
p54
VEnglish
p55
sS'countries'
p56
(lp57
I3
asS'release_date'
p58
S'2016-04-15T00:00:00'
p59
sS'author'
p60
I280
sS'cover'
p61
Vhttps://s.gr-assets.com/assets/nophoto/book/111x148-bcc042a9c91a29c1d680899eff700a03.png
p62
sS'content_cleaned'
p63
I01
sS'classes'
p64
(lp65
sS'loc_class'
p66
S''
p67
sS'n_authors'
p68
I1
sb.