ccopy_reg
_reconstructor
p0
(cdataset.Book
Book
p1
c__builtin__
object
p2
Ntp3
Rp4
(dp5
S'content_name'
p6
V18786.txt.utf-8
p7
sS'isbn'
p8
V1603121978
p9
sS'year'
p10
I1954
sS'author_name'
p11
VCarey Rockwell
p12
sS'images_urls'
p13
(lp14
Vhttp://www.gutenberg.org/files/18786/18786-h/images/004.jpg
p15
aVhttp://www.gutenberg.org/files/18786/18786-h/images/027-1.jpg
p16
aVhttp://www.gutenberg.org/files/18786/18786-h/images/032-1.jpg
p17
aVhttp://www.gutenberg.org/files/18786/18786-h/images/037-1.jpg
p18
aVhttp://www.gutenberg.org/files/18786/18786-h/images/044-1.jpg
p19
aVhttp://www.gutenberg.org/files/18786/18786-h/images/046-1.jpg
p20
aVhttp://www.gutenberg.org/files/18786/18786-h/images/047-1.jpg
p21
aVhttp://www.gutenberg.org/files/18786/18786-h/images/061-1.jpg
p22
aVhttp://www.gutenberg.org/files/18786/18786-h/images/064-1.jpg
p23
aVhttp://www.gutenberg.org/files/18786/18786-h/images/073-1.jpg
p24
aVhttp://www.gutenberg.org/files/18786/18786-h/images/085-1.jpg
p25
aVhttp://www.gutenberg.org/files/18786/18786-h/images/094-1.jpg
p26
aVhttp://www.gutenberg.org/files/18786/18786-h/images/095-1.jpg
p27
aVhttp://www.gutenberg.org/files/18786/18786-h/images/098-1.jpg
p28
aVhttp://www.gutenberg.org/files/18786/18786-h/images/099-1.jpg
p29
aVhttp://www.gutenberg.org/files/18786/18786-h/images/107-1.jpg
p30
aVhttp://www.gutenberg.org/files/18786/18786-h/images/112-1.jpg
p31
aVhttp://www.gutenberg.org/files/18786/18786-h/images/119-1.jpg
p32
aVhttp://www.gutenberg.org/files/18786/18786-h/images/130-1.jpg
p33
aVhttp://www.gutenberg.org/files/18786/18786-h/images/141-1.jpg
p34
aVhttp://www.gutenberg.org/files/18786/18786-h/images/149-1.jpg
p35
aVhttp://www.gutenberg.org/files/18786/18786-h/images/162-1.jpg
p36
aVhttp://www.gutenberg.org/files/18786/18786-h/images/175-1.jpg
p37
aVhttp://www.gutenberg.org/files/18786/18786-h/images/187-1.jpg
p38
aVhttp://www.gutenberg.org/files/18786/18786-h/images/191-1.jpg
p39
aVhttp://www.gutenberg.org/files/18786/18786-h/images/206-1.jpg
p40
aVhttp://www.gutenberg.org/files/18786/18786-h/images/209-1.jpg
p41
aVhttp://www.gutenberg.org/files/18786/18786-h/images/216-1.jpg
p42
aVhttp://www.gutenberg.org/files/18786/18786-h/images/217-1.jpg
p43
aVhttp://www.gutenberg.org/files/18786/18786-h/images/221.jpg
p44
asS'language_code'
p45
NsS'images'
p46
(lp47
sS'id'
p48
I464
sS'category'
p49
VText
p50
sS'genres'
p51
(lp52
sS'copyright'
p53
VPublic domain in the USA.
p54
sS'title'
p55
VTreachery in Outer Space
p56
sS'wikipedia'
p57
(dp58
S'found'
p59
I00
ssS'average_rating'
p60
F3.51
sS'rating_count'
p61
I32
sS'content_available'
p62
I01
sS'goodreads'
p63
(dp64
S'url'
p65
Vhttps://www.goodreads.com/book/show/1927647.Treachery_in_Outer_Space
p66
sg59
I01
sS'year'
p67
I1954
ssS'similar_books'
p68
(lp69
sS'description'
p70
VThis, the sixth book in the "Tom Corbett" series by "Carey Rockwell" (whoever he was in real life) -- is, like all of the "Tom Corbett" books, something special. It's another tale of the three young men who serve in the Solar Guard as Space Cadets. The Titan crystal freight contracts are up for bid, and the powers that be have decided to put the contracts out competitively to the folks who can deliver fastest -- and of course there's fishy business underway. Not only are folks attempting to cheat the competition, but darker business is about to begin. . . !<br /><br />Neat stuff! Read it now!
p71
sS'gutenberg'
p72
(dp73
g65
Vhttp://www.gutenberg.org/ebooks/18786
p74
sS'num'
p75
I18786
ssS'authors'
p76
(lp77
I118
asS'pages'
p78
I124
sS'isbn13'
p79
V9781603121972
p80
sS'language'
p81
VEnglish
p82
sS'countries'
p83
(lp84
I2
asS'release_date'
p85
S'2006-07-08T00:00:00'
p86
sS'author'
p87
I118
sS'content_cleaned'
p88
I01
sS'classes'
p89
(lp90
Vto-read
p91
aVscience-fiction
p92
aVread_2016
p93
aV16
p94
aVe-book
p95
aVtemporary-storage
p96
aVnook
p97
aVowned-amazon
p98
aVbooks-i-need
p99
aVyoung-and-ya
p100
aVfeedbooks-com
p101
aVreimport
p102
aVya-books
p103
aVsci-fi-fantasy
p104
aV2013-books-read
p105
aVin-calibre
p106
aVi-marked-to-read-deliberately
p107
aVcurrently-reading
p108
aVgenre-sf-fantasy
p109
aVsci-fi
p110
aVi-want-to-read
p111
aVscience-fiction-fantasy
p112
aVreorganize
p113
aVyounger-days
p114
asS'loc_class'
p115
VPZ: Language and Literatures: Juvenile belles lettres
p116
sS'n_authors'
p117
I1
sb.