ccopy_reg
_reconstructor
p0
(cdataset.Book
Book
p1
c__builtin__
object
p2
Ntp3
Rp4
(dp5
S'content_name'
p6
V18431.txt.utf-8
p7
sS'isbn'
p8
V0007535023
p9
sS'year'
p10
I1901
sS'author_name'
p11
VGarrett Putman Serviss
p12
sS'images_urls'
p13
(lp14
Vhttp://www.gutenberg.org/files/18431/18431-h/images/chart01.jpg
p15
aVhttp://www.gutenberg.org/files/18431/18431-h/images/chart01_th.jpg
p16
aVhttp://www.gutenberg.org/files/18431/18431-h/images/chart02.jpg
p17
aVhttp://www.gutenberg.org/files/18431/18431-h/images/chart02_th.jpg
p18
aVhttp://www.gutenberg.org/files/18431/18431-h/images/chart03.jpg
p19
aVhttp://www.gutenberg.org/files/18431/18431-h/images/chart03_th.jpg
p20
aVhttp://www.gutenberg.org/files/18431/18431-h/images/chart04.jpg
p21
aVhttp://www.gutenberg.org/files/18431/18431-h/images/chart04_th.jpg
p22
aVhttp://www.gutenberg.org/files/18431/18431-h/images/chart05.jpg
p23
aVhttp://www.gutenberg.org/files/18431/18431-h/images/chart05_th.jpg
p24
aVhttp://www.gutenberg.org/files/18431/18431-h/images/chart06.jpg
p25
aVhttp://www.gutenberg.org/files/18431/18431-h/images/chart06_th.jpg
p26
aVhttp://www.gutenberg.org/files/18431/18431-h/images/illus001_lg.jpg
p27
aVhttp://www.gutenberg.org/files/18431/18431-h/images/illus001_th.jpg
p28
aVhttp://www.gutenberg.org/files/18431/18431-h/images/illus002.jpg
p29
aVhttp://www.gutenberg.org/files/18431/18431-h/images/illus003.jpg
p30
aVhttp://www.gutenberg.org/files/18431/18431-h/images/illus004.jpg
p31
aVhttp://www.gutenberg.org/files/18431/18431-h/images/illus005.jpg
p32
aVhttp://www.gutenberg.org/files/18431/18431-h/images/illus006.jpg
p33
aVhttp://www.gutenberg.org/files/18431/18431-h/images/illus007.jpg
p34
aVhttp://www.gutenberg.org/files/18431/18431-h/images/illus008.jpg
p35
aVhttp://www.gutenberg.org/files/18431/18431-h/images/illus009.jpg
p36
aVhttp://www.gutenberg.org/files/18431/18431-h/images/illus010.jpg
p37
asS'language_code'
p38
Veng
p39
sS'images'
p40
(lp41
sS'id'
p42
I969
sS'category'
p43
VText
p44
sS'genres'
p45
(lp46
sS'copyright'
p47
VPublic domain in the USA.
p48
sS'title'
p49
VOther Worlds
p50
sS'wikipedia'
p51
(dp52
S'found'
p53
I00
ssS'average_rating'
p54
F3.88
sS'rating_count'
p55
I190
sS'content_available'
p56
I01
sS'goodreads'
p57
(dp58
S'url'
p59
Vhttps://www.goodreads.com/book/show/18171953-other-worlds
p60
sg53
I01
sS'year'
p61
I2013
ssS'similar_books'
p62
(lp63
VThe Fellowship for Alien Detection
p64
aVThe Silver Six
p65
aVHide and Seek (Silver Jaguar Society Mysteries #2)
p66
aVThe Frog Who Croaked (Platypus Police Squad, #1)
p67
aVLucy at Sea (The Voyage of Lucy P. Simmons #2)
p68
aVThe Real Boy
p69
aVMira's Diary: Home Sweet Rome (Mira's Diary, #2)
p70
aVThe Girl from Felony Bay
p71
aVEarthling!
p72
aVThe Lost Kingdom
p73
aVThe Cup and the Crown (Silver Bowl, #2)
p74
aVSpace Taxi: Archie Takes Flight
p75
aVVillains Rising (The Cloak Society, #2)
p76
aVHaunters
p77
aVMal and Chad: Food Fight! (Mal and Chad, #2)
p78
aVThe Magician's Bird (Tuckernuck, #2)
p79
aVAces Wild
p80
aVOn the Road to Mr. Mineo's
p81
asS'description'
p82
VTen incredible trips into the unknown await you...<br /><br />Blast off with:<br /><br />\u2022 <i>Percy Jackson and the Singer of Apollo</i> an all-new and exclusive tale from Rick Riordan<br /><br />\u2022 <i>A Day in the Life</i> by award-winning author/illustrator Shaun Tan<br /><br />\u2022 <i>Rise of the RoboShoes</i> by Tom Angleberger of Origami Yoda fame<br /><br />And many more weird and wonderful stories by legendary writer Ray Bradbury, Newbery medalist Rebecca Stead, Shannon Hale, D. J. MacHale, Eric Nylund, Kenneth Oppel and Neal Shusterman.<br /><br />Compiled by US National Ambassador for Children\u2019s Literature (and Secret Ambassador for the Intergalactic Alliance) Jon Scieszka, Other Worlds will boldly take you where no reader has gone before.
p83
sS'format'
p84
VPaperback
p85
sS'gutenberg'
p86
(dp87
g59
Vhttp://www.gutenberg.org/ebooks/18431
p88
sS'num'
p89
I18431
ssS'authors'
p90
(lp91
I90
asS'pages'
p92
I331
sS'isbn13'
p93
V9780007535026
p94
sS'language'
p95
VEnglish
p96
sS'countries'
p97
(lp98
I2
asS'release_date'
p99
S'2006-05-22T00:00:00'
p100
sS'author'
p101
I90
sS'content_cleaned'
p102
I00
sS'classes'
p103
(lp104
Vto-read
p105
aVfantasy
p106
aVscience-fiction
p107
aVshort-stories
p108
aVcurrently-reading
p109
aVsci-fi
p110
aVanthology
p111
aVyoung-adult
p112
aVmiddle-grade
p113
aVanthologies
p114
aVadventure
p115
aVya
p116
aVchildrens
p117
aVmiddle-school
p118
aVebook
p119
aVfavorites
p120
aVseries
p121
aVlibrary
p122
aVkindle
p123
aVread-in-2013
p124
aVhumor
p125
aVaudiobook
p126
aVbooks-i-own
p127
aVbooks
p128
aVsummer-reading
p129
aVchildren
p130
aVmythology
p131
aVpercy-jackson-series
p132
aVnot-interested
p133
aVstory-collection
p134
aVspeculative-fiction
p135
aVshort-story
p136
aVbea-2013
p137
aVanthology-collection
p138
aV2013-2014
p139
aVclassroom-library
p140
aVsigned
p141
aVenglish
p142
aVdystopia
p143
aVchildren-s
p144
aVborrowed
p145
aVya-fiction
p146
aVfiction
p147
aVpercy
p148
aVkids
p149
aVdefault
p150
aVseries-finished
p151
aVjuvenile
p152
aVwant-to-own
p153
aVaction
p154
aVmystery
p155
aVhorror
p156
aVdid-not-finish
p157
aVnot-finished
p158
aVread-in-2014
p159
aVaudio
p160
aVshort-story-collection
p161
aVmiddle-grades
p162
aVer-chor-erbee
p163
aV2013-release
p164
aVwant-to-read
p165
aVrick-riordan
p166
aValiens
p167
aVboys-books
p168
aVfemale-mains
p169
aVscifi
p170
aVborrowed-or-library-books
p171
aVread-in-17
p172
aVebooks-i-own
p173
aVgenre-science-fiction
p174
aVgenre-fantasy
p175
aVcategory-classic
p176
aVreview-location
p177
aVmiddle-readers
p178
aVcategory-young-adult
p179
aVcategory-anthology
p180
aVauthor-rick-riordan
p181
aVschool-shelf
p182
aVsicience-fiction-fantasy
p183
aVmy-books
p184
aVcontinue-later-incomplete-series
p185
aVmr-lemoncellos-library-reading-list
p186
aVdidn-t-finish
p187
aVnever-read
p188
aVto-sort
p189
aVfifth-grade-library
p190
aVlibrary-haul
p191
aVkiddo_books
p192
aV2017-reads
p193
aVslmta
p194
aV2nd-to-read
p195
aV03-words-sc
p196
aVby-mimi-9-years
p197
aVcool-reads
p198
aV03-words-sb
p199
aVkindle-ebook
p200
aVebook-collection
p201
aVnot-read-yet
p202
aVmale-mains
p203
aVzach
p204
asS'loc_class'
p205
VQB: Science: Astronomy
p206
sS'n_authors'
p207
I1
sb.