ccopy_reg
_reconstructor
p0
(cdataset.Book
Book
p1
c__builtin__
object
p2
Ntp3
Rp4
(dp5
S'similar_books'
p6
(lp7
sS'genres'
p8
(lp9
sS'author'
p10
I302
sS'countries'
p11
(lp12
I2
asS'year'
p13
I1961
sS'title'
p14
VGalaxy Magazine June 1961
p15
sS'cover'
p16
Vhttps://ia600208.us.archive.org/BookReader/BookReaderImages.php?zip=/14/items/Galaxy_v19n05_1961-06_modified/Galaxy_v19n05_1961-06_modified_jp2.zip&file=Galaxy_v19n05_1961-06_modified_jp2/Galaxy_v19n05_1961-06_modified_0000.jp2&scale=0&rotate=0
p17
sS'cover_art'
p18
S'http://www.isfdb.org/wiki/images/f/fa/GALJUN1961.jpg'
p19
sS'author_name'
p20
VGalaxy Magazine
p21
sS'images_urls'
p22
(lp23
sS'authors'
p24
(lp25
I560
aI504
aI519
aI497
aI563
aI499
aI419
aI564
aI565
aI339
aI326
aI483
aI69
aI479
aI63
aI558
aI40
aI74
aI234
aI30
aI561
aI302
asS'images'
p26
(lp27
sS'id'
p28
I1085
sS'contents'
p29
(lp30
(dp31
S'title'
p32
VFarmer
p33
sS'author'
p34
I560
sa(dp35
g32
VFarmer [2]
p36
sg34
I560
sa(dp37
g32
VThe Graybes of Wrath
p38
sg34
I504
sa(dp39
g32
VA Gentle Dying
p40
sg34
I560
sa(dp41
g32
VThe Weirdest World
p42
sg34
I519
sa(dp43
g32
VThe Weirdest World [2]
p44
sg34
I519
sa(dp45
g32
VThe Weirdest World [3]
p46
sg34
I519
sa(dp47
g32
VMother Hitton's Littul Kittons
p48
sg34
I497
sa(dp49
g32
VMother Hitton's Littul Kittons [2]
p50
sg34
I497
sa(dp51
g32
VBreakdown
p52
sg34
I563
sa(dp53
g32
VBreakdown [2]
p54
sg34
I563
sa(dp55
g32
VA-W-F Unlimited
p56
sg34
I499
sa(dp57
g32
VA-W-F Unlimited [2]
p58
sg34
I499
sa(dp59
g32
VMy Object All Sublime
p60
sg34
I419
sa(dp61
g32
VMy Object All Sublime [2]
p62
sg34
I419
sa(dp63
g32
VThe Long Way Home
p64
sg34
I564
sa(dp65
g32
VThe Long Way Home [2]
p66
sg34
I564
sa(dp67
g32
VA Life in the Day of an Editor
p68
sg34
I565
sa(dp69
g32
VFor Your Information: The Strait Named After Vitus Bering
p70
sg34
I339
sa(dp71
g32
VForecast (Galaxy, June 1961)
p72
sg34
I326
sa(dp73
g32
VGalaxy's 5 Star Shelf (Galaxy, June 1961)
p74
sg34
I483
sa(dp75
g32
VFarmer
p76
sg34
I69
sa(dp77
g32
VMother Hitton's Littul Kittons
p78
sg34
I479
sa(dp79
g32
VA-W-F Unlimited
p80
sg34
I63
sa(dp81
g32
VThe Graybes of Wrath
p82
sg34
I558
sa(dp83
g32
VA Gentle Dying
p84
sg34
I40
sa(dp85
g32
VThe Weirdest World
p86
sg34
I74
sa(dp87
g32
VBreakdown
p88
sg34
I234
sa(dp89
g32
VMy Object All Sublime
p90
sg34
I30
sa(dp91
g32
VThe Long Way Home
p92
sg34
I561
sasb.