ccopy_reg
_reconstructor
p0
(cdataset.Book
Book
p1
c__builtin__
object
p2
Ntp3
Rp4
(dp5
S'content_name'
p6
V30381.txt.utf-8
p7
sS'isbn'
p8
V3655289332
p9
sS'year'
p10
I-1
sS'author_name'
p11
VRobert W. Haseltine
p12
sS'images_urls'
p13
(lp14
Vhttp://www.gutenberg.org/files/30381/30381-h/images/001.png
p15
aVhttp://www.gutenberg.org/files/30381/30381-h/images/002-1.jpg
p16
aVhttp://www.gutenberg.org/files/30381/30381-h/images/002-2.jpg
p17
asS'language_code'
p18
NsS'images'
p19
(lp20
sS'id'
p21
I884
sS'category'
p22
VText
p23
sS'genres'
p24
(lp25
sS'copyright'
p26
VPublic domain in the USA.
p27
sS'title'
p28
VPrelude to Space
p29
sS'wikipedia'
p30
(dp31
S'found'
p32
I00
ssS'average_rating'
p33
F3.6
sS'rating_count'
p34
I5
sS'content_available'
p35
I01
sS'goodreads'
p36
(dp37
S'url'
p38
S'https://www.goodreads.com/book/show/12268249-prelude-to-space'
p39
sS'found'
p40
I01
ssS'similar_books'
p41
(lp42
sS'description'
p43
NsS'gutenberg'
p44
(dp45
S'url'
p46
Vhttp://www.gutenberg.org/ebooks/30381
p47
sS'num'
p48
I30381
ssS'authors'
p49
(lp50
I270
asS'isbn13'
p51
V9783655289334
p52
sS'language'
p53
VEnglish
p54
sS'countries'
p55
(lp56
I3
asS'release_date'
p57
S'2009-11-01T00:00:00'
p58
sS'author'
p59
I270
sS'content_cleaned'
p60
I01
sS'classes'
p61
(lp62
Vwisconsin
p63
aVshort-stories
p64
aVsci-fi
p65
aVpulp
p66
aVhumor
p67
aVshort-story
p68
aVaudio-obtained-lvss
p69
aVto-read
p70
aVgutenberg
p71
aVtype-short-story
p72
aVaudio-obtained-ss
p73
asS'loc_class'
p74
VPS: Language and Literatures: American and Canadian literature
p75
sS'n_authors'
p76
I1
sb.