ccopy_reg
_reconstructor
p0
(cdataset.Book
Book
p1
c__builtin__
object
p2
Ntp3
Rp4
(dp5
S'isbn'
p6
NsS'year'
p7
I1926
sS'author_name'
p8
VRalph Milne Farley
p9
sS'images_urls'
p10
(lp11
Vhttp://www.gutenberg.org/files/52326/52326-h/images/cover.jpg
p12
aVhttp://www.gutenberg.org/files/52326/52326-h/images/p1.jpg
p13
asS'language_code'
p14
Veng
p15
sS'id'
p16
I333
sS'category'
p17
VText
p18
sS'genres'
p19
(lp20
sS'copyright'
p21
VPublic domain in the USA.
p22
sS'title'
p23
VThe Radio Planet
p24
sS'wikipedia'
p25
(dp26
S'found'
p27
I00
ssS'average_rating'
p28
F3.47
sS'rating_count'
p29
I27
sS'content_available'
p30
I00
sS'cover_art_url'
p31
S'http://www.gutenberg.org/cache/epub/52326/pg52326.cover.medium.jpg'
p32
sS'goodreads'
p33
(dp34
S'url'
p35
Vhttps://www.goodreads.com/book/show/2258426.The_Radio_Planet
p36
sS'found'
p37
I01
sS'year'
p38
I1926
ssS'similar_books'
p39
(lp40
sS'description'
p41
VWhen Myles Cabot, inventor of radio transmission of matter, found himself alone on an unknown continent of the planet Venus, he realized that getting back to his old headquarters and his loved ones presented some impossible problems. <br />He'd have to settle a war between primitive natives and an unholy alliance of monsters, dinosaurs, and giant insects. He'd have to build an electronic device from raw rocks and untapped resources. And if he succeeded in all that, he'd still have to find his way home. A vintage novel of science and adventure from the Golden Years of Science Fiction!
p42
sS'gutenberg'
p43
(dp44
g35
Vhttp://www.gutenberg.org/ebooks/52326
p45
sS'num'
p46
I52326
ssS'authors'
p47
(lp48
I99
asS'pages'
p49
I224
sS'isbn13'
p50
NsS'language'
p51
VEnglish
p52
sS'countries'
p53
(lp54
I2
asS'release_date'
p55
S'2016-06-14T00:00:00'
p56
sS'author'
p57
I99
sS'classes'
p58
(lp59
Vto-read
p60
aVscience-fiction
p61
aVfiction
p62
aVsf
p63
aVfiction_speculative_sciencefiction
p64
aVfiction_speculative
p65
aVsci-fi-fantasy
p66
aVowned
p67
aVcurrently-reading
p68
aV20th-century-lit
p69
aVpulp
p70
aVplanetary-romance-space-opera
p71
aVfantasy
p72
aVcryptid-giant-bugs
p73
aVadventure
p74
aVseries
p75
aVtrillion-year-spree-recs
p76
aVscifi
p77
aVto-be-cataloged
p78
aVsci-fi-golden-age
p79
aVavailable
p80
aVdefault
p81
aVcollection
p82
aVe-books
p83
aVjohns-books
p84
aVsword-and-planet
p85
aVunfinished-abandoned-recycled
p86
aVpaperback
p87
aVbooks-owned
p88
aVpulp-fiction
p89
aVwish-list_all
p90
aVtub2
p91
aVscanning
p92
aVwish-list_sff
p93
aVread-prior-to-1987
p94
aVfavorite_characters
p95
aVseries_started
p96
aVseries-complete
p97
aVformat-deadtree
p98
aVborrowed
p99
aVsci-fi
p100
asS'loc_class'
p101
S''
p102
sS'n_authors'
p103
I1
sb.