ccopy_reg
_reconstructor
p0
(cdataset.Book
Book
p1
c__builtin__
object
p2
Ntp3
Rp4
(dp5
S'content_name'
p6
V28438.txt.utf-8
p7
sS'isbn'
p8
NsS'year'
p9
I1957
sS'author_name'
p10
VRobert Shea
p11
sS'images_urls'
p12
(lp13
sS'language_code'
p14
NsS'images'
p15
(lp16
sS'id'
p17
I685
sS'category'
p18
VText
p19
sS'genres'
p20
(lp21
sS'copyright'
p22
VPublic domain in the USA.
p23
sS'title'
p24
VThe Helpful Robots
p25
sS'wikipedia'
p26
(dp27
S'found'
p28
I00
ssS'average_rating'
p29
F3.21
sS'rating_count'
p30
I6
sS'content_available'
p31
I01
sS'goodreads'
p32
(dp33
S'url'
p34
Vhttps://www.goodreads.com/book/show/6414271-the-helpful-robots
p35
sg28
I01
sS'year'
p36
I1957
ssS'similar_books'
p37
(lp38
sS'description'
p39
NsS'format'
p40
NsS'gutenberg'
p41
(dp42
g34
Vhttp://www.gutenberg.org/ebooks/28438
p43
sS'num'
p44
I28438
ssS'authors'
p45
(lp46
I154
asS'isbn13'
p47
NsS'language'
p48
VEnglish
p49
sS'countries'
p50
(lp51
I2
asS'release_date'
p52
S'2009-03-29T00:00:00'
p53
sS'author'
p54
I154
sS'content_cleaned'
p55
I01
sS'classes'
p56
(lp57
Vto-read
p58
aVscience-fiction
p59
aVshort-story
p60
aVowned-amazon
p61
aVtype-short-story
p62
asS'loc_class'
p63
VPS: Language and Literatures: American and Canadian literature
p64
sS'n_authors'
p65
I1
sb.