ccopy_reg
_reconstructor
p0
(cdataset.Book
Book
p1
c__builtin__
object
p2
Ntp3
Rp4
(dp5
S'content_name'
p6
V23678.txt.utf-8
p7
sS'isbn'
p8
NsS'year'
p9
I2004
sS'author_name'
p10
VBrander Matthews
p11
sS'images_urls'
p12
(lp13
Vhttp://www.gutenberg.org/files/23678/23678-h/images/001.jpg
p14
aVhttp://www.gutenberg.org/files/23678/23678-h/images/logo.jpg
p15
aVhttp://www.gutenberg.org/files/23678/23678-page-images/f001.png
p16
aVhttp://www.gutenberg.org/files/23678/23678-page-images/f002.png
p17
aVhttp://www.gutenberg.org/files/23678/23678-page-images/f003.png
p18
aVhttp://www.gutenberg.org/files/23678/23678-page-images/f004.png
p19
aVhttp://www.gutenberg.org/files/23678/23678-page-images/f005.png
p20
aVhttp://www.gutenberg.org/files/23678/23678-page-images/f006.png
p21
aVhttp://www.gutenberg.org/files/23678/23678-page-images/p003.png
p22
aVhttp://www.gutenberg.org/files/23678/23678-page-images/p004.png
p23
aVhttp://www.gutenberg.org/files/23678/23678-page-images/p005.png
p24
aVhttp://www.gutenberg.org/files/23678/23678-page-images/p006.png
p25
aVhttp://www.gutenberg.org/files/23678/23678-page-images/p007.png
p26
aVhttp://www.gutenberg.org/files/23678/23678-page-images/p008.png
p27
aVhttp://www.gutenberg.org/files/23678/23678-page-images/p009.png
p28
aVhttp://www.gutenberg.org/files/23678/23678-page-images/p010.png
p29
aVhttp://www.gutenberg.org/files/23678/23678-page-images/p011.png
p30
aVhttp://www.gutenberg.org/files/23678/23678-page-images/p012.png
p31
aVhttp://www.gutenberg.org/files/23678/23678-page-images/p013.png
p32
aVhttp://www.gutenberg.org/files/23678/23678-page-images/p014.png
p33
aVhttp://www.gutenberg.org/files/23678/23678-page-images/p015.png
p34
aVhttp://www.gutenberg.org/files/23678/23678-page-images/p016.png
p35
aVhttp://www.gutenberg.org/files/23678/23678-page-images/p017.png
p36
aVhttp://www.gutenberg.org/files/23678/23678-page-images/p018.png
p37
aVhttp://www.gutenberg.org/files/23678/23678-page-images/p019.png
p38
aVhttp://www.gutenberg.org/files/23678/23678-page-images/p020.png
p39
aVhttp://www.gutenberg.org/files/23678/23678-page-images/p021.png
p40
aVhttp://www.gutenberg.org/files/23678/23678-page-images/p022.png
p41
aVhttp://www.gutenberg.org/files/23678/23678-page-images/p023.png
p42
aVhttp://www.gutenberg.org/files/23678/23678-page-images/p024.png
p43
aVhttp://www.gutenberg.org/files/23678/23678-page-images/p025.png
p44
aVhttp://www.gutenberg.org/files/23678/23678-page-images/p026.png
p45
aVhttp://www.gutenberg.org/files/23678/23678-page-images/p027.png
p46
aVhttp://www.gutenberg.org/files/23678/23678-page-images/p028.png
p47
aVhttp://www.gutenberg.org/files/23678/23678-page-images/p029.png
p48
aVhttp://www.gutenberg.org/files/23678/23678-page-images/p030.png
p49
aVhttp://www.gutenberg.org/files/23678/23678-page-images/p031.png
p50
aVhttp://www.gutenberg.org/files/23678/23678-page-images/p032.png
p51
aVhttp://www.gutenberg.org/files/23678/23678-page-images/p033.png
p52
aVhttp://www.gutenberg.org/files/23678/23678-page-images/p034.png
p53
aVhttp://www.gutenberg.org/files/23678/23678-page-images/p035.png
p54
aVhttp://www.gutenberg.org/files/23678/23678-page-images/p036.png
p55
aVhttp://www.gutenberg.org/files/23678/23678-page-images/p037.png
p56
aVhttp://www.gutenberg.org/files/23678/23678-page-images/p038.png
p57
aVhttp://www.gutenberg.org/files/23678/23678-page-images/p039.png
p58
aVhttp://www.gutenberg.org/files/23678/23678-page-images/p040.png
p59
aVhttp://www.gutenberg.org/files/23678/23678-page-images/p041.png
p60
aVhttp://www.gutenberg.org/files/23678/23678-page-images/p042.png
p61
aVhttp://www.gutenberg.org/files/23678/23678-page-images/p043.png
p62
aVhttp://www.gutenberg.org/files/23678/23678-page-images/p044.png
p63
aVhttp://www.gutenberg.org/files/23678/23678-page-images/p045.png
p64
aVhttp://www.gutenberg.org/files/23678/23678-page-images/p046.png
p65
aVhttp://www.gutenberg.org/files/23678/23678-page-images/p047.png
p66
aVhttp://www.gutenberg.org/files/23678/23678-page-images/p048.png
p67
aVhttp://www.gutenberg.org/files/23678/23678-page-images/p049.png
p68
aVhttp://www.gutenberg.org/files/23678/23678-page-images/p050.png
p69
aVhttp://www.gutenberg.org/files/23678/23678-page-images/p051.png
p70
aVhttp://www.gutenberg.org/files/23678/23678-page-images/p052.png
p71
aVhttp://www.gutenberg.org/files/23678/23678-page-images/p053.png
p72
aVhttp://www.gutenberg.org/files/23678/23678-page-images/p054.png
p73
aVhttp://www.gutenberg.org/files/23678/23678-page-images/p055.png
p74
aVhttp://www.gutenberg.org/files/23678/23678-page-images/p056.png
p75
aVhttp://www.gutenberg.org/files/23678/23678-page-images/p057.png
p76
aVhttp://www.gutenberg.org/files/23678/23678-page-images/p058.png
p77
aVhttp://www.gutenberg.org/files/23678/23678-page-images/p059.png
p78
aVhttp://www.gutenberg.org/files/23678/23678-page-images/p060.png
p79
aVhttp://www.gutenberg.org/files/23678/23678-page-images/p061.png
p80
aVhttp://www.gutenberg.org/files/23678/23678-page-images/p062.png
p81
aVhttp://www.gutenberg.org/files/23678/23678-page-images/p063.png
p82
aVhttp://www.gutenberg.org/files/23678/23678-page-images/p064.png
p83
aVhttp://www.gutenberg.org/files/23678/23678-page-images/p065.png
p84
aVhttp://www.gutenberg.org/files/23678/23678-page-images/p066.png
p85
aVhttp://www.gutenberg.org/files/23678/23678-page-images/p067.png
p86
aVhttp://www.gutenberg.org/files/23678/23678-page-images/p068.png
p87
aVhttp://www.gutenberg.org/files/23678/23678-page-images/p069.png
p88
aVhttp://www.gutenberg.org/files/23678/23678-page-images/p070.png
p89
aVhttp://www.gutenberg.org/files/23678/23678-page-images/p071.png
p90
aVhttp://www.gutenberg.org/files/23678/23678-page-images/p072.png
p91
aVhttp://www.gutenberg.org/files/23678/23678-page-images/p073.png
p92
aVhttp://www.gutenberg.org/files/23678/23678-page-images/p074.png
p93
aVhttp://www.gutenberg.org/files/23678/23678-page-images/p075.png
p94
aVhttp://www.gutenberg.org/files/23678/23678-page-images/p076.png
p95
aVhttp://www.gutenberg.org/files/23678/23678-page-images/p077.png
p96
aVhttp://www.gutenberg.org/files/23678/23678-page-images/p078.png
p97
aVhttp://www.gutenberg.org/files/23678/23678-page-images/p079.png
p98
aVhttp://www.gutenberg.org/files/23678/23678-page-images/p080.png
p99
aVhttp://www.gutenberg.org/files/23678/23678-page-images/p081.png
p100
aVhttp://www.gutenberg.org/files/23678/23678-page-images/p082.png
p101
aVhttp://www.gutenberg.org/files/23678/23678-page-images/p083.png
p102
aVhttp://www.gutenberg.org/files/23678/23678-page-images/p084.png
p103
aVhttp://www.gutenberg.org/files/23678/23678-page-images/p085.png
p104
aVhttp://www.gutenberg.org/files/23678/23678-page-images/p086.png
p105
aVhttp://www.gutenberg.org/files/23678/23678-page-images/p087.png
p106
aVhttp://www.gutenberg.org/files/23678/23678-page-images/p088.png
p107
aVhttp://www.gutenberg.org/files/23678/23678-page-images/p089.png
p108
aVhttp://www.gutenberg.org/files/23678/23678-page-images/p090.png
p109
aVhttp://www.gutenberg.org/files/23678/23678-page-images/p091.png
p110
aVhttp://www.gutenberg.org/files/23678/23678-page-images/p092.png
p111
aVhttp://www.gutenberg.org/files/23678/23678-page-images/p093.png
p112
aVhttp://www.gutenberg.org/files/23678/23678-page-images/p094.png
p113
aVhttp://www.gutenberg.org/files/23678/23678-page-images/p095.png
p114
aVhttp://www.gutenberg.org/files/23678/23678-page-images/p096.png
p115
aVhttp://www.gutenberg.org/files/23678/23678-page-images/p097.png
p116
aVhttp://www.gutenberg.org/files/23678/23678-page-images/p098.png
p117
aVhttp://www.gutenberg.org/files/23678/23678-page-images/p099.png
p118
aVhttp://www.gutenberg.org/files/23678/23678-page-images/p100.png
p119
aVhttp://www.gutenberg.org/files/23678/23678-page-images/p101.png
p120
aVhttp://www.gutenberg.org/files/23678/23678-page-images/p102.png
p121
aVhttp://www.gutenberg.org/files/23678/23678-page-images/p103.png
p122
aVhttp://www.gutenberg.org/files/23678/23678-page-images/p104.png
p123
aVhttp://www.gutenberg.org/files/23678/23678-page-images/p105.png
p124
aVhttp://www.gutenberg.org/files/23678/23678-page-images/p106.png
p125
aVhttp://www.gutenberg.org/files/23678/23678-page-images/p107.png
p126
aVhttp://www.gutenberg.org/files/23678/23678-page-images/p108.png
p127
aVhttp://www.gutenberg.org/files/23678/23678-page-images/p109.png
p128
aVhttp://www.gutenberg.org/files/23678/23678-page-images/p110.png
p129
aVhttp://www.gutenberg.org/files/23678/23678-page-images/p111.png
p130
aVhttp://www.gutenberg.org/files/23678/23678-page-images/p112.png
p131
aVhttp://www.gutenberg.org/files/23678/23678-page-images/p113.png
p132
aVhttp://www.gutenberg.org/files/23678/23678-page-images/p114.png
p133
aVhttp://www.gutenberg.org/files/23678/23678-page-images/p115.png
p134
aVhttp://www.gutenberg.org/files/23678/23678-page-images/p116.png
p135
aVhttp://www.gutenberg.org/files/23678/23678-page-images/p117.png
p136
aVhttp://www.gutenberg.org/files/23678/23678-page-images/p118.png
p137
aVhttp://www.gutenberg.org/files/23678/23678-page-images/p119.png
p138
aVhttp://www.gutenberg.org/files/23678/23678-page-images/p120.png
p139
aVhttp://www.gutenberg.org/files/23678/23678-page-images/p121.png
p140
aVhttp://www.gutenberg.org/files/23678/23678-page-images/p122.png
p141
aVhttp://www.gutenberg.org/files/23678/23678-page-images/p123.png
p142
aVhttp://www.gutenberg.org/files/23678/23678-page-images/p124.png
p143
aVhttp://www.gutenberg.org/files/23678/23678-page-images/p125.png
p144
aVhttp://www.gutenberg.org/files/23678/23678-page-images/p126.png
p145
aVhttp://www.gutenberg.org/files/23678/23678-page-images/p127.png
p146
aVhttp://www.gutenberg.org/files/23678/23678-page-images/p128.png
p147
aVhttp://www.gutenberg.org/files/23678/23678-page-images/p129.png
p148
aVhttp://www.gutenberg.org/files/23678/23678-page-images/p130.png
p149
aVhttp://www.gutenberg.org/files/23678/23678-page-images/p131.png
p150
aVhttp://www.gutenberg.org/files/23678/23678-page-images/p132.png
p151
aVhttp://www.gutenberg.org/files/23678/23678-page-images/p133.png
p152
aVhttp://www.gutenberg.org/files/23678/23678-page-images/p134.png
p153
aVhttp://www.gutenberg.org/files/23678/23678-page-images/p135.png
p154
aVhttp://www.gutenberg.org/files/23678/23678-page-images/p136.png
p155
aVhttp://www.gutenberg.org/files/23678/23678-page-images/p137.png
p156
aVhttp://www.gutenberg.org/files/23678/23678-page-images/p138.png
p157
aVhttp://www.gutenberg.org/files/23678/23678-page-images/p139.png
p158
aVhttp://www.gutenberg.org/files/23678/23678-page-images/p140.png
p159
aVhttp://www.gutenberg.org/files/23678/23678-page-images/p141.png
p160
aVhttp://www.gutenberg.org/files/23678/23678-page-images/p142.png
p161
aVhttp://www.gutenberg.org/files/23678/23678-page-images/p143.png
p162
aVhttp://www.gutenberg.org/files/23678/23678-page-images/p144.png
p163
aVhttp://www.gutenberg.org/files/23678/23678-page-images/p145.png
p164
aVhttp://www.gutenberg.org/files/23678/23678-page-images/p146.png
p165
aVhttp://www.gutenberg.org/files/23678/23678-page-images/p147.png
p166
aVhttp://www.gutenberg.org/files/23678/23678-page-images/p148.png
p167
aVhttp://www.gutenberg.org/files/23678/23678-page-images/p149.png
p168
aVhttp://www.gutenberg.org/files/23678/23678-page-images/p150.png
p169
aVhttp://www.gutenberg.org/files/23678/23678-page-images/p151.png
p170
aVhttp://www.gutenberg.org/files/23678/23678-page-images/p152.png
p171
aVhttp://www.gutenberg.org/files/23678/23678-page-images/p153.png
p172
aVhttp://www.gutenberg.org/files/23678/23678-page-images/p154.png
p173
aVhttp://www.gutenberg.org/files/23678/23678-page-images/p155.png
p174
aVhttp://www.gutenberg.org/files/23678/23678-page-images/p156.png
p175
aVhttp://www.gutenberg.org/files/23678/23678-page-images/p157.png
p176
aVhttp://www.gutenberg.org/files/23678/23678-page-images/p158.png
p177
aVhttp://www.gutenberg.org/files/23678/23678-page-images/p159.png
p178
aVhttp://www.gutenberg.org/files/23678/23678-page-images/p160.png
p179
aVhttp://www.gutenberg.org/files/23678/23678-page-images/p161.png
p180
aVhttp://www.gutenberg.org/files/23678/23678-page-images/p162.png
p181
aVhttp://www.gutenberg.org/files/23678/23678-page-images/p163.png
p182
aVhttp://www.gutenberg.org/files/23678/23678-page-images/p164.png
p183
aVhttp://www.gutenberg.org/files/23678/23678-page-images/p165.png
p184
aVhttp://www.gutenberg.org/files/23678/23678-page-images/p166.png
p185
aVhttp://www.gutenberg.org/files/23678/23678-page-images/p167.png
p186
aVhttp://www.gutenberg.org/files/23678/23678-page-images/p168.png
p187
aVhttp://www.gutenberg.org/files/23678/23678-page-images/p169.png
p188
aVhttp://www.gutenberg.org/files/23678/23678-page-images/p170.png
p189
aVhttp://www.gutenberg.org/files/23678/23678-page-images/p171.png
p190
aVhttp://www.gutenberg.org/files/23678/23678-page-images/p172.png
p191
aVhttp://www.gutenberg.org/files/23678/23678-page-images/p173.png
p192
aVhttp://www.gutenberg.org/files/23678/23678-page-images/p174.png
p193
aVhttp://www.gutenberg.org/files/23678/23678-page-images/p175.png
p194
aVhttp://www.gutenberg.org/files/23678/23678-page-images/p176.png
p195
aVhttp://www.gutenberg.org/files/23678/23678-page-images/p177.png
p196
aVhttp://www.gutenberg.org/files/23678/23678-page-images/p178.png
p197
aVhttp://www.gutenberg.org/files/23678/23678-page-images/p179.png
p198
aVhttp://www.gutenberg.org/files/23678/23678-page-images/p180.png
p199
aVhttp://www.gutenberg.org/files/23678/23678-page-images/p181.png
p200
aVhttp://www.gutenberg.org/files/23678/23678-page-images/p182.png
p201
aVhttp://www.gutenberg.org/files/23678/23678-page-images/p183.png
p202
aVhttp://www.gutenberg.org/files/23678/23678-page-images/p184.png
p203
aVhttp://www.gutenberg.org/files/23678/23678-page-images/p185.png
p204
aVhttp://www.gutenberg.org/files/23678/23678-page-images/p186.png
p205
aVhttp://www.gutenberg.org/files/23678/23678-page-images/p187.png
p206
aVhttp://www.gutenberg.org/files/23678/23678-page-images/p188.png
p207
aVhttp://www.gutenberg.org/files/23678/23678-page-images/p189.png
p208
aVhttp://www.gutenberg.org/files/23678/23678-page-images/p190.png
p209
aVhttp://www.gutenberg.org/files/23678/23678-page-images/p191.png
p210
aVhttp://www.gutenberg.org/files/23678/23678-page-images/p192.png
p211
aVhttp://www.gutenberg.org/files/23678/23678-page-images/p193.png
p212
aVhttp://www.gutenberg.org/files/23678/23678-page-images/p194.png
p213
aVhttp://www.gutenberg.org/files/23678/23678-page-images/p195.png
p214
aVhttp://www.gutenberg.org/files/23678/23678-page-images/p196.png
p215
aVhttp://www.gutenberg.org/files/23678/23678-page-images/p197.png
p216
aVhttp://www.gutenberg.org/files/23678/23678-page-images/p198.png
p217
aVhttp://www.gutenberg.org/files/23678/23678-page-images/p199.png
p218
aVhttp://www.gutenberg.org/files/23678/23678-page-images/p200.png
p219
aVhttp://www.gutenberg.org/files/23678/23678-page-images/p201.png
p220
aVhttp://www.gutenberg.org/files/23678/23678-page-images/p202.png
p221
aVhttp://www.gutenberg.org/files/23678/23678-page-images/p203.png
p222
aVhttp://www.gutenberg.org/files/23678/23678-page-images/p204.png
p223
aVhttp://www.gutenberg.org/files/23678/23678-page-images/p205.png
p224
aVhttp://www.gutenberg.org/files/23678/23678-page-images/p206.png
p225
aVhttp://www.gutenberg.org/files/23678/23678-page-images/p207.png
p226
aVhttp://www.gutenberg.org/files/23678/23678-page-images/p208.png
p227
aVhttp://www.gutenberg.org/files/23678/23678-page-images/p209.png
p228
aVhttp://www.gutenberg.org/files/23678/23678-page-images/p210.png
p229
aVhttp://www.gutenberg.org/files/23678/23678-page-images/p211.png
p230
aVhttp://www.gutenberg.org/files/23678/23678-page-images/p212.png
p231
aVhttp://www.gutenberg.org/files/23678/23678-page-images/p213.png
p232
aVhttp://www.gutenberg.org/files/23678/23678-page-images/p214.png
p233
aVhttp://www.gutenberg.org/files/23678/23678-page-images/p215.png
p234
aVhttp://www.gutenberg.org/files/23678/23678-page-images/p216.png
p235
asS'language_code'
p236
NsS'images'
p237
(lp238
sS'id'
p239
I846
sS'category'
p240
VText
p241
sS'genres'
p242
(lp243
sS'copyright'
p244
VPublic domain in the USA.
p245
sS'title'
p246
VTales of Fantasy and Fact
p247
sS'wikipedia'
p248
(dp249
S'found'
p250
I00
ssS'average_rating'
p251
F3.22
sS'rating_count'
p252
I5
sS'content_available'
p253
I01
sS'goodreads'
p254
(dp255
S'url'
p256
Vhttps://www.goodreads.com/book/show/19070171-tales-of-fantasy-and-fact
p257
sg250
I01
sS'year'
p258
I2004
ssS'similar_books'
p259
(lp260
sS'description'
p261
NsS'format'
p262
NsS'gutenberg'
p263
(dp264
g256
Vhttp://www.gutenberg.org/ebooks/23678
p265
sS'num'
p266
I23678
ssS'authors'
p267
(lp268
I265
asS'isbn13'
p269
NsS'language'
p270
VEnglish
p271
sS'country'
p272
I3
sS'release_date'
p273
S'2007-12-02T00:00:00'
p274
sS'author'
p275
I265
sS'content_cleaned'
p276
I01
sS'classes'
p277
(lp278
Vto-read
p279
aVcurrently-reading
p280
aVkindle-cleaning
p281
aVquick-read-mystery-adventure
p282
aVread-2011-to-2013
p283
aVread-2010-to-2012
p284
aVreviews
p285
aVfinished
p286
aVthree-star
p287
aVshort-stories
p288
aVfiction
p289
aVowned
p290
aVowned-ebook
p291
aVread-2010-to-2014
p292
asS'loc_class'
p293
VPS: Language and Literatures: American and Canadian literature
p294
sS'n_authors'
p295
I1
sb.