ccopy_reg
_reconstructor
p0
(cdataset.Book
Book
p1
c__builtin__
object
p2
Ntp3
Rp4
(dp5
S'similar_books'
p6
(lp7
sS'genres'
p8
(lp9
sS'author'
p10
I918
sS'countries'
p11
(lp12
I2
asS'year'
p13
I1969
sS'title'
p14
VIF Magazine November 1969
p15
sS'cover'
p16
Vhttps://ia600200.us.archive.org/BookReader/BookReaderImages.php?zip=/35/items/1969-11_IF/1969-11_IF_jp2.zip&file=1969-11_IF_jp2/1969-11_IF_0000.jp2&scale=0&rotate=0
p17
sS'cover_art'
p18
S'http://www.isfdb.org/wiki/images/6/64/WOFIFNOV1969.jpg'
p19
sS'author_name'
p20
VIF Magazine
p21
sS'images_urls'
p22
(lp23
sS'authors'
p24
(lp25
I326
aI499
aI667
aI339
aI356
aI645
aI67
aI1192
aI1165
aI166
aI558
aI1193
aI918
asS'images'
p26
(lp27
sS'id'
p28
I1359
sS'contents'
p29
(lp30
(dp31
g10
I326
sg14
VHappiness Is a Warm Spaceship
p32
sa(dp33
g10
I326
sg14
VTo Kill a World
p34
sa(dp35
g10
I326
sg14
VFor Sacred San Francisco
p36
sa(dp37
g10
I326
sg14
VBy Civilized Standards
p38
sa(dp39
g10
I326
sg14
VThe Seeds of Gonyl (Part 2 of 3)
p40
sa(dp41
g10
I499
sg14
VAppropriate Punishment
p42
sa(dp43
g10
I667
sg14
VEditor's Page: The Dream Keepers
p44
sa(dp45
g10
I326
sg14
VSf Calendar (If, November 1969)
p46
sa(dp47
g10
I339
sg14
VThe Story of Our Earth: The Conquest of the Land
p48
sa(dp49
g10
I356
sg14
VReading Room (If, November 1969)
p50
sa(dp51
g10
I667
sg14
VHue and Cry (If, November 1969)
p52
sa(dp53
g10
I645
sg14
VHappiness Is a Warm Spaceship
p54
sa(dp55
g10
I67
sg14
VThe Seeds of Gonyl (Part 2 of 3)
p56
sa(dp57
g10
I1192
sg14
VTo Kill a World
p58
sa(dp59
g10
I1165
sg14
VGenemaster
p60
sa(dp61
g10
I166
sg14
VFor Sacred San Francisco
p62
sa(dp63
g10
I558
sg14
VBy Civilized Standards
p64
sa(dp65
g10
I1193
sg14
VAppropriate Punishment
p66
sasb.