ccopy_reg
_reconstructor
p0
(cdataset.Book
Book
p1
c__builtin__
object
p2
Ntp3
Rp4
(dp5
S'similar_books'
p6
(lp7
sS'genres'
p8
(lp9
sS'author'
p10
I302
sS'countries'
p11
(lp12
I2
asS'year'
p13
I1967
sS'title'
p14
VGalaxy Magazine February 1967
p15
sS'cover'
p16
Vhttps://ia800200.us.archive.org/BookReader/BookReaderImages.php?zip=/5/items/Galaxy_v25n03_1967-02/Galaxy_v25n03_1967-02_jp2.zip&file=Galaxy_v25n03_1967-02_jp2/Galaxy_v25n03_1967-02_0000.jp2&scale=0&rotate=0
p17
sS'cover_art'
p18
S'http://www.isfdb.org/wiki/images/7/7b/GALFEB67.jpg'
p19
sS'author_name'
p20
VGalaxy Magazine
p21
sS'images_urls'
p22
(lp23
sS'authors'
p24
(lp25
I499
aI615
aI545
aI40
aI339
aI326
aI91
aI217
aI602
aI89
aI8
aI158
aI81
aI74
aI608
aI302
asS'images'
p26
(lp27
sS'id'
p28
I1116
sS'contents'
p29
(lp30
(dp31
S'title'
p32
VOur Man in Peking
p33
sS'author'
p34
I499
sa(dp35
g32
VOur Man in Peking [2]
p36
sg34
I499
sa(dp37
g32
VOur Man in Peking [3]
p38
sg34
I499
sa(dp39
g32
VOur Man in Peking [4]
p40
sg34
I499
sa(dp41
g32
VThey Hilariated When I Hyperspaced for Earth
p42
sg34
I615
sa(dp43
g32
VThey Hilariated When I Hyperspaced for Earth [2]
p44
sg34
I615
sa(dp45
g32
VThey Hilariated When I Hyperspaced for Earth [3]
p46
sg34
I615
sa(dp47
g32
VThey Hilariated When I Hyperspaced for Earth [4]
p48
sg34
I615
sa(dp49
g32
VThe Palace of Love (Part 3 of 3)
p50
sg34
I545
sa(dp51
g32
VThe Palace of Love (Part 3 of 3) [2]
p52
sg34
I545
sa(dp53
g32
VMore About Being Bad
p54
sg34
I40
sa(dp55
g32
VFor Your Information: Who Invented the Crossbow?
p56
sg34
I339
sa(dp57
g32
VForecast (Galaxy, February 1967)
p58
sg34
I326
sa(dp59
g32
VGalaxy Bookshelf (Galaxy, February 1967)
p60
sg34
I91
sa(dp61
g32
VThey Hilariated When I Hyperspaced for Earth
p62
sg34
I217
sa(dp63
g32
VOur Man in Peking
p64
sg34
I602
sa(dp65
g32
VThe Palace of Love (Part 3 of 3)
p66
sg34
I89
sa(dp67
g32
VReturn Match
p68
sg34
I8
sa(dp69
g32
VThe Last Filibuster
p70
sg34
I158
sa(dp71
g32
VThe Trojan Bombardment
p72
sg34
I81
sa(dp73
g32
VThus We Frustrate Charlemagne
p74
sg34
I74
sa(dp75
g32
VThe Discovery of the Nullitron
p76
sg34
I608
sasb.