ccopy_reg
_reconstructor
p0
(cdataset.Book
Book
p1
c__builtin__
object
p2
Ntp3
Rp4
(dp5
S'content_name'
p6
V51741.txt.utf-8
p7
sS'year'
p8
I1960
sS'author_name'
p9
VH. B. Fyfe
p10
sS'images_urls'
p11
(lp12
Vhttp://www.gutenberg.org/files/51741/51741-h/images/cover.jpg
p13
aVhttp://www.gutenberg.org/files/51741/51741-h/images/illus1.jpg
p14
aVhttp://www.gutenberg.org/files/51741/51741-h/images/illus2.jpg
p15
asS'images'
p16
(lp17
sS'id'
p18
I603
sS'category'
p19
VText
p20
sS'genres'
p21
(lp22
sS'copyright'
p23
VPublic domain in the USA.
p24
sS'title'
p25
VRound-and-Round Trip
p26
sS'wikipedia'
p27
(dp28
S'found'
p29
I00
ssS'average_rating'
p30
F4.23
sS'content_available'
p31
I01
sS'cover_art_url'
p32
S'http://www.gutenberg.org/cache/epub/51741/pg51741.cover.medium.jpg'
p33
sS'goodreads'
p34
(dp35
S'found'
p36
I00
ssS'gutenberg'
p37
(dp38
S'url'
p39
Vhttp://www.gutenberg.org/ebooks/51741
p40
sS'num'
p41
I51741
ssS'authors'
p42
(lp43
I94
asS'language'
p44
VEnglish
p45
sS'countries'
p46
(lp47
I2
asS'release_date'
p48
S'2016-04-12T00:00:00'
p49
sS'author'
p50
I94
sS'cover'
p51
Vhttps://s.gr-assets.com/assets/nophoto/book/111x148-bcc042a9c91a29c1d680899eff700a03.png
p52
sS'content_cleaned'
p53
I01
sS'loc_class'
p54
S''
p55
sS'n_authors'
p56
I1
sb.