ccopy_reg
_reconstructor
p0
(cdataset.Book
Book
p1
c__builtin__
object
p2
Ntp3
Rp4
(dp5
S'content_name'
p6
V28644.txt.utf-8
p7
sS'isbn'
p8
NsS'year'
p9
I1954
sS'author_name'
p10
VPhilip K. Dick
p11
sS'images_urls'
p12
(lp13
Vhttp://www.gutenberg.org/files/28644/28644-h/images/001-1.jpg
p14
aVhttp://www.gutenberg.org/files/28644/28644-h/images/001-2.jpg
p15
asS'language_code'
p16
Veng
p17
sS'images'
p18
(lp19
sS'id'
p20
I14
sS'category'
p21
VText
p22
sS'plot'
p23
VLarry Thomas buys a cuckoo clock for his wife Doris, just like her mother had. He makes clear that he bought it wholesale and otherwise ruins the moment. Doris talks to the cuckoo and becomes convinced that the cuckoo likes her but does not like Larry. Larry is being cuckolded by antique-enthusiast Bob Chambers. When he is at the Thomas' house, and Doris is showing him the clock, Larry returns home unexpectedly and catches them; he throws both out but keeps the clock because he paid for it. Larry keeps winding the clock because he dislikes the empty, quiet house. The clock sometimes does not chime for Larry, who ends up arguing with the cuckoo for not coming out when he should. Eventually, he threatens the clock with a hammer. At this point the cuckoo comes out and catches him in the eye, causing him to fall off a chair and break his neck in the fall. His death is judged an accident by a doctor but Bob thinks "something else" might be the cause.
p24
sS'genres'
p25
(lp26
sS'copyright'
p27
VPublic domain in the USA.
p28
sS'title'
p29
VBeyond the Door
p30
sS'wikipedia'
p31
(dp32
S'url'
p33
Vhttps://en.wikipedia.org/wiki/Beyond_the_Door_(short_story)
p34
sS'found'
p35
I01
sS'year'
p36
I-1
ssS'published_in'
p37
NsS'average_rating'
p38
F3.04
sS'rating_count'
p39
I662
sS'content_available'
p40
I01
sS'goodreads'
p41
(dp42
g33
Vhttps://www.goodreads.com/book/show/6468230-beyond-the-door
p43
sg35
I01
sg36
I1954
ssS'similar_books'
p44
(lp45
VEven the Queen: & Other Short Stories
p46
aVSailing to Byzantium
p47
aVChristmas in the Trenches
p48
aVWith Morning Comes Mistfall
p49
aVDer Struwwelpeter
p50
aVClifford Gets a Job
p51
aVThe Traveler
p52
aVThe Snows of Kilimanjaro/The Short Happy Life of Francis Macomber
p53
aVFairy Tales of Oscar Wilde: The Devoted Friend/The Nightingale and the Rose
p54
aVPigs Is Pigs
p55
aVThe Elephant Vanishes: Free Short Story
p56
aVGod Sees the Truth, but Waits
p57
aVPress Enter
p58
aVThe Boy Who Cried Wolf
p59
aVThe U.S. Constitution: And Fascinating Facts about It
p60
aVThe Unveiling
p61
aVThe Children's Story
p62
aVThe Rover
p63
asS'description'
p64
NsS'format'
p65
NsS'gutenberg'
p66
(dp67
g33
Vhttp://www.gutenberg.org/ebooks/28644
p68
sS'num'
p69
I28644
ssS'authors'
p70
(lp71
I8
asS'isbn13'
p72
NsS'language'
p73
VEnglish
p74
sS'countries'
p75
(lp76
I2
asS'release_date'
p77
S'2009-04-30T00:00:00'
p78
sS'author'
p79
I8
sS'original_title'
p80
VBeyond the Door (short story)
p81
sS'summary'
p82
V"Beyond the Door" is a low fantasy short story by American writer Philip K. Dick, first published in the January 1954 issue of Fantastic Universe. The plot follows a cuckoo clock, which may or may not be intelligent, and a cuckolded husband.
p83
sS'content_cleaned'
p84
I01
sS'classes'
p85
(lp86
Vto-read
p87
aVshort-stories
p88
aVscience-fiction
p89
aVfiction
p90
aVsci-fi
p91
aVfantasy
p92
aVkindle
p93
aVcurrently-reading
p94
aVebooks
p95
aVhorror
p96
aVshort-story
p97
aVebook
p98
aVphilip-k-dick
p99
aVclassics
p100
aVe-book
p101
aVscifi
p102
aVe-books
p103
aVsf
p104
aVaudiobooks
p105
aV1950s
p106
aVown-kindle
p107
aVsci-fi-fantasy
p108
aVread-in-2016
p109
aVshortstories
p110
aVother
p111
aVbooks-i-own
p112
aVibooks
p113
aVfreebies
p114
aVowned-books
p115
aVamazon
p116
aVaudiobook
p117
aVread-2013
p118
aVshorts
p119
aVstories
p120
aVowned
p121
aVowned-to-read
p122
aVaudio-books
p123
aVnovels
p124
aVnook
p125
aVscifi-fantasy
p126
aVfavorites
p127
aVsci-fic
p128
aV2oth-century
p129
aVto-read-short-story
p130
aVweird-fiction
p131
aV20th-c-amer
p132
aV2017-read
p133
aVfg
p134
aVon-ebook
p135
aVread-in-2017
p136
aVebook-short-stories
p137
aVroman
p138
aVamerican
p139
aVi-own
p140
aVdick-philip
p141
aVficcao
p142
aV20th-century-literature
p143
aVowned-drm-free-ebook
p144
aV2016-reading-challenge
p145
aVsci-fi-and-fantasy-fiction
p146
aVfree-on-kindle
p147
aVunsorted-read
p148
aVon-librivox-web-site
p149
aVshort-fiction
p150
aVstand-alone
p151
aVdigital-copy
p152
aVplex-audiobooks
p153
aVaudio
p154
aVonline
p155
aVtbr
p156
aV_audiobooks
p157
aVclassic
p158
aVenglish-edition
p159
aVlistened-audiobooos
p160
aVread-short-stories
p161
aVaudiobook_2014
p162
aV2016-first-time-read
p163
aV4-stars
p164
aVg-authors
p165
aVon-kobo
p166
aVown-audiobook
p167
aVmoon-reader
p168
aVlr-english
p169
aV20th-century
p170
aVbooks
p171
aVz_fiction
p172
aVx_shortstory
p173
aVanthos-shorts
p174
aV2015-challenge-oldish
p175
aVp-k-d
p176
aVus
p177
aVmy-ebooks
p178
aVpkd-project
p179
aV2015-readings
p180
aVloc-kindle
p181
aVauthor-male
p182
aVwhy-havent-i-read-this-earlier
p183
aVw_us_modern
p184
aVone-nighter
p185
aVkindle-books-i-own
p186
asS'loc_class'
p187
VPS: Language and Literatures: American and Canadian literature
p188
sS'n_authors'
p189
I1
sb.