ccopy_reg
_reconstructor
p0
(cdataset.Book
Book
p1
c__builtin__
object
p2
Ntp3
Rp4
(dp5
S'content_name'
p6
V50682.txt.utf-8
p7
sS'isbn'
p8
NsS'year'
p9
I1955
sS'author_name'
p10
VE. Everett Evans
p11
sS'images_urls'
p12
(lp13
Vhttp://www.gutenberg.org/files/50682/50682-h/images/cover.jpg
p14
asS'language_code'
p15
Veng
p16
sS'images'
p17
(lp18
sS'id'
p19
I640
sS'category'
p20
VText
p21
sS'genres'
p22
(lp23
sS'copyright'
p24
VPublic domain in the USA.
p25
sS'title'
p26
VThe Planet Mappers
p27
sS'wikipedia'
p28
(dp29
S'url'
p30
Vhttps://en.wikipedia.org/wiki/Maps_in_a_Mirror
p31
sS'found'
p32
I01
sS'year'
p33
I-1
ssS'published_in'
p34
NsS'average_rating'
p35
F2.9
sS'rating_count'
p36
I8
sS'content_available'
p37
I01
sS'cover_art_url'
p38
S'http://www.gutenberg.org/cache/epub/50682/pg50682.cover.medium.jpg'
p39
sS'goodreads'
p40
(dp41
g30
Vhttps://www.goodreads.com/book/show/28249423-the-planet-mappers
p42
sg32
I01
sg33
I1955
ssS'similar_books'
p43
(lp44
sS'description'
p45
V"An Adventure Story in the Space World of Tomorrow"<br /><br />Space pioneer Tad Carver has brought his family on an expedition to look for new planets suitable for colonization. When Tad is badly hurt, his sons and wife must continue with the mission.
p46
sS'format'
p47
Vebook
p48
sS'gutenberg'
p49
(dp50
g30
Vhttp://www.gutenberg.org/ebooks/50682
p51
sS'num'
p52
I50682
ssS'authors'
p53
(lp54
I38
asS'isbn13'
p55
NsS'language'
p56
VEnglish
p57
sS'countries'
p58
(lp59
I2
asS'release_date'
p60
S'2015-12-13T00:00:00'
p61
sS'author'
p62
I38
sS'original_title'
p63
VMaps in a Mirror
p64
sS'summary'
p65
VMaps in a Mirror (1990) is a collection of short stories by American writer Orson Scott Card. Like Card's novels, most of the stories have a science fiction or fantasy theme. Some of the stories, such as "Ender's Game", "Lost Boys", and "Mikal's Songbird" were later expanded into novels. Each of the smaller volumes that make up the larger collection as a whole are centered on a theme or genre. For instance, Volume 1, The Changed Man, reprints several of Card's horror stories. The collection won the Locus Award in 1991.
p66
sS'content_cleaned'
p67
I01
sS'classes'
p68
(lp69
Vto-read
p70
aVin-2017
p71
aVseriel-reads
p72
aVe-books
p73
aV20th-century-lit
p74
aVrpg_unused
p75
aV2016-reads
p76
aVyoung-adult
p77
aVscience-fiction
p78
aVproject-gutenberg
p79
asS'loc_class'
p80
S''
p81
sS'n_authors'
p82
I1
sb.