ccopy_reg
_reconstructor
p0
(cdataset.Book
Book
p1
c__builtin__
object
p2
Ntp3
Rp4
(dp5
S'content_name'
p6
V28650.txt.utf-8
p7
sS'isbn'
p8
NsS'year'
p9
I1954
sS'author_name'
p10
VMarion Zimmer Bradley
p11
sS'images_urls'
p12
(lp13
sS'language_code'
p14
Veng
p15
sS'images'
p16
(lp17
sS'id'
p18
I196
sS'category'
p19
VText
p20
sS'genres'
p21
(lp22
sS'copyright'
p23
VPublic domain in the USA.
p24
sS'title'
p25
VYear of the Big Thaw
p26
sS'wikipedia'
p27
(dp28
S'found'
p29
I00
ssS'average_rating'
p30
F3.39
sS'rating_count'
p31
I67
sS'content_available'
p32
I01
sS'goodreads'
p33
(dp34
S'url'
p35
Vhttps://www.goodreads.com/book/show/6459428-year-of-the-big-thaw
p36
sg29
I01
sS'year'
p37
I1954
ssS'similar_books'
p38
(lp39
sS'description'
p40
VBradley stated that when she was a child she enjoyed reading adventure fantasy authors such as Henry Kuttner, Edmond Hamilton, C.L. Moore, and Leigh Brackett, especially when they wrote about "the glint of strange suns on worlds that never were and never would be." In this warm and fanciful story of a Connecticut farmer, Marion Zimmer Bradley has caught some of the glory that is man's love for man -- no matter who he is nor whence he's from. By heck, you'll like little Matt.
p41
sS'gutenberg'
p42
(dp43
g35
Vhttp://www.gutenberg.org/ebooks/28650
p44
sS'num'
p45
I28650
ssS'authors'
p46
(lp47
I25
asS'pages'
p48
I18
sS'isbn13'
p49
NsS'language'
p50
VEnglish
p51
sS'countries'
p52
(lp53
I2
asS'release_date'
p54
S'2009-05-01T00:00:00'
p55
sS'author'
p56
I25
sS'cover'
p57
Vhttps://s.gr-assets.com/assets/nophoto/book/111x148-bcc042a9c91a29c1d680899eff700a03.png
p58
sS'content_cleaned'
p59
I01
sS'classes'
p60
(lp61
Vto-read
p62
aVscience-fiction
p63
aVsci-fi
p64
aVfiction
p65
aVebooks
p66
aVcurrently-reading
p67
aVshort-stories
p68
aVsf
p69
aVkindle
p70
aVnot-read
p71
aVshort
p72
aVmarion-zimmer-bradley
p73
aVamazon
p74
aVpublic-library
p75
aVowned
p76
aVbbpost
p77
aVx-read-2017
p78
aV01-scifi
p79
aV01-pulp
p80
aVfantasy
p81
aVshelved-tbr
p82
aVlit-usa
p83
aValdiko
p84
aVfavorites
p85
aVwomen
p86
aVamerican
p87
aVcm
p88
aVown-unread
p89
aVscifi
p90
aVcomic-books
p91
aVkindle-freebie
p92
aVfantasy-sci-fi
p93
aVthree-star-books
p94
aVodd
p95
aVkindle-books
p96
aVgeneral-supernatural-fiction
p97
aVowned-pending-kindle-free-ebook
p98
aVkindle-free-ebook
p99
aVfree
p100
aVshort-stuff
p101
aVquinn-elementary
p102
aVfunny-stuff
p103
aVenglish-owned-high
p104
aVscience-fiction-fantasy
p105
aVsfbywomen
p106
aVw_us_modern
p107
aVpurchased-to-read
p108
aVshort-story
p109
aVaudio-obtained-lvss
p110
aVunread
p111
aVebook-sets
p112
aVhumor
p113
aVereader
p114
aVowned-ebooks
p115
aVto-read-fantasy
p116
aV1950s
p117
aVelectronic
p118
aVfeedbooks-com
p119
aVthe-freebie-queue
p120
aVkobo-ebook
p121
aVomnibus-anthology-shorts
p122
aVf-sf-horror
p123
aVhave
p124
aVsci-fi-and-fantasy
p125
aVi-really-like-this-author
p126
aVscifi-fantasy
p127
aVz-unsure
p128
aV2-wishlist
p129
aVebooks-kobo
p130
aVstories
p131
aVscience
p132
aVgeneral
p133
aVfind
p134
aVmy-books
p135
aV3-ebooks
p136
aV2011-reads
p137
aVto-read-scifi
p138
aVto-read-2
p139
aVmarionzimmerbradley
p140
aVwant-to-read-fantasy
p141
aVtype-short-story
p142
aVaudio-obtained-ss
p143
aVaudio-books-to-read
p144
aVw_us_unitary
p145
aVfind-that-book
p146
aVfantasy-and-horror
p147
aVunsure
p148
aV3a-ebooks
p149
aVaudio-books
p150
aVbradley
p151
aVzimmer
p152
aVmarion
p153
asS'loc_class'
p154
VPS: Language and Literatures: American and Canadian literature
p155
sS'n_authors'
p156
I1
sb.