ccopy_reg
_reconstructor
p0
(cdataset.Book
Book
p1
c__builtin__
object
p2
Ntp3
Rp4
(dp5
S'content_name'
p6
V27110.txt.utf-8
p7
sS'isbn'
p8
NsS'year'
p9
I1942
sS'author_name'
p10
VRaymond Z. Gallun
p11
sS'images_urls'
p12
(lp13
Vhttp://www.gutenberg.org/files/27110/27110-h/images/001.png
p14
aVhttp://www.gutenberg.org/files/27110/27110-page-images/p0222-image1.png
p15
aVhttp://www.gutenberg.org/files/27110/27110-page-images/p0222.png
p16
aVhttp://www.gutenberg.org/files/27110/27110-page-images/p0223-image1.png
p17
aVhttp://www.gutenberg.org/files/27110/27110-page-images/p0223.png
p18
aVhttp://www.gutenberg.org/files/27110/27110-page-images/p0224.png
p19
aVhttp://www.gutenberg.org/files/27110/27110-page-images/p0225.png
p20
aVhttp://www.gutenberg.org/files/27110/27110-page-images/p0226.png
p21
aVhttp://www.gutenberg.org/files/27110/27110-page-images/p0227.png
p22
aVhttp://www.gutenberg.org/files/27110/27110-page-images/p0228.png
p23
aVhttp://www.gutenberg.org/files/27110/27110-page-images/p0229.png
p24
aVhttp://www.gutenberg.org/files/27110/27110-page-images/p0230.png
p25
aVhttp://www.gutenberg.org/files/27110/27110-page-images/p0231.png
p26
aVhttp://www.gutenberg.org/files/27110/27110-page-images/p0232.png
p27
asS'language_code'
p28
NsS'images'
p29
(lp30
sS'id'
p31
I681
sS'category'
p32
VText
p33
sS'genres'
p34
(lp35
sS'copyright'
p36
VPublic domain in the USA.
p37
sS'title'
p38
VThe Eternal Wall
p39
sS'wikipedia'
p40
(dp41
S'found'
p42
I00
ssS'average_rating'
p43
F3.23
sS'rating_count'
p44
I19
sS'content_available'
p45
I01
sS'goodreads'
p46
(dp47
S'url'
p48
Vhttps://www.goodreads.com/book/show/9004539-the-eternal-wall
p49
sg42
I01
sS'year'
p50
I1942
ssS'similar_books'
p51
(lp52
sS'description'
p53
NsS'format'
p54
NsS'gutenberg'
p55
(dp56
g48
Vhttp://www.gutenberg.org/ebooks/27110
p57
sS'num'
p58
I27110
ssS'authors'
p59
(lp60
I148
asS'isbn13'
p61
V2940000152409
p62
sS'language'
p63
VEnglish
p64
sS'country'
p65
I3
sS'release_date'
p66
S'2008-10-31T00:00:00'
p67
sS'author'
p68
I148
sS'content_cleaned'
p69
I01
sS'classes'
p70
(lp71
Vto-read
p72
aVsci-fi
p73
aVscience-fiction
p74
aVshort-story
p75
aVcollection
p76
aVowned-pending-kindle-free-ebook
p77
aVtime-travel
p78
aVfiction
p79
aVebooks
p80
aVtype-short-story
p81
aVaudio-books
p82
asS'loc_class'
p83
VPS: Language and Literatures: American and Canadian literature
p84
sS'n_authors'
p85
I1
sb.