ccopy_reg
_reconstructor
p0
(cdataset.Book
Book
p1
c__builtin__
object
p2
Ntp3
Rp4
(dp5
S'similar_books'
p6
(lp7
sS'genres'
p8
(lp9
sS'author'
p10
I918
sS'countries'
p11
(lp12
I2
asS'year'
p13
I1960
sS'title'
p14
VIF Magazine November 1960
p15
sS'cover'
p16
Vhttps://ia601307.us.archive.org/BookReader/BookReaderImages.php?zip=/11/items/1960-11_IF/1960-11_IF_jp2.zip&file=1960-11_IF_jp2/1960-11_IF_0000.jp2&scale=0&rotate=0
p17
sS'cover_art'
p18
S'http://www.isfdb.org/wiki/images/f/f2/WOFIFNOV1960.jpg'
p19
sS'author_name'
p20
VIF Magazine
p21
sS'images_urls'
p22
(lp23
sS'authors'
p24
(lp25
I560
aI519
aI499
aI419
aI40
aI537
aI498
aI133
aI142
aI1065
aI74
aI554
aI63
aI918
asS'images'
p26
(lp27
sS'id'
p28
I1276
sS'contents'
p29
(lp30
(dp31
g10
I560
sg14
VMindsnake
p32
sa(dp33
g10
I519
sg14
VSuperjoemulloy
p34
sa(dp35
g10
I519
sg14
VThe Quality of Mercy
p36
sa(dp37
g10
I499
sg14
VEsidarap Ot Pirt Dnuor
p38
sa(dp39
g10
I419
sg14
VThe Impersonator
p40
sa(dp41
g10
I40
sg14
VWorlds of If (If, November 1960)
p42
sa(dp43
g10
I537
sg14
VThe Quality of Mercy
p44
sa(dp45
g10
I498
sg14
VEsidarap Ot Pirt Dnuor
p46
sa(dp47
g10
I133
sg14
VThe Impersonator
p48
sa(dp49
g10
I142
sg14
VMindsnake
p50
sa(dp51
g10
I1065
sg14
VSuperjoemulloy
p52
sa(dp53
g10
I74
sg14
VMcgonigal's Worm
p54
sa(dp55
g10
I554
sg14
VDon't Think About It
p56
sa(dp57
g10
I63
sg14
VEgg and Ashes
p58
sasb.