ccopy_reg
_reconstructor
p0
(cdataset.Book
Book
p1
c__builtin__
object
p2
Ntp3
Rp4
(dp5
S'content_name'
p6
V605.txt.utf-8
p7
sS'isbn'
p8
V0803262043
p9
sS'year'
p10
I1915
sS'author_name'
p11
VEdgar Rice Burroughs
p12
sS'images_urls'
p13
(lp14
sS'language_code'
p15
Veng
p16
sS'images'
p17
(lp18
sS'id'
p19
I64
sS'category'
p20
VText
p21
sS'plot'
p22
V'The Return to Pellucidar'. David Innes goes for a war and becomes a POW again, while Abner Perry makes a balloon, which escapes with Dian the Beautiful in it.\u000a'Men of the Bronze Age'. Dian meets the people who have advanced to bronze age and is made a goddess.\u000a'Tiger Girl'. David Innes goes after Dian in another balloon, he plays the role of a god.\u000a'Savage Pellucidar'. Two separate search parties are looking for the lost ones without knowing the other has already found the ones they are seeking.
p23
sS'genres'
p24
(lp25
sS'copyright'
p26
VPublic domain in the USA.
p27
sS'title'
p28
VPellucidar
p29
sS'wikipedia'
p30
(dp31
S'url'
p32
Vhttps://en.wikipedia.org/wiki/Savage_Pellucidar
p33
sS'found'
p34
I01
sS'year'
p35
I-1
ssS'published_in'
p36
NsS'average_rating'
p37
F3.78
sS'rating_count'
p38
I1438
sS'content_available'
p39
I01
sS'goodreads'
p40
(dp41
g32
Vhttps://www.goodreads.com/book/show/403355.Pellucidar
p42
sg34
I01
sg35
I1915
ssS'similar_books'
p43
(lp44
VDwellers in the Mirage
p45
aVEdgar Rice Burroughs' Tarzan: The Land That Time Forgot
p46
aVAlmuric
p47
aVThe Misplaced Battleship
p48
aVDare
p49
aVBlack Amazon of Mars
p50
aVThe Black Star Passes
p51
aVThe New Machiavelli
p52
aVThongor Against the Gods (Thongor, #3)
p53
aVMasters Of The Pit Or Barbarians Of Mars (Michael Kane, Vol. 3)
p54
aVConan of the Isles (Conan 12)
p55
aVLucky Starr and the Oceans of Venus (Lucky Starr, #3)
p56
aVThe Two Faces of Tomorrow
p57
aVThe Man of Bronze (Doc Savage, #1)
p58
aVConan the Warlord
p59
aVEdgar Rice Burroughs : Master of Adventure
p60
asS'description'
p61
VA Sequel To At the Earth\u2019s Core<br />American David Innes narrates return to exotic, savage land below the Earth crust, old pal Abner Perry, female Mahar, an untamed wilderness where the sun never sets. He seeks beloved Beautiful Dian, torn away by trickery. He crosses the Pellucidar, the Land of Awful Shadow under a pendant moon, encounters prehistoric beasts &amp; strange peoples.
p62
sS'format'
p63
VPaperback
p64
sS'gutenberg'
p65
(dp66
g32
Vhttp://www.gutenberg.org/ebooks/605
p67
sS'num'
p68
I605
ssS'authors'
p69
(lp70
I2
asS'pages'
p71
I167
sS'isbn13'
p72
V9780803262041
p73
sS'language'
p74
VEnglish
p75
sS'countries'
p76
(lp77
I2
asS'release_date'
p78
S'1996-07-01T00:00:00'
p79
sS'author'
p80
I2
sS'original_title'
p81
VSavage Pellucidar
p82
sS'summary'
p83
VSavage Pellucidar is a 1963 fantasy story collection by Edgar Rice Burroughs, the seventh and final book in his series about the fictional "hollow earth" land of Pellucidar. It was published twelve years after Burroughs's death.\u000aLike a number of other posthumously published books by Burroughs, this book is not a novel but a collection of short stories. The first three stories, The Return to Pellucidar, Men of the Bronze Age and Tiger Girl, were published in Amazing Stories in February, March, and April 1942. The fourth story, Savage Pellucidar, was published for the first time in November 1963 after being discovered in a safe by Burroughs' son Hulbert in the early 1960s.
p84
sS'content_cleaned'
p85
I01
sS'classes'
p86
(lp87
Vscience-fiction
p88
aVfantasy
p89
aVfiction
p90
aVadventure
p91
aVsci-fi
p92
aVto-read
p93
aVedgar-rice-burroughs
p94
aVclassics
p95
aVowned
p96
aVkindle
p97
aVebook
p98
aVpulp
p99
aVsf
p100
aVscifi
p101
aVclassic
p102
aVdefault
p103
aVappendix-n
p104
aVseries
p105
aVburroughs
p106
aVebooks
p107
aVcurrently-reading
p108
aVe-books
p109
aVdinosaurs
p110
aVfantasy-science-fiction
p111
aVaction
p112
aVclassic-sci-fi
p113
aVscifi-fantasy
p114
aVsci-fi-fantasy
p115
aVpellucidar
p116
aVclassic-science-fiction
p117
aVscience-fiction-fantasy
p118
aVscience-fantasy
p119
aVaction-adventure
p120
aVhollow-earth
p121
aVsf-fantasy
p122
aVpaperbacks
p123
aVmy-library
p124
aVlibrivox
p125
aVerb
p126
aVmystery
p127
aVshelfari-review-only
p128
aVshelfari-part-of-a-set
p129
aVshelfari-no
p130
aVshelfari-kindlebook
p131
aVshelfari-kindle-originalk3
p132
aVshelfari-kindle
p133
aVcollection
p134
aVdrama
p135
aVaudiobooks
p136
aVunread
p137
aVkindle-ebook
p138
aVnovels
p139
aVamerican-authors
p140
aVthriller
p141
aVburroughs-edgar-rice
p142
aVplanetary-romance
p143
aVkindle-book
p144
aVfantasy-sf
p145
aV20th-century
p146
aV1910-1919
p147
aVnot-read
p148
aVprehistoric
p149
aVbooks-i-own
p150
aVsciencefiction
p151
aVspeculative-fiction
p152
aVlost-world-lost-race
p153
aVjunk
p154
aVtravel-to-another-world
p155
aVquest
p156
aVprehistoric-bronze
p157
aVmagical-realism
p158
aVjourney
p159
aViconic
p160
aVexploration
p161
aVseries-obnf
p162
aVhave-cali
p163
aVactually-own
p164
aVread-have
p165
aV00-to-read-01
p166
aVnew-read
p167
aVscifi-or-steampunk
p168
aVkindle-library
p169
aV000src-su-15-05-u-p-c
p170
aVkindlecollection
p171
aVgalaktyka-gutenberga
p172
aVcovers-david-mattingly
p173
aVmy-collection
p174
aVrtc
p175
aV20th-century-lit
p176
aVclassic-adventure
p177
aVdndrecommended
p178
aVshelf1
p179
aVfantastyka
p180
aVvillains-creepy-disturbing-etc
p181
aVunique-memorable-world
p182
aVsword-fighting
p183
aVsci-fi-adult
p184
aVromance
p185
aVlove-the-writing-style
p186
aVkindle-freebies
p187
asS'loc_class'
p188
VPS: Language and Literatures: American and Canadian literature
p189
sS'n_authors'
p190
I1
sb.