ccopy_reg
_reconstructor
p0
(cdataset.Book
Book
p1
c__builtin__
object
p2
Ntp3
Rp4
(dp5
S'content_name'
p6
V51256.txt.utf-8
p7
sS'isbn'
p8
V0345301374
p9
sS'year'
p10
I1981
sS'author_name'
p11
VAndrew Fetler
p12
sS'images_urls'
p13
(lp14
Vhttp://www.gutenberg.org/files/51256/51256-h/images/cover.jpg
p15
aVhttp://www.gutenberg.org/files/51256/51256-h/images/illus.jpg
p16
asS'language_code'
p17
NsS'images'
p18
(lp19
sS'id'
p20
I909
sS'category'
p21
VText
p22
sS'genres'
p23
(lp24
sS'copyright'
p25
VPublic domain in the USA.
p26
sS'title'
p27
VThe Cool War
p28
sS'wikipedia'
p29
(dp30
S'found'
p31
I00
ssS'average_rating'
p32
F3.28
sS'rating_count'
p33
I220
sS'content_available'
p34
I01
sS'cover_art_url'
p35
S'http://www.gutenberg.org/cache/epub/51256/pg51256.cover.medium.jpg'
p36
sS'goodreads'
p37
(dp38
S'url'
p39
Vhttps://www.goodreads.com/book/show/1991370.The_Cool_War
p40
sg31
I01
sS'year'
p41
I1981
ssS'similar_books'
p42
(lp43
VThe Veils of Azlaroc
p44
aVTo the Stars (Omnibus)
p45
aVThe Complete Works of William Shakespeare, Volume 1
p46
aVGlimpses of Truth
p47
aVGold Cord
p48
aVFreedom Road
p49
aVLove Is a Wild Assault
p50
aVCoils
p51
aVGray Matters
p52
aVThe Time Is Noon
p53
aVShe Did What She Could: Five Words of Jesus That Will Change Your Life
p54
aVThe Avatar
p55
aVThe Wrong End of Time
p56
aVJames Herriot's Yorkshire
p57
aVThe Two Faces of Tomorrow
p58
aVImpossible Places
p59
aVLlana of Gathol/John Carter of Mars (Barsoom, #10-11)
p60
aVThe Triumph of Time (Cities in Flight, #4)
p61
asS'description'
p62
VFred Pohl, multiple winner of science-fiction's top awards, presents a breathtaking romp through the energy-poor world of the 2020s - a gripping chase-intrigue novel with a highly unlikely stand-in for James Bond.<br />One day, the Reverend Hornswell Hake had nothing worse to contend with than the customary power shortages and his routine pastoral chores, such as counseling the vivacious Alys Brant - and her husbands and wife. At nearly forty, his life was placid, almost humdrum.<br />The very next day, Horny Hake was first enlisted as an unwilling agent of the Team - secret successor to the long-discredited CIA - and then courted by an anti-Team underground group. In practically no time at all, Horny and Alys were touring Europe on a mission about which he knew zip, except that it was a new move in the Cool War, the worldwide campaign of sabotage that had replaced actual combat.<br />For the team and its opponents, though, the Cool War could be as perilous as any hot one, as Horny Hake discovered when he came up against<br /><br />*Leota, lovely leader of the underground cabal, dedicated to destroying the Team;<br />*Yosper, the Bible-thumping, foul-mouthed nonogenarian killer;<br />*The Reddi twins, professional terrorists who turned up in the oddest places at the worst times and always managed to make Horny's life miserable;<br />*And Pegleg, master of such lethal toys as the Bulgarian Brolly and the Peruvian Pen.<br /><br />Picaresque and fast-moving, THE COOL WAR is also a deeply ironic, often hilarious, yet thought-provoking look at where we could be, some forty years from now.
p63
sS'format'
p64
VMass Market Paperback
p65
sS'gutenberg'
p66
(dp67
g39
Vhttp://www.gutenberg.org/ebooks/51256
p68
sS'num'
p69
I51256
ssS'authors'
p70
(lp71
I278
asS'pages'
p72
I288
sS'isbn13'
p73
V9780345301376
p74
sS'language'
p75
VEnglish
p76
sS'country'
p77
I3
sS'release_date'
p78
S'2016-02-21T00:00:00'
p79
sS'author'
p80
I278
sS'content_cleaned'
p81
I01
sS'classes'
p82
(lp83
Vto-read
p84
aVscience-fiction
p85
aVdefault
p86
aVowned
p87
aVsf
p88
aVfiction
p89
aVsci-fi
p90
aVscifi
p91
aVbooks
p92
aVspeculative-fiction
p93
aVmy-library
p94
aVcurrently-reading
p95
aVown-unread
p96
aVhardcover
p97
aVbooks-i-own
p98
aVnot-read
p99
aVmaybe
p100
aVdiscards
p101
aVreread-again
p102
aV1980-s
p103
aVto-read-sometime
p104
aVsatire
p105
aVdystopie
p106
aVsci-fi-to-read
p107
aVprisma-spectrum
p108
aVused-bookstore-favorites
p109
aVaudiobooks
p110
aVtaverna
p111
aVreread
p112
aVscience-fiction-novel
p113
aVnovels
p114
aVto-buy
p115
aVread-in-2016
p116
aVread-liked-too-long-ago-to-rate
p117
aVyear-1981
p118
aVp
p119
aVcoverx-transportation
p120
aVscience-fiction-fantasy-horror
p121
aValphabetical-by-title
p122
aVscience
p123
aVcould-read
p124
aVsci-fi-read-box-r1
p125
aVbin-015
p126
aVpohl
p127
aValexandria
p128
aVwant-to-read-but-do-not-own
p129
aVunited-states
p130
aVdnf-lost-interest
p131
aV1995
p132
aV_ita
p133
aVpinellas-library
p134
aVage-challenge
p135
aVin-attesa
p136
aVpaul
p137
aVbooks-i-own-but-haven-t-read-yet
p138
aVmy-collection
p139
aVthcpl
p140
aVextra-shelf-for-whatever
p141
aVtaggare
p142
aVnear-future
p143
aVfinished
p144
aVowned-not-read
p145
aVpaperback
p146
aVs
p147
aVssssssssss
p148
aVfiction-science-fiction
p149
aVenglish
p150
aVread-1
p151
aVromaani
p152
aVowned-but-unread
p153
aVscat_10
p154
aVlem_5
p155
aVcosmo_argento
p156
aVscott
p157
aVe-book
p158
aVautographed
p159
aVmy-personal-home-library
p160
aVi-own-it
p161
aVcompleted
p162
aVfantascienza
p163
aVmy-complete-bookshelf
p164
aVhb
p165
aVsf-fantasy-i-own
p166
aVaaron
p167
aVbook-collector
p168
aVhd
p169
aV2013-booklist
p170
aV_miscor2do
p171
aVb-c
p172
aVsf-fantasy
p173
aVhumor
p174
aVespionage
p175
aVfrederik-pohl
p176
aVto-find
p177
aVthrillers
p178
aVpolitics
p179
aVat-library
p180
aVold-school
p181
aVdavid-brins-greatest-science-fictio
p182
aVread-in-1986
p183
asS'loc_class'
p184
S''
p185
sS'n_authors'
p186
I1
sb.