ccopy_reg
_reconstructor
p0
(cdataset.Book
Book
p1
c__builtin__
object
p2
Ntp3
Rp4
(dp5
S'content_name'
p6
V32827.txt.utf-8
p7
sS'isbn'
p8
V1153653184
p9
sS'year'
p10
I1957
sS'author_name'
p11
VStephen Marlowe
p12
sS'images_urls'
p13
(lp14
Vhttp://www.gutenberg.org/files/32827/32827-h/images/cover.jpg
p15
aVhttp://www.gutenberg.org/files/32827/32827-h/images/illus.jpg
p16
asS'language_code'
p17
NsS'id'
p18
I820
sS'category'
p19
VText
p20
sS'genres'
p21
(lp22
sS'copyright'
p23
VPublic domain in the USA.
p24
sS'title'
p25
VThink Yourself to Death
p26
sS'wikipedia'
p27
(dp28
S'found'
p29
I00
ssS'average_rating'
p30
F2.19
sS'rating_count'
p31
I15
sS'content_available'
p32
I01
sS'cover_art_url'
p33
S'http://www.gutenberg.org/cache/epub/32827/pg32827.cover.medium.jpg'
p34
sS'goodreads'
p35
(dp36
S'url'
p37
Vhttps://www.goodreads.com/book/show/9606763-think-yourself-to-death
p38
sS'found'
p39
I01
sS'year'
p40
I1957
ssS'similar_books'
p41
(lp42
sS'description'
p43
VThe book has no illustrations or index. Purchasers are entitled to a free trial membership in the General Books Club where they can select from more than a million books without charge.
p44
sS'gutenberg'
p45
(dp46
g37
Vhttp://www.gutenberg.org/ebooks/32827
p47
sS'num'
p48
I32827
ssS'authors'
p49
(lp50
I79
asS'isbn13'
p51
V9781153653183
p52
sS'language'
p53
VEnglish
p54
sS'countries'
p55
(lp56
I2
asS'release_date'
p57
S'2010-06-15T00:00:00'
p58
sS'author'
p59
I79
sS'cover'
p60
Vhttps://s.gr-assets.com/assets/nophoto/book/111x148-bcc042a9c91a29c1d680899eff700a03.png
p61
sS'content_cleaned'
p62
I01
sS'classes'
p63
(lp64
Vto-read
p65
aVscience-fiction
p66
aVshort-stories
p67
aVfiction
p68
aVe-shelf
p69
aVamazon-ebooks
p70
aVstories
p71
aVshort
p72
aVscience
p73
aVgeneral
p74
aVsci-fi
p75
aVchallenge-oldish
p76
aVanthos-shorts
p77
aVfeedbooks-com
p78
aVown-ebook
p79
aVunread-library
p80
aV2014-challenge-oldish
p81
asS'loc_class'
p82
VPS: Language and Literatures: American and Canadian literature
p83
sS'n_authors'
p84
I1
sb.