ccopy_reg
_reconstructor
p0
(cdataset.Book
Book
p1
c__builtin__
object
p2
Ntp3
Rp4
(dp5
S'content_name'
p6
V52009.txt.utf-8
p7
sS'isbn'
p8
V0234771038
p9
sS'year'
p10
I1957
sS'author_name'
p11
VRobert Moore Williams
p12
sS'images_urls'
p13
(lp14
Vhttp://www.gutenberg.org/files/52009/52009-h/images/cover.jpg
p15
asS'language_code'
p16
NsS'images'
p17
(lp18
sS'id'
p19
I691
sS'category'
p20
VText
p21
sS'genres'
p22
(lp23
sS'copyright'
p24
VPublic domain in the USA.
p25
sS'title'
p26
VNew Lamps
p27
sS'wikipedia'
p28
(dp29
S'found'
p30
I00
ssS'average_rating'
p31
F3.75
sS'rating_count'
p32
I4
sS'content_available'
p33
I01
sS'cover_art_url'
p34
S'http://www.gutenberg.org/cache/epub/52009/pg52009.cover.medium.jpg'
p35
sS'goodreads'
p36
(dp37
S'url'
p38
Vhttps://www.goodreads.com/book/show/3992075-new-lamps-for-old
p39
sg30
I01
sS'year'
p40
I1968
ssS'similar_books'
p41
(lp42
sS'description'
p43
NsS'format'
p44
VUnknown Binding
p45
sS'gutenberg'
p46
(dp47
g38
Vhttp://www.gutenberg.org/ebooks/52009
p48
sS'num'
p49
I52009
ssS'authors'
p50
(lp51
I135
asS'pages'
p52
I96
sS'isbn13'
p53
V9780234771037
p54
sS'language'
p55
VEnglish
p56
sS'countries'
p57
(lp58
I2
asS'release_date'
p59
S'2016-05-06T00:00:00'
p60
sS'author'
p61
I135
sS'content_cleaned'
p62
I01
sS'classes'
p63
(lp64
Vto-read
p65
aVdrama
p66
aVfairy-tale-plays
p67
aVyouth-fiction
p68
aVplays
p69
asS'loc_class'
p70
S''
p71
sS'n_authors'
p72
I1
sb.