ccopy_reg
_reconstructor
p0
(cdataset.Book
Book
p1
c__builtin__
object
p2
Ntp3
Rp4
(dp5
S'content_name'
p6
V17029.txt.utf-8
p7
sS'isbn'
p8
V3655161638
p9
sS'year'
p10
I2010
sS'author_name'
p11
VCory Doctorow
p12
sS'images_urls'
p13
(lp14
sS'language_code'
p15
NsS'images'
p16
(lp17
sS'id'
p18
I349
sS'category'
p19
VText
p20
sS'genres'
p21
(lp22
sS'copyright'
p23
VCopyrighted. Read the copyright notice inside this book for details.
p24
sS'title'
p25
VShadow of the Mothaship
p26
sS'wikipedia'
p27
(dp28
S'url'
p29
Vhttps://en.wikipedia.org/wiki/A_Place_So_Foreign_and_Eight_More
p30
sS'found'
p31
I01
sS'year'
p32
I-1
ssS'published_in'
p33
NsS'average_rating'
p34
F2.92
sS'rating_count'
p35
I25
sS'content_available'
p36
I01
sS'goodreads'
p37
(dp38
g29
Vhttps://www.goodreads.com/book/show/12635970-shadow-of-the-mothaship
p39
sg31
I01
sg32
I2010
ssS'similar_books'
p40
(lp41
sS'description'
p42
VNotice: This Book is published by Historical Books Limited (<a target="_blank" href="http://www.publicdomain.org.uk" rel="nofollow">www.publicdomain.org.uk</a>) as a Public Domain Book, if you have any inquiries, requests or need any help you can just send an email to publications@publicdomain.org.uk This book is found as a public domain and free book based on various online catalogs, if you think there are any problems regard copyright issues please contact us immediately via DMCA@publicdomain.org.uk
p43
sS'format'
p44
NsS'gutenberg'
p45
(dp46
g29
Vhttp://www.gutenberg.org/ebooks/17029
p47
sS'num'
p48
I17029
ssS'authors'
p49
(lp50
I33
asS'isbn13'
p51
V9783655161630
p52
sS'language'
p53
VEnglish
p54
sS'country'
p55
I3
sS'release_date'
p56
S'2005-11-20T00:00:00'
p57
sS'author'
p58
I33
sS'original_title'
p59
VA Place So Foreign and Eight More
p60
sS'summary'
p61
VA Place So Foreign and Eight More is a collection of short stories by Canadian-British writer Cory Doctorow. Six of these stories were released electronically under a Creative Commons license. A paperback edition was issued in New York by publisher Four Walls Eight Windows in 2003 with ISBN 1-56858-286-2. The collection features an introduction by Bruce Sterling, and includes "0wnz0red", which was nominated for the 2003 Nebula Award for Best Novelette.\u000a\u000a
p62
sS'content_cleaned'
p63
I01
sS'classes'
p64
(lp65
Vto-read
p66
aVscience-fiction
p67
aVebook
p68
aVcalibre
p69
aVinterested
p70
aVanother-to-read
p71
aVvery-short
p72
aVto-read-in-2017
p73
aVa-on-nook
p74
aVa-adobe-editions
p75
aVfromcalibre
p76
aVebooks
p77
aVshorts-to-read
p78
aVscience-fiction-fantasy
p79
aVcalibre-library
p80
aVrandom-added
p81
aVsci-fi
p82
aVsf-dystopias
p83
aVa5
p84
aVlibrary
p85
asS'loc_class'
p86
VPS: Language and Literatures: American and Canadian literature
p87
sS'n_authors'
p88
I1
sb.