ccopy_reg
_reconstructor
p0
(cdataset.Book
Book
p1
c__builtin__
object
p2
Ntp3
Rp4
(dp5
S'content_name'
p6
V23889.txt.utf-8
p7
sS'isbn'
p8
NsS'year'
p9
I2007
sS'author_name'
p10
VLaurence M. Janifer
p11
sS'images_urls'
p12
(lp13
Vhttp://www.gutenberg.org/files/23889/23889-h/images/001.png
p14
aVhttp://www.gutenberg.org/files/23889/23889-h/images/002.png
p15
aVhttp://www.gutenberg.org/files/23889/23889-h/images/003.png
p16
aVhttp://www.gutenberg.org/files/23889/23889-h/images/004.png
p17
asS'language_code'
p18
NsS'images'
p19
(lp20
sS'id'
p21
I843
sS'category'
p22
VText
p23
sS'genres'
p24
(lp25
sS'copyright'
p26
VPublic domain in the USA.
p27
sS'title'
p28
VCharley de Milo
p29
sS'wikipedia'
p30
(dp31
S'found'
p32
I00
ssS'average_rating'
p33
F3.33
sS'rating_count'
p34
I3
sS'content_available'
p35
I01
sS'goodreads'
p36
(dp37
S'url'
p38
Vhttps://www.goodreads.com/book/show/12489211-charley-de-milo
p39
sg32
I01
sS'year'
p40
I2007
ssS'similar_books'
p41
(lp42
sS'description'
p43
NsS'format'
p44
NsS'gutenberg'
p45
(dp46
g38
Vhttp://www.gutenberg.org/ebooks/23889
p47
sS'num'
p48
I23889
ssS'authors'
p49
(lp50
I64
asS'isbn13'
p51
NsS'language'
p52
VEnglish
p53
sS'country'
p54
I2
sS'release_date'
p55
S'2007-12-18T00:00:00'
p56
sS'author'
p57
I64
sS'content_cleaned'
p58
I01
sS'classes'
p59
(lp60
V2017-2018
p61
aVto-read
p62
asS'loc_class'
p63
VPS: Language and Literatures: American and Canadian literature
p64
sS'n_authors'
p65
I1
sb.