ccopy_reg
_reconstructor
p0
(cdataset.Book
Book
p1
c__builtin__
object
p2
Ntp3
Rp4
(dp5
S'content_name'
p6
V22338.txt.utf-8
p7
sS'isbn'
p8
V0803730020
p9
sS'year'
p10
I2008
sS'author_name'
p11
VRandall Garrett
p12
sS'images_urls'
p13
(lp14
sS'language_code'
p15
Ven-US
p16
sS'images'
p17
(lp18
sS'id'
p19
I281
sS'category'
p20
VText
p21
sS'genres'
p22
(lp23
sS'copyright'
p24
VPublic domain in the USA.
p25
sS'title'
p26
VThe Impossibles
p27
sS'wikipedia'
p28
(dp29
S'found'
p30
I00
ssS'average_rating'
p31
F3.64
sS'rating_count'
p32
I14252
sS'content_available'
p33
I01
sS'goodreads'
p34
(dp35
S'url'
p36
Vhttps://www.goodreads.com/book/show/3188580-impossible
p37
sg30
I01
sS'year'
p38
I2008
ssS'similar_books'
p39
(lp40
VA Curse Dark as Gold
p41
aVMadapple
p42
aVTiger Moon
p43
aVAfter the Moment
p44
aVOut of the Wild (Into the Wild, #2)
p45
aVThe New Policeman (New Policeman, #1)
p46
aVSacred Scars (A Resurrection of Magic, #2)
p47
aVSerendipity Market
p48
aVThe Possibilities of Sainthood
p49
aVThe Miles Between
p50
aVRampant (Killer Unicorns, #1)
p51
aVBetraying Season (Leland Sisters, #2)
p52
aVThe Clearing
p53
aVStruts & Frets
p54
aVThe Dust of 100 Dogs
p55
aVA Fool's Errand (The Gypsy King #2)
p56
aVDreaming Anastasia (Dreaming Anastasia, #1)
p57
aVRed Glass
p58
asS'description'
p59
VLucy is seventeen when she discovers that she is the latest recipient of a generations-old family curse that requires her to complete three seemingly impossible tasks or risk falling into madness and passing the curse on to the next generation. Unlike her ancestors, though, Lucy has family, friends, and other modern resources to help her out. But will it be enough to conquer this age-old evil? <br /><br />A beautifully wrought modern fairy tale from master storyteller and award-winning author Nancy Werlin. Inspired by the classic folk ballad "Scarborough Fair," this is a wonderfully riveting and haunting novel of suspense, romance, and fantasy.
p60
sS'format'
p61
NsS'gutenberg'
p62
(dp63
g36
Vhttp://www.gutenberg.org/ebooks/22338
p64
sS'num'
p65
I22338
ssS'authors'
p66
(lp67
I49
aI64
asS'pages'
p68
I376
sS'isbn13'
p69
V9780803730021
p70
sS'language'
p71
VEnglish
p72
sS'countries'
p73
(lp74
I2
asS'release_date'
p75
S'2007-08-16T00:00:00'
p76
sS'author'
p77
I49
sS'content_cleaned'
p78
I01
sS'classes'
p79
(lp80
Vto-read
p81
aVyoung-adult
p82
aVfantasy
p83
aVya
p84
aVromance
p85
aVfavorites
p86
aVfiction
p87
aVcurrently-reading
p88
aVbooks-i-own
p89
aVparanormal
p90
aVteen
p91
aVmagic
p92
aVowned
p93
aVsupernatural
p94
aVseries
p95
aVfairy-tales
p96
aVfaeries
p97
aVurban-fantasy
p98
aVlibrary
p99
aVya-fiction
p100
aVcontemporary
p101
aVya-fantasy
p102
aVfairy-tale
p103
aVmystery
p104
aVread-in-2009
p105
aVi-own
p106
aVfairies
p107
aVowned-books
p108
aVyoung-adult-fiction
p109
aVread-in-2010
p110
aVretellings
p111
aVto-buy
p112
aVaudio
p113
aVya-lit
p114
aVnancy-werlin
p115
aVwish-list
p116
aVyoungadult
p117
aVmy-books
p118
aVcurses
p119
aVya-books
p120
aVread-in-2011
p121
aVparanormal-romance
p122
aVteen-fiction
p123
aVfairytales
p124
aVown-it
p125
aVmaybe
p126
aVfae
p127
aVteen-books
p128
aVsci-fi-fantasy
p129
aVaudiobook
p130
aVmythology
p131
aVpregnancy
p132
aVmagical-realism
p133
aVrape
p134
aVmy-library
p135
aVfamily
p136
aVdefault
p137
aVteen-pregnancy
p138
aVfairytale
p139
aVfantasy-sci-fi
p140
aVhave
p141
aVcoming-of-age
p142
aVbook-club
p143
aVaudiobooks
p144
aVfaerie
p145
aVshelfari-favorites
p146
aVreviewed
p147
aVabandoned
p148
aVfolklore
p149
aVyoung-adult-fantasy
p150
aVsuspense
p151
aVdid-not-finish
p152
aVcurse
p153
aVaudio-book
p154
aVnovels
p155
aVlove
p156
aVadult
p157
aVya-novels
p158
aVfavorite-books
p159
aVcouldn-t-finish
p160
aVunfinished
p161
aVfairy
p162
aVy-a
p163
aVshelfari-wishlist
p164
aVimpossible
p165
aVdnf
p166
aVre-read
p167
aVpaperback
p168
aVbooks-i-have
p169
aVmusic
p170
aVyoung-adult-books
p171
aVfairy-tale-retellings
p172
aVdidn-t-finish
p173
aVborrowed
p174
aVall-time-favorites
p175
aVchick-lit
p176
aVyoung-adults
p177
aVceltic-folklore
p178
aVread-in-2014
p179
aVread-in-2012
p180
asS'loc_class'
p181
VPS: Language and Literatures: American and Canadian literature
p182
sS'n_authors'
p183
I2
sb.