ccopy_reg
_reconstructor
p0
(cdataset.Book
Book
p1
c__builtin__
object
p2
Ntp3
Rp4
(dp5
S'content_name'
p6
V22549.txt.utf-8
p7
sS'isbn'
p8
NsS'cover'
p9
Vhttps://s.gr-assets.com/assets/nophoto/book/111x148-bcc042a9c91a29c1d680899eff700a03.png
p10
sS'year'
p11
I1958
sS'author_name'
p12
VTom Godwin
p13
sS'images_urls'
p14
(lp15
Vhttp://www.gutenberg.org/files/22549/22549-h/images/back_cover_bottom.jpg
p16
aVhttp://www.gutenberg.org/files/22549/22549-h/images/back_cover_top.jpg
p17
aVhttp://www.gutenberg.org/files/22549/22549-h/images/front_cover.jpg
p18
aVhttp://www.gutenberg.org/files/22549/22549-h/images/pyramid_blue_logo.png
p19
aVhttp://www.gutenberg.org/files/22549/22549-h/images/pyramid_logo.png
p20
aVhttp://www.gutenberg.org/files/22549/22549-h/images/space_prison_logo.png
p21
aVhttp://www.gutenberg.org/files/22549/22549-h/images/stars1a.png
p22
aVhttp://www.gutenberg.org/files/22549/22549-h/images/stars1b.png
p23
aVhttp://www.gutenberg.org/files/22549/22549-h/images/stars2a.png
p24
aVhttp://www.gutenberg.org/files/22549/22549-h/images/stars2b.png
p25
aVhttp://www.gutenberg.org/files/22549/22549-h/images/stars3a.png
p26
aVhttp://www.gutenberg.org/files/22549/22549-h/images/stars3b.png
p27
aVhttp://www.gutenberg.org/files/22549/22549-h/images/stars4a.png
p28
aVhttp://www.gutenberg.org/files/22549/22549-h/images/stars4b.png
p29
aVhttp://www.gutenberg.org/files/22549/22549-page-images/c001.png
p30
aVhttp://www.gutenberg.org/files/22549/22549-page-images/f001.png
p31
aVhttp://www.gutenberg.org/files/22549/22549-page-images/f002.png
p32
aVhttp://www.gutenberg.org/files/22549/22549-page-images/p005.png
p33
aVhttp://www.gutenberg.org/files/22549/22549-page-images/p006.png
p34
aVhttp://www.gutenberg.org/files/22549/22549-page-images/p007.png
p35
aVhttp://www.gutenberg.org/files/22549/22549-page-images/p008.png
p36
aVhttp://www.gutenberg.org/files/22549/22549-page-images/p009.png
p37
aVhttp://www.gutenberg.org/files/22549/22549-page-images/p010.png
p38
aVhttp://www.gutenberg.org/files/22549/22549-page-images/p011.png
p39
aVhttp://www.gutenberg.org/files/22549/22549-page-images/p012.png
p40
aVhttp://www.gutenberg.org/files/22549/22549-page-images/p013.png
p41
aVhttp://www.gutenberg.org/files/22549/22549-page-images/p014.png
p42
aVhttp://www.gutenberg.org/files/22549/22549-page-images/p015.png
p43
aVhttp://www.gutenberg.org/files/22549/22549-page-images/p016.png
p44
aVhttp://www.gutenberg.org/files/22549/22549-page-images/p017.png
p45
aVhttp://www.gutenberg.org/files/22549/22549-page-images/p018.png
p46
aVhttp://www.gutenberg.org/files/22549/22549-page-images/p019.png
p47
aVhttp://www.gutenberg.org/files/22549/22549-page-images/p020.png
p48
aVhttp://www.gutenberg.org/files/22549/22549-page-images/p021.png
p49
aVhttp://www.gutenberg.org/files/22549/22549-page-images/p022.png
p50
aVhttp://www.gutenberg.org/files/22549/22549-page-images/p023.png
p51
aVhttp://www.gutenberg.org/files/22549/22549-page-images/p024.png
p52
aVhttp://www.gutenberg.org/files/22549/22549-page-images/p025.png
p53
aVhttp://www.gutenberg.org/files/22549/22549-page-images/p026.png
p54
aVhttp://www.gutenberg.org/files/22549/22549-page-images/p027.png
p55
aVhttp://www.gutenberg.org/files/22549/22549-page-images/p028.png
p56
aVhttp://www.gutenberg.org/files/22549/22549-page-images/p029.png
p57
aVhttp://www.gutenberg.org/files/22549/22549-page-images/p030.png
p58
aVhttp://www.gutenberg.org/files/22549/22549-page-images/p031.png
p59
aVhttp://www.gutenberg.org/files/22549/22549-page-images/p032.png
p60
aVhttp://www.gutenberg.org/files/22549/22549-page-images/p033.png
p61
aVhttp://www.gutenberg.org/files/22549/22549-page-images/p034.png
p62
aVhttp://www.gutenberg.org/files/22549/22549-page-images/p035.png
p63
aVhttp://www.gutenberg.org/files/22549/22549-page-images/p036.png
p64
aVhttp://www.gutenberg.org/files/22549/22549-page-images/p037.png
p65
aVhttp://www.gutenberg.org/files/22549/22549-page-images/p038.png
p66
aVhttp://www.gutenberg.org/files/22549/22549-page-images/p039.png
p67
aVhttp://www.gutenberg.org/files/22549/22549-page-images/p040.png
p68
aVhttp://www.gutenberg.org/files/22549/22549-page-images/p041.png
p69
aVhttp://www.gutenberg.org/files/22549/22549-page-images/p042.png
p70
aVhttp://www.gutenberg.org/files/22549/22549-page-images/p043.png
p71
aVhttp://www.gutenberg.org/files/22549/22549-page-images/p044.png
p72
aVhttp://www.gutenberg.org/files/22549/22549-page-images/p045.png
p73
aVhttp://www.gutenberg.org/files/22549/22549-page-images/p046.png
p74
aVhttp://www.gutenberg.org/files/22549/22549-page-images/p047.png
p75
aVhttp://www.gutenberg.org/files/22549/22549-page-images/p048.png
p76
aVhttp://www.gutenberg.org/files/22549/22549-page-images/p049.png
p77
aVhttp://www.gutenberg.org/files/22549/22549-page-images/p050.png
p78
aVhttp://www.gutenberg.org/files/22549/22549-page-images/p051.png
p79
aVhttp://www.gutenberg.org/files/22549/22549-page-images/p052.png
p80
aVhttp://www.gutenberg.org/files/22549/22549-page-images/p053.png
p81
aVhttp://www.gutenberg.org/files/22549/22549-page-images/p054.png
p82
aVhttp://www.gutenberg.org/files/22549/22549-page-images/p055.png
p83
aVhttp://www.gutenberg.org/files/22549/22549-page-images/p056.png
p84
aVhttp://www.gutenberg.org/files/22549/22549-page-images/p057.png
p85
aVhttp://www.gutenberg.org/files/22549/22549-page-images/p058.png
p86
aVhttp://www.gutenberg.org/files/22549/22549-page-images/p059.png
p87
aVhttp://www.gutenberg.org/files/22549/22549-page-images/p060.png
p88
aVhttp://www.gutenberg.org/files/22549/22549-page-images/p061.png
p89
aVhttp://www.gutenberg.org/files/22549/22549-page-images/p062.png
p90
aVhttp://www.gutenberg.org/files/22549/22549-page-images/p063.png
p91
aVhttp://www.gutenberg.org/files/22549/22549-page-images/p064.png
p92
aVhttp://www.gutenberg.org/files/22549/22549-page-images/p065.png
p93
aVhttp://www.gutenberg.org/files/22549/22549-page-images/p066.png
p94
aVhttp://www.gutenberg.org/files/22549/22549-page-images/p067.png
p95
aVhttp://www.gutenberg.org/files/22549/22549-page-images/p068.png
p96
aVhttp://www.gutenberg.org/files/22549/22549-page-images/p069.png
p97
aVhttp://www.gutenberg.org/files/22549/22549-page-images/p070.png
p98
aVhttp://www.gutenberg.org/files/22549/22549-page-images/p071.png
p99
aVhttp://www.gutenberg.org/files/22549/22549-page-images/p072.png
p100
aVhttp://www.gutenberg.org/files/22549/22549-page-images/p073.png
p101
aVhttp://www.gutenberg.org/files/22549/22549-page-images/p074.png
p102
aVhttp://www.gutenberg.org/files/22549/22549-page-images/p075.png
p103
aVhttp://www.gutenberg.org/files/22549/22549-page-images/p076.png
p104
aVhttp://www.gutenberg.org/files/22549/22549-page-images/p077.png
p105
aVhttp://www.gutenberg.org/files/22549/22549-page-images/p078.png
p106
aVhttp://www.gutenberg.org/files/22549/22549-page-images/p079.png
p107
aVhttp://www.gutenberg.org/files/22549/22549-page-images/p080.png
p108
aVhttp://www.gutenberg.org/files/22549/22549-page-images/p081.png
p109
aVhttp://www.gutenberg.org/files/22549/22549-page-images/p082.png
p110
aVhttp://www.gutenberg.org/files/22549/22549-page-images/p083.png
p111
aVhttp://www.gutenberg.org/files/22549/22549-page-images/p084.png
p112
aVhttp://www.gutenberg.org/files/22549/22549-page-images/p085.png
p113
aVhttp://www.gutenberg.org/files/22549/22549-page-images/p086.png
p114
aVhttp://www.gutenberg.org/files/22549/22549-page-images/p087.png
p115
aVhttp://www.gutenberg.org/files/22549/22549-page-images/p088.png
p116
aVhttp://www.gutenberg.org/files/22549/22549-page-images/p089.png
p117
aVhttp://www.gutenberg.org/files/22549/22549-page-images/p090.png
p118
aVhttp://www.gutenberg.org/files/22549/22549-page-images/p091.png
p119
aVhttp://www.gutenberg.org/files/22549/22549-page-images/p092.png
p120
aVhttp://www.gutenberg.org/files/22549/22549-page-images/p093.png
p121
aVhttp://www.gutenberg.org/files/22549/22549-page-images/p094.png
p122
aVhttp://www.gutenberg.org/files/22549/22549-page-images/p095.png
p123
aVhttp://www.gutenberg.org/files/22549/22549-page-images/p096.png
p124
aVhttp://www.gutenberg.org/files/22549/22549-page-images/p097.png
p125
aVhttp://www.gutenberg.org/files/22549/22549-page-images/p098.png
p126
aVhttp://www.gutenberg.org/files/22549/22549-page-images/p099.png
p127
aVhttp://www.gutenberg.org/files/22549/22549-page-images/p100.png
p128
aVhttp://www.gutenberg.org/files/22549/22549-page-images/p101.png
p129
aVhttp://www.gutenberg.org/files/22549/22549-page-images/p102.png
p130
aVhttp://www.gutenberg.org/files/22549/22549-page-images/p103.png
p131
aVhttp://www.gutenberg.org/files/22549/22549-page-images/p104.png
p132
aVhttp://www.gutenberg.org/files/22549/22549-page-images/p105.png
p133
aVhttp://www.gutenberg.org/files/22549/22549-page-images/p106.png
p134
aVhttp://www.gutenberg.org/files/22549/22549-page-images/p107.png
p135
aVhttp://www.gutenberg.org/files/22549/22549-page-images/p108.png
p136
aVhttp://www.gutenberg.org/files/22549/22549-page-images/p109.png
p137
aVhttp://www.gutenberg.org/files/22549/22549-page-images/p110.png
p138
aVhttp://www.gutenberg.org/files/22549/22549-page-images/p111.png
p139
aVhttp://www.gutenberg.org/files/22549/22549-page-images/p112.png
p140
aVhttp://www.gutenberg.org/files/22549/22549-page-images/p113.png
p141
aVhttp://www.gutenberg.org/files/22549/22549-page-images/p114.png
p142
aVhttp://www.gutenberg.org/files/22549/22549-page-images/p115.png
p143
aVhttp://www.gutenberg.org/files/22549/22549-page-images/p116.png
p144
aVhttp://www.gutenberg.org/files/22549/22549-page-images/p117.png
p145
aVhttp://www.gutenberg.org/files/22549/22549-page-images/p118.png
p146
aVhttp://www.gutenberg.org/files/22549/22549-page-images/p119.png
p147
aVhttp://www.gutenberg.org/files/22549/22549-page-images/p120.png
p148
aVhttp://www.gutenberg.org/files/22549/22549-page-images/p121.png
p149
aVhttp://www.gutenberg.org/files/22549/22549-page-images/p122.png
p150
aVhttp://www.gutenberg.org/files/22549/22549-page-images/p123.png
p151
aVhttp://www.gutenberg.org/files/22549/22549-page-images/p124.png
p152
aVhttp://www.gutenberg.org/files/22549/22549-page-images/p125.png
p153
aVhttp://www.gutenberg.org/files/22549/22549-page-images/p126.png
p154
aVhttp://www.gutenberg.org/files/22549/22549-page-images/p127.png
p155
aVhttp://www.gutenberg.org/files/22549/22549-page-images/p128.png
p156
aVhttp://www.gutenberg.org/files/22549/22549-page-images/p129.png
p157
aVhttp://www.gutenberg.org/files/22549/22549-page-images/p130.png
p158
aVhttp://www.gutenberg.org/files/22549/22549-page-images/p131.png
p159
aVhttp://www.gutenberg.org/files/22549/22549-page-images/p132.png
p160
aVhttp://www.gutenberg.org/files/22549/22549-page-images/p133.png
p161
aVhttp://www.gutenberg.org/files/22549/22549-page-images/p134.png
p162
aVhttp://www.gutenberg.org/files/22549/22549-page-images/p135.png
p163
aVhttp://www.gutenberg.org/files/22549/22549-page-images/p136.png
p164
aVhttp://www.gutenberg.org/files/22549/22549-page-images/p137.png
p165
aVhttp://www.gutenberg.org/files/22549/22549-page-images/p138.png
p166
aVhttp://www.gutenberg.org/files/22549/22549-page-images/p139.png
p167
aVhttp://www.gutenberg.org/files/22549/22549-page-images/p140.png
p168
aVhttp://www.gutenberg.org/files/22549/22549-page-images/p141.png
p169
aVhttp://www.gutenberg.org/files/22549/22549-page-images/p142.png
p170
aVhttp://www.gutenberg.org/files/22549/22549-page-images/p143.png
p171
aVhttp://www.gutenberg.org/files/22549/22549-page-images/p144.png
p172
aVhttp://www.gutenberg.org/files/22549/22549-page-images/p145.png
p173
aVhttp://www.gutenberg.org/files/22549/22549-page-images/p146.png
p174
aVhttp://www.gutenberg.org/files/22549/22549-page-images/p147.png
p175
aVhttp://www.gutenberg.org/files/22549/22549-page-images/p148.png
p176
aVhttp://www.gutenberg.org/files/22549/22549-page-images/p149.png
p177
aVhttp://www.gutenberg.org/files/22549/22549-page-images/p150.png
p178
aVhttp://www.gutenberg.org/files/22549/22549-page-images/p151.png
p179
aVhttp://www.gutenberg.org/files/22549/22549-page-images/p152.png
p180
aVhttp://www.gutenberg.org/files/22549/22549-page-images/p153.png
p181
aVhttp://www.gutenberg.org/files/22549/22549-page-images/p154.png
p182
aVhttp://www.gutenberg.org/files/22549/22549-page-images/p155.png
p183
aVhttp://www.gutenberg.org/files/22549/22549-page-images/p156.png
p184
aVhttp://www.gutenberg.org/files/22549/22549-page-images/p157.png
p185
aVhttp://www.gutenberg.org/files/22549/22549-page-images/p158.png
p186
aVhttp://www.gutenberg.org/files/22549/22549-page-images/p159.png
p187
aVhttp://www.gutenberg.org/files/22549/22549-page-images/p160.png
p188
asS'language_code'
p189
NsS'images'
p190
(lp191
Vhttps://upload.wikimedia.org/wikipedia/en/7/7a/Survivors.jpg
p192
aVhttps://upload.wikimedia.org/wikipedia/commons/a/a0/Sfbook.png
p193
asS'id'
p194
I103
sS'category'
p195
VText
p196
sS'genres'
p197
(lp198
sS'copyright'
p199
VPublic domain in the USA.
p200
sS'title'
p201
VSpace Prison
p202
sS'wikipedia'
p203
(dp204
S'url'
p205
Vhttps://en.wikipedia.org/wiki/The_Survivors_(Godwin_novel)
p206
sS'found'
p207
I01
sS'year'
p208
I-1
ssS'published_in'
p209
NsS'average_rating'
p210
F3.85
sS'rating_count'
p211
I37
sS'content_available'
p212
I01
sS'cover_art_url'
p213
S'http://www.gutenberg.org/cache/epub/22549/pg22549.cover.medium.jpg'
p214
sS'goodreads'
p215
(dp216
g205
Vhttps://www.goodreads.com/book/show/8198063-space-prison-and-other-works
p217
sg207
I01
sg208
I2010
ssS'similar_books'
p218
(lp219
sS'description'
p220
NsS'gutenberg'
p221
(dp222
g205
Vhttp://www.gutenberg.org/ebooks/22549
p223
sS'num'
p224
I22549
ssS'authors'
p225
(lp226
I39
asS'isbn13'
p227
NsS'language'
p228
VEnglish
p229
sS'countries'
p230
(lp231
I2
asS'release_date'
p232
S'2007-09-09T00:00:00'
p233
sS'author'
p234
I39
sS'original_title'
p235
VThe Survivors (Godwin novel)
p236
sS'summary'
p237
VThe Survivors is a science fiction novel by author Tom Godwin. It was published in 1958 by Gnome Press in an edition of 5,000 copies, of which 1,084 were never bound. The novel was published in paperback by Pyramid Books in 1960 under the title Space Prison. The novel is an expansion of Godwin's story "Too Soon to Die" which first appeared in the magazine Venture.
p238
sS'content_cleaned'
p239
I01
sS'classes'
p240
(lp241
Vto-read
p242
aVscience-fiction
p243
aVsci-fi
p244
aVfiction
p245
aVsf
p246
aVread-in-2013
p247
aVliked-read-once-prob-recommend
p248
aVneed-rating
p249
aVcouldn-t-finish
p250
aVkindle-books
p251
aVcalibre-library
p252
aVkindle
p253
aVstarss-3-liked-read-recom
p254
aVrate
p255
asS'loc_class'
p256
VPS: Language and Literatures: American and Canadian literature
p257
sS'n_authors'
p258
I1
sb.