ccopy_reg
_reconstructor
p0
(cdataset.Book
Book
p1
c__builtin__
object
p2
Ntp3
Rp4
(dp5
S'similar_books'
p6
(lp7
sS'genres'
p8
(lp9
sS'author'
p10
I302
sS'countries'
p11
(lp12
I2
asS'year'
p13
I1978
sS'title'
p14
VGalaxy Magazine September 1978
p15
sS'cover'
p16
Vhttps://ia600209.us.archive.org/BookReader/BookReaderImages.php?zip=/13/items/Galaxy_v39n07_1978-09/Galaxy_v39n07_1978-09_jp2.zip&file=Galaxy_v39n07_1978-09_jp2/Galaxy_v39n07_1978-09_0000.jp2&scale=0&rotate=0
p17
sS'cover_art'
p18
S'http://www.isfdb.org/wiki/images/b/bb/GALSEP78.jpg'
p19
sS'author_name'
p20
VGalaxy Magazine
p21
sS'images_urls'
p22
(lp23
sS'authors'
p24
(lp25
I863
aI326
aI871
aI742
aI734
aI844
aI843
aI767
aI872
aI693
aI851
aI873
aI817
aI302
asS'images'
p26
(lp27
sS'id'
p28
I1212
sS'contents'
p29
(lp30
(dp31
g10
I863
sg14
VShowcase (Galaxy, September 1978)
p32
sa(dp33
g10
I326
sg14
VRescue Room
p34
sa(dp35
g10
I326
sg14
VThe Breath of the Lily
p36
sa(dp37
g10
I326
sg14
VThe Breath of the Lily [2]
p38
sa(dp39
g10
I871
sg14
VFearn
p40
sa(dp41
g10
I871
sg14
VFearn [2]
p42
sa(dp43
g10
I742
sg14
VThe Stars in Shroud (Part 3 of 3)
p44
sa(dp45
g10
I742
sg14
VThe Stars in Shroud (Part 3 of 3) [2]
p46
sa(dp47
g10
I742
sg14
VThe Stars in Shroud (Part 3 of 3) [3]
p48
sa(dp49
g10
I742
sg14
VThe Stars in Shroud (Part 3 of 3) [4]
p50
sa(dp51
g10
I742
sg14
VThe Stars in Shroud (Part 3 of 3) [5]
p52
sa(dp53
g10
I863
sg14
VThe Dalmatian of Faust
p54
sa(dp55
g10
I863
sg14
VThe Dalmatian of Faust [2]
p56
sa(dp57
g10
I326
sg14
VS. F. Calendar (Galaxy, September 1978)
p58
sa(dp59
g10
I734
sg14
VWill There Be Stars in Our Crown?
p60
sa(dp61
g10
I844
sg14
VEditorial Matters (Galaxy, September 1978)
p62
sa(dp63
g10
I843
sg14
VGalaxy Bookshelf (Galaxy, September 1978)
p64
sa(dp65
g10
I767
sg14
VThe Alien Viewpoint (Galaxy, September 1978)
p66
sa(dp67
g10
I872
sg14
VRescue Room
p68
sa(dp69
g10
I693
sg14
VThe Stars in Shroud (Part 3 of 3)
p70
sa(dp71
g10
I851
sg14
VThe Breath of the Lily
p72
sa(dp73
g10
I873
sg14
VFearn
p74
sa(dp75
g10
I817
sg14
VThe Dalmatian of Faust
p76
sasb.