ccopy_reg
_reconstructor
p0
(cdataset.Book
Book
p1
c__builtin__
object
p2
Ntp3
Rp4
(dp5
S'content_name'
p6
V22102.txt.utf-8
p7
sS'isbn'
p8
V1604243430
p9
sS'year'
p10
I1956
sS'author_name'
p11
VAlfred Coppel
p12
sS'images_urls'
p13
(lp14
Vhttp://www.gutenberg.org/files/22102/22102-h/images/illustration.png
p15
aVhttp://www.gutenberg.org/files/22102/22102-page-images/p115-image.png
p16
aVhttp://www.gutenberg.org/files/22102/22102-page-images/p115.png
p17
aVhttp://www.gutenberg.org/files/22102/22102-page-images/p116.png
p18
aVhttp://www.gutenberg.org/files/22102/22102-page-images/p117.png
p19
aVhttp://www.gutenberg.org/files/22102/22102-page-images/p118.png
p20
aVhttp://www.gutenberg.org/files/22102/22102-page-images/p119.png
p21
aVhttp://www.gutenberg.org/files/22102/22102-page-images/p120.png
p22
aVhttp://www.gutenberg.org/files/22102/22102-page-images/p121.png
p23
aVhttp://www.gutenberg.org/files/22102/22102-page-images/p122.png
p24
aVhttp://www.gutenberg.org/files/22102/22102-page-images/p123.png
p25
asS'language_code'
p26
NsS'images'
p27
(lp28
sS'id'
p29
I858
sS'category'
p30
VText
p31
sS'genres'
p32
(lp33
sS'copyright'
p34
VPublic domain in the USA.
p35
sS'title'
p36
VThe Hills of Home
p37
sS'wikipedia'
p38
(dp39
S'found'
p40
I00
ssS'average_rating'
p41
F3.76
sS'rating_count'
p42
I19
sS'content_available'
p43
I01
sS'goodreads'
p44
(dp45
S'url'
p46
S'https://www.goodreads.com/book/show/2395656.The_Hills_of_Home'
p47
sS'found'
p48
I01
ssS'similar_books'
p49
(lp50
sS'description'
p51
VAlfred Coppel was a science fiction writer in the middle of the 20th century. He wrote adventurous stories for numerous pulp magazines. Other works by Coppel can be found under his pseudonym Robert Cham Gilman.
p52
sS'gutenberg'
p53
(dp54
S'url'
p55
Vhttp://www.gutenberg.org/ebooks/22102
p56
sS'num'
p57
I22102
ssS'authors'
p58
(lp59
I166
asS'pages'
p60
I48
sS'isbn13'
p61
V9781604243437
p62
sS'language'
p63
VEnglish
p64
sS'countries'
p65
(lp66
I2
asS'release_date'
p67
S'2007-07-19T00:00:00'
p68
sS'author'
p69
I166
sS'cover'
p70
Vhttps://s.gr-assets.com/assets/nophoto/book/111x148-bcc042a9c91a29c1d680899eff700a03.png
p71
sS'content_cleaned'
p72
I01
sS'classes'
p73
(lp74
Vto-read
p75
aVcurrently-reading
p76
aVsci-fi
p77
aVscience-fiction
p78
aVsf
p79
aVmale-authors
p80
aVenglish
p81
aVsyfy
p82
aV16
p83
aVlibrivox-short-story-collection-11
p84
aVaudiobooks
p85
aVshort-story
p86
aVbooks-i-disliked
p87
aVchristian
p88
aVgeneral
p89
aVfiction
p90
aVclassics
p91
aVmy-ebooks
p92
aVnovel
p93
aVebook
p94
aVpdfs
p95
aVtype-short-story
p96
aVowned-books
p97
asS'loc_class'
p98
VPS: Language and Literatures: American and Canadian literature
p99
sS'n_authors'
p100
I1
sb.