ccopy_reg
_reconstructor
p0
(cdataset.Book
Book
p1
c__builtin__
object
p2
Ntp3
Rp4
(dp5
S'content_name'
p6
V28924.txt.utf-8
p7
sS'isbn'
p8
NsS'year'
p9
I1956
sS'author_name'
p10
VRobert F. Young
p11
sS'images_urls'
p12
(lp13
sS'language_code'
p14
NsS'id'
p15
I661
sS'category'
p16
VText
p17
sS'genres'
p18
(lp19
sS'copyright'
p20
VPublic domain in the USA.
p21
sS'title'
p22
VCollector's Item
p23
sS'wikipedia'
p24
(dp25
S'found'
p26
I00
ssS'average_rating'
p27
F3.6
sS'rating_count'
p28
I12
sS'content_available'
p29
I01
sS'goodreads'
p30
(dp31
S'url'
p32
S'https://www.goodreads.com/book/show/10360401-collector-s-item'
p33
sS'found'
p34
I01
ssS'similar_books'
p35
(lp36
sS'description'
p37
VWe've often wondered what would happen if Robert Young should cease to be a lyrically intense writer for a story or two, forsaking the bright poetic worlds of Miss Katy Three and The First Sweet Sleep Of Night to become dispassionately analytical on a cosmic scale. Now we know! He'd chill us to the bone by setting two squixes to brooding over a never-to-be-born Earth, exactly as he's done here. And thrill us, too -- with the liveliest kind of entertainment.<br /><br />Originally published short story from Fantastic Worlds, Sept 1956, now available thru Gutenberg et. al.
p38
sS'gutenberg'
p39
(dp40
S'url'
p41
Vhttp://www.gutenberg.org/ebooks/28924
p42
sS'num'
p43
I28924
ssS'authors'
p44
(lp45
I153
asS'pages'
p46
I13
sS'isbn13'
p47
NsS'language'
p48
VEnglish
p49
sS'countries'
p50
(lp51
I2
asS'release_date'
p52
S'2009-05-22T00:00:00'
p53
sS'author'
p54
I153
sS'content_cleaned'
p55
I01
sS'classes'
p56
(lp57
Vto-read
p58
aVscience-fiction
p59
aVauthors-r-through-z
p60
aVowned-pending-kindle-free-ebook
p61
aV15
p62
aVshort-story
p63
aVebooks
p64
aVeb-other
p65
aVeb
p66
aVebook
p67
aVtype-short-story
p68
asS'loc_class'
p69
VPS: Language and Literatures: American and Canadian literature
p70
sS'n_authors'
p71
I1
sb.