ccopy_reg
_reconstructor
p0
(cdataset.Book
Book
p1
c__builtin__
object
p2
Ntp3
Rp4
(dp5
S'content_name'
p6
V20212.txt.utf-8
p7
sS'isbn'
p8
V0809501473
p9
sS'year'
p10
I1956
sS'author_name'
p11
VLester Del Rey
p12
sS'images_urls'
p13
(lp14
sS'language_code'
p15
NsS'images'
p16
(lp17
sS'id'
p18
I270
sS'category'
p19
VText
p20
sS'genres'
p21
(lp22
sS'copyright'
p23
VPublic domain in the USA.
p24
sS'title'
p25
VPolice Your Planet
p26
sS'wikipedia'
p27
(dp28
S'found'
p29
I00
ssS'average_rating'
p30
F3.28
sS'rating_count'
p31
I149
sS'content_available'
p32
I01
sS'goodreads'
p33
(dp34
S'url'
p35
Vhttps://www.goodreads.com/book/show/255455.Police_Your_Planet
p36
sg29
I01
sS'year'
p37
I1956
ssS'similar_books'
p38
(lp39
VInvaders from the Infinite
p40
aVThe Night of the Long Knives
p41
aVThe False Mirror (The Damned, #2)
p42
aVThe Colors of Space
p43
aVFirst Flight (Nicole Shea, #1)
p44
aVSome of the Best From Tor.com, 2013 Edition
p45
aVStar Born (Pax/Astra, #2)
p46
aVStrings
p47
aVThe Forgotten Planet
p48
aVGodspeed
p49
aVReclamation
p50
aVChildren No More (Jon & Lobo, #4)
p51
aVBirth of Fire
p52
aVThe Regiment (The Regiment, #1)
p53
aVTime's Edge (Time's Edge, #1)
p54
aVThe Ring of Charon (The Hunted Earth, #1)
p55
aVTheir Noble Lordships: Hereditary Peerage Today
p56
asS'description'
p57
VBruce Gordon was an ex-fighter, ex-gambler, ex-cop, ex-reporter, and now he was an ex-patriot of Earth. Security shipped him to Mars with a knife, 100 credits, and a yellow card that meant no return. An SF novel that would appeal to Mickey Spillane fans, Police Your Planet features lots of hands-on violence, assorted beatings, and blood. But this isn't just a crime novel put into space; this is a hard sf novel, and the terraforming of Mars, while not dwelt upon, is central to the story.
p58
sS'format'
p59
VPaperback
p60
sS'gutenberg'
p61
(dp62
g35
Vhttp://www.gutenberg.org/ebooks/20212
p63
sS'num'
p64
I20212
ssS'authors'
p65
(lp66
I73
asS'pages'
p67
I124
sS'isbn13'
p68
V9780809501472
p69
sS'language'
p70
VEnglish
p71
sS'countries'
p72
(lp73
I2
asS'release_date'
p74
S'2006-12-29T00:00:00'
p75
sS'author'
p76
I73
sS'content_cleaned'
p77
I01
sS'classes'
p78
(lp79
Vto-read
p80
aVscience-fiction
p81
aVcurrently-reading
p82
aVsci-fi
p83
aVfiction
p84
aVdefault
p85
aVowned
p86
aVscifi
p87
aVsf
p88
aVscience
p89
aVsf-fantasy
p90
aVcollection
p91
aVjames-bowmans-books
p92
aVbooks
p93
aVebook
p94
aVusa
p95
aVchecked
p96
aVon-my-shelf
p97
aVsci-fi-or-speculative
p98
aVkindle
p99
aV0-3-star-rating
p100
aVon-pc-to-read
p101
aVcovers-david-mattingly
p102
aVgot
p103
aVa-scan_basement
p104
aVdo-not-want
p105
aVall-books
p106
aVsf-ordinary
p107
aVlester-del-rey-science-fiction-a
p108
aVowned-but-unread
p109
aVz-1956-pub
p110
aVzz-2016-completed
p111
aVgrp-reviewed
p112
aVevaluated
p113
aVunsorted-read
p114
aVsuspense
p115
aVpaperbacks
p116
aVjustin-s-dad
p117
aVsoft_sf
p118
aVowned-pending-kindle-free-ebook
p119
aVkindle-free-ebook
p120
aVavailable
p121
aVcrime
p122
aVbin-010
p123
aVtote-3
p124
aVnovels
p125
aVother
p126
aVnook-59-sci-fi-classics
p127
aVcollections
p128
aVfuturistic
p129
aVto-read-1a-sf
p130
aVto-read-1
p131
aVread-in-2015
p132
aVgrand-masters
p133
aVbuy-on-site
p134
aVc-r
p135
aVpotboilers
p136
aVb-p-q-r
p137
aVebook_only
p138
aV2014-reading-list
p139
aVused
p140
aVnice-cover
p141
aVdidn-t-know-this-book-existed
p142
aVmy-bookshelf
p143
aVamazon
p144
aVfeedbooks-com
p145
aVbook-box-f
p146
aVreimport
p147
aVbox-05
p148
aVsff
p149
aVto-be-read-i-own
p150
aVspace-opera
p151
aVwsv
p152
aVto-read-kindle
p153
aVswapped-or-donated
p154
aVpaperback
p155
aVnot-popular
p156
aV20-science-fiction
p157
aV010-audiobooks
p158
aVfantasy-sf
p159
aVown-ebook
p160
aVfavorites
p161
aV2013-08
p162
aVread-in-2013
p163
aVsf12
p164
aVthan
p165
aVonce
p166
aVmore
p167
aVfree-book-from-amazon-com
p168
aV4-star
p169
aVmarie
p170
aVg-sci-fi-fantasy
p171
aVfamilyroom
p172
aVaudiobooks
p173
aVhavedeadtree
p174
aV1993
p175
aVearlier
p176
aVtr-tf
p177
aVscienco-fikcio
p178
aVi-read
p179
asS'loc_class'
p180
VPS: Language and Literatures: American and Canadian literature
p181
sS'n_authors'
p182
I1
sb.