ccopy_reg
_reconstructor
p0
(cdataset.Book
Book
p1
c__builtin__
object
p2
Ntp3
Rp4
(dp5
S'similar_books'
p6
(lp7
sS'genres'
p8
(lp9
sS'author'
p10
I302
sS'countries'
p11
(lp12
I2
asS'year'
p13
I1959
sS'title'
p14
VGalaxy Magazine February 1959
p15
sS'cover'
p16
Vhttps://ia600200.us.archive.org/BookReader/BookReaderImages.php?zip=/35/items/Galaxy_v17n03_1959-02/Galaxy_v17n03_1959-02_jp2.zip&file=Galaxy_v17n03_1959-02_jp2/Galaxy_v17n03_1959-02_0000.jp2&scale=0&rotate=0
p17
sS'cover_art'
p18
S'http://www.isfdb.org/wiki/images/b/b0/GALFEB1959.jpg'
p19
sS'author_name'
p20
VGalaxy Magazine
p21
sS'images_urls'
p22
(lp23
sS'authors'
p24
(lp25
I519
aI419
aI305
aI339
aI326
aI483
aI56
aI40
aI507
aI23
aI240
aI302
asS'images'
p26
(lp27
sS'id'
p28
I1071
sS'contents'
p29
(lp30
(dp31
S'title'
p32
VInstallment Plan
p33
sS'author'
p34
I519
sa(dp35
g32
VInstallment Plan [2]
p36
sg34
I519
sa(dp37
g32
VInstallment Plan [3]
p38
sg34
I519
sa(dp39
g32
VPastoral Affair
p40
sg34
I419
sa(dp41
g32
VI Plinglot - Who You?
p42
sg34
I519
sa(dp43
g32
VI Plinglot - Who You? [2]
p44
sg34
I519
sa(dp45
g32
VI Plinglot - Who You? [3]
p46
sg34
I519
sa(dp47
g32
VInsidekick
p48
sg34
I519
sa(dp49
g32
VInsidekick [2]
p50
sg34
I519
sa(dp51
g32
VInsidekick [3]
p52
sg34
I519
sa(dp53
g32
VForever
p54
sg34
I419
sa(dp55
g32
VTime Killer (Part 4 of 4)
p56
sg34
I519
sa(dp57
g32
VTime Killer (Part 4 of 4) [2]
p58
sg34
I519
sa(dp59
g32
VTime Killer (Part 4 of 4) [3]
p60
sg34
I519
sa(dp61
g32
VWhat'll It Be?
p62
sg34
I305
sa(dp63
g32
VFor Your Information: Monsters of the Deep
p64
sg34
I339
sa(dp65
g32
VForecast (Galaxy, February 1959)
p66
sg34
I326
sa(dp67
g32
VGalaxy's 5 Star Shelf (Galaxy, February 1959)
p68
sg34
I483
sa(dp69
g32
VInstallment Plan
p70
sg34
I56
sa(dp71
g32
VI Plinglot - Who You?
p72
sg34
I40
sa(dp73
g32
VInsidekick
p74
sg34
I507
sa(dp75
g32
VTime Killer (Part 4 of 4)
p76
sg34
I23
sa(dp77
g32
VPastoral Affair
p78
sg34
I240
sa(dp79
g32
VForever
p80
sg34
I23
sasb.