ccopy_reg
_reconstructor
p0
(cdataset.Book
Book
p1
c__builtin__
object
p2
Ntp3
Rp4
(dp5
S'content_name'
p6
V24913.txt.utf-8
p7
sS'isbn'
p8
V1406311529
p9
sS'year'
p10
I2011
sS'author_name'
p11
VS. M. Tenneshaw
p12
sS'images_urls'
p13
(lp14
Vhttp://www.gutenberg.org/files/24913/24913-h/images/001.png
p15
aVhttp://www.gutenberg.org/files/24913/24913-h/images/002-1.jpg
p16
aVhttp://www.gutenberg.org/files/24913/24913-h/images/002-2.jpg
p17
asS'language_code'
p18
Veng
p19
sS'images'
p20
(lp21
sS'id'
p22
I291
sS'category'
p23
VText
p24
sS'genres'
p25
(lp26
sS'copyright'
p27
VPublic domain in the USA.
p28
sS'title'
p29
VThe Monster
p30
sS'wikipedia'
p31
(dp32
S'url'
p33
Vhttps://en.wikipedia.org/wiki/Monster_Manual
p34
sS'found'
p35
I01
sS'year'
p36
I-1
ssS'published_in'
p37
NsS'average_rating'
p38
F4.36
sS'rating_count'
p39
I104977
sS'content_available'
p40
I01
sS'goodreads'
p41
(dp42
g33
Vhttps://www.goodreads.com/book/show/8621462-a-monster-calls
p43
sg35
I01
sg36
I2011
ssS'similar_books'
p44
(lp45
VThe Curse of the Wendigo (The Monstrumologist, #2)
p46
aVEverybody Sees the Ants
p47
aVLips Touch: Three Times
p48
aVFroi of the Exiles (Lumatere Chronicles, #2)
p49
aVOkay for Now
p50
aVAddie on the Inside (The Misfits, #3)
p51
aVBog Child
p52
aVCuckoo Song
p53
aVNo Crystal Stair: A Documentary Novel of the Life and Work of Lewis Michaux, Harlem Bookseller
p54
aVMidwinterblood
p55
aVFury
p56
aVThe Reluctant Journal of Henry K. Larsen
p57
aVMy Name Is Mina (Skellig, #0.5)
p58
aVBluefish
p59
aVHidden
p60
aVRotters
p61
aVChime
p62
aVTales from Outer Suburbia
p63
asS'description'
p64
VThe monster showed up after midnight. As they do.<br /><br />But it isn\u2019t the monster Conor\u2019s been expecting. He\u2019s been expecting the one from his nightmare, the one he\u2019s had nearly every night since his mother started her treatments, the one with the darkness and the wind and the screaming\u2026<br /><br />This monster is something different, though. Something ancient, something wild. And it wants the most dangerous thing of all from Conor.<br /><br />It wants the truth.
p65
sS'format'
p66
VHardcover
p67
sS'gutenberg'
p68
(dp69
g33
Vhttp://www.gutenberg.org/ebooks/24913
p70
sS'num'
p71
I24913
ssS'authors'
p72
(lp73
I93
asS'pages'
p74
I216
sS'isbn13'
p75
V9781406311525
p76
sS'language'
p77
VEnglish
p78
sS'country'
p79
I2
sS'release_date'
p80
S'2008-03-25T00:00:00'
p81
sS'author'
p82
I93
sS'original_title'
p83
VMonster Manual
p84
sS'summary'
p85
VThe Monster Manual (MM) is the primary bestiary sourcebook for monsters in the Dungeons & Dragons (D&D) fantasy role-playing game, first published in 1977 by TSR. It includes monsters derived from mythology, and folklore, as well as creatures created for D&D specifically. It describes each with game-specific statistics (such as the monster's level or number of hit dice), and a brief description of its habits and habitats. Most of the entries also have an image of the creature. Along with the Player's Handbook and Dungeon Master's Guide, it is one of the three "core rulebooks" in most editions of the D&D game. Several editions of the Monster Manual have been released for each edition of D&D. It was the first hardcover book of the D&D series. Due to the level of detail and illustration included, it was cited as a pivotal example of a new style of wargame books. Future editions would draw on various sources and act as a compendium of published monsters.
p86
sS'content_cleaned'
p87
I01
sS'classes'
p88
(lp89
Vfavorites
p90
aVfantasy
p91
aVcurrently-reading
p92
aVto-read
p93
aVya
p94
aVfiction
p95
aVhorror
p96
aVbooks-i-own
p97
aVyoung-adult
p98
aVfavourites
p99
aVcontemporary
p100
aVowned
p101
aVmiddle-grade
p102
aVto-buy
p103
aVread-in-2016
p104
aVmade-me-cry
p105
aVlibrary
p106
aVmagical-realism
p107
aVchildrens
p108
aVowned-books
p109
aVparanormal
p110
aVread-in-2017
p111
aVdeath
p112
aVread-in-2015
p113
aVchildren
p114
aVwish-list
p115
aVbook-club
p116
aVteen
p117
aV5-stars
p118
aVstand-alone
p119
aVread-2016
p120
aVebook
p121
aVread-in-2014
p122
aVfamily
p123
aVgrief
p124
aVchildren-s
p125
aVya-fiction
p126
aVaudiobook
p127
aVcoming-of-age
p128
aVgraphic-novels
p129
aVcancer
p130
aVaudiobooks
p131
aVread-2017
p132
aVrealistic-fiction
p133
aV2016-reads
p134
aVdrama
p135
aVread-in-2012
p136
aVall-time-favorites
p137
aVfavorite
p138
aVi-own
p139
aVsupernatural
p140
aV2017-reads
p141
aVyoung-adult-fiction
p142
aVillustrated
p143
aVread-2015
p144
aVlibrary-books
p145
aVebooks
p146
aVreviewed
p147
aVstandalone
p148
aVfavorite-books
p149
aVread-in-english
p150
aVbullying
p151
aVread-in-2013
p152
aVchildren-s-books
p153
aVya-fantasy
p154
aVstand-alones
p155
aVbooks-that-made-me-cry
p156
aVmonsters
p157
aVaudio
p158
aVmy-books
p159
aVenglish
p160
aVon-my-shelf
p161
aVgraphic-novel
p162
aVsad
p163
aVnovels
p164
aVmystery
p165
aVdark
p166
aVtbr
p167
aVmiddle-school
p168
aVya-lit
p169
aVmust-read
p170
aVmaybe
p171
aVfavoritos
p172
aV4-stars
p173
aVread-2014
p174
aVrecommended
p175
aV2015-reads
p176
aVi-cried
p177
aVstandalones
p178
aVborrowed
p179
aVya-books
p180
aVillness
p181
aVmy-library
p182
aVfavourite
p183
aVmale-pov
p184
aV2017-reading-challenge
p185
aVurban-fantasy
p186
aVteen-fiction
p187
aVbooks-13-25
p188
aVneed-to-buy
p189
asS'loc_class'
p190
VPS: Language and Literatures: American and Canadian literature
p191
sS'n_authors'
p192
I1
sb.