ccopy_reg
_reconstructor
p0
(cdataset.Book
Book
p1
c__builtin__
object
p2
Ntp3
Rp4
(dp5
S'content_name'
p6
V32447.txt.utf-8
p7
sS'isbn'
p8
NsS'year'
p9
I1954
sS'author_name'
p10
VJames Blish
p11
sS'images_urls'
p12
(lp13
Vhttp://www.gutenberg.org/files/32447/32447-h/images/cover.jpg
p14
aVhttp://www.gutenberg.org/files/32447/32447-h/images/illus1.jpg
p15
aVhttp://www.gutenberg.org/files/32447/32447-h/images/illus2.jpg
p16
asS'language_code'
p17
NsS'id'
p18
I156
sS'category'
p19
VText
p20
sS'genres'
p21
(lp22
sS'copyright'
p23
VPublic domain in the USA.
p24
sS'title'
p25
VThe Thing in the Attic
p26
sS'wikipedia'
p27
(dp28
S'found'
p29
I00
ssS'average_rating'
p30
F3.27
sS'rating_count'
p31
I58
sS'content_available'
p32
I01
sS'cover_art_url'
p33
S'http://www.gutenberg.org/cache/epub/32447/pg32447.cover.medium.jpg'
p34
sS'goodreads'
p35
(dp36
S'url'
p37
Vhttps://www.goodreads.com/book/show/8533578-the-thing-in-the-attic
p38
sS'found'
p39
I01
sS'year'
p40
I1954
ssS'similar_books'
p41
(lp42
sS'description'
p43
NsS'gutenberg'
p44
(dp45
g37
Vhttp://www.gutenberg.org/ebooks/32447
p46
sS'num'
p47
I32447
ssS'authors'
p48
(lp49
I55
asS'isbn13'
p50
NsS'language'
p51
VEnglish
p52
sS'countries'
p53
(lp54
I2
asS'release_date'
p55
S'2010-05-20T00:00:00'
p56
sS'author'
p57
I55
sS'cover'
p58
Vhttps://s.gr-assets.com/assets/nophoto/book/111x148-bcc042a9c91a29c1d680899eff700a03.png
p59
sS'content_cleaned'
p60
I01
sS'classes'
p61
(lp62
Vto-read
p63
aVscience-fiction
p64
aVsci-fi
p65
aVebook
p66
aVscifi
p67
aVaudiobook
p68
aVshort-stories
p69
aVshort-story
p70
aVfiction
p71
aVclassics
p72
aVaudiobooks
p73
aVon-pc-to-read
p74
aVaudiobooks-to-read
p75
aVadventure
p76
aV20th-century
p77
aVtbr-later-complete
p78
aVowned-books
p79
aVall
p80
aVlistened-to
p81
aVscience
p82
aVz_fiction
p83
aVx_shortstory
p84
aVwo_scifi
p85
aVlater
p86
aVw_us_modern
p87
aVunread
p88
aVto-read-kindle
p89
aV1950s
p90
aV1-owning
p91
aVmay-read-it-maybe-not
p92
aVfinished-science-fiction
p93
aVon-disk
p94
aVextraterrestrials
p95
aVclassic
p96
aVadventure-suspense
p97
aVkindle
p98
aVfeedbooks-com
p99
aVshelfari
p100
aVreimport
p101
aVto-be-read-i-own
p102
aVin-library
p103
aVaudio-ebooks
p104
aVe-reader
p105
aVlibrivox-free-editions
p106
aVgenre
p107
aVhave-e-book
p108
aVhave-on-nook
p109
aVtbr-later
p110
aVreorganize2
p111
aVreorganize
p112
aVsci-fi-fantasy
p113
aVaudio-books
p114
asS'loc_class'
p115
VPS: Language and Literatures: American and Canadian literature
p116
sS'n_authors'
p117
I1
sb.