ccopy_reg
_reconstructor
p0
(cdataset.Book
Book
p1
c__builtin__
object
p2
Ntp3
Rp4
(dp5
S'category'
p6
VText
p7
sS'similar_books'
p8
(lp9
sS'genres'
p10
(lp11
sS'language'
p12
VEnglish
p13
sS'copyright'
p14
VPublic domain in the USA.
p15
sS'title'
p16
VA Trip to Venus: A Novel
p17
sS'year'
p18
I1897
sS'release_date'
p19
S'2004-10-11T00:00:00'
p20
sS'author'
p21
I77
sS'wikipedia'
p22
(dp23
S'found'
p24
I00
ssS'author_name'
p25
VJohn Munro
p26
sS'images_urls'
p27
(lp28
sS'gutenberg'
p29
(dp30
S'url'
p31
Vhttp://www.gutenberg.org/ebooks/13716
p32
sS'num'
p33
I13716
ssS'classes'
p34
(lp35
sS'loc_class'
p36
VPR: Language and Literatures: English literature
p37
sS'authors'
p38
(lp39
I77
asS'content_available'
p40
I00
sS'n_authors'
p41
I1
sS'countries'
p42
(lp43
I1
asS'id'
p44
I234
sS'goodreads'
p45
(dp46
S'found'
p47
I00
ssb.