ccopy_reg
_reconstructor
p0
(cdataset.Book
Book
p1
c__builtin__
object
p2
Ntp3
Rp4
(dp5
S'content_name'
p6
V30796.txt.utf-8
p7
sS'isbn'
p8
V0425064662
p9
sS'year'
p10
I1963
sS'author_name'
p11
VBen Bova
p12
sS'images_urls'
p13
(lp14
Vhttp://www.gutenberg.org/files/30796/30796-h/images/image_001.jpg
p15
aVhttp://www.gutenberg.org/files/30796/30796-h/images/image_002.jpg
p16
aVhttp://www.gutenberg.org/files/30796/30796-h/images/image_003.jpg
p17
aVhttp://www.gutenberg.org/files/30796/30796-h/images/image_004.jpg
p18
aVhttp://www.gutenberg.org/files/30796/30796-h/images/image_005.jpg
p19
aVhttp://www.gutenberg.org/files/30796/30796-h/images/image_006.jpg
p20
aVhttp://www.gutenberg.org/files/30796/30796-h/images/image_007.jpg
p21
aVhttp://www.gutenberg.org/files/30796/30796-h/images/image_008.jpg
p22
aVhttp://www.gutenberg.org/files/30796/30796-h/images/image_009.jpg
p23
asS'language_code'
p24
Veng
p25
sS'images'
p26
(lp27
sS'id'
p28
I148
sS'category'
p29
VText
p30
sS'genres'
p31
(lp32
sS'copyright'
p33
VPublic domain in the USA.
p34
sS'title'
p35
VThe Dueling Machine
p36
sS'wikipedia'
p37
(dp38
S'found'
p39
I00
ssS'average_rating'
p40
F3.54
sS'rating_count'
p41
I262
sS'content_available'
p42
I01
sS'goodreads'
p43
(dp44
S'url'
p45
Vhttps://www.goodreads.com/book/show/397658.The_Dueling_Machine
p46
sg39
I01
sS'year'
p47
I1963
ssS'similar_books'
p48
(lp49
VBadge of Infamy
p50
aVLegacy
p51
aVThe Green Odyssey
p52
aVThis Crowded Earth
p53
aVStarman's Quest
p54
aVSpacehounds of IPC
p55
aVPlanet of the Damned
p56
aVOperation: Outer Space
p57
aVCode of the Lifemaker (Code of the Lifemaker, #1)
p58
aVIceworld
p59
aVFall of the White Ship Avatar (Alacrity FitzHugh & Hobart Floyt, #3)
p60
aVThe Status Civilization
p61
aVInvaders from the Infinite
p62
aVThe Preserving Machine
p63
aVEon / Eternity ( The Way, #1,2)
p64
aVBefore the Golden Age: A Science Fiction Anthology of the 1930s
p65
aVA Different Light
p66
aVChildren of the Thunder
p67
asS'description'
p68
NsS'gutenberg'
p69
(dp70
g45
Vhttp://www.gutenberg.org/ebooks/30796
p71
sS'num'
p72
I30796
ssS'authors'
p73
(lp74
I47
aI53
asS'pages'
p75
I256
sS'isbn13'
p76
V9780425064665
p77
sS'language'
p78
VEnglish
p79
sS'countries'
p80
(lp81
I3
asS'release_date'
p82
S'2009-12-29T00:00:00'
p83
sS'author'
p84
I47
sS'cover'
p85
Vhttps://s.gr-assets.com/assets/nophoto/book/111x148-bcc042a9c91a29c1d680899eff700a03.png
p86
sS'content_cleaned'
p87
I01
sS'classes'
p88
(lp89
Vto-read
p90
aVscience-fiction
p91
aVsci-fi
p92
aVowned
p93
aVfiction
p94
aVscifi
p95
aVdefault
p96
aVsf
p97
aVcurrently-reading
p98
aVfavorites
p99
aVaudiobooks
p100
aVfantascienza
p101
aVben-bova
p102
aVscifi-new-wave-1960-1979
p103
aVurania
p104
aVshort-fiction
p105
aVbooks-i-own
p106
aVkindle
p107
aVebook
p108
aVhd
p109
aVshort-stories
p110
aVpublic-domain-science-fiction
p111
aVpublic-domain
p112
aVclassics
p113
aVlibrivox
p114
aVscience
p115
aVhd-to-read
p116
aVon-calibre-to-read
p117
aVowned-to-read
p118
aVmilitary-sf
p119
aVfantasy-scifi
p120
aVzoe
p121
aVphysical
p122
aVbulk-scan
p123
aV20th-century-lit
p124
aVshelf-b-authors
p125
aVgenre-syfi-fan-horr
p126
aVread-in-english
p127
aVaudio-cd
p128
aVurania-s
p129
aVvr-and-ar-in-science-fiction
p130
aVborrowed
p131
aVpulp-fiction
p132
aVold-skool
p133
aVsoft-sci-fi
p134
aVnovella
p135
aVposseduti
p136
aVown-audiobook
p137
aVratbaggy
p138
aVs-f
p139
aVtub-007
p140
aVsf-fantasy
p141
aV20th-century
p142
aVhave
p143
aVaudio-books
p144
aVread-science-fiction
p145
aVto-read-unrated
p146
aVhugo-award-winners
p147
aVapocalyptically-inclined
p148
aV1-100-great-sci-books
p149
aVshort
p150
aVlibrary
p151
aVtaggare
p152
aValready-own-to-read
p153
aVgood-fiction
p154
aVfun-reads
p155
aVhave-audio
p156
aVto-read-ebooks
p157
aVcollection
p158
aVmy-favorites
p159
aVaudiobook
p160
aVmy-collection
p161
aVebooks
p162
aVbest-stories
p163
aVto-buy
p164
aVpaul
p165
aVscience-fiction-and-fantasy
p166
aVhaven-t-read
p167
aVsci-fi-fantasy
p168
aVfill-in-the-gaps-project-100
p169
aVadventure
p170
aVseries
p171
aVscience-fiction-times
p172
aVsci-fi-and-fantasy
p173
aVpaperback
p174
aVebook-kindle-own
p175
aV2013-to-read
p176
aVset-aside
p177
aVowned-by-me
p178
aVlistened-to-cd
p179
aVhave-ebook
p180
aVmisc
p181
aVlocation-sff
p182
aV1
p183
aVbova-ben
p184
aVdo-not-own
p185
aVfamilyroom
p186
aVscience-ficton
p187
aVread70s
p188
aVscifi-fantasy
p189
asS'loc_class'
p190
VPS: Language and Literatures: American and Canadian literature
p191
sS'n_authors'
p192
I2
sb.