ccopy_reg
_reconstructor
p0
(cdataset.Book
Book
p1
c__builtin__
object
p2
Ntp3
Rp4
(dp5
S'similar_books'
p6
(lp7
sS'genres'
p8
(lp9
sS'author'
p10
I918
sS'countries'
p11
(lp12
I2
asS'year'
p13
I1953
sS'title'
p14
VIF Magazine July 1953
p15
sS'cover'
p16
Vhttps://ia600208.us.archive.org/BookReader/BookReaderImages.php?zip=/1/items/1953-07_IF/1953-07_IF_jp2.zip&file=1953-07_IF_jp2/1953-07_IF_0000.jp2&scale=0&rotate=0
p17
sS'cover_art'
p18
S'http://www.philsp.com/visco/Magazines/WIF123/WIF1_0003.jpg'
p19
sS'author_name'
p20
VIF Magazine
p21
sS'images_urls'
p22
(lp23
sS'authors'
p24
(lp25
I951
aI497
aI363
aI412
aI956
aI961
aI424
aI948
aI952
aI957
aI326
aI89
aI361
aI94
aI962
aI616
aI963
aI273
aI376
aI236
aI928
aI918
asS'images'
p26
(lp27
sS'id'
p28
I1226
sS'contents'
p29
(lp30
(dp31
g10
I951
sg14
VMercury
p32
sa(dp33
g10
I497
sg14
VSjambak
p34
sa(dp35
g10
I363
sg14
VIrresistible Weapon
p36
sa(dp37
g10
I412
sg14
VA Bottle of Old Wine
p38
sa(dp39
g10
I956
sg14
VCelebrity
p40
sa(dp41
g10
I412
sg14
VBrink of Madness
p42
sa(dp43
g10
I961
sg14
VOne Martian Afternoon
p44
sa(dp45
g10
I424
sg14
VWeak On Square Roots
p46
sa(dp47
g10
I956
sg14
VThe Lonely Ones
p48
sa(dp49
g10
I956
sg14
VProgress Report
p50
sa(dp51
g10
I951
sg14
VVenus
p52
sa(dp53
g10
I948
sg14
VA Chat with the Editor (If, July 1953)
p54
sa(dp55
g10
I952
sg14
VPersonalities in Science: Donald W. Kerst
p56
sa(dp57
g10
I957
sg14
VScience Briefs (If, July 1953)
p58
sa(dp59
g10
I326
sg14
VThe Postman Cometh (If, July 1953)
p60
sa(dp61
g10
I89
sg14
VSjambak
p62
sa(dp63
g10
I361
sg14
VBrink of Madness
p64
sa(dp65
g10
I94
sg14
VIrresistible Weapon
p66
sa(dp67
g10
I962
sg14
VA Bottle of Old Wine
p68
sa(dp69
g10
I616
sg14
VCelebrity
p70
sa(dp71
g10
I963
sg14
VOne Martian Afternoon
p72
sa(dp73
g10
I273
sg14
VWeak On Square Roots
p74
sa(dp75
g10
I376
sg14
VThe Lonely Ones
p76
sa(dp77
g10
I236
sg14
VProgress Report
p78
sa(dp79
g10
I928
sg14
VThe Guinea Pigs
p80
sasb.