ccopy_reg
_reconstructor
p0
(cdataset.Book
Book
p1
c__builtin__
object
p2
Ntp3
Rp4
(dp5
S'content_name'
p6
V32579.txt.utf-8
p7
sS'isbn'
p8
NsS'year'
p9
I1946
sS'author_name'
p10
VForrest J. Ackerman
p11
sS'images_urls'
p12
(lp13
Vhttp://www.gutenberg.org/files/32579/32579-h/images/illus.jpg
p14
asS'language_code'
p15
Veng
p16
sS'id'
p17
I312
sS'category'
p18
VText
p19
sS'genres'
p20
(lp21
sS'copyright'
p22
VPublic domain in the USA.
p23
sS'title'
p24
VMicro-Man
p25
sS'wikipedia'
p26
(dp27
S'found'
p28
I00
ssS'average_rating'
p29
F4.11
sS'rating_count'
p30
I16
sS'content_available'
p31
I01
sS'goodreads'
p32
(dp33
S'url'
p34
S'https://www.goodreads.com/book/show/13644365-micro-man'
p35
sS'found'
p36
I01
ssS'similar_books'
p37
(lp38
sS'description'
p39
VShort Story, Science Fiction, Post-1930<br /><br />The little man dared to venture into the realm of the Gods\u2014but the Gods were cruel!<br /><br />All ebook formats. Free.
p40
sS'gutenberg'
p41
(dp42
S'url'
p43
Vhttp://www.gutenberg.org/ebooks/32579
p44
sS'num'
p45
I32579
ssS'authors'
p46
(lp47
I103
asS'pages'
p48
I18
sS'isbn13'
p49
NsS'language'
p50
VEnglish
p51
sS'countries'
p52
(lp53
I2
asS'release_date'
p54
S'2010-05-29T00:00:00'
p55
sS'author'
p56
I103
sS'cover'
p57
Vhttps://images.gr-assets.com/books/1336709748l/13644365.jpg
p58
sS'content_cleaned'
p59
I01
sS'classes'
p60
(lp61
Vto-read
p62
aVscience-fiction
p63
aVshort-stories
p64
aVcurrently-reading
p65
aVcalibre
p66
aV15
p67
aV1940s
p68
aVsci-fi
p69
aVkindle
p70
aVhave-this
p71
aVgutenberg
p72
aVchapterbooks
p73
asS'loc_class'
p74
VPS: Language and Literatures: American and Canadian literature
p75
sS'n_authors'
p76
I1
sb.