ccopy_reg
_reconstructor
p0
(cdataset.Book
Book
p1
c__builtin__
object
p2
Ntp3
Rp4
(dp5
S'content_name'
p6
V51435.txt.utf-8
p7
sS'isbn'
p8
V0753539799
p9
sS'year'
p10
I2011
sS'author_name'
p11
VJack Sharkey
p12
sS'images_urls'
p13
(lp14
Vhttp://www.gutenberg.org/files/51435/51435-h/images/cover.jpg
p15
aVhttp://www.gutenberg.org/files/51435/51435-h/images/illus1.jpg
p16
aVhttp://www.gutenberg.org/files/51435/51435-h/images/illus2.jpg
p17
asS'language_code'
p18
NsS'images'
p19
(lp20
sS'id'
p21
I827
sS'category'
p22
VText
p23
sS'genres'
p24
(lp25
sS'copyright'
p26
VPublic domain in the USA.
p27
sS'title'
p28
VThe Business, As Usual
p29
sS'wikipedia'
p30
(dp31
S'found'
p32
I00
ssS'average_rating'
p33
F3.65
sS'rating_count'
p34
I842
sS'content_available'
p35
I01
sS'cover_art_url'
p36
S'http://www.gutenberg.org/cache/epub/51435/pg51435.cover.medium.jpg'
p37
sS'goodreads'
p38
(dp39
S'url'
p40
Vhttps://www.goodreads.com/book/show/12357518-screw-business-as-usual
p41
sg32
I01
sS'year'
p42
I2011
ssS'similar_books'
p43
(lp44
VLikeable Business: Why Today's Consumers Demand More and How Leaders Can Deliver
p45
aVCan't Buy Me Like
p46
aVExtreme Trust: Honesty as a Competitive Advantage
p47
aVThe Synergist: How to Lead Your Team to Predictable Success
p48
aVGenerations at Work: Managing the Clash of Veterans, Boomers, Xers, and Nexters in Your Workplace
p49
aVLeft Brain, Right Stuff: How Leaders Make Winning Decisions
p50
aVGame-Changer: Game Theory and the Art of Transforming Strategic Situations
p51
aVHow to Change Minds: The Art of Influence without Manipulation
p52
aVConfidence: How Winning Streaks and Losing Streaks Begin and End
p53
aVThe Business of Belief: How the World's Best Marketers, Designers, Salespeople, Coaches, Fundraisers, Educators, Entrepreneurs and Other Leaders Get Us to Believe
p54
aVLeaders Open Doors: A Radically Simple Leadership Approach to Lift People, Profits, and Performance
p55
aVIt's Not What You Sell, It's What You Stand For: Why Every Extraordinary Business is Driven by Purpose
p56
aVGreat Work: How to Make a Difference People Love
p57
aVOvercoming Fake Talk: How to Hold Real Conversations That Create Respect, Build Relationships, and Get Results
p58
aVCollaborate or Perish!: Reaching Across Boundaries in a Networked World
p59
aVLeading the Starbucks Way: 5 Principles for Connecting with Your Customers, Your Products and Your People
p60
aVThe Spirit of Kaizen: Creating Lasting Excellence One Small Step at a Time
p61
aVLeadership and the Art of Struggle: How Great Leaders Grow Through Challenge and Adversity
p62
asS'description'
p63
VCan we bring more meaning to our lives and help change the world at the same time? Richard Branson, at his brilliant and motivating best, reveals how with his exciting new vision for the future. It is time to turn capitalism upside down \u2013 to shift our values, to switch from a profit focus to caring for people, communities and the planet.<br /><br />With inspiration for everyone, <i>Screw Business As Usual</i> shows how easy it is for both businesses and individuals to embark on a whole new way of doing things, solving major problems and turning our work into something we both love and are proud of.
p64
sS'format'
p65
VPaperback
p66
sS'gutenberg'
p67
(dp68
g40
Vhttp://www.gutenberg.org/ebooks/51435
p69
sS'num'
p70
I51435
ssS'authors'
p71
(lp72
I205
asS'pages'
p73
I357
sS'isbn13'
p74
V9780753539798
p75
sS'language'
p76
VEnglish
p77
sS'release_date'
p78
S'2016-03-13T00:00:00'
p79
sS'author'
p80
I205
sS'content_cleaned'
p81
I01
sS'classes'
p82
(lp83
Vto-read
p84
aVcurrently-reading
p85
aVbusiness
p86
aVnon-fiction
p87
aVentrepreneurship
p88
aVbusiness-books
p89
aVnonfiction
p90
aVbiography
p91
aVmanagement
p92
aVbiographies
p93
aVdefault
p94
aVfavorites
p95
aVebooks
p96
aVkindle
p97
aVlibrary
p98
aVto-buy
p99
aVsociety
p100
aVeconomics
p101
aVrecommended
p102
aVleadership
p103
aVself-improvement
p104
aVto-read-business
p105
aVbooks-i-own
p106
aVsocial
p107
aVbookshelf
p108
aVsocial-entrepreneurship
p109
aVowned
p110
aVbusiness-development
p111
aVhome-library
p112
aVbusiness-finance
p113
aVmemoir
p114
aVmarketing
p115
aVinspiration
p116
aVrichard-branson
p117
aVmanagement-leadership
p118
aVmy-books
p119
aVbook-club
p120
aVsocial-enterprise
p121
aVgirlboss
p122
aVtop-books
p123
aVp-trp
p124
aVautobiography-to-be-read
p125
aVi-own-you-i-ll-get-to-you
p126
aVpersonal-library
p127
aVnon-ficiton
p128
aVvolunteer-pics
p129
aVmarieforleo
p130
aVwant-to-read-not-bought-yet
p131
aVtemporarily-on-hold
p132
aVrecommended-by
p133
aVto-read-owned
p134
aVeducation
p135
aVin-the-shelf
p136
aVnon-fiction-inspirational-books
p137
aVmarketing-business
p138
aVphysical-copies
p139
aVbusiness-and-management
p140
aVprofessional-development
p141
aVmust-read-in-2017
p142
aVread-in-2017
p143
aVmy-library
p144
aVmanagement-business
p145
aVlibrary-no-copy
p146
aVreference-books
p147
aVto-read-in-2017
p148
aVaudio
p149
aVhome
p150
aVbusiness-marketing
p151
aVcurrently-on-the-shelf
p152
aVnot-as-interested
p153
aVon-my-shelf
p154
aVread-and-own
p155
aVmy-shelf
p156
aVaudiobooks
p157
aVdon-t-own
p158
aVmotivational
p159
aVbusiness-professional
p160
aVwaiting-to-be-read
p161
aVwill-read-soon
p162
aVlounge
p163
aVbiblioteca
p164
aVmba
p165
aV1-cloud
p166
aVbusiness-self-improvement
p167
aVread-2015
p168
aVautumn-2016
p169
aVstrb
p170
aVhistory-story
p171
aVprofessional
p172
aVoneclick
p173
aVourlibrary
p174
aVbusiness-related
p175
aVme-time
p176
aVmjl-library
p177
aVleadership-and-mgmt
p178
aVbusiness-finance-and-economics
p179
aVmarie-forleo
p180
aVknowledge
p181
aVbusiness-design-support-creating
p182
aVentrepreneurial
p183
asS'loc_class'
p184
S''
p185
sS'n_authors'
p186
I1
sb.