ccopy_reg
_reconstructor
p0
(cdataset.Book
Book
p1
c__builtin__
object
p2
Ntp3
Rp4
(dp5
S'content_name'
p6
V24276.txt.utf-8
p7
sS'isbn'
p8
NsS'year'
p9
I1957
sS'author_name'
p10
VAlan Edward Nourse
p11
sS'images_urls'
p12
(lp13
sS'language_code'
p14
Veng
p15
sS'images'
p16
(lp17
sS'id'
p18
I656
sS'category'
p19
VText
p20
sS'genres'
p21
(lp22
sS'copyright'
p23
VPublic domain in the USA.
p24
sS'title'
p25
VThe Coffin Cure
p26
sS'wikipedia'
p27
(dp28
S'url'
p29
Vhttps://en.wikipedia.org/wiki/Tiger_by_the_Tail_and_Other_Science_Fiction_Stories
p30
sS'found'
p31
I01
sS'year'
p32
I-1
ssS'published_in'
p33
NsS'average_rating'
p34
F3.38
sS'rating_count'
p35
I18
sS'content_available'
p36
I01
sS'goodreads'
p37
(dp38
g29
Vhttps://www.goodreads.com/book/show/6582987-the-coffin-cure
p39
sg31
I01
sg32
I1957
ssS'similar_books'
p40
(lp41
sS'description'
p42
V<b>'Report on a Vaccine for the Treatment and Cure of the Common Cold</b><br />Cold Humor, by Alan E. Nourse.
p43
sS'format'
p44
NsS'gutenberg'
p45
(dp46
g29
Vhttp://www.gutenberg.org/ebooks/24276
p47
sS'num'
p48
I24276
ssS'authors'
p49
(lp50
I108
asS'isbn13'
p51
NsS'language'
p52
VEnglish
p53
sS'country'
p54
I2
sS'release_date'
p55
S'2008-01-14T00:00:00'
p56
sS'author'
p57
I108
sS'original_title'
p58
VTiger by the Tail and Other Science Fiction Stories
p59
sS'summary'
p60
VTiger by the Tail and Other Science Fiction Stories is the first collection of short works by Alan E. Nourse, issued in hardcover by publisher Donald McKay in 1961. It was reprinted in paperback by MacFadden Books in 1964 and 1968. A British hardcover edition was published by Dennis Dobson in 1962, with a paperback reprint, retitled Beyond Infinity, following from Corgi Books in 1964.
p61
sS'content_cleaned'
p62
I01
sS'classes'
p63
(lp64
Vrandoms
p65
aVaudiobooks
p66
aVshort-story
p67
aVscience-fiction-fantasy
p68
aVuncovered
p69
aValternate-fiction
p70
aVin-a-collection
p71
aV13
p72
aVaudio-ebooks
p73
aVtype-short-story
p74
asS'loc_class'
p75
VPS: Language and Literatures: American and Canadian literature
p76
sS'n_authors'
p77
I1
sb.