ccopy_reg
_reconstructor
p0
(cdataset.Book
Book
p1
c__builtin__
object
p2
Ntp3
Rp4
(dp5
S'content_name'
p6
V42209.txt.utf-8
p7
sS'isbn'
p8
V0448145804
p9
sS'year'
p10
I1934
sS'author_name'
p11
VRobert E. Howard
p12
sS'images_urls'
p13
(lp14
Vhttp://www.gutenberg.org/files/42209/42209-h/images/cover.jpg
p15
asS'language_code'
p16
NsS'images'
p17
(lp18
sS'id'
p19
I119
sS'category'
p20
VText
p21
sS'genres'
p22
(lp23
sS'copyright'
p24
VPublic domain in the USA.
p25
sS'title'
p26
VThe Devil in Iron
p27
sS'wikipedia'
p28
(dp29
S'url'
p30
Vhttps://en.wikipedia.org/wiki/The_Devil_in_Iron_(collection)
p31
sS'found'
p32
I01
sS'year'
p33
I-1
ssS'published_in'
p34
NsS'average_rating'
p35
F3.51
sS'rating_count'
p36
I126
sS'content_available'
p37
I01
sS'cover_art_url'
p38
S'http://www.gutenberg.org/cache/epub/42209/pg42209.cover.medium.jpg'
p39
sS'goodreads'
p40
(dp41
g30
Vhttps://www.goodreads.com/book/show/6052585-the-devil-in-iron
p42
sg32
I01
sg33
I1976
ssS'similar_books'
p43
(lp44
sS'description'
p45
NsS'format'
p46
VHardcover
p47
sS'gutenberg'
p48
(dp49
g30
Vhttp://www.gutenberg.org/ebooks/42209
p50
sS'num'
p51
I42209
ssS'authors'
p52
(lp53
I22
asS'pages'
p54
I153
sS'isbn13'
p55
V9780448145808
p56
sS'language'
p57
VEnglish
p58
sS'countries'
p59
(lp60
I2
asS'release_date'
p61
S'2013-02-26T00:00:00'
p62
sS'author'
p63
I22
sS'original_title'
p64
VThe Devil in Iron (collection)
p65
sS'summary'
p66
VThe Devil in Iron is a 1976 collection of two fantasy short stories written by Robert E. Howard featuring his sword and sorcery hero Conan the Barbarian. The book was published in 1976 by Donald M. Grant, Publisher, Inc. as volume V of their deluxe Conan set. The stories both originally appeared in the magazine Weird Tales.
p67
sS'content_cleaned'
p68
I01
sS'classes'
p69
(lp70
Vfantasy
p71
aVto-read
p72
aVshort-stories
p73
aVconan
p74
aVadventure
p75
aVfiction
p76
aVsword-and-sorcery
p77
aVclassics
p78
aVpulp
p79
aVhorror
p80
aVrobert-e-howard
p81
aVshort-story
p82
aVpublic-domain
p83
aVebooks
p84
aVshort
p85
aVclassic
p86
aVlibrivox
p87
aVebook
p88
aVjunk
p89
aVsci-fi-horror-fantasy
p90
aVto-read-ebook
p91
aV01-classic-fantasy
p92
aVread-2017
p93
aVtest
p94
aVkindle
p95
aVgutenberg
p96
aVdigital
p97
aVamerican
p98
aVseries
p99
aVfree-ebooks
p100
aVowned
p101
aVpulpy-sci-fi-club
p102
aVhyborian-age
p103
aVpathfinder-recommendations
p104
aVfor-reference
p105
aVsword-sorcery
p106
aVsword-amp-sorcery
p107
aVpulp-fiction
p108
aVmythic-warrior
p109
aVmagic
p110
aVgraphic-novel
p111
aVfantasy-masterworks
p112
aVon-calibre
p113
aVz_fiction
p114
aVx_shortstory
p115
aVw_us_federal
p116
aVread-in-2016
p117
aVs-s-conan
p118
aVthriller
p119
aVdark-fantasy
p120
aVaction
p121
aVaudio
p122
aVhyborean-age
p123
aVread-this
p124
aVmonsters
p125
aVfeedbooks-com
p126
aVfinished
p127
aVbought
p128
aVto-read-fantasy
p129
aV1930s
p130
aVauthor-robert-e-howard
p131
aVaudiobooks
p132
aVscience-fic-fantasy
p133
aVfantasy-epic
p134
aVmy-e-books
p135
aVsci-fi-fantasy
p136
aVadventure-pulp-fiction
p137
aVe-book
p138
asS'loc_class'
p139
VPS: Language and Literatures: American and Canadian literature
p140
sS'n_authors'
p141
I1
sb.