ccopy_reg
_reconstructor
p0
(cdataset.Book
Book
p1
c__builtin__
object
p2
Ntp3
Rp4
(dp5
S'similar_books'
p6
(lp7
sS'genres'
p8
(lp9
sS'author'
p10
I302
sS'countries'
p11
(lp12
I2
asS'year'
p13
I1968
sS'title'
p14
VGalaxy Magazine August 1968
p15
sS'cover'
p16
Vhttps://ia600200.us.archive.org/BookReader/BookReaderImages.php?zip=/28/items/Galaxy_v27n01_1968-08/Galaxy_v27n01_1968-08_jp2.zip&file=Galaxy_v27n01_1968-08_jp2/Galaxy_v27n01_1968-08_0000.jp2&scale=0&rotate=0
p17
sS'cover_art'
p18
S'http://www.isfdb.org/wiki/images/d/d8/GALAUG68.jpg'
p19
sS'author_name'
p20
VGalaxy Magazine
p21
sS'images_urls'
p22
(lp23
sS'authors'
p24
(lp25
I615
aI626
aI499
aI611
aI624
aI40
aI339
aI91
aI326
aI69
aI204
aI32
aI50
aI629
aI631
aI302
asS'images'
p26
(lp27
sS'id'
p28
I1124
sS'contents'
p29
(lp30
(dp31
g10
I615
sg14
VAmong the Bad Baboons
p32
sa(dp33
g10
I615
sg14
VAmong the Bad Baboons [2]
p34
sa(dp35
g10
I615
sg14
VAmong the Bad Baboons [3]
p36
sa(dp37
g10
I615
sg14
VAmong the Bad Baboons [4]
p38
sa(dp39
g10
I626
sg14
VGoing Down Smooth
p40
sa(dp41
g10
I626
sg14
VGoing Down Smooth [2]
p42
sa(dp43
g10
I499
sg14
VA Specter Is Haunting Texas (Part 2 of 3)
p44
sa(dp45
g10
I499
sg14
VA Specter Is Haunting Texas (Part 2 of 3) [2]
p46
sa(dp47
g10
I499
sg14
VA Specter Is Haunting Texas (Part 2 of 3) [3]
p48
sa(dp49
g10
I499
sg14
VA Specter Is Haunting Texas (Part 2 of 3) [4]
p50
sa(dp51
g10
I499
sg14
VA Specter Is Haunting Texas (Part 2 of 3) [5]
p52
sa(dp53
g10
I499
sg14
VA Specter Is Haunting Texas (Part 2 of 3) [6]
p54
sa(dp55
g10
I499
sg14
VA Specter Is Haunting Texas (Part 2 of 3) [7]
p56
sa(dp57
g10
I611
sg14
VThe Time Trawlers
p58
sa(dp59
g10
I611
sg14
VThe Time Trawlers [2]
p60
sa(dp61
g10
I611
sg14
VThe Time Trawlers [3]
p62
sa(dp63
g10
I499
sg14
VThe Star Below
p64
sa(dp65
g10
I499
sg14
VThe Star Below [2]
p66
sa(dp67
g10
I624
sg14
VHemeac
p68
sa(dp69
g10
I40
sg14
VTony Boucher
p70
sa(dp71
g10
I339
sg14
VFor Your Information: In Australia, the Rain ...
p72
sa(dp73
g10
I91
sg14
VGalaxy Bookshelf (Galaxy, August 1968)
p74
sa(dp75
g10
I326
sg14
VGalaxy's Stars (Galaxy, August 1968)
p76
sa(dp77
g10
I326
sg14
VForecast (Galaxy, August 1968)
p78
sa(dp79
g10
I69
sg14
VAmong the Bad Baboons
p80
sa(dp81
g10
I204
sg14
VThe Star Below
p82
sa(dp83
g10
I32
sg14
VA Specter Is Haunting Texas (Part 2 of 3)
p84
sa(dp85
g10
I50
sg14
VGoing Down Smooth
p86
sa(dp87
g10
I629
sg14
VThe Time Trawlers
p88
sa(dp89
g10
I631
sg14
VHemeac
p90
sasb.