ccopy_reg
_reconstructor
p0
(cdataset.Book
Book
p1
c__builtin__
object
p2
Ntp3
Rp4
(dp5
S'content_name'
p6
V18151.txt.utf-8
p7
sS'isbn'
p8
V1598189603
p9
sS'year'
p10
I1955
sS'author_name'
p11
VH. Beam Piper
p12
sS'images_urls'
p13
(lp14
Vhttp://www.gutenberg.org/files/18151/18151-h/images/image_01.jpg
p15
aVhttp://www.gutenberg.org/files/18151/18151-h/images/image_02.jpg
p16
aVhttp://www.gutenberg.org/files/18151/18151-h/images/image_08.jpg
p17
aVhttp://www.gutenberg.org/files/18151/18151-h/images/image_15.jpg
p18
aVhttp://www.gutenberg.org/files/18151/18151-h/images/image_22.jpg
p19
aVhttp://www.gutenberg.org/files/18151/18151-h/images/image_29.jpg
p20
aVhttp://www.gutenberg.org/files/18151/18151-h/images/image_38.jpg
p21
aVhttp://www.gutenberg.org/files/18151/18151-h/images/image_43.jpg
p22
aVhttp://www.gutenberg.org/files/18151/18151-h/images/image_44.jpg
p23
aVhttp://www.gutenberg.org/files/18151/18151-h/images/image_49.jpg
p24
aVhttp://www.gutenberg.org/files/18151/18151-h/images/image_56.jpg
p25
aVhttp://www.gutenberg.org/files/18151/18151-h/images/image_64.jpg
p26
aVhttp://www.gutenberg.org/files/18151/18151-h/images/image_74.jpg
p27
aVhttp://www.gutenberg.org/files/18151/18151-h/images/image_83.jpg
p28
asS'language_code'
p29
Veng
p30
sS'id'
p31
I215
sS'category'
p32
VText
p33
sS'genres'
p34
(lp35
sS'copyright'
p36
VPublic domain in the USA.
p37
sS'title'
p38
VTime Crime
p39
sS'wikipedia'
p40
(dp41
S'found'
p42
I00
ssS'average_rating'
p43
F4.18
sS'rating_count'
p44
I78
sS'content_available'
p45
I01
sS'goodreads'
p46
(dp47
S'url'
p48
S'https://www.goodreads.com/book/show/676217.Time_Crime'
p49
sS'found'
p50
I01
ssS'similar_books'
p51
(lp52
VSubterranean Scalzi Super Bundle
p53
aVSome of the Best from Tor.com: 2014
p54
aVAntares Victory (Antares #3)
p55
aVThe Promised War (Sam Deker, #1)
p56
aVThe Works of Edgar Allan Poe, Volume 5
p57
aVStar Born (Pax/Astra, #2)
p58
aVWakulla Springs
p59
aVTime Scout (Time Scout, #1)
p60
aVTime Patrol (Time Patrol #1-4 + 6 omnibus)
p61
aVThe Politeness Of Princes And Other School Stories
p62
aVMan-Kzin Wars 3 (Man-Kzin Wars, #3)
p63
aVGardening Basics For Dummies
p64
aVThe Nine Billion Names of God & Other Stories (The Collected Stories of Arthur C. Clarke #3)
p65
aVThe Outpost (Birthright #26)
p66
aVLily and the Shining Dragons (Lily, #2)
p67
aVCyborg Strike (Plague Wars, #8)
p68
aVImzadi II: Triangle (Star Trek: The Next Generation)
p69
aVTime Slave
p70
asS'description'
p71
VThis short novel by H. Beam Piper was originally published in two parts in <i>Astounding Science Fiction,</i> February and March of 1955, and also appeared in the 1981 collection <i>Paratime.</i> In the world in which <i>Time Crime</i> takes place, human society has developed the technology to move laterally between parallel universes. The heroes of this story, Verken Vall and his wife Hadron Dalla, are ready to embark on a long-overdue vacation, when the Paratime Police send them both to investigate rumors of slavery in the Esaron Sector. Like many of Piper's stories, this is a police procedural, set in the world of the future.<br /><br /><br />Free audiobook:<br /><a target="_blank" href="http://www.podiobooks.com/title/time-crime" rel="nofollow">http://www.podiobooks.com/title/time-...</a>
p72
sS'gutenberg'
p73
(dp74
S'url'
p75
Vhttp://www.gutenberg.org/ebooks/18151
p76
sS'num'
p77
I18151
ssS'authors'
p78
(lp79
I19
asS'pages'
p80
I116
sS'isbn13'
p81
V9781598189605
p82
sS'language'
p83
VEnglish
p84
sS'countries'
p85
(lp86
I2
asS'release_date'
p87
S'2006-04-11T00:00:00'
p88
sS'author'
p89
I19
sS'content_cleaned'
p90
I01
sS'classes'
p91
(lp92
Vto-read
p93
aVscience-fiction
p94
aVcurrently-reading
p95
aVsci-fi
p96
aVfiction
p97
aVkindle
p98
aVtime-travel
p99
aVscifi
p100
aVmystery
p101
aValternate-history
p102
aVsf
p103
aVaudio
p104
aVsi-fi
p105
aVaudiobooks
p106
aVe-books
p107
aVebooks
p108
aVshort-story
p109
aVon-pc-to-read
p110
aV20th-century-lit
p111
aVx-epub
p112
aVpiled-up-ready-to-read
p113
aVowned-pending-kindle-free-ebook
p114
aVe-book
p115
aVlistened
p116
aVto-check-out
p117
aV15
p118
aVfav-authors-tr
p119
aVereader
p120
aVscifi-fantasy
p121
aVlibrary
p122
aVebook-kindle
p123
aVon-disk
p124
aVaudiobook
p125
aVsf-challenge
p126
aVfeedbooks-com
p127
aVto-buy
p128
aVread-in-my-40s
p129
aVmeh
p130
aVh-beam-piper
p131
aVkobo
p132
aVacquired
p133
aVshort-stories
p134
aVmy-library
p135
aV1900-s
p136
aVnovel
p137
aVhugo-nebula-reading-list
p138
aVadventure
p139
aVebook---epub
p140
aVsci-fi-or-speculative
p141
aVh-
p142
aVshort
p143
aVclassic-lit
p144
aVcollected-classics
p145
aVfeedbooks
p146
aVdefault
p147
aVh
p148
aVgeneral
p149
asS'loc_class'
p150
VPS: Language and Literatures: American and Canadian literature
p151
sS'n_authors'
p152
I1
sb.