ccopy_reg
_reconstructor
p0
(cdataset.Book
Book
p1
c__builtin__
object
p2
Ntp3
Rp4
(dp5
S'similar_books'
p6
(lp7
sS'genres'
p8
(lp9
sS'author'
p10
I918
sS'countries'
p11
(lp12
I2
asS'year'
p13
I1966
sS'title'
p14
VIF Magazine April 1966
p15
sS'cover'
p16
Vhttps://ia601307.us.archive.org/BookReader/BookReaderImages.php?zip=/2/items/1966-04_IF/1966-04_IF_jp2.zip&file=1966-04_IF_jp2/1966-04_IF_0000.jp2&scale=0&rotate=0
p17
sS'cover_art'
p18
S'http://www.isfdb.org/wiki/images/3/31/WOFIFAPR1966.jpg'
p19
sS'author_name'
p20
VIF Magazine
p21
sS'images_urls'
p22
(lp23
sS'authors'
p24
(lp25
I581
aI499
aI545
aI40
aI1125
aI561
aI67
aI371
aI1107
aI1109
aI1126
aI918
asS'images'
p26
(lp27
sS'id'
p28
I1318
sS'contents'
p29
(lp30
(dp31
g10
I581
sg14
VEarthblood
p32
sa(dp33
g10
I499
sg14
VIn the Temple of Mars
p34
sa(dp35
g10
I545
sg14
VThe Moon Is a Harsh Mistress
p36
sa(dp37
g10
I40
sg14
VKick Yourself to Mars
p38
sa(dp39
g10
I1125
sg14
VOur Man in Fandom
p40
sa(dp41
g10
I40
sg14
VHue and Cry (If, April 1966)
p42
sa(dp43
g10
I561
sg14
VIn the Temple of Mars
p44
sa(dp45
g10
I67
sg14
VEarthblood (Part 1 of 4)
p46
sa(dp47
g10
I371
sg14
VThe Moon Is a Harsh Mistress (Part 5 of 5)
p48
sa(dp49
g10
I1107
sg14
VCastles in Space
p50
sa(dp51
g10
I1109
sg14
VThe Pretend Kind
p52
sa(dp53
g10
I1126
sg14
VTo Conquer Earth
p54
sasb.