ccopy_reg
_reconstructor
p0
(cdataset.Book
Book
p1
c__builtin__
object
p2
Ntp3
Rp4
(dp5
S'content_name'
p6
V51741.txt.utf-8
p7
sS'isbn'
p8
V0688099866
p9
sS'year'
p10
I1960
sS'author_name'
p11
VH. B. Fyfe
p12
sS'images_urls'
p13
(lp14
Vhttp://www.gutenberg.org/files/51741/51741-h/images/cover.jpg
p15
aVhttp://www.gutenberg.org/files/51741/51741-h/images/illus1.jpg
p16
aVhttp://www.gutenberg.org/files/51741/51741-h/images/illus2.jpg
p17
asS'language_code'
p18
Ven-GB
p19
sS'images'
p20
(lp21
sS'id'
p22
I603
sS'category'
p23
VText
p24
sS'genres'
p25
(lp26
sS'copyright'
p27
VPublic domain in the USA.
p28
sS'title'
p29
VRound-and-Round Trip
p30
sS'wikipedia'
p31
(dp32
S'found'
p33
I00
ssS'average_rating'
p34
F4.23
sS'rating_count'
p35
I854
sS'content_available'
p36
I01
sS'cover_art_url'
p37
S'http://www.gutenberg.org/cache/epub/51741/pg51741.cover.medium.jpg'
p38
sS'goodreads'
p39
(dp40
S'url'
p41
Vhttps://www.goodreads.com/book/show/1430728.Round_Trip
p42
sg33
I01
sS'year'
p43
I1983
ssS'similar_books'
p44
(lp45
VPeter Spier's Rain
p46
aVRainstorm
p47
aVRe-Zoom
p48
aVAnno's Journey
p49
aVYou Can't Take a Balloon into the Metropolitan Museum
p50
aVSouth
p51
aVSpots, Feathers, and Curly Tails
p52
aVThe Turn-Around, Upside-Down Alphabet Book
p53
aVWave
p54
aVHome
p55
aVA Picture for Harold's Room
p56
aVUn-Brella
p57
aVHenry Hikes to Fitchburg
p58
aVAlong a Long Road
p59
aVArmadillo Rodeo
p60
aVBlack Cat
p61
aVDahlia
p62
aVThe Secret Circus
p63
asS'description'
p64
VBlack and white illustrations and text record the sights on a day trip to the city and back home again to the country. The trip to the city is read from front to back and the return trip from back to front, upside down.
p65
sS'format'
p66
VPaperback
p67
sS'gutenberg'
p68
(dp69
g41
Vhttp://www.gutenberg.org/ebooks/51741
p70
sS'num'
p71
I51741
ssS'authors'
p72
(lp73
I94
asS'pages'
p74
I32
sS'isbn13'
p75
V9780688099862
p76
sS'language'
p77
VEnglish
p78
sS'countries'
p79
(lp80
I2
asS'release_date'
p81
S'2016-04-12T00:00:00'
p82
sS'author'
p83
I94
sS'cover'
p84
Vhttps://s.gr-assets.com/assets/nophoto/book/111x148-bcc042a9c91a29c1d680899eff700a03.png
p85
sS'content_cleaned'
p86
I01
sS'classes'
p87
(lp88
Vto-read
p89
aVpicture-books
p90
aVcreativity
p91
aVpicture-book
p92
aVchildren-s-books
p93
aVchildren-s-lit
p94
aVchildrens
p95
aV04-realistic-fiction
p96
aVchildren
p97
aVchildren-s-literature
p98
aVchildren-s
p99
aVrealistic-fiction
p100
aVart
p101
aVmarch
p102
aV18-creativity
p103
aVfiction
p104
aVpicturebooks
p105
aVtravel
p106
aVfavorites
p107
aVchildrens-books
p108
aVchildrens-lit
p109
aVwordless
p110
aVmath
p111
aVpreschool
p112
aVkids
p113
aVgolden-sower
p114
aVchild-lit
p115
aVstory-time
p116
aVinteractive
p117
aVread-aloud
p118
aVchildren-s-picture-books
p119
aVcurrently-reading
p120
aVpicture
p121
aVdefault
p122
aV17-creativity
p123
aVchildrens-literature
p124
aVchildren-books
p125
aVchildhood-favorites
p126
aV100-books
p127
aVi-own
p128
aVchildrens-picture-books
p129
aVkids-books
p130
aVkiddos
p131
aVengineered
p132
aVread-alouds
p133
aVpicturebook
p134
aVgraphic-novel
p135
aVeng-355
p136
aVenglish-355
p137
aVseamons-eng-355-children-s-lit-f14
p138
aVpicture-books-to-buy
p139
aVarts
p140
aVbooks-i-own
p141
aVchildren-ya
p142
aVshapes
p143
aVpreschool-storytime
p144
aVece-3601
p145
aVkindergarten
p146
aVpost-modern
p147
aVtransportation
p148
aVowned
p149
aVchildrens-fiction
p150
aVschool
p151
aVpostmodern-picturebooks
p152
aVmeta
p153
aVpicture-books-read
p154
aVelementary
p155
aVchildhood
p156
aVchildren-s-book
p157
aVto-buy
p158
aVreading-rainbow
p159
aVreadalouds
p160
aVe
p161
aVgreat-picture-book-illustrations
p162
aVcycle-3
p163
aVpub-harper-collins
p164
aVpub-greenwillow
p165
aVpicture-book-pb
p166
aVcover-art-pb
p167
aVbooks-for-the-boys
p168
aVmath-read-alouds
p169
aVcleverness
p170
aVelementary-school
p171
aVc-read-himself
p172
aVc-read
p173
aVfor-my-classroom
p174
aVchildren-s-bookcase
p175
aVbedtime-stories-for-my-spawn
p176
aVzachary-s-books
p177
aVbooks-of-2017
p178
aVbooks-for-my-students
p179
aVshd
p180
aVjbf
p181
aV1000-books-before-kindergarten
p182
aVstorage-unit
p183
aVart-project
p184
aVto-read-picturebook
p185
aVlili-s-lifetime-reads
p186
aVrequired-books-1-12
p187
aVsimon-s-1000-books
p188
asS'loc_class'
p189
S''
p190
sS'n_authors'
p191
I1
sb.