ccopy_reg
_reconstructor
p0
(cdataset.Book
Book
p1
c__builtin__
object
p2
Ntp3
Rp4
(dp5
S'content_name'
p6
V19027.txt.utf-8
p7
sS'isbn'
p8
V142649548X
p9
sS'year'
p10
I1954
sS'author_name'
p11
VCarey Rockwell
p12
sS'images_urls'
p13
(lp14
Vhttp://www.gutenberg.org/files/19027/19027-h/images/ill-004.png
p15
aVhttp://www.gutenberg.org/files/19027/19027-h/images/ill-022.png
p16
aVhttp://www.gutenberg.org/files/19027/19027-h/images/ill-033.png
p17
aVhttp://www.gutenberg.org/files/19027/19027-h/images/ill-040.png
p18
aVhttp://www.gutenberg.org/files/19027/19027-h/images/ill-041.png
p19
aVhttp://www.gutenberg.org/files/19027/19027-h/images/ill-044.png
p20
aVhttp://www.gutenberg.org/files/19027/19027-h/images/ill-048.png
p21
aVhttp://www.gutenberg.org/files/19027/19027-h/images/ill-057.png
p22
aVhttp://www.gutenberg.org/files/19027/19027-h/images/ill-064.png
p23
aVhttp://www.gutenberg.org/files/19027/19027-h/images/ill-067.png
p24
aVhttp://www.gutenberg.org/files/19027/19027-h/images/ill-068.png
p25
aVhttp://www.gutenberg.org/files/19027/19027-h/images/ill-084.png
p26
aVhttp://www.gutenberg.org/files/19027/19027-h/images/ill-085.png
p27
aVhttp://www.gutenberg.org/files/19027/19027-h/images/ill-099.png
p28
aVhttp://www.gutenberg.org/files/19027/19027-h/images/ill-107.png
p29
aVhttp://www.gutenberg.org/files/19027/19027-h/images/ill-117.png
p30
aVhttp://www.gutenberg.org/files/19027/19027-h/images/ill-123.png
p31
aVhttp://www.gutenberg.org/files/19027/19027-h/images/ill-125.png
p32
aVhttp://www.gutenberg.org/files/19027/19027-h/images/ill-138.png
p33
aVhttp://www.gutenberg.org/files/19027/19027-h/images/ill-139.png
p34
aVhttp://www.gutenberg.org/files/19027/19027-h/images/ill-160.png
p35
aVhttp://www.gutenberg.org/files/19027/19027-h/images/ill-171.png
p36
aVhttp://www.gutenberg.org/files/19027/19027-h/images/ill-194.png
p37
aVhttp://www.gutenberg.org/files/19027/19027-h/images/ill-199.png
p38
aVhttp://www.gutenberg.org/files/19027/19027-h/images/ill-210.png
p39
aVhttp://www.gutenberg.org/files/19027/19027-h/images/ill-220.png
p40
aVhttp://www.gutenberg.org/files/19027/19027-h/images/ill-224.png
p41
asS'language_code'
p42
Veng
p43
sS'images'
p44
(lp45
sS'id'
p46
I487
sS'category'
p47
VText
p48
sS'genres'
p49
(lp50
sS'copyright'
p51
VPublic domain in the USA.
p52
sS'title'
p53
VThe Revolt on Venus
p54
sS'wikipedia'
p55
(dp56
S'found'
p57
I00
ssS'average_rating'
p58
F3.64
sS'rating_count'
p59
I39
sS'content_available'
p60
I01
sS'goodreads'
p61
(dp62
S'url'
p63
Vhttps://www.goodreads.com/book/show/2303483.The_Revolt_on_Venus
p64
sg57
I01
sS'year'
p65
I1954
ssS'similar_books'
p66
(lp67
sS'description'
p68
VTHE REVOLT ON VENUS is the fifth in the Tom Corbett, Space Cadet series of books.<br /><br />For the young cadets of the famous Space Academy Polaris unit a month's leave would seem to be a perfect time for rest. But they have other ideas when they plan a trip to the jungles of Venus. There they hope to hunt the most terrifying of all big game\u2013\u2013the mighty Tyrannosaurus Rex!
p69
sS'format'
p70
NsS'gutenberg'
p71
(dp72
g63
Vhttp://www.gutenberg.org/ebooks/19027
p73
sS'num'
p74
I19027
ssS'authors'
p75
(lp76
I118
asS'isbn13'
p77
V9781426495489
p78
sS'language'
p79
VEnglish
p80
sS'country'
p81
I3
sS'release_date'
p82
S'2006-08-11T00:00:00'
p83
sS'author'
p84
I118
sS'content_cleaned'
p85
I01
sS'classes'
p86
(lp87
Vto-read
p88
aVscience-fiction
p89
aVsci-fi
p90
aVa-owned
p91
aVa-ebook
p92
aVread_2016
p93
aV16
p94
aVowned-pending-kindle-free-ebook
p95
aVe-book
p96
aVtemporary-storage
p97
aVnook
p98
aVyoung-and-ya
p99
aVsf
p100
aVfeedbooks-com
p101
aVreimport
p102
aVlibrary-inventory
p103
aVya-books
p104
aVsci-fi-fantasy
p105
aV2013-books-read
p106
aVin-calibre
p107
aVgenre-sf-fantasy
p108
aVmass-romance
p109
aVcalibre
p110
aVcurrently-reading
p111
aVreorganize
p112
aVscience-fiction-fantasy
p113
aVyounger-days
p114
asS'loc_class'
p115
VPZ: Language and Literatures: Juvenile belles lettres
p116
sS'n_authors'
p117
I1
sb.