ccopy_reg
_reconstructor
p0
(cdataset.Book
Book
p1
c__builtin__
object
p2
Ntp3
Rp4
(dp5
S'content_name'
p6
V27053.txt.utf-8
p7
sS'isbn'
p8
NsS'year'
p9
I1940
sS'author_name'
p10
VEd Earl Repp
p11
sS'images_urls'
p12
(lp13
Vhttp://www.gutenberg.org/files/27053/27053-h/images/001.png
p14
aVhttp://www.gutenberg.org/files/27053/27053-page-images/p084-image.png
p15
aVhttp://www.gutenberg.org/files/27053/27053-page-images/p084.png
p16
aVhttp://www.gutenberg.org/files/27053/27053-page-images/p085-image.png
p17
aVhttp://www.gutenberg.org/files/27053/27053-page-images/p085.png
p18
aVhttp://www.gutenberg.org/files/27053/27053-page-images/p086.png
p19
aVhttp://www.gutenberg.org/files/27053/27053-page-images/p087.png
p20
aVhttp://www.gutenberg.org/files/27053/27053-page-images/p088.png
p21
aVhttp://www.gutenberg.org/files/27053/27053-page-images/p089.png
p22
aVhttp://www.gutenberg.org/files/27053/27053-page-images/p090.png
p23
aVhttp://www.gutenberg.org/files/27053/27053-page-images/p091.png
p24
aVhttp://www.gutenberg.org/files/27053/27053-page-images/p092.png
p25
aVhttp://www.gutenberg.org/files/27053/27053-page-images/p093.png
p26
aVhttp://www.gutenberg.org/files/27053/27053-page-images/p094.png
p27
aVhttp://www.gutenberg.org/files/27053/27053-page-images/p095.png
p28
aVhttp://www.gutenberg.org/files/27053/27053-page-images/p096.png
p29
aVhttp://www.gutenberg.org/files/27053/27053-page-images/p097.png
p30
aVhttp://www.gutenberg.org/files/27053/27053-page-images/p105.png
p31
asS'language_code'
p32
NsS'id'
p33
I351
sS'category'
p34
VText
p35
sS'genres'
p36
(lp37
sS'copyright'
p38
VPublic domain in the USA.
p39
sS'title'
p40
VThe Day Time Stopped Moving
p41
sS'wikipedia'
p42
(dp43
S'found'
p44
I00
ssS'average_rating'
p45
F3.08
sS'rating_count'
p46
I33
sS'content_available'
p47
I01
sS'goodreads'
p48
(dp49
S'url'
p50
Vhttps://www.goodreads.com/book/show/5955088-the-day-time-stopped-moving
p51
sS'found'
p52
I01
sS'year'
p53
I1940
ssS'similar_books'
p54
(lp55
sS'description'
p56
V_All Dave Miller wanted to do was commit suicide in peace. He tried, but the things that happened after he'd pulled the trigger were all wrong. Like everyone standing around like statues. No St. Peter, no pearly gate, no pitchforks or halos. He might just as well have saved the bullet!_
p57
sS'format'
p58
NsS'gutenberg'
p59
(dp60
g50
Vhttp://www.gutenberg.org/ebooks/27053
p61
sS'num'
p62
I27053
ssS'authors'
p63
(lp64
I113
asS'pages'
p65
I14
sS'isbn13'
p66
NsS'language'
p67
VEnglish
p68
sS'countries'
p69
(lp70
I2
asS'release_date'
p71
S'2008-10-26T00:00:00'
p72
sS'author'
p73
I113
sS'content_cleaned'
p74
I01
sS'classes'
p75
(lp76
Vto-read
p77
aVscience-fiction
p78
aVshort-story
p79
aVsci-fi
p80
aVkindle
p81
aVebook
p82
aVjunk
p83
aVamerican
p84
aVcurrently-reading
p85
aVlibrivox-short-story-collection-046
p86
aVaudiobooks
p87
aVshort-stories
p88
aVon-calibre
p89
aVtime-travel
p90
aVpulp
p91
aVaudible-wish-list
p92
aVtime-traveling
p93
aVfavscifi-vol1
p94
aV2000-s
p95
aVfiction
p96
aVe-books
p97
aVtype-short-story
p98
asS'loc_class'
p99
VPS: Language and Literatures: American and Canadian literature
p100
sS'n_authors'
p101
I1
sb.