ccopy_reg
_reconstructor
p0
(cdataset.Book
Book
p1
c__builtin__
object
p2
Ntp3
Rp4
(dp5
S'content_name'
p6
V25628.txt.utf-8
p7
sS'isbn'
p8
NsS'year'
p9
I1957
sS'author_name'
p10
VTom Godwin
p11
sS'images_urls'
p12
(lp13
Vhttp://www.gutenberg.org/files/25628/25628-h/images/001.png
p14
aVhttp://www.gutenberg.org/files/25628/25628-page-images/p087-image.png
p15
aVhttp://www.gutenberg.org/files/25628/25628-page-images/p087.png
p16
aVhttp://www.gutenberg.org/files/25628/25628-page-images/p088.png
p17
aVhttp://www.gutenberg.org/files/25628/25628-page-images/p089.png
p18
aVhttp://www.gutenberg.org/files/25628/25628-page-images/p090.png
p19
aVhttp://www.gutenberg.org/files/25628/25628-page-images/p091.png
p20
aVhttp://www.gutenberg.org/files/25628/25628-page-images/p092.png
p21
aVhttp://www.gutenberg.org/files/25628/25628-page-images/p093.png
p22
aVhttp://www.gutenberg.org/files/25628/25628-page-images/p094.png
p23
aVhttp://www.gutenberg.org/files/25628/25628-page-images/p095.png
p24
asS'language_code'
p25
Veng
p26
sS'images'
p27
(lp28
sS'id'
p29
I268
sS'category'
p30
VText
p31
sS'genres'
p32
(lp33
sS'copyright'
p34
VPublic domain in the USA.
p35
sS'title'
p36
VThe Nothing Equation
p37
sS'wikipedia'
p38
(dp39
S'found'
p40
I00
ssS'average_rating'
p41
F3.4
sS'rating_count'
p42
I43
sS'content_available'
p43
I01
sS'goodreads'
p44
(dp45
S'url'
p46
Vhttps://www.goodreads.com/book/show/6280602-the-nothing-equation-sci-fi-classic
p47
sg40
I01
sS'year'
p48
I1957
ssS'similar_books'
p49
(lp50
sS'description'
p51
VThe cruiser vanished back into hyperspace and he was alone in the observation bubble, ten thousand lightyears beyond the galaxy's outermost sun. He looked out the windows at the gigantic sea of emptiness around him and wondered again what the danger had been that had so terrified the men before him.<br /><br />Of one thing he was already certain; he would find that nothing was waiting outside the bubble to kill him. The first bubble attendant had committed suicide and the second was a mindless maniac on the Earthbound cruiser but it must have been something inside the bubble that had caused it. Or else they had imagined it all.<br /><br />He wasn't afraid. Oh no, not him. He was the third man on the match, but that didn't scare him, not at all.
p52
sS'format'
p53
NsS'gutenberg'
p54
(dp55
g46
Vhttp://www.gutenberg.org/ebooks/25628
p56
sS'num'
p57
I25628
ssS'authors'
p58
(lp59
I39
asS'isbn13'
p60
NsS'language'
p61
VEnglish
p62
sS'release_date'
p63
S'2008-05-27T00:00:00'
p64
sS'author'
p65
I39
sS'content_cleaned'
p66
I01
sS'classes'
p67
(lp68
Vto-read
p69
aVsci-fi
p70
aVscience-fiction
p71
aVshort-stories
p72
aVcurrently-reading
p73
aVkindle
p74
aVfiction
p75
aVjunk
p76
aVmodern-fiction
p77
aVnot-read
p78
aVaudiobooks
p79
aVshould-try-to-read
p80
aVshort-story
p81
aVhorror
p82
aVclassics
p83
aVpg
p84
aVthinker
p85
aVthe-future-of-our-world
p86
aVshort-and-sweet
p87
aVfree-online
p88
aVcreepy-alert
p89
aV4
p90
aVscifi
p91
aV1950s
p92
aVnot-reviewed
p93
aVebook
p94
aVebooks
p95
aVclassic-lit
p96
aVcollected-classics
p97
aVsf-short-stories-anthologies
p98
aVbooks-on-kindle
p99
aVpdfs
p100
aVtype-short-story
p101
aVlibrary
p102
aVaudio-books
p103
asS'loc_class'
p104
VPS: Language and Literatures: American and Canadian literature
p105
sS'n_authors'
p106
I1
sb.