ccopy_reg
_reconstructor
p0
(cdataset.Book
Book
p1
c__builtin__
object
p2
Ntp3
Rp4
(dp5
S'isbn'
p6
V1546306714
p7
sS'year'
p8
I-1
sS'author_name'
p9
VHarold L. Goodwin
p10
sS'images_urls'
p11
(lp12
Vhttp://www.gutenberg.org/files/20147/20147-h/images/image01.png
p13
aVhttp://www.gutenberg.org/files/20147/20147-h/images/image02.png
p14
aVhttp://www.gutenberg.org/files/20147/20147-h/images/image03.png
p15
aVhttp://www.gutenberg.org/files/20147/20147-h/images/image04.png
p16
aVhttp://www.gutenberg.org/files/20147/20147-h/images/image05.png
p17
aVhttp://www.gutenberg.org/files/20147/20147-h/images/image06.png
p18
aVhttp://www.gutenberg.org/files/20147/20147-h/images/image07.png
p19
aVhttp://www.gutenberg.org/files/20147/20147-h/images/image08.png
p20
aVhttp://www.gutenberg.org/files/20147/20147-h/images/image09.png
p21
aVhttp://www.gutenberg.org/files/20147/20147-h/images/image10.png
p22
aVhttp://www.gutenberg.org/files/20147/20147-h/images/image11.png
p23
aVhttp://www.gutenberg.org/files/20147/20147-h/images/image12.png
p24
aVhttp://www.gutenberg.org/files/20147/20147-h/images/image13.png
p25
aVhttp://www.gutenberg.org/files/20147/20147-h/images/image14.png
p26
aVhttp://www.gutenberg.org/files/20147/20147-h/images/image15.png
p27
aVhttp://www.gutenberg.org/files/20147/20147-tei/images/image01.png
p28
aVhttp://www.gutenberg.org/files/20147/20147-tei/images/image02.png
p29
aVhttp://www.gutenberg.org/files/20147/20147-tei/images/image03.png
p30
aVhttp://www.gutenberg.org/files/20147/20147-tei/images/image04.png
p31
aVhttp://www.gutenberg.org/files/20147/20147-tei/images/image05.png
p32
aVhttp://www.gutenberg.org/files/20147/20147-tei/images/image06.png
p33
aVhttp://www.gutenberg.org/files/20147/20147-tei/images/image07.png
p34
aVhttp://www.gutenberg.org/files/20147/20147-tei/images/image08.png
p35
aVhttp://www.gutenberg.org/files/20147/20147-tei/images/image09.png
p36
aVhttp://www.gutenberg.org/files/20147/20147-tei/images/image10.png
p37
aVhttp://www.gutenberg.org/files/20147/20147-tei/images/image11.png
p38
aVhttp://www.gutenberg.org/files/20147/20147-tei/images/image12.png
p39
aVhttp://www.gutenberg.org/files/20147/20147-tei/images/image13.png
p40
aVhttp://www.gutenberg.org/files/20147/20147-tei/images/image14.png
p41
aVhttp://www.gutenberg.org/files/20147/20147-tei/images/image15.png
p42
asS'language_code'
p43
NsS'images'
p44
(lp45
sS'id'
p46
I660
sS'category'
p47
VText
p48
sS'genres'
p49
(lp50
sS'copyright'
p51
VPublic domain in the USA.
p52
sS'title'
p53
VRip Foster Rides the Gray Planet
p54
sS'wikipedia'
p55
(dp56
S'found'
p57
I00
ssS'average_rating'
p58
F0.0
sS'rating_count'
p59
I0
sS'content_available'
p60
I00
sS'goodreads'
p61
(dp62
S'url'
p63
Vhttps://www.goodreads.com/book/show/35047285-rip-foster-rides-the-gray-planet
p64
sg57
I01
sS'year'
p65
I-1
ssS'similar_books'
p66
(lp67
sS'description'
p68
VRip Foster Rides the Gray Planet By Blake Savage
p69
sS'format'
p70
VPaperback
p71
sS'gutenberg'
p72
(dp73
g63
Vhttp://www.gutenberg.org/ebooks/20147
p74
sS'num'
p75
I20147
ssS'authors'
p76
(lp77
I216
asS'isbn13'
p78
V9781546306719
p79
sS'language'
p80
VEnglish
p81
sS'country'
p82
I2
sS'release_date'
p83
S'2006-12-20T00:00:00'
p84
sS'author'
p85
I216
sS'classes'
p86
(lp87
sS'loc_class'
p88
VPZ: Language and Literatures: Juvenile belles lettres
p89
sS'n_authors'
p90
I1
sb.