ccopy_reg
_reconstructor
p0
(cdataset.Book
Book
p1
c__builtin__
object
p2
Ntp3
Rp4
(dp5
S'similar_books'
p6
(lp7
sS'genres'
p8
(lp9
sS'author'
p10
I918
sS'countries'
p11
(lp12
I2
asS'year'
p13
I1961
sS'title'
p14
VIF Magazine May 1961
p15
sS'cover'
p16
Vhttps://ia601305.us.archive.org/BookReader/BookReaderImages.php?zip=/15/items/1961-05_IF/1961-05_IF_jp2.zip&file=1961-05_IF_jp2/1961-05_IF_0000.jp2&scale=0&rotate=0
p17
sS'cover_art'
p18
S'http://www.isfdb.org/wiki/images/3/3a/WOFIFMAY1961.jpg'
p19
sS'author_name'
p20
VIF Magazine
p21
sS'images_urls'
p22
(lp23
sS'authors'
p24
(lp25
I560
aI1069
aI559
aI499
aI341
aI326
aI384
aI179
aI554
aI229
aI561
aI211
aI205
aI918
asS'images'
p26
(lp27
sS'id'
p28
I1279
sS'contents'
p29
(lp30
(dp31
g10
I560
sg14
VThat's How It Goes
p32
sa(dp33
g10
I1069
sg14
VCartoon: "Some How I'd Alway Thought of Them As Being Small and Green."
p34
sa(dp35
g10
I1069
sg14
VCartoon: "Men, the Army Promised You You'd See the World, and You Will Every Ninety Minutes."
p36
sa(dp37
g10
I559
sg14
VOut of Mind
p38
sa(dp39
g10
I499
sg14
VSeven Doors to Education
p40
sa(dp41
g10
I499
sg14
VCinderella Story
p42
sa(dp43
g10
I341
sg14
VA Science Faction Story
p44
sa(dp45
g10
I326
sg14
VScience Briefs (If, May 1961)
p46
sa(dp47
g10
I384
sg14
VThat's How It Goes
p48
sa(dp49
g10
I179
sg14
VCinderella Story
p50
sa(dp51
g10
I554
sg14
VOut of Mind
p52
sa(dp53
g10
I229
sg14
VThe Connoisseur
p54
sa(dp55
g10
I561
sg14
VSeven Doors to Education
p56
sa(dp57
g10
I211
sg14
VThe Useless Bugbreeders
p58
sa(dp59
g10
I205
sg14
VThe Flying Tuskers of K'niik-K'naak
p60
sasb.