ccopy_reg
_reconstructor
p0
(cdataset.Book
Book
p1
c__builtin__
object
p2
Ntp3
Rp4
(dp5
S'content_name'
p6
V18520.txt.utf-8
p7
sS'isbn'
p8
V1603121986
p9
sS'year'
p10
I1955
sS'author_name'
p11
VCarey Rockwell
p12
sS'images_urls'
p13
(lp14
Vhttp://www.gutenberg.org/files/18520/18520-h/images/ill-004.png
p15
aVhttp://www.gutenberg.org/files/18520/18520-h/images/ill-023.png
p16
aVhttp://www.gutenberg.org/files/18520/18520-h/images/ill-027.png
p17
aVhttp://www.gutenberg.org/files/18520/18520-h/images/ill-031.png
p18
aVhttp://www.gutenberg.org/files/18520/18520-h/images/ill-048.png
p19
aVhttp://www.gutenberg.org/files/18520/18520-h/images/ill-057.png
p20
aVhttp://www.gutenberg.org/files/18520/18520-h/images/ill-068.png
p21
aVhttp://www.gutenberg.org/files/18520/18520-h/images/ill-070.png
p22
aVhttp://www.gutenberg.org/files/18520/18520-h/images/ill-071.png
p23
aVhttp://www.gutenberg.org/files/18520/18520-h/images/ill-081.png
p24
aVhttp://www.gutenberg.org/files/18520/18520-h/images/ill-091.png
p25
aVhttp://www.gutenberg.org/files/18520/18520-h/images/ill-092.png
p26
aVhttp://www.gutenberg.org/files/18520/18520-h/images/ill-099.png
p27
aVhttp://www.gutenberg.org/files/18520/18520-h/images/ill-112.png
p28
aVhttp://www.gutenberg.org/files/18520/18520-h/images/ill-128.png
p29
aVhttp://www.gutenberg.org/files/18520/18520-h/images/ill-129.png
p30
aVhttp://www.gutenberg.org/files/18520/18520-h/images/ill-136.png
p31
aVhttp://www.gutenberg.org/files/18520/18520-h/images/ill-147.png
p32
aVhttp://www.gutenberg.org/files/18520/18520-h/images/ill-157.png
p33
aVhttp://www.gutenberg.org/files/18520/18520-h/images/ill-170.png
p34
aVhttp://www.gutenberg.org/files/18520/18520-h/images/ill-171.png
p35
aVhttp://www.gutenberg.org/files/18520/18520-h/images/ill-175.png
p36
aVhttp://www.gutenberg.org/files/18520/18520-h/images/ill-189.png
p37
aVhttp://www.gutenberg.org/files/18520/18520-h/images/ill-195.png
p38
aVhttp://www.gutenberg.org/files/18520/18520-h/images/ill-209.png
p39
aVhttp://www.gutenberg.org/files/18520/18520-h/images/ill-219.png
p40
asS'language_code'
p41
NsS'images'
p42
(lp43
sS'id'
p44
I373
sS'category'
p45
VText
p46
sS'genres'
p47
(lp48
sS'copyright'
p49
VPublic domain in the USA.
p50
sS'title'
p51
VSabotage in Space
p52
sS'wikipedia'
p53
(dp54
S'found'
p55
I00
ssS'average_rating'
p56
F3.72
sS'rating_count'
p57
I36
sS'content_available'
p58
I01
sS'goodreads'
p59
(dp60
S'url'
p61
Vhttps://www.goodreads.com/book/show/1927648.Sabotage_in_Space
p62
sg55
I01
sS'year'
p63
I1955
ssS'similar_books'
p64
(lp65
sS'description'
p66
VThis, the seventh and final book in the "Tom Corbett" series by "Carey Rockwell" (whoever he was in real life) -- is, like all of the "Tom Corbett" books, something special. It's another tale of the three young men who serve in the Solar Guard as Space Cadets. It starts with cadet Roger, urm, nicking a study spool for use in a competitive exam -- but that leads all of our cadets into a fight, and when they're caught at that, a trial. In the midst of the trial they get assigned to duty on a Top Secret Projectile Project, and things go wrong there in ways at once related and impossible to connect. Someone is causing real menace to roost in the cadets' lives, and the worst is still ahead . . .<br /><br />Neat stuff! Read it now!
p67
sS'gutenberg'
p68
(dp69
g61
Vhttp://www.gutenberg.org/ebooks/18520
p70
sS'num'
p71
I18520
ssS'authors'
p72
(lp73
I118
asS'pages'
p74
I124
sS'isbn13'
p75
V9781603121989
p76
sS'language'
p77
VEnglish
p78
sS'countries'
p79
(lp80
I2
asS'release_date'
p81
S'2006-06-06T00:00:00'
p82
sS'author'
p83
I118
sS'cover'
p84
Vhttps://s.gr-assets.com/assets/nophoto/book/111x148-bcc042a9c91a29c1d680899eff700a03.png
p85
sS'content_cleaned'
p86
I01
sS'classes'
p87
(lp88
Vto-read
p89
aVsci-fi
p90
aVaudio
p91
aVproject-sc-inspirations
p92
aVread_2016
p93
aVchildren-ya
p94
aV15
p95
aVowned-pending-kindle-free-ebook
p96
aVchildrens-series
p97
aVe-book
p98
aVscience-fiction
p99
aVtemporary-storage
p100
aVscience-fiction-fantasy
p101
aVfiction
p102
aVnook
p103
aVbooks-i-need
p104
aVyoung-and-ya
p105
aVfeedbooks-com
p106
aVreimport
p107
aVya-books
p108
aVsci-fi-fantasy
p109
aV2013-books-read
p110
aVin-calibre
p111
aVreorganize
p112
aVyounger-days
p113
asS'loc_class'
p114
VPZ: Language and Literatures: Juvenile belles lettres
p115
sS'n_authors'
p116
I1
sb.