ccopy_reg
_reconstructor
p0
(cdataset.Book
Book
p1
c__builtin__
object
p2
Ntp3
Rp4
(dp5
S'content_name'
p6
V29437.txt.utf-8
p7
sS'isbn'
p8
NsS'year'
p9
I2010
sS'author_name'
p10
VRoman Frederick Starzl
p11
sS'images_urls'
p12
(lp13
Vhttp://www.gutenberg.org/files/29437/29437-h/images/image_001_01.jpg
p14
aVhttp://www.gutenberg.org/files/29437/29437-h/images/image_001_02.jpg
p15
aVhttp://www.gutenberg.org/files/29437/29437-h/images/image_002.jpg
p16
asS'language_code'
p17
NsS'images'
p18
(lp19
sS'id'
p20
I862
sS'category'
p21
VText
p22
sS'genres'
p23
(lp24
sS'copyright'
p25
VPublic domain in the USA.
p26
sS'title'
p27
VThe Martian Cabal
p28
sS'wikipedia'
p29
(dp30
S'found'
p31
I00
ssS'average_rating'
p32
F3.67
sS'rating_count'
p33
I2
sS'content_available'
p34
I01
sS'goodreads'
p35
(dp36
S'url'
p37
Vhttps://www.goodreads.com/book/show/11342701-the-martian-cabal
p38
sg31
I01
sS'year'
p39
I2010
ssS'similar_books'
p40
(lp41
sS'description'
p42
NsS'format'
p43
NsS'gutenberg'
p44
(dp45
g37
Vhttp://www.gutenberg.org/ebooks/29437
p46
sS'num'
p47
I29437
ssS'authors'
p48
(lp49
I178
asS'isbn13'
p50
NsS'language'
p51
VEnglish
p52
sS'release_date'
p53
S'2009-07-18T00:00:00'
p54
sS'author'
p55
I178
sS'content_cleaned'
p56
I01
sS'classes'
p57
(lp58
Vto-read
p59
aVcurrently-reading
p60
aVsci-fi-classics
p61
aVscience-fiction
p62
aV20th-century
p63
aVcalibre
p64
asS'loc_class'
p65
VPS: Language and Literatures: American and Canadian literature
p66
sS'n_authors'
p67
I1
sb.