ccopy_reg
_reconstructor
p0
(cdataset.Book
Book
p1
c__builtin__
object
p2
Ntp3
Rp4
(dp5
S'content_name'
p6
V29389.txt.utf-8
p7
sS'isbn'
p8
NsS'year'
p9
I2011
sS'author_name'
p10
VDonald A. Wandrei
p11
sS'images_urls'
p12
(lp13
Vhttp://www.gutenberg.org/files/29389/29389-h/images/001.png
p14
aVhttp://www.gutenberg.org/files/29389/29389-h/images/002-1.jpg
p15
aVhttp://www.gutenberg.org/files/29389/29389-h/images/002-2.jpg
p16
asS'language_code'
p17
NsS'images'
p18
(lp19
sS'id'
p20
I495
sS'category'
p21
VText
p22
sS'genres'
p23
(lp24
sS'copyright'
p25
VPublic domain in the USA.
p26
sS'title'
p27
VRaiders of the Universes
p28
sS'wikipedia'
p29
(dp30
S'url'
p31
Vhttps://en.wikipedia.org/wiki/Star_Wars:_Episode_I_%E2%80%93_The_Phantom_Menace_(novel)
p32
sS'found'
p33
I01
sS'year'
p34
I-1
ssS'published_in'
p35
NsS'average_rating'
p36
F3.25
sS'rating_count'
p37
I14
sS'content_available'
p38
I01
sS'goodreads'
p39
(dp40
g31
Vhttps://www.goodreads.com/book/show/19328675-raiders-of-the-universes
p41
sg33
I01
sg34
I2011
ssS'similar_books'
p42
(lp43
sS'description'
p44
NsS'format'
p45
NsS'gutenberg'
p46
(dp47
g31
Vhttp://www.gutenberg.org/ebooks/29389
p48
sS'num'
p49
I29389
ssS'authors'
p50
(lp51
I165
asS'isbn13'
p52
NsS'language'
p53
VEnglish
p54
sS'release_date'
p55
S'2009-07-12T00:00:00'
p56
sS'author'
p57
I165
sS'original_title'
p58
VStar Wars: Episode I \u2013 The Phantom Menace (novel)
p59
sS'summary'
p60
VThe Star Wars Episode I: The Phantom Menace novelization was written by Terry Brooks and published on April 21, 1999, by Del Rey. It is based on the script of the film of the same name and released with multiple covers, including Darth Maul, Obi-Wan Kenobi, Anakin Skywalker and Queen Amidala.\u000a\u000a
p61
sS'content_cleaned'
p62
I01
sS'classes'
p63
(lp64
Vto-read
p65
aVcurrently-reading
p66
aVscience-fiction
p67
aVshort-stories
p68
aVaudiobooks
p69
aVsci-fi
p70
aV21st-century-lit
p71
aVfiction
p72
aVclassics
p73
aVaudiobooks-read
p74
aV3-stars
p75
aVfree-from-amazon
p76
aVshelf-w-authors
p77
aVgenre-syfi-fan-horr
p78
aVaudio-books-to-read
p79
aVaudio-obtained-lvss
p80
aVcalibre
p81
aV14
p82
aVaudiobooks-to-read
p83
aVaudio-obtained-ss
p84
asS'loc_class'
p85
VPS: Language and Literatures: American and Canadian literature
p86
sS'n_authors'
p87
I1
sb.