ccopy_reg
_reconstructor
p0
(cdataset.Book
Book
p1
c__builtin__
object
p2
Ntp3
Rp4
(dp5
S'content_name'
p6
V51531.txt.utf-8
p7
sS'isbn'
p8
V0061996165
p9
sS'year'
p10
I1950
sS'author_name'
p11
VC. M. Kornbluth
p12
sS'images_urls'
p13
(lp14
Vhttp://www.gutenberg.org/files/51531/51531-h/images/cover.jpg
p15
aVhttp://www.gutenberg.org/files/51531/51531-h/images/illus1.jpg
p16
aVhttp://www.gutenberg.org/files/51531/51531-h/images/illus2.jpg
p17
asS'language_code'
p18
Ven-US
p19
sS'id'
p20
I540
sS'category'
p21
VText
p22
sS'genres'
p23
(lp24
sS'copyright'
p25
VPublic domain in the USA.
p26
sS'title'
p27
VWith These Hands
p28
sS'wikipedia'
p29
(dp30
S'found'
p31
I00
ssS'average_rating'
p32
F4.06
sS'rating_count'
p33
I100093
sS'content_available'
p34
I01
sS'cover_art_url'
p35
S'http://www.gutenberg.org/cache/epub/51531/pg51531.cover.medium.jpg'
p36
sS'goodreads'
p37
(dp38
S'url'
p39
Vhttps://www.goodreads.com/book/show/7488244-unearthly
p40
sS'found'
p41
I01
sS'year'
p42
I2011
ssS'similar_books'
p43
(lp44
VWings of the Wicked (Angelfire, #2)
p45
aVA Touch Mortal (A Touch Trilogy, #1)
p46
aVAngel (Angel, #1)
p47
aVShift (Shade, #2)
p48
aVSecrets and Shadows (13 to Life, #2)
p49
aVThe Body Finder (The Body Finder, #1)
p50
aVDark Kiss (Nightwatchers, #1)
p51
aVEnticed (The Violet Eden Chapters, #2)
p52
aVDemonglass (Hex Hall, #2)
p53
aVSupernaturally (Paranormalcy, #2)
p54
aVMercy (Mercy, #1)
p55
aVHourglass (Hourglass, #1)
p56
aVA Beautiful Dark (A Beautiful Dark, #1)
p57
aVHemlock (Hemlock, #1)
p58
aVDarkness Becomes Her (Gods & Monsters, #1)
p59
aVDie for Me (Revenants, #1)
p60
aVNevermore (Nevermore, #1)
p61
aVImmortal Beloved (Immortal Beloved, #1)
p62
asS'description'
p63
VIn the beginning, there's a boy standing in the trees...<br />Clara Gardner has recently learned that she's part angel. Having angel blood run through her veins not only makes her smarter, stronger, and faster than humans (a word, she realizes, that no longer applies to her), but it means she has a purpose, something she was put on this earth to do. Figuring out what that is, though, isn't easy.<br /><br />Her visions of a raging forest fire and an alluring stranger lead her to a new school in a new town. When she meets Christian, who turns out to be the boy of her dreams (literally), everything seems to fall into place and out of place at the same time. Because there's another guy, Tucker, who appeals to Clara's less angelic side.<br /><br />As Clara tries to find her way in a world she no longer understands, she encounters unseen dangers and choices she never thought she'd have to make between honesty and deceit, love and duty, good and evil. When the fire from her vision finally ignites, will Clara be ready to face her destiny?<br /><br />Unearthly is a moving tale of love and fate, and the struggle between following the rules and following your heart.
p64
sS'format'
p65
VHardcover
p66
sS'gutenberg'
p67
(dp68
g39
Vhttp://www.gutenberg.org/ebooks/51531
p69
sS'num'
p70
I51531
ssS'authors'
p71
(lp72
I51
asS'pages'
p73
I435
sS'isbn13'
p74
V9780061996160
p75
sS'language'
p76
VEnglish
p77
sS'countries'
p78
(lp79
I2
asS'release_date'
p80
S'2016-03-22T00:00:00'
p81
sS'author'
p82
I51
sS'content_cleaned'
p83
I01
sS'classes'
p84
(lp85
Vto-read
p86
aVfavorites
p87
aVyoung-adult
p88
aVangels
p89
aVfantasy
p90
aVparanormal
p91
aVya
p92
aVromance
p93
aVcurrently-reading
p94
aVbooks-i-own
p95
aVseries
p96
aVparanormal-romance
p97
aVsupernatural
p98
aVurban-fantasy
p99
aVowned
p100
aVto-buy
p101
aVlove-triangle
p102
aVfiction
p103
aVfavourites
p104
aVkindle
p105
aVlibrary
p106
aVangel
p107
aVunearthly
p108
aVangels-demons
p109
aVread-in-2011
p110
aVread-in-2012
p111
aVwish-list
p112
aVangels-and-demons
p113
aVebook
p114
aVya-fantasy
p115
aVowned-books
p116
aVmaybe
p117
aVi-own
p118
aVya-paranormal
p119
aVteen
p120
aVread-in-2013
p121
aVebooks
p122
aV5-stars
p123
aVreviewed
p124
aVfirst-in-series
p125
aVcynthia-hand
p126
aVwant-to-read
p127
aVmy-books
p128
aVya-fiction
p129
aVfavorite-books
p130
aV4-stars
p131
aVhigh-school
p132
aVlove-triangles
p133
aVbeautiful-covers
p134
aVfantasy-paranormal
p135
aVfavorite
p136
aVcontemporary
p137
aVread-2012
p138
aVpnr
p139
aVya-books
p140
aVmust-read
p141
aVread-2013
p142
aVtrilogy
p143
aVe-books
p144
aVread-in-2014
p145
aVfinished-series
p146
aVya-romance
p147
aVre-read
p148
aVown-it
p149
aVread-2011
p150
aVmagic
p151
aVe-book
p152
aVmythology
p153
aVparanormal-fantasy
p154
aVyoung-adult-fiction
p155
aVfavorite-series
p156
aVnephilim
p157
aVhave
p158
aVfallen-angels
p159
aVarc
p160
aVbook-boyfriends
p161
aVseries-to-start
p162
aVsigned
p163
aVcompleted-series
p164
aVdnf
p165
aVneed-to-buy
p166
aVcover-love
p167
aV2013-reads
p168
aVseries-to-read
p169
aV2011-reads
p170
aVbooks
p171
aVaudiobook
p172
aVdemons
p173
aVmy-favorites
p174
aVtbr
p175
aVmystery
p176
aVlove
p177
aVnook
p178
aVyoung-adult-fantasy
p179
aVwant
p180
aVlibrary-books
p181
aVunearthly-series
p182
aVto-read-series
p183
aVlove-the-cover
p184
aVfirst-in-a-series
p185
asS'loc_class'
p186
S''
p187
sS'n_authors'
p188
I1
sb.