ccopy_reg
_reconstructor
p0
(cdataset.Book
Book
p1
c__builtin__
object
p2
Ntp3
Rp4
(dp5
S'content_name'
p6
V30199.txt.utf-8
p7
sS'isbn'
p8
V146380010X
p9
sS'year'
p10
I1952
sS'author_name'
p11
VAugust Derleth
p12
sS'images_urls'
p13
(lp14
Vhttp://www.gutenberg.org/files/30199/30199-h/images/001.png
p15
aVhttp://www.gutenberg.org/files/30199/30199-h/images/002-1.jpg
p16
aVhttp://www.gutenberg.org/files/30199/30199-h/images/002-2.jpg
p17
asS'language_code'
p18
NsS'id'
p19
I267
sS'category'
p20
VText
p21
sS'genres'
p22
(lp23
sS'copyright'
p24
VPublic domain in the USA.
p25
sS'title'
p26
VMcIlvaine's Star
p27
sS'wikipedia'
p28
(dp29
S'found'
p30
I00
ssS'average_rating'
p31
F3.33
sS'rating_count'
p32
I22
sS'content_available'
p33
I01
sS'goodreads'
p34
(dp35
S'url'
p36
Vhttps://www.goodreads.com/book/show/11596326-mcilvaine-s-star
p37
sS'found'
p38
I01
sS'year'
p39
I1952
ssS'similar_books'
p40
(lp41
sS'description'
p42
V"I've done it," McIlvaine said quietly. "What's that?" asked Alexander testily. "I discovered a new star. It lies just off Arcturus," McIlvaine went on, "and it would appear to be coming closer." "Give it my love," said Richardson with a wry smile. "Have you named it yet? Or don't the discoverers of new stars name them any more? McIlvaine's Star -- that's a good name for it. Hard a port of Arcturus, with special displays on windy nights." What Thaddeus McIlvaine and Alexander Richardson didn't realize was that they were characters in a horror story. A story written by August Derleth, the man who founded Arkham House. None of these folks knew it yet, but they're all DOOMED! Doomed! Mwahahahaha!
p43
sS'gutenberg'
p44
(dp45
g36
Vhttp://www.gutenberg.org/ebooks/30199
p46
sS'num'
p47
I30199
ssS'authors'
p48
(lp49
I43
asS'pages'
p50
I28
sS'isbn13'
p51
V9781463800109
p52
sS'language'
p53
VEnglish
p54
sS'countries'
p55
(lp56
I2
asS'release_date'
p57
S'2009-10-07T00:00:00'
p58
sS'author'
p59
I43
sS'content_cleaned'
p60
I01
sS'classes'
p61
(lp62
Vto-read
p63
aVscience-fiction
p64
aVshort-stories
p65
aVhorror
p66
aVkindle
p67
aVz_fiction
p68
aVx_shortstory
p69
aVwo_scifi
p70
aVw_us_federal
p71
aVsci-fi
p72
aVshort-story
p73
aV1950s
p74
aVshort-stories-novellas
p75
aV14
p76
aVsci-fic
p77
aVread-in-2013
p78
aVmasterpieces
p79
aVtype-short-story
p80
asS'loc_class'
p81
VPS: Language and Literatures: American and Canadian literature
p82
sS'n_authors'
p83
I1
sb.