ccopy_reg
_reconstructor
p0
(cdataset.Book
Book
p1
c__builtin__
object
p2
Ntp3
Rp4
(dp5
S'content_name'
p6
V31207.txt.utf-8
p7
sS'isbn'
p8
NsS'year'
p9
I1954
sS'author_name'
p10
VHenry Kuttner
p11
sS'images_urls'
p12
(lp13
sS'language_code'
p14
NsS'id'
p15
I613
sS'category'
p16
VText
p17
sS'genres'
p18
(lp19
sS'copyright'
p20
VPublic domain in the USA.
p21
sS'title'
p22
VWhere the World is Quiet
p23
sS'wikipedia'
p24
(dp25
S'found'
p26
I00
ssS'average_rating'
p27
F3.17
sS'rating_count'
p28
I17
sS'content_available'
p29
I01
sS'goodreads'
p30
(dp31
S'url'
p32
Vhttps://www.goodreads.com/book/show/10379594-where-the-world-is-quiet
p33
sS'found'
p34
I01
sS'year'
p35
I2010
ssS'similar_books'
p36
(lp37
sS'description'
p38
VThe life of an anthropologist is no doubt filled much of the time with the monotonous routine of carefully assembling powdery relics of ancient races and civilizations. But White's lone Peruvian odyssey was most unusual. Fra Rafael saw strange things, impossible things. Then there was the mystery of the seven young virginal girls of Huascan. . . .
p39
sS'format'
p40
NsS'gutenberg'
p41
(dp42
g32
Vhttp://www.gutenberg.org/ebooks/31207
p43
sS'num'
p44
I31207
ssS'authors'
p45
(lp46
I123
asS'isbn13'
p47
V2940012617705
p48
sS'language'
p49
VEnglish
p50
sS'countries'
p51
(lp52
I2
asS'release_date'
p53
S'2010-02-07T00:00:00'
p54
sS'author'
p55
I123
sS'cover'
p56
Vhttps://s.gr-assets.com/assets/nophoto/book/111x148-bcc042a9c91a29c1d680899eff700a03.png
p57
sS'content_cleaned'
p58
I01
sS'classes'
p59
(lp60
Vto-read
p61
aVsci-fi
p62
aVcurrently-reading
p63
aVshort-stories
p64
aVscience-fiction
p65
aVshort-story
p66
aVjunk
p67
aVspeculative-fiction
p68
aVz_fiction
p69
aVx_shortstory
p70
aVwo_scifi
p71
aVw_us_federal
p72
aVon-calibre
p73
aVmaybe-reads
p74
aVclassics
p75
aVaudio-obtained-lvss
p76
aVebook
p77
aVowned-amazon
p78
aV13
p79
aVsci-fi-fantasy
p80
aVfantasy
p81
aVbooks-i-like
p82
aVowned
p83
aVfantasy-science-fiction
p84
aVfront-shelf
p85
aVtype-short-story
p86
aVaudio-obtained-ss
p87
asS'loc_class'
p88
VPS: Language and Literatures: American and Canadian literature
p89
sS'n_authors'
p90
I1
sb.