ccopy_reg
_reconstructor
p0
(cdataset.Book
Book
p1
c__builtin__
object
p2
Ntp3
Rp4
(dp5
S'similar_books'
p6
(lp7
sS'genres'
p8
(lp9
sS'author'
p10
I302
sS'countries'
p11
(lp12
I2
asS'year'
p13
I1952
sS'title'
p14
VGalaxy Magazine June 1952
p15
sS'cover'
p16
Vhttps://ia600203.us.archive.org/BookReader/BookReaderImages.php?zip=/20/items/Galaxy_v04n03_1952-06/Galaxy_v04n03_1952-06_jp2.zip&file=Galaxy_v04n03_1952-06_jp2/Galaxy_v04n03_1952-06_0000.jp2&scale=0&rotate=0
p17
sS'cover_art'
p18
S'http://www.isfdb.org/wiki/images/f/f1/GALJUN1952.jpg'
p19
sS'author_name'
p20
VGalaxy Magazine
p21
sS'images_urls'
p22
(lp23
sS'authors'
p24
(lp25
I342
aI398
aI363
aI305
aI326
aI339
aI340
aI243
aI217
aI40
aI88
aI387
aI51
aI302
asS'images'
p26
(lp27
sS'id'
p28
I993
sS'contents'
p29
(lp30
(dp31
S'title'
p32
VGravy Planet (Part 1 of 3)
p33
sS'author'
p34
I342
sa(dp35
g32
VGravy Planet (Part 1 of 3) [2]
p36
sg34
I342
sa(dp37
g32
VGravy Planet (Part 1 of 3) [3]
p38
sg34
I342
sa(dp39
g32
VGravy Planet (Part 1 of 3) [4]
p40
sg34
I342
sa(dp41
g32
VGravy Planet (Part 1 of 3) [5]
p42
sg34
I342
sa(dp43
g32
VThe Highest Mountain
p44
sg34
I398
sa(dp45
g32
VOrphans of the Void
p46
sg34
I363
sa(dp47
g32
VOrphans of the Void [2]
p48
sg34
I363
sa(dp49
g32
VOrphans of the Void [3]
p50
sg34
I363
sa(dp51
g32
VShipping Clerk
p52
sg34
I363
sa(dp53
g32
VThe Hoaxters
p54
sg34
I363
sa(dp55
g32
VThe Hoaxters [2]
p56
sg34
I363
sa(dp57
g32
VThe Hoaxters [3]
p58
sg34
I363
sa(dp59
g32
VThe Luckiest Man in Denv
p60
sg34
I363
sa(dp61
g32
VRandom Notes
p62
sg34
I305
sa(dp63
g32
VForecast (Galaxy, June 1952)
p64
sg34
I326
sa(dp65
g32
VFor Your Information (Galaxy, June 1952)
p66
sg34
I339
sa(dp67
g32
VGalaxy's 5 Star Shelf (Galaxy, June 1952)
p68
sg34
I340
sa(dp69
g32
VOrphans of the Void
p70
sg34
I243
sa(dp71
g32
VThe Hoaxters
p72
sg34
I217
sa(dp73
g32
VGravy Planet (Part 1 of 3)
p74
sg34
I40
sa(dp75
g32
VThe Highest Mountain
p76
sg34
I88
sa(dp77
g32
VShipping Clerk
p78
sg34
I387
sa(dp79
g32
VThe Luckiest Man in Denv
p80
sg34
I51
sasb.