ccopy_reg
_reconstructor
p0
(cdataset.Book
Book
p1
c__builtin__
object
p2
Ntp3
Rp4
(dp5
S'content_name'
p6
V24152.txt.utf-8
p7
sS'isbn'
p8
V0446696110
p9
sS'year'
p10
I2003
sS'author_name'
p11
VIrving E. Cox
p12
sS'images_urls'
p13
(lp14
Vhttp://www.gutenberg.org/files/24152/24152-h/images/fin.jpg
p15
aVhttp://www.gutenberg.org/files/24152/24152-h/images/title.jpg
p16
asS'language_code'
p17
Ven-US
p18
sS'images'
p19
(lp20
sS'id'
p21
I649
sS'category'
p22
VText
p23
sS'genres'
p24
(lp25
sS'copyright'
p26
VPublic domain in the USA.
p27
sS'title'
p28
VThe Guardians
p29
sS'wikipedia'
p30
(dp31
S'url'
p32
Vhttps://en.wikipedia.org/wiki/Guardians_of_Ga%27Hoole
p33
sS'found'
p34
I01
sS'year'
p35
I-1
ssS'published_in'
p36
NsS'average_rating'
p37
F4.14
sS'rating_count'
p38
I136535
sS'content_available'
p39
I01
sS'cover_art_url'
p40
S'http://www.gutenberg.org/cache/epub/24152/pg24152.cover.medium.jpg'
p41
sS'goodreads'
p42
(dp43
g32
Vhttps://www.goodreads.com/book/show/15925.The_Guardian
p44
sg34
I01
sg35
I2003
ssS'similar_books'
p45
(lp46
VThe Letter (The Christmas Box, #3)
p47
aVNicholas Sparks
p48
aVSam's Letters to Jennifer
p49
aVHome Fires
p50
aVThe Christmas Blessing (Christmas Hope, #2)
p51
aVLike Dandelion Dust
p52
aVSafe Harbour
p53
aVAngel Falls
p54
aVThe Woman Next Door
p55
asS'description'
p56
VJulie Barenson's young husband left her two unexpected gifts before he died: a Great Dane puppy named Singer and the promise that he would always be watching over her. Now, four years have passed. Still living in the small town of Swansboro, North Carolina, 29-year-old Julie is emotionally ready to make a commitment to someone again. But who? Should it be Richard Franklin, the handsome, sophisticated engineer who treats her like a queen? Or Mike Harris, the down-to-earth nice guy who was her husband's best friend? Choosing one of them should bring her more happiness than she's had in years. Instead, Julie is soon fighting for her life in a nightmare spawned by a chilling deception and jealousy so poisonous that it has become a murderous desire
p57
sS'format'
p58
NsS'gutenberg'
p59
(dp60
g32
Vhttp://www.gutenberg.org/ebooks/24152
p61
sS'num'
p62
I24152
ssS'authors'
p63
(lp64
I160
asS'isbn13'
p65
V9780446696111
p66
sS'language'
p67
VEnglish
p68
sS'country'
p69
I2
sS'release_date'
p70
S'2008-01-03T00:00:00'
p71
sS'author'
p72
I160
sS'original_title'
p73
VGuardians of Ga'Hoole
p74
sS'summary'
p75
VGuardians of Ga\u2019Hoole is a fantasy book series written by Kathryn Lasky and published by Scholastic. The series, which was intended to end in 2008 with the publication of The War of the Ember until a prequel The Rise of a Legend was published in 2013, has a total of sixteen books. Apart from the main series there are a few more books and spin offs set in the same universe. The first three books of the series were adapted into the animated 3D film Legend of the Guardians: The Owls of Ga'Hoole, directed by Zack Snyder.\u000a\u000a
p76
sS'content_cleaned'
p77
I01
sS'classes'
p78
(lp79
Vto-read
p80
aVcurrently-reading
p81
aVnicholas-sparks
p82
aVromance
p83
aVfavorites
p84
aVfiction
p85
aVbooks-i-own
p86
aVchick-lit
p87
aVowned
p88
aVcontemporary
p89
aVowned-books
p90
aVsparks
p91
aVdefault
p92
aVadult
p93
aVadult-fiction
p94
aVcontemporary-romance
p95
aVmy-books
p96
aVmystery
p97
aVto-buy
p98
aVmy-library
p99
aVi-own
p100
aVlove
p101
aVdrama
p102
aVlibrary
p103
aVsparks-nicholas
p104
aVthriller
p105
aVsuspense
p106
aVlove-stories
p107
aVmy-favorites
p108
aVnovels
p109
aVown-it
p110
aVkindle
p111
aVstand-alone
p112
aVhave
p113
aVrealistic-fiction
p114
aVebooks
p115
aVnicholas-sparks-books
p116
aVbooks-i-have
p117
aVlove-story
p118
aVfavorite-books
p119
aVaudiobooks
p120
aVbooks
p121
aVfavorite
p122
aVnicolas-sparks
p123
aVfavourites
p124
aVromantic
p125
aVromantic-suspense
p126
aVbook-club
p127
aVwish-list
p128
aVnovel
p129
aVgeneral-fiction
p130
aVcontemporary-fiction
p131
aVaudio
p132
aVchic-lit
p133
aVfavorite-authors
p134
aVfinished
p135
aVyoung-adult
p136
aVmaybe
p137
aVmine
p138
aVown-to-read
p139
aVwant-to-read
p140
aValready-read
p141
aVon-my-shelf
p142
aVneed-to-buy
p143
aVall-time-favorites
p144
aVbookshelf
p145
aVshelfari-favorites
p146
aV5-stars
p147
aVsouthern
p148
aVread-in-2011
p149
aVanimals
p150
aVdeath
p151
aVtear-jerker
p152
aVbooks-owned
p153
aVborrowed
p154
aVdog
p155
aVread-in-2012
p156
aVre-read
p157
aVebook
p158
aVpaperback
p159
aVin-my-library
p160
aVpersonal-library
p161
aVn-sparks
p162
aVguilty-pleasures
p163
aVadult-romance
p164
aVstandalone
p165
aVrelationships
p166
aVaudio-book
p167
aVnicholas
p168
aVmade-me-cry
p169
aVaudiobook
p170
aVtear-jerkers
p171
aVwomens-fiction
p172
aV2003
p173
aVe-book
p174
aVread-in-2013
p175
aVthe-guardian
p176
aV4-stars
p177
aVkindle-books
p178
aVchicklit
p179
asS'loc_class'
p180
VPS: Language and Literatures: American and Canadian literature
p181
sS'n_authors'
p182
I1
sb.