ccopy_reg
_reconstructor
p0
(cdataset.Book
Book
p1
c__builtin__
object
p2
Ntp3
Rp4
(dp5
S'content_name'
p6
V50818.txt.utf-8
p7
sS'isbn'
p8
V1597801429
p9
sS'year'
p10
I2001
sS'author_name'
p11
VJim Harmon
p12
sS'images_urls'
p13
(lp14
Vhttp://www.gutenberg.org/files/50818/50818-h/images/cover.jpg
p15
aVhttp://www.gutenberg.org/files/50818/50818-h/images/illus1.jpg
p16
aVhttp://www.gutenberg.org/files/50818/50818-h/images/illus2.jpg
p17
aVhttp://www.gutenberg.org/files/50818/50818-h/images/illus3.jpg
p18
asS'language_code'
p19
NsS'images'
p20
(lp21
sS'id'
p22
I676
sS'category'
p23
VText
p24
sS'genres'
p25
(lp26
sS'copyright'
p27
VPublic domain in the USA.
p28
sS'title'
p29
VHow to Make Friends
p30
sS'wikipedia'
p31
(dp32
S'found'
p33
I00
ssS'average_rating'
p34
F3.69
sS'rating_count'
p35
I352
sS'content_available'
p36
I01
sS'cover_art_url'
p37
S'http://www.gutenberg.org/cache/epub/50818/pg50818.cover.medium.jpg'
p38
sS'goodreads'
p39
(dp40
S'url'
p41
Vhttps://www.goodreads.com/book/show/4254923-how-to-make-friends-with-demons
p42
sg33
I01
sS'year'
p43
I2001
ssS'similar_books'
p44
(lp45
VDusk (Tales of Noreela, #1)
p46
aVThe Grin of the Dark
p47
aVOne
p48
aVSong of Time
p49
aVRandom Magic
p50
aVThe Ninth Circle
p51
aVThe Night of the Triffids
p52
aVWalking The Tree
p53
aVPerdido Street Station 1 (New Crobuzon #1.1)
p54
aVThe Suicide Collectors
p55
aVThe Hollow Lands (Dancers at the End of Time, #2)
p56
aVA Banquet for Hungry Ghosts: A Collection of Deliciously Frightening Tales
p57
aVTerraforming Earth
p58
aVSigns Of Life
p59
aVAd Eternum (New Amsterdam, #4)
p60
aVGalveston (Resurrection Man, #3)
p61
aVProdigal Blues
p62
aVThe Shadow Year
p63
asS'description'
p64
VWilliam Heaney is a man well acquainted with demons. Not his broken family \u2014 his wife has left him for a celebrity chef, his snobbish teenaged son despises him, and his daughter's new boyfriend resembles Nosferatu \u2014 nor his drinking problem, nor his unfulfilling government job, but real demons. For demons are real, and William has identified one thousand five hundred and sixty-seven smoky figures, dwelling on the shadowy fringes of human life, influencing our decisions with their sweet and poisoned voices.<br /> After a series of seemingly unconnected personal encounters \u2014 with a beautiful and captivating woman met in the company of an infuriating poet, a troubled and damaged veteran of Desert Storm with demons of his own, and an old school acquaintance with whom he shared a mystical occult ritual \u2014 William Heaney's life is thrown into a direction he does not fully comprehend. Past and present collide. Long-dormant choices and forgotten deceptions surface. Secrets threaten to become exposed. To weather the changes, William Heaney must learn one thing: how to make friends with demons.<br /><br />Skyhorse Publishing, under our Night Shade and Talos imprints, is proud to publish a broad range of titles for readers interested in science fiction (space opera, time travel, hard SF, alien invasion, near-future dystopia), fantasy (grimdark, sword and sorcery, contemporary urban fantasy, steampunk, alternative history), and horror (zombies, vampires, and the occult and supernatural), and much more. While not every title we publish becomes a <i>New York Times</i> bestseller, a national bestseller, or a Hugo or Nebula award-winner, we are committed to publishing quality books from a diverse group of authors.
p65
sS'format'
p66
VHardcover
p67
sS'gutenberg'
p68
(dp69
g41
Vhttp://www.gutenberg.org/ebooks/50818
p70
sS'num'
p71
I50818
ssS'authors'
p72
(lp73
I142
asS'pages'
p74
I298
sS'isbn13'
p75
V9781597801423
p76
sS'language'
p77
VEnglish
p78
sS'country'
p79
I2
sS'release_date'
p80
S'2016-01-01T00:00:00'
p81
sS'author'
p82
I142
sS'content_cleaned'
p83
I01
sS'classes'
p84
(lp85
Vfiction
p86
aVto-read
p87
aVhorror
p88
aVurban-fantasy
p89
aVowned
p90
aVbooks-i-own
p91
aVebook
p92
aVbooks
p93
aVmagical-realism
p94
aVto-buy
p95
aVbook-club
p96
aVcontemporary
p97
aVtbr
p98
aVdemons
p99
aVcontemporary-fiction
p100
aVengland
p101
aVcurrently-reading
p102
aVpal
p103
aVen-attente
p104
aVmystery
p105
aVnook
p106
aVgraham-joyce
p107
aVnext
p108
aVlibrary
p109
aVliterature
p110
aVsupernatural
p111
aVforgery
p112
aVsci-fi-fantasy
p113
aVsff
p114
aVspeculative-fiction
p115
aVparanormal
p116
aVdrama
p117
aVread-in-2017
p118
aVto-read-d
p119
aVon-calibre-to-read
p120
aVauteur
p121
aVfantasy
p122
aVcalibre-books
p123
aVbritish
p124
aV00-to-read-02
p125
aV2017-to-read
p126
aVon-shelf
p127
aVlife-is-life-nananana
p128
aVat-library
p129
aVfollow-up-reading
p130
aVto-borrow
p131
aVspotted-while-shelving
p132
aVbook-bingo
p133
aVgenre-fantasy
p134
aV1-own
p135
aVentertaining-but-limited
p136
aV3-star
p137
aVread-2016
p138
aVown-but-not-read-yet
p139
aVlisa
p140
aVhardcover-trade
p141
aVtbr_standalone
p142
aVlanguage-english
p143
aVin-sweden
p144
aVreaders
p145
aVen-ebook
p146
aVmy-bookshelf
p147
aV_garbage
p148
aVbiblioteca-de-casa
p149
aV02sftr
p150
aVbook-jar
p151
aValready-dl
p152
aVfantasy-to-read
p153
aVwhy-i-bought-this
p154
aVurban
p155
aVhorror-supernatural
p156
aVhomeless-shelter
p157
aVfamily-relationships
p158
aVdemons-literal-or-figurative
p159
aVmagic-realism
p160
aVhistorical-fiction
p161
aVenglish-language
p162
aVshelfari-wishlist
p163
aVinteresting
p164
aVown-to-read
p165
aVcould-read
p166
aVoccult-fiction
p167
aVfiction-and-other
p168
aVown-physical
p169
aVsupernatural-fantasy-scifi
p170
aV2015-reading
p171
aVstand-alone-books
p172
aV2015-to-read
p173
aVown-but-have-not-read
p174
aVsold-or-given-away
p175
aVread-before-2012
p176
aVfantasy-and-scifi-to-read
p177
aVlivros-2015
p178
aVmeus
p179
aVaquisi-es-2015
p180
aVread-before-goodreads
p181
aVown-book
p182
aVall-time-favourites
p183
aVreading-slowly
p184
aVestante-lidos
p185
asS'loc_class'
p186
S''
p187
sS'n_authors'
p188
I1
sb.