ccopy_reg
_reconstructor
p0
(cdataset.Book
Book
p1
c__builtin__
object
p2
Ntp3
Rp4
(dp5
S'content_name'
p6
V24750.txt.utf-8
p7
sS'isbn'
p8
V1516861523
p9
sS'year'
p10
I1890
sS'author_name'
p11
VMary E. Bradley Lane
p12
sS'images_urls'
p13
(lp14
Vhttp://www.gutenberg.org/files/24750/24750-h/images/001.png
p15
aVhttp://www.gutenberg.org/files/24750/24750-page-images/f0001.png
p16
aVhttp://www.gutenberg.org/files/24750/24750-page-images/f0002.png
p17
aVhttp://www.gutenberg.org/files/24750/24750-page-images/f0003.png
p18
aVhttp://www.gutenberg.org/files/24750/24750-page-images/p0007.png
p19
aVhttp://www.gutenberg.org/files/24750/24750-page-images/p0008.png
p20
aVhttp://www.gutenberg.org/files/24750/24750-page-images/p0009.png
p21
aVhttp://www.gutenberg.org/files/24750/24750-page-images/p0010.png
p22
aVhttp://www.gutenberg.org/files/24750/24750-page-images/p0011.png
p23
aVhttp://www.gutenberg.org/files/24750/24750-page-images/p0012.png
p24
aVhttp://www.gutenberg.org/files/24750/24750-page-images/p0013.png
p25
aVhttp://www.gutenberg.org/files/24750/24750-page-images/p0014.png
p26
aVhttp://www.gutenberg.org/files/24750/24750-page-images/p0015.png
p27
aVhttp://www.gutenberg.org/files/24750/24750-page-images/p0016.png
p28
aVhttp://www.gutenberg.org/files/24750/24750-page-images/p0017.png
p29
aVhttp://www.gutenberg.org/files/24750/24750-page-images/p0018.png
p30
aVhttp://www.gutenberg.org/files/24750/24750-page-images/p0019.png
p31
aVhttp://www.gutenberg.org/files/24750/24750-page-images/p0020.png
p32
aVhttp://www.gutenberg.org/files/24750/24750-page-images/p0021.png
p33
aVhttp://www.gutenberg.org/files/24750/24750-page-images/p0022.png
p34
aVhttp://www.gutenberg.org/files/24750/24750-page-images/p0023.png
p35
aVhttp://www.gutenberg.org/files/24750/24750-page-images/p0024.png
p36
aVhttp://www.gutenberg.org/files/24750/24750-page-images/p0025.png
p37
aVhttp://www.gutenberg.org/files/24750/24750-page-images/p0026.png
p38
aVhttp://www.gutenberg.org/files/24750/24750-page-images/p0027.png
p39
aVhttp://www.gutenberg.org/files/24750/24750-page-images/p0028.png
p40
aVhttp://www.gutenberg.org/files/24750/24750-page-images/p0029.png
p41
aVhttp://www.gutenberg.org/files/24750/24750-page-images/p0030.png
p42
aVhttp://www.gutenberg.org/files/24750/24750-page-images/p0031.png
p43
aVhttp://www.gutenberg.org/files/24750/24750-page-images/p0032.png
p44
aVhttp://www.gutenberg.org/files/24750/24750-page-images/p0033.png
p45
aVhttp://www.gutenberg.org/files/24750/24750-page-images/p0034.png
p46
aVhttp://www.gutenberg.org/files/24750/24750-page-images/p0035.png
p47
aVhttp://www.gutenberg.org/files/24750/24750-page-images/p0036.png
p48
aVhttp://www.gutenberg.org/files/24750/24750-page-images/p0037.png
p49
aVhttp://www.gutenberg.org/files/24750/24750-page-images/p0038.png
p50
aVhttp://www.gutenberg.org/files/24750/24750-page-images/p0039.png
p51
aVhttp://www.gutenberg.org/files/24750/24750-page-images/p0040.png
p52
aVhttp://www.gutenberg.org/files/24750/24750-page-images/p0041.png
p53
aVhttp://www.gutenberg.org/files/24750/24750-page-images/p0042.png
p54
aVhttp://www.gutenberg.org/files/24750/24750-page-images/p0043.png
p55
aVhttp://www.gutenberg.org/files/24750/24750-page-images/p0044.png
p56
aVhttp://www.gutenberg.org/files/24750/24750-page-images/p0045.png
p57
aVhttp://www.gutenberg.org/files/24750/24750-page-images/p0046.png
p58
aVhttp://www.gutenberg.org/files/24750/24750-page-images/p0047.png
p59
aVhttp://www.gutenberg.org/files/24750/24750-page-images/p0048.png
p60
aVhttp://www.gutenberg.org/files/24750/24750-page-images/p0049.png
p61
aVhttp://www.gutenberg.org/files/24750/24750-page-images/p0050.png
p62
aVhttp://www.gutenberg.org/files/24750/24750-page-images/p0051.png
p63
aVhttp://www.gutenberg.org/files/24750/24750-page-images/p0052.png
p64
aVhttp://www.gutenberg.org/files/24750/24750-page-images/p0053.png
p65
aVhttp://www.gutenberg.org/files/24750/24750-page-images/p0054.png
p66
aVhttp://www.gutenberg.org/files/24750/24750-page-images/p0055.png
p67
aVhttp://www.gutenberg.org/files/24750/24750-page-images/p0056.png
p68
aVhttp://www.gutenberg.org/files/24750/24750-page-images/p0057.png
p69
aVhttp://www.gutenberg.org/files/24750/24750-page-images/p0058.png
p70
aVhttp://www.gutenberg.org/files/24750/24750-page-images/p0059.png
p71
aVhttp://www.gutenberg.org/files/24750/24750-page-images/p0060.png
p72
aVhttp://www.gutenberg.org/files/24750/24750-page-images/p0061.png
p73
aVhttp://www.gutenberg.org/files/24750/24750-page-images/p0062.png
p74
aVhttp://www.gutenberg.org/files/24750/24750-page-images/p0063.png
p75
aVhttp://www.gutenberg.org/files/24750/24750-page-images/p0064.png
p76
aVhttp://www.gutenberg.org/files/24750/24750-page-images/p0065.png
p77
aVhttp://www.gutenberg.org/files/24750/24750-page-images/p0066.png
p78
aVhttp://www.gutenberg.org/files/24750/24750-page-images/p0067.png
p79
aVhttp://www.gutenberg.org/files/24750/24750-page-images/p0068.png
p80
aVhttp://www.gutenberg.org/files/24750/24750-page-images/p0069.png
p81
aVhttp://www.gutenberg.org/files/24750/24750-page-images/p0070.png
p82
aVhttp://www.gutenberg.org/files/24750/24750-page-images/p0071.png
p83
aVhttp://www.gutenberg.org/files/24750/24750-page-images/p0072.png
p84
aVhttp://www.gutenberg.org/files/24750/24750-page-images/p0073.png
p85
aVhttp://www.gutenberg.org/files/24750/24750-page-images/p0074.png
p86
aVhttp://www.gutenberg.org/files/24750/24750-page-images/p0075.png
p87
aVhttp://www.gutenberg.org/files/24750/24750-page-images/p0076.png
p88
aVhttp://www.gutenberg.org/files/24750/24750-page-images/p0077.png
p89
aVhttp://www.gutenberg.org/files/24750/24750-page-images/p0078.png
p90
aVhttp://www.gutenberg.org/files/24750/24750-page-images/p0079.png
p91
aVhttp://www.gutenberg.org/files/24750/24750-page-images/p0080.png
p92
aVhttp://www.gutenberg.org/files/24750/24750-page-images/p0081.png
p93
aVhttp://www.gutenberg.org/files/24750/24750-page-images/p0082.png
p94
aVhttp://www.gutenberg.org/files/24750/24750-page-images/p0083.png
p95
aVhttp://www.gutenberg.org/files/24750/24750-page-images/p0084.png
p96
aVhttp://www.gutenberg.org/files/24750/24750-page-images/p0085.png
p97
aVhttp://www.gutenberg.org/files/24750/24750-page-images/p0086.png
p98
aVhttp://www.gutenberg.org/files/24750/24750-page-images/p0087.png
p99
aVhttp://www.gutenberg.org/files/24750/24750-page-images/p0088.png
p100
aVhttp://www.gutenberg.org/files/24750/24750-page-images/p0089.png
p101
aVhttp://www.gutenberg.org/files/24750/24750-page-images/p0090.png
p102
aVhttp://www.gutenberg.org/files/24750/24750-page-images/p0091.png
p103
aVhttp://www.gutenberg.org/files/24750/24750-page-images/p0092.png
p104
aVhttp://www.gutenberg.org/files/24750/24750-page-images/p0093.png
p105
aVhttp://www.gutenberg.org/files/24750/24750-page-images/p0094.png
p106
aVhttp://www.gutenberg.org/files/24750/24750-page-images/p0095.png
p107
aVhttp://www.gutenberg.org/files/24750/24750-page-images/p0096.png
p108
aVhttp://www.gutenberg.org/files/24750/24750-page-images/p0097.png
p109
aVhttp://www.gutenberg.org/files/24750/24750-page-images/p0098.png
p110
aVhttp://www.gutenberg.org/files/24750/24750-page-images/p0099.png
p111
aVhttp://www.gutenberg.org/files/24750/24750-page-images/p0100.png
p112
aVhttp://www.gutenberg.org/files/24750/24750-page-images/p0101.png
p113
aVhttp://www.gutenberg.org/files/24750/24750-page-images/p0102.png
p114
aVhttp://www.gutenberg.org/files/24750/24750-page-images/p0103.png
p115
aVhttp://www.gutenberg.org/files/24750/24750-page-images/p0104.png
p116
aVhttp://www.gutenberg.org/files/24750/24750-page-images/p0105.png
p117
aVhttp://www.gutenberg.org/files/24750/24750-page-images/p0106.png
p118
aVhttp://www.gutenberg.org/files/24750/24750-page-images/p0107.png
p119
aVhttp://www.gutenberg.org/files/24750/24750-page-images/p0108.png
p120
aVhttp://www.gutenberg.org/files/24750/24750-page-images/p0109.png
p121
aVhttp://www.gutenberg.org/files/24750/24750-page-images/p0110.png
p122
aVhttp://www.gutenberg.org/files/24750/24750-page-images/p0111.png
p123
aVhttp://www.gutenberg.org/files/24750/24750-page-images/p0112.png
p124
aVhttp://www.gutenberg.org/files/24750/24750-page-images/p0113.png
p125
aVhttp://www.gutenberg.org/files/24750/24750-page-images/p0114.png
p126
aVhttp://www.gutenberg.org/files/24750/24750-page-images/p0115.png
p127
aVhttp://www.gutenberg.org/files/24750/24750-page-images/p0116.png
p128
aVhttp://www.gutenberg.org/files/24750/24750-page-images/p0117.png
p129
aVhttp://www.gutenberg.org/files/24750/24750-page-images/p0118.png
p130
aVhttp://www.gutenberg.org/files/24750/24750-page-images/p0119.png
p131
aVhttp://www.gutenberg.org/files/24750/24750-page-images/p0120.png
p132
aVhttp://www.gutenberg.org/files/24750/24750-page-images/p0121.png
p133
aVhttp://www.gutenberg.org/files/24750/24750-page-images/p0122.png
p134
aVhttp://www.gutenberg.org/files/24750/24750-page-images/p0123.png
p135
aVhttp://www.gutenberg.org/files/24750/24750-page-images/p0124.png
p136
aVhttp://www.gutenberg.org/files/24750/24750-page-images/p0125.png
p137
aVhttp://www.gutenberg.org/files/24750/24750-page-images/p0126.png
p138
aVhttp://www.gutenberg.org/files/24750/24750-page-images/p0127.png
p139
aVhttp://www.gutenberg.org/files/24750/24750-page-images/p0128.png
p140
aVhttp://www.gutenberg.org/files/24750/24750-page-images/p0129.png
p141
aVhttp://www.gutenberg.org/files/24750/24750-page-images/p0130.png
p142
aVhttp://www.gutenberg.org/files/24750/24750-page-images/p0131.png
p143
aVhttp://www.gutenberg.org/files/24750/24750-page-images/p0132.png
p144
aVhttp://www.gutenberg.org/files/24750/24750-page-images/p0133.png
p145
aVhttp://www.gutenberg.org/files/24750/24750-page-images/p0134.png
p146
aVhttp://www.gutenberg.org/files/24750/24750-page-images/p0135.png
p147
aVhttp://www.gutenberg.org/files/24750/24750-page-images/p0136.png
p148
aVhttp://www.gutenberg.org/files/24750/24750-page-images/p0137.png
p149
aVhttp://www.gutenberg.org/files/24750/24750-page-images/p0138.png
p150
aVhttp://www.gutenberg.org/files/24750/24750-page-images/p0139.png
p151
aVhttp://www.gutenberg.org/files/24750/24750-page-images/p0140.png
p152
aVhttp://www.gutenberg.org/files/24750/24750-page-images/p0141.png
p153
aVhttp://www.gutenberg.org/files/24750/24750-page-images/p0142.png
p154
aVhttp://www.gutenberg.org/files/24750/24750-page-images/p0143.png
p155
aVhttp://www.gutenberg.org/files/24750/24750-page-images/p0144.png
p156
aVhttp://www.gutenberg.org/files/24750/24750-page-images/p0145.png
p157
aVhttp://www.gutenberg.org/files/24750/24750-page-images/p0146.png
p158
aVhttp://www.gutenberg.org/files/24750/24750-page-images/p0147.png
p159
asS'language_code'
p160
NsS'images'
p161
(lp162
Vhttps://upload.wikimedia.org/wikipedia/commons/3/3f/Book_collection.jpg
p163
aVhttps://upload.wikimedia.org/wikipedia/commons/archive/3/3f/20090223154522%21Book_collection.jpg
p164
asS'id'
p165
I523
sS'category'
p166
VText
p167
sS'plot'
p168
NsS'genres'
p169
(lp170
sS'copyright'
p171
VPublic domain in the USA.
p172
sS'title'
p173
VMizora: A Prophecy
p174
sS'wikipedia'
p175
(dp176
S'url'
p177
S'https://en.wikipedia.org/wiki/Mizora'
p178
sS'found'
p179
I01
ssS'average_rating'
p180
F5.0
sS'rating_count'
p181
I1
sS'publisher_in'
p182
NsS'content_available'
p183
I01
sS'goodreads'
p184
(dp185
S'url'
p186
Vhttps://www.goodreads.com/book/show/26482529-mizora
p187
sg179
I01
sS'year'
p188
I2015
ssS'similar_books'
p189
(lp190
sS'description'
p191
VBeing a true and faithful account of her Journey to the Interior of the Earth, with a careful description of the Country and its Inhabitants, their Customs, Manners and Government.
p192
sS'gutenberg'
p193
(dp194
g186
Vhttp://www.gutenberg.org/ebooks/24750
p195
sS'num'
p196
I24750
ssS'authors'
p197
(lp198
I173
asS'pages'
p199
I100
sS'publisher'
p200
NsS'isbn13'
p201
V9781516861521
p202
sS'language'
p203
VEnglish
p204
sS'countries'
p205
(lp206
I2
asS'release_date'
p207
S'2008-03-04T00:00:00'
p208
sS'author'
p209
I173
sS'original_title'
p210
VMizora
p211
sS'summary'
p212
VMizora is an utopian novel by Mary E. Bradley Lane, first published in 1880\u201381, when it was serialized in the Cincinnati Commercial newspaper. It appeared in book form in 1890. Mizora is "the first portrait of an all-female, self-sufficient society," and "the first feminist technological Utopia."\u000aThe book's full title is Mizora: A Prophecy: A Mss. Found Among the Private Papers of Princess Vera Zarovitch: Being a True and Faithful Account of her Journey to the Interior of the Earth, with a Careful Description of the Country and its Inhabitants, their Customs, Manners, and Government.\u000aMizora is one element in the wave of utopian and dystopian fiction that distinguished the later decades of the nineteenth century.\u000aThe novel is "the second known feminist utopian novel written by a woman," after Man's Rights (1870) by Annie Denton Cridge. The concept of an all-female society dates back at least to the Amazons of ancient Greek mythology \u2014 though the Amazons still needed men for procreation. In Lane's Mizora, reproduction is by parthenogenesis.\u000aThe book depicts an all-female "utopia" existing within the Earth. The Mizorans practice eugenics; all of them are blonde "Aryans," who disdain people of darker skin. (In modern terms their society is deliberately racist. That term is perhaps applicable to the book as well.) In its ancient history, the land was ruled by a military general elected president (a version of Ulysses Grant). When the general ran for a third term (as Grant was urged to do in 1880), the society of Mizora descended into chaos. Eventually a new all-female social order arose in Mizora. The last men were "eliminated" \u2014 though it is not clear whether they were overtly killed or left to die out. It is said that men are more forgotten than hated.\u000aThe novel also refers to political repression in contemporary Russia, and the suppression of the Polish revolt of 1863. The first-person narrator, Vera Zarovitch, is a young wife and mother, but she has fallen foul of the Czarist regime and has been sentenced to exile in Siberia. She escapes northward into the Arctic, where her kayak is swept over a vast waterfall to Mizora. She spends fifteen years there, learning the ways of the culture; at the end of that time she longs to return to her husband and child, and teach her own society what she has learned.\u000aAs a utopian novel, the book devotes some time to the futuristic technology such as "videophones." The Mizorans can make rain by discharging electricity into the air. Though Mizora has no domestic animals, its women eat chemically-prepared artificial meat \u2014 an innovation that is only under development in the early twenty-first century.\u000aLane plays with the customs and conventions of her own society, as utopian writers normally do. In Mizora, a narrow waist is considered a "disgusting deformity" \u2014 reversing the preference of Lane's own time for tightly-corseted women.\u000aLane's book anticipates some of the features of Charlotte Perkins Gilman's famous Herland by three decades. It was closely followed by other feminist utopian works, Mrs. George Corbett's New Amazonia: A Foretaste of the Future (1889), and Unveiling a Parallel (1893) by collaborators Alice Ilgenfritz Jones and Ella Merchant. Simultaneously, some male utopian writers published works that involve feminist issues and questions of gender roles; Charles Bellamy's An Experiment in Marriage (1889) and Linn Boyd Porter's Speaking of Ellen (1890) are examples.\u000aMizora also belongs to the curious class of hollow Earth literature.\u000aThe second edition of Mizora appeared in 1975, and it was re-released in 1999 by the University of Nebraska Press. Little is known of the author; Mrs. Lane did not want her husband to find out she was writing about the world being better off without men.
p213
sS'content_cleaned'
p214
I01
sS'classes'
p215
(lp216
Vto-read
p217
aV21st-century-lit
p218
aVcurrently-reading
p219
asS'loc_class'
p220
VPS: Language and Literatures: American and Canadian literature
p221
sS'cover_artist'
p222
NsS'n_authors'
p223
I1
sb.