ccopy_reg
_reconstructor
p0
(cdataset.Book
Book
p1
c__builtin__
object
p2
Ntp3
Rp4
(dp5
S'category'
p6
VText
p7
sS'similar_books'
p8
(lp9
sS'genres'
p10
(lp11
sS'language'
p12
VEnglish
p13
sS'copyright'
p14
VPublic domain in the USA.
p15
sS'title'
p16
VA Trip to Venus: A Novel
p17
sS'release_date'
p18
S'2004-10-11T00:00:00'
p19
sS'author'
p20
I77
sS'wikipedia'
p21
(dp22
S'found'
p23
I00
ssS'author_name'
p24
VJohn Munro
p25
sS'images_urls'
p26
(lp27
sS'gutenberg'
p28
(dp29
S'url'
p30
Vhttp://www.gutenberg.org/ebooks/13716
p31
sS'num'
p32
I13716
ssS'classes'
p33
(lp34
sS'loc_class'
p35
VPR: Language and Literatures: English literature
p36
sS'year'
p37
I1897
sS'authors'
p38
(lp39
I77
asS'content_available'
p40
I00
sS'n_authors'
p41
I1
sS'countries'
p42
(lp43
I1
asS'id'
p44
I234
sS'goodreads'
p45
(dp46
S'found'
p47
I00
ssb.