ccopy_reg
_reconstructor
p0
(cdataset.Book
Book
p1
c__builtin__
object
p2
Ntp3
Rp4
(dp5
S'content_name'
p6
V23028.txt.utf-8
p7
sS'isbn'
p8
V1437800351
p9
sS'year'
p10
I1959
sS'author_name'
p11
VKeith Laumer
p12
sS'images_urls'
p13
(lp14
Vhttp://www.gutenberg.org/files/23028/23028-page-images/p029.png
p15
aVhttp://www.gutenberg.org/files/23028/23028-page-images/p030.png
p16
aVhttp://www.gutenberg.org/files/23028/23028-page-images/p031.png
p17
aVhttp://www.gutenberg.org/files/23028/23028-page-images/p032.png
p18
aVhttp://www.gutenberg.org/files/23028/23028-page-images/p033.png
p19
aVhttp://www.gutenberg.org/files/23028/23028-page-images/p034.png
p20
aVhttp://www.gutenberg.org/files/23028/23028-page-images/p035.png
p21
aVhttp://www.gutenberg.org/files/23028/23028-page-images/p036.png
p22
aVhttp://www.gutenberg.org/files/23028/23028-page-images/p037.png
p23
aVhttp://www.gutenberg.org/files/23028/23028-page-images/p038.png
p24
aVhttp://www.gutenberg.org/files/23028/23028-page-images/p039.png
p25
aVhttp://www.gutenberg.org/files/23028/23028-page-images/p040.png
p26
aVhttp://www.gutenberg.org/files/23028/23028-page-images/p041.png
p27
aVhttp://www.gutenberg.org/files/23028/23028-page-images/p042.png
p28
aVhttp://www.gutenberg.org/files/23028/23028-page-images/p043.png
p29
aVhttp://www.gutenberg.org/files/23028/23028-page-images/p044.png
p30
aVhttp://www.gutenberg.org/files/23028/23028-page-images/p045.png
p31
aVhttp://www.gutenberg.org/files/23028/23028-page-images/p046.png
p32
aVhttp://www.gutenberg.org/files/23028/23028-page-images/p047.png
p33
aVhttp://www.gutenberg.org/files/23028/23028-page-images/p048.png
p34
aVhttp://www.gutenberg.org/files/23028/23028-page-images/p049.png
p35
aVhttp://www.gutenberg.org/files/23028/23028-page-images/p050.png
p36
aVhttp://www.gutenberg.org/files/23028/23028-page-images/p051.png
p37
aVhttp://www.gutenberg.org/files/23028/23028-page-images/p052.png
p38
aVhttp://www.gutenberg.org/files/23028/23028-page-images/p053.png
p39
aVhttp://www.gutenberg.org/files/23028/23028-page-images/p054.png
p40
aVhttp://www.gutenberg.org/files/23028/23028-page-images/p055.png
p41
aVhttp://www.gutenberg.org/files/23028/23028-page-images/p056.png
p42
aVhttp://www.gutenberg.org/files/23028/23028-page-images/p057.png
p43
aVhttp://www.gutenberg.org/files/23028/23028-page-images/p058.png
p44
aVhttp://www.gutenberg.org/files/23028/23028-page-images/p059.png
p45
aVhttp://www.gutenberg.org/files/23028/23028-page-images/p060.png
p46
aVhttp://www.gutenberg.org/files/23028/23028-page-images/p061.png
p47
aVhttp://www.gutenberg.org/files/23028/23028-page-images/p062.png
p48
aVhttp://www.gutenberg.org/files/23028/23028-page-images/p063.png
p49
aVhttp://www.gutenberg.org/files/23028/23028-page-images/p064.png
p50
aVhttp://www.gutenberg.org/files/23028/23028-page-images/p065.png
p51
aVhttp://www.gutenberg.org/files/23028/23028-page-images/p066.png
p52
aVhttp://www.gutenberg.org/files/23028/23028-page-images/p067.png
p53
aVhttp://www.gutenberg.org/files/23028/23028-page-images/p068.png
p54
aVhttp://www.gutenberg.org/files/23028/23028-page-images/p069.png
p55
aVhttp://www.gutenberg.org/files/23028/23028-page-images/p070.png
p56
asS'language_code'
p57
NsS'images'
p58
(lp59
sS'id'
p60
I476
sS'category'
p61
VText
p62
sS'genres'
p63
(lp64
sS'copyright'
p65
VPublic domain in the USA.
p66
sS'title'
p67
VGreylorn
p68
sS'wikipedia'
p69
(dp70
S'found'
p71
I00
ssS'average_rating'
p72
F3.47
sS'rating_count'
p73
I70
sS'content_available'
p74
I01
sS'goodreads'
p75
(dp76
S'url'
p77
Vhttps://www.goodreads.com/book/show/4788240-greylorn
p78
sg71
I01
sS'year'
p79
I1951
ssS'similar_books'
p80
(lp81
sS'description'
p82
VCommander Greylorn leads humanity's last hope, one spaceship racing through the voids of the universe. The Red Tide has all but engulfed the Earth, just enough time to find planet Omega, colonized long ago and vanished. After four years, food stores are destroyed by meteor, crew set to mutiny, and alien ship with cargo of human bodies. 1 Greylorn 1959. <br />2 The Night of the Trolls (Bolo) 1963<br />3 The Other Sky 1968 aka The Further Sky<br />4 The King of the City 1961
p83
sS'format'
p84
NsS'gutenberg'
p85
(dp86
g77
Vhttp://www.gutenberg.org/ebooks/23028
p87
sS'num'
p88
I23028
ssS'authors'
p89
(lp90
I67
asS'isbn13'
p91
V9781437800357
p92
sS'language'
p93
VEnglish
p94
sS'countries'
p95
(lp96
I2
asS'release_date'
p97
S'2007-10-13T00:00:00'
p98
sS'author'
p99
I67
sS'content_cleaned'
p100
I01
sS'classes'
p101
(lp102
Vto-read
p103
aVscience-fiction
p104
aVscifi
p105
aVcurrently-reading
p106
aVsci-fi
p107
aVshort-stories
p108
aVcataloged
p109
aVaudiobook
p110
aVsf
p111
aVaudiobooks
p112
aVwar
p113
aVadventure
p114
aVhard-science-fiction
p115
aVon-calibre-to-read
p116
aVroundtuit
p117
aVunread
p118
aVtbr-owned
p119
aVsolo
p120
aVscif-fi
p121
aVdefault
p122
aVown-audiobook
p123
aVowned-pending-kindle-free-ebook
p124
aVno-time-soon
p125
aVshelfari-war
p126
aVshelfari-sci-fi
p127
aVshelfari-psychology
p128
aVshelfari-humor
p129
aVshelfari-fiction
p130
aVshelfari-detective
p131
aVshelfari-deception
p132
aVshelfari-aliens
p133
aVshelfari-adventure
p134
aVsf-f
p135
aVsf-amp-f
p136
aVkeith-laumer
p137
aVclassic-science-fiction
p138
aVebooks
p139
aVliterature-20th-century
p140
aVowned-amazon
p141
aVeb-other
p142
aVeb
p143
aVamazon
p144
aVfantasy
p145
aVfan
p146
aVaction
p147
aVp-mass-market-pb
p148
aVfun
p149
aVold-scifi
p150
aVall-paper
p151
aVaudio
p152
aVreview
p153
aVdetective
p154
aValiens
p155
aVclassic
p156
aVpsychology
p157
aVdeception
p158
aVscience
p159
aVhumor
p160
aVsci-fi-fantasy
p161
aVfiction
p162
aVbacklog
p163
aVhigh-priority-tbr
p164
aVround-tuit
p165
aVbacklogue
p166
asS'loc_class'
p167
VPS: Language and Literatures: American and Canadian literature
p168
sS'n_authors'
p169
I1
sb.