ccopy_reg
_reconstructor
p0
(cdataset.Book
Book
p1
c__builtin__
object
p2
Ntp3
Rp4
(dp5
S'content_name'
p6
V49165.txt.utf-8
p7
sS'isbn'
p8
V1681465051
p9
sS'year'
p10
I1956
sS'author_name'
p11
VAlan Edward Nourse
p12
sS'images_urls'
p13
(lp14
Vhttp://www.gutenberg.org/files/49165/49165-h/images/cover.jpg
p15
asS'language_code'
p16
NsS'id'
p17
I746
sS'category'
p18
VText
p19
sS'genres'
p20
(lp21
sS'copyright'
p22
VPublic domain in the USA.
p23
sS'title'
p24
VBrightside Crossing
p25
sS'wikipedia'
p26
(dp27
S'found'
p28
I00
ssS'average_rating'
p29
F3.0
sS'rating_count'
p30
I2
sS'content_available'
p31
I01
sS'cover_art_url'
p32
S'http://www.gutenberg.org/cache/epub/49165/pg49165.cover.medium.jpg'
p33
sS'goodreads'
p34
(dp35
S'url'
p36
Vhttps://www.goodreads.com/book/show/29519390-brightside-crossing
p37
sS'found'
p38
I01
sS'year'
p39
I-1
ssS'similar_books'
p40
(lp41
sS'description'
p42
VFour men set out to prove their mettle by crossing the bright side of Mercury when it is closest to the sun. A feat which no one has ever done and survived. The odds are against them and they will need all of their expertise and courage if they are to succeed. Even that might not be enough.
p43
sS'format'
p44
Vebook
p45
sS'gutenberg'
p46
(dp47
g36
Vhttp://www.gutenberg.org/ebooks/49165
p48
sS'num'
p49
I49165
ssS'authors'
p50
(lp51
I108
asS'pages'
p52
I44
sS'isbn13'
p53
V9781681465050
p54
sS'language'
p55
VEnglish
p56
sS'countries'
p57
(lp58
I2
asS'release_date'
p59
S'2015-06-07T00:00:00'
p60
sS'author'
p61
I108
sS'content_cleaned'
p62
I00
sS'classes'
p63
(lp64
Vunknown-publication-dates
p65
aVto-read
p66
asS'loc_class'
p67
S''
p68
sS'n_authors'
p69
I1
sb.