ccopy_reg
_reconstructor
p0
(cdataset.Book
Book
p1
c__builtin__
object
p2
Ntp3
Rp4
(dp5
S'content_name'
p6
V22538.txt.utf-8
p7
sS'isbn'
p8
NsS'year'
p9
I2008
sS'author_name'
p10
VManly Wade Wellman
p11
sS'images_urls'
p12
(lp13
Vhttp://www.gutenberg.org/files/22538/22538-h/images/illus03.png
p14
aVhttp://www.gutenberg.org/files/22538/22538-h/images/illus04.png
p15
aVhttp://www.gutenberg.org/files/22538/22538-page-images/p028.png
p16
aVhttp://www.gutenberg.org/files/22538/22538-page-images/p029.png
p17
aVhttp://www.gutenberg.org/files/22538/22538-page-images/p030.png
p18
aVhttp://www.gutenberg.org/files/22538/22538-page-images/p031.png
p19
aVhttp://www.gutenberg.org/files/22538/22538-page-images/p032.png
p20
aVhttp://www.gutenberg.org/files/22538/22538-page-images/p033.png
p21
aVhttp://www.gutenberg.org/files/22538/22538-page-images/p034.png
p22
aVhttp://www.gutenberg.org/files/22538/22538-page-images/p035.png
p23
aVhttp://www.gutenberg.org/files/22538/22538-page-images/p036.png
p24
aVhttp://www.gutenberg.org/files/22538/22538-page-images/p037.png
p25
aVhttp://www.gutenberg.org/files/22538/22538-page-images/p038.png
p26
aVhttp://www.gutenberg.org/files/22538/22538-page-images/p039.png
p27
aVhttp://www.gutenberg.org/files/22538/22538-page-images/p040.png
p28
aVhttp://www.gutenberg.org/files/22538/22538-page-images/p041.png
p29
aVhttp://www.gutenberg.org/files/22538/22538-page-images/p042.png
p30
aVhttp://www.gutenberg.org/files/22538/22538-page-images/p043.png
p31
aVhttp://www.gutenberg.org/files/22538/22538-page-images/p044.png
p32
aVhttp://www.gutenberg.org/files/22538/22538-page-images/p045.png
p33
asS'language_code'
p34
NsS'images'
p35
(lp36
sS'id'
p37
I403
sS'category'
p38
VText
p39
sS'genres'
p40
(lp41
sS'copyright'
p42
VPublic domain in the USA.
p43
sS'title'
p44
VThe Devil's Asteroid
p45
sS'wikipedia'
p46
(dp47
S'found'
p48
I00
ssS'average_rating'
p49
F3.13
sS'rating_count'
p50
I35
sS'content_available'
p51
I01
sS'goodreads'
p52
(dp53
S'url'
p54
Vhttps://www.goodreads.com/book/show/6328981-the-devil-s-asteroid
p55
sg48
I01
sS'year'
p56
I2008
ssS'similar_books'
p57
(lp58
sS'description'
p59
VAn entertaining story that plays like 2001 A Space Odyssey in reverse. Martians, an interplanetary cold war, asteroids, and devolution await.
p60
sS'format'
p61
NsS'gutenberg'
p62
(dp63
g54
Vhttp://www.gutenberg.org/ebooks/22538
p64
sS'num'
p65
I22538
ssS'authors'
p66
(lp67
I130
asS'isbn13'
p68
NsS'language'
p69
VEnglish
p70
sS'release_date'
p71
S'2007-09-08T00:00:00'
p72
sS'author'
p73
I130
sS'content_cleaned'
p74
I01
sS'classes'
p75
(lp76
Vto-read
p77
aVcurrently-reading
p78
aVscience-fiction
p79
aVkindle
p80
aVsci-fi
p81
aVe-book
p82
aVshort-stories-novellas
p83
aVaction-adventure
p84
aVbooks
p85
aVreview-done
p86
aVowned-pending-kindle-free-ebook
p87
aVamazon-ebooks
p88
aVaudiobooks
p89
aVshort-story
p90
aVbought_amazon_bek
p91
aVshort-stories
p92
aVscience-and-natural-history
p93
aV2015-reads
p94
aVaudio-obtained
p95
aV1940s
p96
aVappendix-n
p97
aVsf-fantasy
p98
aVfiction-pulp
p99
aVlibrary-book
p100
aVshort-story-novella
p101
aVaudio-obtained-ss
p102
aVmy-ebooks
p103
aVaaaaaaaa
p104
asS'loc_class'
p105
VPS: Language and Literatures: American and Canadian literature
p106
sS'n_authors'
p107
I1
sb.