ccopy_reg
_reconstructor
p0
(cdataset.Book
Book
p1
c__builtin__
object
p2
Ntp3
Rp4
(dp5
S'content_name'
p6
V50969.txt.utf-8
p7
sS'isbn'
p8
V1523791950
p9
sS'year'
p10
I1954
sS'author_name'
p11
S'F L Wallace'
p12
sS'images_urls'
p13
(lp14
Vhttp://www.gutenberg.org/files/50969/50969-h/images/cover.jpg
p15
aVhttp://www.gutenberg.org/files/50969/50969-h/images/illus1.jpg
p16
aVhttp://www.gutenberg.org/files/50969/50969-h/images/illus2.jpg
p17
aVhttp://www.gutenberg.org/files/50969/50969-h/images/illus3.jpg
p18
asS'language_code'
p19
NsS'images'
p20
(lp21
sS'id'
p22
I868
sS'category'
p23
VText
p24
sS'genres'
p25
(lp26
sS'copyright'
p27
VPublic domain in the USA.
p28
sS'title'
p29
VBig Ancestor
p30
sS'wikipedia'
p31
(dp32
S'found'
p33
I00
ssS'average_rating'
p34
F0.0
sS'rating_count'
p35
I0
sS'content_available'
p36
I01
sS'cover_art_url'
p37
S'http://www.gutenberg.org/cache/epub/50969/pg50969.cover.medium.jpg'
p38
sS'goodreads'
p39
(dp40
S'url'
p41
Vhttps://www.goodreads.com/book/show/29061325-big-ancestor
p42
sg33
I01
sS'year'
p43
I-1
ssS'similar_books'
p44
(lp45
sS'description'
p46
VThis collection of literature attempts to compile many of the classic works that have stood the test of time and offer them at a reduced, affordable price, in an attractive volume so that everyone can enjoy them.
p47
sS'gutenberg'
p48
(dp49
g41
Vhttp://www.gutenberg.org/ebooks/50969
p50
sS'num'
p51
I50969
ssS'authors'
p52
(lp53
I138
asS'pages'
p54
I52
sS'isbn13'
p55
V9781523791958
p56
sS'language'
p57
VEnglish
p58
sS'countries'
p59
(lp60
I2
asS'release_date'
p61
S'2016-01-19T00:00:00'
p62
sS'author'
p63
I138
sS'cover'
p64
Vhttps://s.gr-assets.com/assets/nophoto/book/111x148-bcc042a9c91a29c1d680899eff700a03.png
p65
sS'content_cleaned'
p66
I01
sS'classes'
p67
(lp68
sS'loc_class'
p69
S''
p70
sS'n_authors'
p71
I1
sb.