ccopy_reg
_reconstructor
p0
(cdataset.Book
Book
p1
c__builtin__
object
p2
Ntp3
Rp4
(dp5
S'content_name'
p6
V29384.txt.utf-8
p7
sS'isbn'
p8
NsS'year'
p9
I1932
sS'author_name'
p10
VVictor A. Endersby
p11
sS'images_urls'
p12
(lp13
Vhttp://www.gutenberg.org/files/29384/29384-h/images/image_001.jpg
p14
asS'language_code'
p15
NsS'id'
p16
I818
sS'category'
p17
VText
p18
sS'genres'
p19
(lp20
sS'copyright'
p21
VPublic domain in the USA.
p22
sS'title'
p23
VDisowned
p24
sS'wikipedia'
p25
(dp26
S'found'
p27
I00
ssS'average_rating'
p28
F4.2
sS'rating_count'
p29
I2
sS'content_available'
p30
I01
sS'goodreads'
p31
(dp32
S'url'
p33
S'https://www.goodreads.com/book/show/22493357-disowned'
p34
sS'found'
p35
I01
ssS'similar_books'
p36
(lp37
sS'description'
p38
VThis book was converted from its physical edition to the digital format by a community of volunteers. You may find it free on the web. Purchase of the Kindle edition includes wireless delivery.
p39
sS'gutenberg'
p40
(dp41
S'url'
p42
Vhttp://www.gutenberg.org/ebooks/29384
p43
sS'num'
p44
I29384
ssS'authors'
p45
(lp46
I261
asS'isbn13'
p47
NsS'language'
p48
VEnglish
p49
sS'countries'
p50
(lp51
I2
asS'release_date'
p52
S'2009-07-12T00:00:00'
p53
sS'author'
p54
I261
sS'content_cleaned'
p55
I01
sS'classes'
p56
(lp57
Vcalibre
p58
aVto-read
p59
asS'loc_class'
p60
VPS: Language and Literatures: American and Canadian literature
p61
sS'n_authors'
p62
I1
sb.