ccopy_reg
_reconstructor
p0
(cdataset.Book
Book
p1
c__builtin__
object
p2
Ntp3
Rp4
(dp5
S'similar_books'
p6
(lp7
sS'genres'
p8
(lp9
sS'author'
p10
I302
sS'countries'
p11
(lp12
I2
asS'year'
p13
I1961
sS'title'
p14
VGalaxy Magazine October 1961
p15
sS'cover'
p16
Vhttps://ia600208.us.archive.org/BookReader/BookReaderImages.php?zip=/3/items/Galaxy_v20n01_1961-10/Galaxy_v20n01_1961-10_jp2.zip&file=Galaxy_v20n01_1961-10_jp2/Galaxy_v20n01_1961-10_0000.jp2&scale=0&rotate=0
p17
sS'cover_art'
p18
S'http://www.isfdb.org/wiki/images/8/88/GALOCT1961.jpg'
p19
sS'author_name'
p20
VGalaxy Magazine
p21
sS'images_urls'
p22
(lp23
sS'authors'
p24
(lp25
I497
aI556
aI419
aI568
aI488
aI565
aI339
aI326
aI483
aI479
aI40
aI205
aI168
aI45
aI95
aI63
aI32
aI302
asS'images'
p26
(lp27
sS'id'
p28
I1087
sS'contents'
p29
(lp30
(dp31
g10
I497
sg14
VA Planet Named Shayol
p32
sa(dp33
g10
I497
sg14
VA Planet Named Shayol [2]
p34
sa(dp35
g10
I556
sg14
VCrime Machine
p36
sa(dp37
g10
I556
sg14
VCrime Machine [2]
p38
sa(dp39
g10
I419
sg14
VThe Abominable Earthman
p40
sa(dp41
g10
I419
sg14
VMating Call
p42
sa(dp43
g10
I568
sg14
VArcturus Times Three
p44
sa(dp45
g10
I568
sg14
VArcturus Times Three [2]
p46
sa(dp47
g10
I419
sg14
VThe Beat Cluster
p48
sa(dp49
g10
I488
sg14
VThe Spy in the Elevator
p50
sa(dp51
g10
I488
sg14
VThe Spy in the Elevator [2]
p52
sa(dp53
g10
I565
sg14
VHow Much Is Enough?
p54
sa(dp55
g10
I339
sg14
VFor Your Information: The Home-Made Land
p56
sa(dp57
g10
I326
sg14
VForecast (Galaxy, October 1961)
p58
sa(dp59
g10
I483
sg14
VGalaxy's 5 Star Shelf (Galaxy, October 1961)
p60
sa(dp61
g10
I479
sg14
VA Planet Named Shayol
p62
sa(dp63
g10
I40
sg14
VThe Abominable Earthman
p64
sa(dp65
g10
I205
sg14
VArcturus Times Three
p66
sa(dp67
g10
I168
sg14
VThe Spy in the Elevator
p68
sa(dp69
g10
I45
sg14
VCrime Machine
p70
sa(dp71
g10
I95
sg14
VAmateur in Chancery
p72
sa(dp73
g10
I63
sg14
VMating Call
p74
sa(dp75
g10
I32
sg14
VThe Beat Cluster
p76
sasb.