ccopy_reg
_reconstructor
p0
(cdataset.Book
Book
p1
c__builtin__
object
p2
Ntp3
Rp4
(dp5
S'similar_books'
p6
(lp7
sS'genres'
p8
(lp9
sS'author'
p10
I302
sS'countries'
p11
(lp12
I2
asS'year'
p13
I1959
sS'title'
p14
VGalaxy Magazine October 1959
p15
sS'cover'
p16
Vhttps://ia601307.us.archive.org/BookReader/BookReaderImages.php?zip=/34/items/Galaxy_v18n01_1959-10/Galaxy_v18n01_1959-10_jp2.zip&file=Galaxy_v18n01_1959-10_jp2/Galaxy_v18n01_1959-10_0000.jp2&scale=0&rotate=0
p17
sS'cover_art'
p18
S'http://www.isfdb.org/wiki/images/1/11/GALOCT1959.jpg'
p19
sS'author_name'
p20
VGalaxy Magazine
p21
sS'images_urls'
p22
(lp23
sS'authors'
p24
(lp25
I419
aI525
aI545
aI506
aI305
aI339
aI326
aI483
aI546
aI40
aI493
aI56
aI547
aI548
aI302
asS'images'
p26
(lp27
sS'id'
p28
I1075
sS'contents'
p29
(lp30
(dp31
S'title'
p32
VSomeone to Watch Over Me
p33
sS'author'
p34
I419
sa(dp35
g32
VSomeone to Watch Over Me [2]
p36
sg34
I419
sa(dp37
g32
VSomeone to Watch Over Me [3]
p38
sg34
I419
sa(dp39
g32
VLast of the Morticians
p40
sg34
I525
sa(dp41
g32
VA Death in the House
p42
sg34
I419
sa(dp43
g32
VA Death in the House [2]
p44
sg34
I419
sa(dp45
g32
VA Death in the House [3]
p46
sg34
I419
sa(dp47
g32
VKing of the Planet
p48
sg34
I419
sa(dp49
g32
VSilence
p50
sg34
I545
sa(dp51
g32
VSilence [2]
p52
sg34
I545
sa(dp53
g32
VSilence [3]
p54
sg34
I545
sa(dp55
g32
VTrue Self
p56
sg34
I419
sa(dp57
g32
VWay Up Yonder
p58
sg34
I506
sa(dp59
g32
VWay Up Yonder [2]
p60
sg34
I506
sa(dp61
g32
VWay Up Yonder [3]
p62
sg34
I506
sa(dp63
g32
VOther People's Mail
p64
sg34
I305
sa(dp65
g32
VFor Your Information: The Accident That Didn't Happen
p66
sg34
I339
sa(dp67
g32
VForecast (Galaxy, October 1959)
p68
sg34
I326
sa(dp69
g32
VGalaxy's 5 Star Shelf (Galaxy, October 1969)
p70
sg34
I483
sa(dp71
g32
VReview of "Van Nostrand's Scientific Encyclopedia"
p72
sg34
I483
sa(dp73
g32
VSilence
p74
sg34
I546
sa(dp75
g32
VWay Up Yonder
p76
sg34
I40
sa(dp77
g32
VSomeone to Watch Over Me
p78
sg34
I305
sa(dp79
g32
VLast of the Morticians
p80
sg34
I493
sa(dp81
g32
VA Death in the House
p82
sg34
I56
sa(dp83
g32
VKing of the Planet
p84
sg34
I547
sa(dp85
g32
VTrue Self
p86
sg34
I548
sasb.