ccopy_reg
_reconstructor
p0
(cdataset.Book
Book
p1
c__builtin__
object
p2
Ntp3
Rp4
(dp5
S'similar_books'
p6
(lp7
sS'genres'
p8
(lp9
sS'author'
p10
I918
sS'countries'
p11
(lp12
I2
asS'year'
p13
I1956
sS'title'
p14
VIF Magazine December 1956
p15
sS'cover'
p16
Vhttps://ia800207.us.archive.org/BookReader/BookReaderImages.php?zip=/30/items/1956-12_IF/1956-12_IF_jp2.zip&file=1956-12_IF_jp2/1956-12_IF_0000.jp2&scale=0&rotate=0
p17
sS'cover_art'
p18
S'http://www.isfdb.org/wiki/images/0/05/WOFIFDEC1956.jpg'
p19
sS'author_name'
p20
VIF Magazine
p21
sS'images_urls'
p22
(lp23
sS'authors'
p24
(lp25
I956
aI363
aI326
aI948
aI1029
aI217
aI144
aI88
aI1030
aI987
aI59
aI502
aI918
asS'images'
p26
(lp27
sS'id'
p28
I1254
sS'contents'
p29
(lp30
(dp31
g10
I956
sg14
VIt's Cold Outside
p32
sa(dp33
g10
I363
sg14
VRoutine for a Hornet
p34
sa(dp35
g10
I956
sg14
VFamily Tree
p36
sa(dp37
g10
I363
sg14
VA Little Knowledge
p38
sa(dp39
g10
I326
sg14
VThought for Today
p40
sa(dp41
g10
I956
sg14
VBut the Patient Lived
p42
sa(dp43
g10
I948
sg14
VEditor's Report (If, December 1956)
p44
sa(dp45
g10
I1029
sg14
VThis Lonely Earth
p46
sa(dp47
g10
I326
sg14
VWhat Is Your Science I. Q.? (If, December 1956)
p48
sa(dp49
g10
I326
sg14
VScience Briefs (If, December 1956)
p50
sa(dp51
g10
I326
sg14
VHue and Cry (If, December 1956)
p52
sa(dp53
g10
I217
sg14
VIt's Cold Outside
p54
sa(dp55
g10
I144
sg14
VFamily Tree
p56
sa(dp57
g10
I88
sg14
VThe Chasm
p58
sa(dp59
g10
I1030
sg14
VRoutine for a Hornet
p60
sa(dp61
g10
I987
sg14
VA Little Knowledge
p62
sa(dp63
g10
I59
sg14
VThought for Today
p64
sa(dp65
g10
I502
sg14
VBut the Patient Lived
p66
sasb.