ccopy_reg
_reconstructor
p0
(cdataset.Book
Book
p1
c__builtin__
object
p2
Ntp3
Rp4
(dp5
S'content_name'
p6
V22073.txt.utf-8
p7
sS'isbn'
p8
V0812571991
p9
sS'year'
p10
I1998
sS'author_name'
p11
VHarry Harrison
p12
sS'images_urls'
p13
(lp14
Vhttp://www.gutenberg.org/files/22073/22073-h/images/illio.jpg
p15
aVhttp://www.gutenberg.org/files/22073/22073-page-images/p060.png
p16
aVhttp://www.gutenberg.org/files/22073/22073-page-images/p061.png
p17
aVhttp://www.gutenberg.org/files/22073/22073-page-images/p062.png
p18
aVhttp://www.gutenberg.org/files/22073/22073-page-images/p063.png
p19
aVhttp://www.gutenberg.org/files/22073/22073-page-images/p064.jpg
p20
aVhttp://www.gutenberg.org/files/22073/22073-page-images/p065.png
p21
aVhttp://www.gutenberg.org/files/22073/22073-page-images/p066.png
p22
aVhttp://www.gutenberg.org/files/22073/22073-page-images/p067.png
p23
aVhttp://www.gutenberg.org/files/22073/22073-page-images/p068.png
p24
aVhttp://www.gutenberg.org/files/22073/22073-page-images/p069.png
p25
aVhttp://www.gutenberg.org/files/22073/22073-page-images/p070.png
p26
aVhttp://www.gutenberg.org/files/22073/22073-page-images/p071.png
p27
aVhttp://www.gutenberg.org/files/22073/22073-page-images/p072.png
p28
aVhttp://www.gutenberg.org/files/22073/22073-page-images/p073.png
p29
asS'language_code'
p30
Veng
p31
sS'images'
p32
(lp33
sS'id'
p34
I151
sS'category'
p35
VText
p36
sS'genres'
p37
(lp38
sS'copyright'
p39
VPublic domain in the USA.
p40
sS'title'
p41
VThe Repairman
p42
sS'wikipedia'
p43
(dp44
S'found'
p45
I00
ssS'average_rating'
p46
F4.07
sS'rating_count'
p47
I3820
sS'content_available'
p48
I01
sS'goodreads'
p49
(dp50
S'url'
p51
Vhttps://www.goodreads.com/book/show/219405.Legacies
p52
sg45
I01
sS'year'
p53
I1998
ssS'similar_books'
p54
(lp55
VTerminal
p56
aVAlleinstehender Psychopath sucht Gleichgesinnte (Andrew Mayham, #2)
p57
aVAll the Wrong Moves (Samantha Spade #1)
p58
aVDeep Sky (Travis Chase, #3)
p59
aVMansions of the Dead
p60
aVThinning the Predators
p61
aVYesterday's Hero (Arthur Wallace, #2)
p62
aVThe Dead Letters
p63
aVThe Second Angel
p64
aVTrolley No. 1852
p65
aVTo Wake the Dead
p66
aVIn the Night Room
p67
aVSteel Valentine
p68
aVDark Carnival (Serenity Falls, #3)
p69
aVThe Nekropolis Archives
p70
aVNemesis: The Death of Timmy Quinn
p71
aVSEAL Team 666 (SEAL Team 666 #1)
p72
aVThe Infinite (Harrow House, #3)
p73
asS'description'
p74
VRepairman Jack isn't your average appliance repairman--he fixes <i>situations</i> for people, often risking his own life. Jack has no last name, no social security number, works only for cash, and has no qualms when it comes to seeing that the job gets done.<br /><br />Dr. Alicia Clayton, a pediatrician who treats children with AIDS, is full of secrets, and she has just inherited a house that holds another. Haunted by painful memories, Alicia wants the house destroyed--but somehow everyone she enlists to help ends up violently killed. The house holds a powerful secret, and Alicia's charmless brother Thomas seems willing to do anything to get his hands on that secret himself.<br /><br />But not if Repairman Jack can find it first!
p75
sS'format'
p76
VMass Market Paperback
p77
sS'gutenberg'
p78
(dp79
g51
Vhttp://www.gutenberg.org/ebooks/22073
p80
sS'num'
p81
I22073
ssS'authors'
p82
(lp83
I16
asS'pages'
p84
I436
sS'isbn13'
p85
V9780812571998
p86
sS'language'
p87
VEnglish
p88
sS'countries'
p89
(lp90
I2
asS'release_date'
p91
S'2007-07-14T00:00:00'
p92
sS'author'
p93
I16
sS'content_cleaned'
p94
I01
sS'classes'
p95
(lp96
Vto-read
p97
aVhorror
p98
aVthriller
p99
aVcurrently-reading
p100
aVurban-fantasy
p101
aVfiction
p102
aVrepairman-jack
p103
aVmystery
p104
aVfantasy
p105
aVseries
p106
aVf-paul-wilson
p107
aVfavorites
p108
aVdefault
p109
aVscience-fiction
p110
aVparanormal
p111
aVowned
p112
aVadventure
p113
aVmystery-thriller
p114
aVaction
p115
aVsuspense
p116
aVebook
p117
aVsupernatural
p118
aVbooks-i-own
p119
aVthrillers
p120
aVlibrary
p121
aVdetective
p122
aVcrime
p123
aVebooks
p124
aVkindle
p125
aVsci-fi
p126
aVi-own
p127
aVunread
p128
aVtbr
p129
aVe-books
p130
aVcalibre
p131
aVbook-club-of-doom
p132
aV66-no-longer-own
p133
aVw
p134
aVwish-list
p135
aVaudiobooks
p136
aVscience
p137
aVhard-boiled
p138
aVpsychological
p139
aVand
p140
aVnovel
p141
aVcurrent-series
p142
aVaudiobook
p143
aVfantasy-urban
p144
aVwilson-f-paul
p145
aVsecret-history-of-the-world
p146
aVurban
p147
aVaction-thriller
p148
aVhave
p149
aVcontemporary
p150
aVgeneral
p151
aVsf
p152
aVsci-fi-fantasy
p153
aVf--paul-wilson
p154
aVto-buy
p155
aVmystery-crime
p156
aVurban-paranormal
p157
aVoccult
p158
aVread-in-2008
p159
aVarchive
p160
aVbooks
p161
aVto-donate
p162
aVaudio-book
p163
aVpaperback
p164
aVkrimi
p165
aVaudible
p166
aVphysical
p167
aVread-in-2014
p168
aVown-it
p169
aVre-read
p170
aVhdd
p171
aVcontemporary-fantasy
p172
aVo
p173
aVdid-e
p174
aVadversary-cycle
p175
aVspeculative-fiction
p176
aVaudio
p177
aVmysteries-thrillers
p178
aVthriller-horror
p179
aVread-2013
p180
aVmy-books
p181
aVown-to-read
p182
aVpulp
p183
aVmystery-suspense
p184
aVread-in-2012
p185
aVscience-fiction-fantasy
p186
aVaction-adventure
p187
aVhorror-thriller
p188
aVrecommended
p189
aVread-in-2010
p190
aVfantasy-scifi
p191
aVvigilante
p192
aVnext-in-series
p193
aVsupernatural-fiction
p194
aVfinished
p195
aVf-paul-wilson-read
p196
asS'loc_class'
p197
VPS: Language and Literatures: American and Canadian literature
p198
sS'n_authors'
p199
I1
sb.