ccopy_reg
_reconstructor
p0
(cdataset.Book
Book
p1
c__builtin__
object
p2
Ntp3
Rp4
(dp5
S'similar_books'
p6
(lp7
sS'genres'
p8
(lp9
sS'author'
p10
I302
sS'countries'
p11
(lp12
I2
asS'year'
p13
I1974
sS'title'
p14
VGalaxy Magazine August 1974
p15
sS'cover'
p16
Vhttps://ia600204.us.archive.org/BookReader/BookReaderImages.php?zip=/13/items/Galaxy_v35n08_1974-08_modified/Galaxy_v35n08_1974-08_modified_jp2.zip&file=Galaxy_v35n08_1974-08_modified_jp2/Galaxy_v35n08_1974-08_modified_0000.jp2&scale=0&rotate=0
p17
sS'cover_art'
p18
S'http://www.isfdb.org/wiki/images/b/b3/GALAUG74.jpg'
p19
sS'author_name'
p20
VGalaxy Magazine
p21
sS'images_urls'
p22
(lp23
sS'authors'
p24
(lp25
I499
aI742
aI326
aI30
aI341
aI734
aI51
aI132
aI665
aI743
aI741
aI302
asS'images'
p26
(lp27
sS'id'
p28
I1175
sS'contents'
p29
(lp30
(dp31
g10
I499
sg14
VThe Day Before the Revolution
p32
sa(dp33
g10
I742
sg14
VShowcase (Galaxy, August 1974)
p34
sa(dp35
g10
I326
sg14
VThe Company of Glory (Part 1 of 3)
p36
sa(dp37
g10
I326
sg14
VThe Gift of Garigolli
p38
sa(dp39
g10
I326
sg14
VBig Black Whole
p40
sa(dp41
g10
I499
sg14
VOrbitsville (Part 3 of 3)
p42
sa(dp43
g10
I30
sg14
VForum: A Cyclical Theory of Science Fiction
p44
sa(dp45
g10
I341
sg14
VGalaxy Bookshelf (Galaxy, August 1974)
p46
sa(dp47
g10
I734
sg14
VOur Friends the Arabs
p48
sa(dp49
g10
I326
sg14
VDirections (Galaxy, August 1974)
p50
sa(dp51
g10
I51
sg14
VThe Gift of Garigolli
p52
sa(dp53
g10
I132
sg14
VThe Company of Glory (Part 1 of 3)
p54
sa(dp55
g10
I665
sg14
VOrbitsville (Part 3 of 3)
p56
sa(dp57
g10
I743
sg14
VThe Day Before the Revolution
p58
sa(dp59
g10
I741
sg14
VBig Black Whole
p60
sasb.