ccopy_reg
_reconstructor
p0
(cdataset.Book
Book
p1
c__builtin__
object
p2
Ntp3
Rp4
(dp5
S'content_name'
p6
V32486.txt.utf-8
p7
sS'isbn'
p8
NsS'year'
p9
I1956
sS'author_name'
p10
VEdmond Hamilton
p11
sS'images_urls'
p12
(lp13
Vhttp://www.gutenberg.org/files/32486/32486-h/images/cover.jpg
p14
aVhttp://www.gutenberg.org/files/32486/32486-h/images/illus.jpg
p15
asS'language_code'
p16
NsS'images'
p17
(lp18
sS'id'
p19
I664
sS'category'
p20
VText
p21
sS'genres'
p22
(lp23
sS'copyright'
p24
VPublic domain in the USA.
p25
sS'title'
p26
VThe Legion of Lazarus
p27
sS'wikipedia'
p28
(dp29
S'found'
p30
I00
ssS'average_rating'
p31
F3.9
sS'rating_count'
p32
I11
sS'content_available'
p33
I01
sS'cover_art_url'
p34
S'http://www.gutenberg.org/cache/epub/32486/pg32486.cover.medium.jpg'
p35
sS'goodreads'
p36
(dp37
S'url'
p38
S'https://www.goodreads.com/book/show/12878533-the-legion-of-lazarus'
p39
sS'found'
p40
I01
ssS'similar_books'
p41
(lp42
sS'description'
p43
VpubOne.info present you this new edition. There is a time for sleep, and a time for waking. But Hyrst had slept heavily, and the waking was hard. He had slept long, and the waking was slow. Fifty years, said the dim voice of remembrance. But another part of his mind said, No, it is only tomorrow morning.
p44
sS'gutenberg'
p45
(dp46
S'url'
p47
Vhttp://www.gutenberg.org/ebooks/32486
p48
sS'num'
p49
I32486
ssS'authors'
p50
(lp51
I83
asS'isbn13'
p52
V2940013141469
p53
sS'language'
p54
VEnglish
p55
sS'countries'
p56
(lp57
I2
asS'release_date'
p58
S'2010-05-23T00:00:00'
p59
sS'author'
p60
I83
sS'cover'
p61
Vhttps://s.gr-assets.com/assets/nophoto/book/111x148-bcc042a9c91a29c1d680899eff700a03.png
p62
sS'content_cleaned'
p63
I01
sS'classes'
p64
(lp65
Vto-read
p66
aVscience-fiction
p67
aVshort-stories-novellas
p68
aVmilitary-sf
p69
aVtbr-do-own-kindle-e-books
p70
aVcurrently-reading
p71
aV21st-century-lit
p72
aVfinish-52-books-in-2017
p73
aV1-novellas-short-stories-essays
p74
aVfiction-speculative
p75
aV1-my-reviews
p76
aV1-freeread-librivox-audiobook
p77
aV1-absolute-favs-ever
p78
aVsci-fi-science-fiction
p79
aVsci-fi-futurism-space-aliens
p80
aVrandom-picks
p81
aVmy-books
p82
aV15
p83
aVsf-fantasy
p84
asS'loc_class'
p85
VPS: Language and Literatures: American and Canadian literature
p86
sS'n_authors'
p87
I1
sb.