ccopy_reg
_reconstructor
p0
(cdataset.Book
Book
p1
c__builtin__
object
p2
Ntp3
Rp4
(dp5
S'content_name'
p6
V51758.txt.utf-8
p7
sS'isbn'
p8
NsS'year'
p9
I1958
sS'author_name'
p10
VRosel George Brown
p11
sS'images_urls'
p12
(lp13
Vhttp://www.gutenberg.org/files/51758/51758-h/images/cover.jpg
p14
aVhttp://www.gutenberg.org/files/51758/51758-h/images/illus1.jpg
p15
aVhttp://www.gutenberg.org/files/51758/51758-h/images/illus2.jpg
p16
aVhttp://www.gutenberg.org/files/51758/51758-h/images/illus3.jpg
p17
asS'language_code'
p18
Veng
p19
sS'images'
p20
(lp21
sS'id'
p22
I546
sS'category'
p23
VText
p24
sS'genres'
p25
(lp26
sS'copyright'
p27
VPublic domain in the USA.
p28
sS'title'
p29
VFrom An Unseen Censor
p30
sS'wikipedia'
p31
(dp32
S'found'
p33
I00
ssS'average_rating'
p34
F2.5
sS'rating_count'
p35
I4
sS'content_available'
p36
I01
sS'cover_art_url'
p37
S'http://www.gutenberg.org/cache/epub/51758/pg51758.cover.medium.jpg'
p38
sS'goodreads'
p39
(dp40
S'url'
p41
Vhttps://www.goodreads.com/book/show/17791419-from-an-unseen-censor
p42
sg33
I01
sS'year'
p43
I1958
ssS'similar_books'
p44
(lp45
sS'description'
p46
V<b>You can't beat my uncle Isadore - he's dead but he's quick - yet that is just what he was daring me to try and do!.</b><br /><br /><i>Science Fiction </i><br />Play Duration: 00:56:49 <br />Public Domain stories from archive.org that are read by volunteers. <br />First published in <i>\u201dGalaxy Magazine\u201d</i> <br /><br /><u>Free download from LibriVox.org</u>
p47
sS'gutenberg'
p48
(dp49
g41
Vhttp://www.gutenberg.org/ebooks/51758
p50
sS'num'
p51
I51758
ssS'authors'
p52
(lp53
I182
asS'isbn13'
p54
NsS'language'
p55
VEnglish
p56
sS'countries'
p57
(lp58
I2
asS'release_date'
p59
S'2016-04-14T00:00:00'
p60
sS'author'
p61
I182
sS'cover'
p62
Vhttps://images.gr-assets.com/books/1365867142l/17791419.jpg
p63
sS'content_cleaned'
p64
I01
sS'classes'
p65
(lp66
Vscience-fiction
p67
aVshort-story
p68
aVaudio-obtained
p69
aVtype-short-story
p70
aVaudio-obtained-ss
p71
asS'loc_class'
p72
S''
p73
sS'n_authors'
p74
I1
sb.