ccopy_reg
_reconstructor
p0
(cdataset.Book
Book
p1
c__builtin__
object
p2
Ntp3
Rp4
(dp5
S'content_name'
p6
V22227.txt.utf-8
p7
sS'isbn'
p8
NsS'year'
p9
I1941
sS'author_name'
p10
VGraph Waldeyer
p11
sS'images_urls'
p12
(lp13
Vhttp://www.gutenberg.org/files/22227/22227-h/images/image_01.jpg
p14
aVhttp://www.gutenberg.org/files/22227/22227-page-images/p090.jpg
p15
aVhttp://www.gutenberg.org/files/22227/22227-page-images/p091.png
p16
aVhttp://www.gutenberg.org/files/22227/22227-page-images/p092.png
p17
aVhttp://www.gutenberg.org/files/22227/22227-page-images/p093.png
p18
aVhttp://www.gutenberg.org/files/22227/22227-page-images/p094.png
p19
aVhttp://www.gutenberg.org/files/22227/22227-page-images/p095.png
p20
aVhttp://www.gutenberg.org/files/22227/22227-page-images/p096.png
p21
aVhttp://www.gutenberg.org/files/22227/22227-page-images/p097.png
p22
aVhttp://www.gutenberg.org/files/22227/22227-page-images/p098.png
p23
aVhttp://www.gutenberg.org/files/22227/22227-page-images/p099.png
p24
asS'language_code'
p25
NsS'images'
p26
(lp27
sS'id'
p28
I701
sS'category'
p29
VText
p30
sS'genres'
p31
(lp32
sS'copyright'
p33
VPublic domain in the USA.
p34
sS'title'
p35
VThe 4-D Doodler
p36
sS'wikipedia'
p37
(dp38
S'found'
p39
I00
ssS'average_rating'
p40
F2.78
sS'rating_count'
p41
I23
sS'content_available'
p42
I01
sS'goodreads'
p43
(dp44
S'url'
p45
Vhttps://www.goodreads.com/book/show/6431593-the-4-d-doodler
p46
sg39
I01
sS'year'
p47
I1941
ssS'similar_books'
p48
(lp49
sS'description'
p50
NsS'format'
p51
NsS'gutenberg'
p52
(dp53
g45
Vhttp://www.gutenberg.org/ebooks/22227
p54
sS'num'
p55
I22227
ssS'authors'
p56
(lp57
I230
asS'isbn13'
p58
NsS'language'
p59
VEnglish
p60
sS'release_date'
p61
S'2007-08-03T00:00:00'
p62
sS'author'
p63
I230
sS'content_cleaned'
p64
I01
sS'classes'
p65
(lp66
Vto-read
p67
aVscience-fiction
p68
aVfiction
p69
aVshort-stories
p70
aVshort-story
p71
aVsci-fi
p72
aVfantasy-and-sci-fi
p73
aVclassics
p74
aVaudiobooks-read
p75
aV3-stars
p76
aVfantastical-worlds
p77
aVmade-me-cross
p78
aVcool-ideas
p79
aVaudio
p80
aVaudiobooks
p81
aVpg
p82
aVfiction-sci-fi
p83
aVaudiobook-loyalbooks
p84
aVdisappointing
p85
aVaudiobook
p86
aVaudio-obtained
p87
aVscifi-and-horror
p88
aVhave-in-audio
p89
aVnovellas-poems-shorts
p90
aVcurrently-reading
p91
aVread-in-2011
p92
aVlibrivox-short-scifi
p93
aVfzk
p94
aV2009-reads
p95
aVsci-fi---fantasy
p96
aVtype-short-story
p97
aVaudio-obtained-ss
p98
aVshort-stories-on-kindle
p99
aVaudio-books
p100
asS'loc_class'
p101
VPS: Language and Literatures: American and Canadian literature
p102
sS'n_authors'
p103
I1
sb.