ccopy_reg
_reconstructor
p0
(cdataset.Book
Book
p1
c__builtin__
object
p2
Ntp3
Rp4
(dp5
S'similar_books'
p6
(lp7
sS'genres'
p8
(lp9
sS'author'
p10
I302
sS'countries'
p11
(lp12
I2
asS'year'
p13
I1961
sS'title'
p14
VGalaxy Magazine December 1961
p15
sS'cover'
p16
Vhttps://ia600204.us.archive.org/BookReader/BookReaderImages.php?zip=/15/items/Galaxy_v20n02_1961-12_modified/Galaxy_v20n02_1961-12_modified_jp2.zip&file=Galaxy_v20n02_1961-12_modified_jp2/Galaxy_v20n02_1961-12_modified_0000.jp2&scale=0&rotate=0
p17
sS'cover_art'
p18
S'http://www.isfdb.org/wiki/images/0/07/GALDEC1961.jpg'
p19
sS'author_name'
p20
VGalaxy Magazine
p21
sS'images_urls'
p22
(lp23
sS'authors'
p24
(lp25
I497
aI519
aI499
aI419
aI562
aI556
aI565
aI339
aI483
aI569
aI326
aI91
aI423
aI30
aI470
aI257
aI74
aI554
aI302
asS'images'
p26
(lp27
sS'id'
p28
I1088
sS'contents'
p29
(lp30
(dp31
g10
I497
sg14
VThe Day After Doomsday (Part 1 of 2)
p32
sa(dp33
g10
I497
sg14
VThe Day After Doomsday (Part 1 of 2) [2]
p34
sa(dp35
g10
I497
sg14
VThe Day After Doomsday (Part 1 of 2) [3]
p36
sa(dp37
g10
I519
sg14
VOh, Rats!
p38
sa(dp39
g10
I519
sg14
VOh, Rats! [2]
p40
sa(dp41
g10
I499
sg14
VSatisfaction Guaranteed
p42
sa(dp43
g10
I419
sg14
VWall of Crystal, Eye of Night
p44
sa(dp45
g10
I419
sg14
VWall of Crystal, Eye of Night [2]
p46
sa(dp47
g10
I562
sg14
VRainbird
p48
sa(dp49
g10
I497
sg14
VAn Old Fashioned Bird Christmas
p50
sa(dp51
g10
I556
sg14
VThe Watery Wonders of Captain Nemo
p52
sa(dp53
g10
I562
sg14
VThe Little Man Who Wasn't Quite
p54
sa(dp55
g10
I565
sg14
VWay Out There
p56
sa(dp57
g10
I339
sg14
VFor Your Information: Dragons and Hot-Air Balloons
p58
sa(dp59
g10
I483
sg14
VGalaxy's 5 Star Shelf (Galaxy, December 1961)
p60
sa(dp61
g10
I569
sg14
VThe Watery Wonders of Captain Nemo
p62
sa(dp63
g10
I326
sg14
VForecast (Galaxy, December 1961)
p64
sa(dp65
g10
I91
sg14
VWall of Crystal, Eye of Night
p66
sa(dp67
g10
I423
sg14
VAn Old Fashioned Bird Christmas
p68
sa(dp69
g10
I30
sg14
VThe Day After Doomsday (Part 1 of 2)
p70
sa(dp71
g10
I470
sg14
VOh, Rats!
p72
sa(dp73
g10
I257
sg14
VSatisfaction Guaranteed
p74
sa(dp75
g10
I74
sg14
VRainbird
p76
sa(dp77
g10
I554
sg14
VThe Little Man Who Wasn't Quite
p78
sasb.