ccopy_reg
_reconstructor
p0
(cdataset.Book
Book
p1
c__builtin__
object
p2
Ntp3
Rp4
(dp5
S'similar_books'
p6
(lp7
sS'genres'
p8
(lp9
sS'author'
p10
I302
sS'countries'
p11
(lp12
I2
asS'year'
p13
I1979
sS'title'
p14
VGalaxy Magazine June 1979
p15
sS'cover'
p16
Vhttps://ia600207.us.archive.org/BookReader/BookReaderImages.php?zip=/6/items/Galaxy_v39n10_1979-07/Galaxy_v39n10_1979-07_jp2.zip&file=Galaxy_v39n10_1979-07_jp2/Galaxy_v39n10_1979-07_0000.jp2&scale=0&rotate=0
p17
sS'cover_art'
p18
S'http://www.isfdb.org/wiki/images/6/61/GALJUNJUL79.jpg'
p19
sS'author_name'
p20
VGalaxy Magazine
p21
sS'images_urls'
p22
(lp23
sS'authors'
p24
(lp25
I890
aI891
aI892
aI326
aI312
aI893
aI767
aI894
aI895
aI896
aI854
aI40
aI897
aI658
aI376
aI596
aI302
asS'images'
p26
(lp27
sS'id'
p28
I1215
sS'contents'
p29
(lp30
(dp31
S'title'
p32
VStar Warriors (Part 1 of 2)
p33
sS'author'
p34
I890
sa(dp35
g32
VStar Warriors (Part 1 of 2) [2]
p36
sg34
I890
sa(dp37
g32
VStar Warriors (Part 1 of 2) [3]
p38
sg34
I890
sa(dp39
g32
VStar Warriors (Part 1 of 2) [4]
p40
sg34
I890
sa(dp41
g32
VThe Psychic
p42
sg34
I891
sa(dp43
g32
VJem (Part 3 of 5)
p44
sg34
I892
sa(dp45
g32
VJem (Part 3 of 5) [2]
p46
sg34
I892
sa(dp47
g32
VWhen the Metal Eaters Came
p48
sg34
I326
sa(dp49
g32
VBeneath the Bermuda Triangle
p50
sg34
I326
sa(dp51
g32
VShowcase (Galaxy, June-July 1979)
p52
sg34
I326
sa(dp53
g32
VAbout Our Contributors (Galaxy, June-July 1979)
p54
sg34
I326
sa(dp55
g32
VEditorial (Galaxy, June-July 1979)
p56
sg34
I312
sa(dp57
g32
VGalaxy Forecast (Galaxy, June-July 1979)
p58
sg34
I326
sa(dp59
g32
VScience Fiction Hotline (Galaxy, June-July 1979)
p60
sg34
I893
sa(dp61
g32
VGalaxy Bookshelf (Galaxy, June-July 1979)
p62
sg34
I767
sa(dp63
g32
VLetters (Galaxy, June-July 1979)
p64
sg34
I326
sa(dp65
g32
VStatement of Policy (Galaxy, June-July 1979)
p66
sg34
I894
sa(dp67
g32
VThe Psychic
p68
sg34
I895
sa(dp69
g32
VBeneath the Bermuda Triangle
p70
sg34
I896
sa(dp71
g32
VStar Warriors (Part 1 of 2)
p72
sg34
I854
sa(dp73
g32
VJem (Part 3 of 5)
p74
sg34
I40
sa(dp75
g32
VThe-Super-Duper-Make-Your-Own-Ba
p76
sg34
I897
sa(dp77
g32
VFemworld
p78
sg34
I658
sa(dp79
g32
VAn End to Crime
p80
sg34
I376
sa(dp81
g32
VWhen the Metal Eaters Came
p82
sg34
I596
sasb.