ccopy_reg
_reconstructor
p0
(cdataset.Book
Book
p1
c__builtin__
object
p2
Ntp3
Rp4
(dp5
S'similar_books'
p6
(lp7
sS'genres'
p8
(lp9
sS'author'
p10
I302
sS'countries'
p11
(lp12
I2
asS'year'
p13
I1977
sS'title'
p14
VGalaxy Magazine September 1977
p15
sS'cover'
p16
Vhttps://ia600202.us.archive.org/BookReader/BookReaderImages.php?zip=/11/items/Galaxy_v38n07_1977-09/Galaxy_v38n07_1977-09_jp2.zip&file=Galaxy_v38n07_1977-09_jp2/Galaxy_v38n07_1977-09_0000.jp2&scale=0&rotate=0
p17
sS'cover_art'
p18
S'http://www.isfdb.org/wiki/images/9/91/GALSEP77.jpg'
p19
sS'author_name'
p20
VGalaxy Magazine
p21
sS'images_urls'
p22
(lp23
sS'authors'
p24
(lp25
I742
aI734
aI770
aI829
aI830
aI831
aI750
aI832
aI833
aI302
asS'images'
p26
(lp27
sS'id'
p28
I1204
sS'contents'
p29
(lp30
(dp31
g10
I742
sg14
VShowcase (Galaxy, September 1977)
p32
sa(dp33
g10
I742
sg14
VExiles to Glory (Part 1 of 2)
p34
sa(dp35
g10
I742
sg14
VExiles to Glory (Part 1 of 2) [2]
p36
sa(dp37
g10
I742
sg14
VExiles to Glory (Part 1 of 2) [3]
p38
sa(dp39
g10
I742
sg14
VGently Rapping
p40
sa(dp41
g10
I742
sg14
VGently Rapping [2]
p42
sa(dp43
g10
I742
sg14
VCame the Revolution
p44
sa(dp45
g10
I742
sg14
VCame the Revolution [2]
p46
sa(dp47
g10
I742
sg14
VCame the Revolution [3]
p48
sa(dp49
g10
I742
sg14
VGet Happy
p50
sa(dp51
g10
I742
sg14
VComing Home
p52
sa(dp53
g10
I742
sg14
VComing Home [2]
p54
sa(dp55
g10
I734
sg14
VSome Futures
p56
sa(dp57
g10
I770
sg14
VGalaxy Bookshelf (Galaxy, September 1977)
p58
sa(dp59
g10
I829
sg14
VReview of an Audio Dramatization of Brian W. Aldiss' "Frankenstein Unbound", Adapted
p60
sa(dp61
g10
I770
sg14
VReview of the Audio Recording "Joanna Russ Interpreting Her Stories"
p62
sa(dp63
g10
I830
sg14
VReview of an Audio Dramatization of Isaac Asimov's "Nightfall" Adapted
p64
sa(dp65
g10
I831
sg14
VCame the Revolution
p66
sa(dp67
g10
I750
sg14
VGet Happy
p68
sa(dp69
g10
I734
sg14
VExiles to Glory (Part 1 of 2)
p70
sa(dp71
g10
I832
sg14
VGently Rapping
p72
sa(dp73
g10
I833
sg14
VComing Home
p74
sasb.