ccopy_reg
_reconstructor
p0
(cdataset.Book
Book
p1
c__builtin__
object
p2
Ntp3
Rp4
(dp5
S'content_name'
p6
V24118.txt.utf-8
p7
sS'isbn'
p8
NsS'year'
p9
I1959
sS'author_name'
p10
VRoger Kuykendall
p11
sS'images_urls'
p12
(lp13
Vhttp://www.gutenberg.org/files/24118/24118-h/images/hardly1.jpg
p14
asS'language_code'
p15
Veng
p16
sS'images'
p17
(lp18
sS'id'
p19
I812
sS'category'
p20
VText
p21
sS'genres'
p22
(lp23
sS'copyright'
p24
VPublic domain in the USA.
p25
sS'title'
p26
VWe Didn't Do Anything Wrong, Hardly
p27
sS'wikipedia'
p28
(dp29
S'found'
p30
I00
ssS'average_rating'
p31
F3.33
sS'rating_count'
p32
I14
sS'content_available'
p33
I01
sS'goodreads'
p34
(dp35
S'url'
p36
Vhttps://www.goodreads.com/book/show/17567427-we-didn-t-do-anything-wrong-hardly
p37
sg30
I01
sS'year'
p38
I1959
ssS'similar_books'
p39
(lp40
sS'description'
p41
V<b>After all\u2014they only borrowed it a little while, just to fix it\u2014 </b><br /><i>Science Fiction - Children build a spaceship</i><br /><br />Play Duration: 00:08:55<br />Public Domain stories from Project Gutenberg, that are read by volunteers. <br />First published in <i>\u201dAstounding Science Fiction\u201d</i> <br /><br /><u>Free download from LibriVox.org</u> <br />Down load file sizes<br />[mp3@64kbps - 4.2MB]<br />[mp3@128kbps - 8.5MB]<br />[ogg vorbis - 4.5MB]
p42
sS'gutenberg'
p43
(dp44
g36
Vhttp://www.gutenberg.org/ebooks/24118
p45
sS'num'
p46
I24118
ssS'authors'
p47
(lp48
I241
asS'isbn13'
p49
NsS'language'
p50
VEnglish
p51
sS'countries'
p52
(lp53
I3
asS'release_date'
p54
S'2008-01-02T00:00:00'
p55
sS'author'
p56
I241
sS'content_cleaned'
p57
I01
sS'classes'
p58
(lp59
Vscience-fiction
p60
aVshort-story
p61
aVto-read
p62
aVaudio-obtained-lvss
p63
aVcalibre
p64
aVnook
p65
aVfiction
p66
aVadult-fiction
p67
aVlibrivox-short-scifi
p68
aVsci-fi
p69
aVscifi
p70
aVtype-short-story
p71
aVaudio-obtained-ss
p72
aVsci-fi-fantasy
p73
asS'loc_class'
p74
VPS: Language and Literatures: American and Canadian literature
p75
sS'n_authors'
p76
I1
sb.