ccopy_reg
_reconstructor
p0
(cdataset.Book
Book
p1
c__builtin__
object
p2
Ntp3
Rp4
(dp5
S'isbn'
p6
V0898652588
p7
sS'year'
p8
I1960
sS'author_name'
p9
VMark Clifton
p10
sS'images_urls'
p11
(lp12
Vhttp://www.gutenberg.org/files/27595/27595-page-images/f0001.png
p13
aVhttp://www.gutenberg.org/files/27595/27595-page-images/f0003.png
p14
aVhttp://www.gutenberg.org/files/27595/27595-page-images/f0004.png
p15
aVhttp://www.gutenberg.org/files/27595/27595-page-images/f0005.png
p16
aVhttp://www.gutenberg.org/files/27595/27595-page-images/f0007.png
p17
aVhttp://www.gutenberg.org/files/27595/27595-page-images/f0009.png
p18
aVhttp://www.gutenberg.org/files/27595/27595-page-images/p0013.png
p19
aVhttp://www.gutenberg.org/files/27595/27595-page-images/p0014.png
p20
aVhttp://www.gutenberg.org/files/27595/27595-page-images/p0015.png
p21
aVhttp://www.gutenberg.org/files/27595/27595-page-images/p0016.png
p22
aVhttp://www.gutenberg.org/files/27595/27595-page-images/p0017.png
p23
aVhttp://www.gutenberg.org/files/27595/27595-page-images/p0018.png
p24
aVhttp://www.gutenberg.org/files/27595/27595-page-images/p0019.png
p25
aVhttp://www.gutenberg.org/files/27595/27595-page-images/p0020.png
p26
aVhttp://www.gutenberg.org/files/27595/27595-page-images/p0021.png
p27
aVhttp://www.gutenberg.org/files/27595/27595-page-images/p0022.png
p28
aVhttp://www.gutenberg.org/files/27595/27595-page-images/p0023.png
p29
aVhttp://www.gutenberg.org/files/27595/27595-page-images/p0024.png
p30
aVhttp://www.gutenberg.org/files/27595/27595-page-images/p0025.png
p31
aVhttp://www.gutenberg.org/files/27595/27595-page-images/p0026.png
p32
aVhttp://www.gutenberg.org/files/27595/27595-page-images/p0027.png
p33
aVhttp://www.gutenberg.org/files/27595/27595-page-images/p0028.png
p34
aVhttp://www.gutenberg.org/files/27595/27595-page-images/p0029.png
p35
aVhttp://www.gutenberg.org/files/27595/27595-page-images/p0030.png
p36
aVhttp://www.gutenberg.org/files/27595/27595-page-images/p0031.png
p37
aVhttp://www.gutenberg.org/files/27595/27595-page-images/p0032.png
p38
aVhttp://www.gutenberg.org/files/27595/27595-page-images/p0033.png
p39
aVhttp://www.gutenberg.org/files/27595/27595-page-images/p0034.png
p40
aVhttp://www.gutenberg.org/files/27595/27595-page-images/p0035.png
p41
aVhttp://www.gutenberg.org/files/27595/27595-page-images/p0036.png
p42
aVhttp://www.gutenberg.org/files/27595/27595-page-images/p0037.png
p43
aVhttp://www.gutenberg.org/files/27595/27595-page-images/p0038.png
p44
aVhttp://www.gutenberg.org/files/27595/27595-page-images/p0039.png
p45
aVhttp://www.gutenberg.org/files/27595/27595-page-images/p0040.png
p46
aVhttp://www.gutenberg.org/files/27595/27595-page-images/p0041.png
p47
aVhttp://www.gutenberg.org/files/27595/27595-page-images/p0042.png
p48
aVhttp://www.gutenberg.org/files/27595/27595-page-images/p0043.png
p49
aVhttp://www.gutenberg.org/files/27595/27595-page-images/p0044.png
p50
aVhttp://www.gutenberg.org/files/27595/27595-page-images/p0045.png
p51
aVhttp://www.gutenberg.org/files/27595/27595-page-images/p0046.png
p52
aVhttp://www.gutenberg.org/files/27595/27595-page-images/p0047.png
p53
aVhttp://www.gutenberg.org/files/27595/27595-page-images/p0048.png
p54
aVhttp://www.gutenberg.org/files/27595/27595-page-images/p0049.png
p55
aVhttp://www.gutenberg.org/files/27595/27595-page-images/p0050.png
p56
aVhttp://www.gutenberg.org/files/27595/27595-page-images/p0051.png
p57
aVhttp://www.gutenberg.org/files/27595/27595-page-images/p0052.png
p58
aVhttp://www.gutenberg.org/files/27595/27595-page-images/p0053.png
p59
aVhttp://www.gutenberg.org/files/27595/27595-page-images/p0054.png
p60
aVhttp://www.gutenberg.org/files/27595/27595-page-images/p0055.png
p61
aVhttp://www.gutenberg.org/files/27595/27595-page-images/p0056.png
p62
aVhttp://www.gutenberg.org/files/27595/27595-page-images/p0057.png
p63
aVhttp://www.gutenberg.org/files/27595/27595-page-images/p0058.png
p64
aVhttp://www.gutenberg.org/files/27595/27595-page-images/p0059.png
p65
aVhttp://www.gutenberg.org/files/27595/27595-page-images/p0060.png
p66
aVhttp://www.gutenberg.org/files/27595/27595-page-images/p0061.png
p67
aVhttp://www.gutenberg.org/files/27595/27595-page-images/p0062.png
p68
aVhttp://www.gutenberg.org/files/27595/27595-page-images/p0063.png
p69
aVhttp://www.gutenberg.org/files/27595/27595-page-images/p0064.png
p70
aVhttp://www.gutenberg.org/files/27595/27595-page-images/p0065.png
p71
aVhttp://www.gutenberg.org/files/27595/27595-page-images/p0066.png
p72
aVhttp://www.gutenberg.org/files/27595/27595-page-images/p0067.png
p73
aVhttp://www.gutenberg.org/files/27595/27595-page-images/p0068.png
p74
aVhttp://www.gutenberg.org/files/27595/27595-page-images/p0069.png
p75
aVhttp://www.gutenberg.org/files/27595/27595-page-images/p0070.png
p76
aVhttp://www.gutenberg.org/files/27595/27595-page-images/p0071.png
p77
aVhttp://www.gutenberg.org/files/27595/27595-page-images/p0072.png
p78
aVhttp://www.gutenberg.org/files/27595/27595-page-images/p0073.png
p79
aVhttp://www.gutenberg.org/files/27595/27595-page-images/p0074.png
p80
aVhttp://www.gutenberg.org/files/27595/27595-page-images/p0075.png
p81
aVhttp://www.gutenberg.org/files/27595/27595-page-images/p0076.png
p82
aVhttp://www.gutenberg.org/files/27595/27595-page-images/p0077.png
p83
aVhttp://www.gutenberg.org/files/27595/27595-page-images/p0078.png
p84
aVhttp://www.gutenberg.org/files/27595/27595-page-images/p0079.png
p85
aVhttp://www.gutenberg.org/files/27595/27595-page-images/p0080.png
p86
aVhttp://www.gutenberg.org/files/27595/27595-page-images/p0081.png
p87
aVhttp://www.gutenberg.org/files/27595/27595-page-images/p0082.png
p88
aVhttp://www.gutenberg.org/files/27595/27595-page-images/p0083.png
p89
aVhttp://www.gutenberg.org/files/27595/27595-page-images/p0084.png
p90
aVhttp://www.gutenberg.org/files/27595/27595-page-images/p0085.png
p91
aVhttp://www.gutenberg.org/files/27595/27595-page-images/p0086.png
p92
aVhttp://www.gutenberg.org/files/27595/27595-page-images/p0087.png
p93
aVhttp://www.gutenberg.org/files/27595/27595-page-images/p0088.png
p94
aVhttp://www.gutenberg.org/files/27595/27595-page-images/p0089.png
p95
aVhttp://www.gutenberg.org/files/27595/27595-page-images/p0090.png
p96
aVhttp://www.gutenberg.org/files/27595/27595-page-images/p0091.png
p97
aVhttp://www.gutenberg.org/files/27595/27595-page-images/p0092.png
p98
aVhttp://www.gutenberg.org/files/27595/27595-page-images/p0093.png
p99
aVhttp://www.gutenberg.org/files/27595/27595-page-images/p0094.png
p100
aVhttp://www.gutenberg.org/files/27595/27595-page-images/p0095.png
p101
aVhttp://www.gutenberg.org/files/27595/27595-page-images/p0096.png
p102
aVhttp://www.gutenberg.org/files/27595/27595-page-images/p0097.png
p103
aVhttp://www.gutenberg.org/files/27595/27595-page-images/p0098.png
p104
aVhttp://www.gutenberg.org/files/27595/27595-page-images/p0099.png
p105
aVhttp://www.gutenberg.org/files/27595/27595-page-images/p0100.png
p106
aVhttp://www.gutenberg.org/files/27595/27595-page-images/p0101.png
p107
aVhttp://www.gutenberg.org/files/27595/27595-page-images/p0102.png
p108
aVhttp://www.gutenberg.org/files/27595/27595-page-images/p0103.png
p109
aVhttp://www.gutenberg.org/files/27595/27595-page-images/p0104.png
p110
aVhttp://www.gutenberg.org/files/27595/27595-page-images/p0105.png
p111
aVhttp://www.gutenberg.org/files/27595/27595-page-images/p0106.png
p112
aVhttp://www.gutenberg.org/files/27595/27595-page-images/p0107.png
p113
aVhttp://www.gutenberg.org/files/27595/27595-page-images/p0108.png
p114
aVhttp://www.gutenberg.org/files/27595/27595-page-images/p0109.png
p115
aVhttp://www.gutenberg.org/files/27595/27595-page-images/p0110.png
p116
aVhttp://www.gutenberg.org/files/27595/27595-page-images/p0111.png
p117
aVhttp://www.gutenberg.org/files/27595/27595-page-images/p0112.png
p118
aVhttp://www.gutenberg.org/files/27595/27595-page-images/p0113.png
p119
aVhttp://www.gutenberg.org/files/27595/27595-page-images/p0114.png
p120
aVhttp://www.gutenberg.org/files/27595/27595-page-images/p0115.png
p121
aVhttp://www.gutenberg.org/files/27595/27595-page-images/p0116.png
p122
aVhttp://www.gutenberg.org/files/27595/27595-page-images/p0117.png
p123
aVhttp://www.gutenberg.org/files/27595/27595-page-images/p0118.png
p124
aVhttp://www.gutenberg.org/files/27595/27595-page-images/p0119.png
p125
aVhttp://www.gutenberg.org/files/27595/27595-page-images/p0120.png
p126
aVhttp://www.gutenberg.org/files/27595/27595-page-images/p0121.png
p127
aVhttp://www.gutenberg.org/files/27595/27595-page-images/p0122.png
p128
aVhttp://www.gutenberg.org/files/27595/27595-page-images/p0123.png
p129
aVhttp://www.gutenberg.org/files/27595/27595-page-images/p0124.png
p130
aVhttp://www.gutenberg.org/files/27595/27595-page-images/p0125.png
p131
aVhttp://www.gutenberg.org/files/27595/27595-page-images/p0126.png
p132
aVhttp://www.gutenberg.org/files/27595/27595-page-images/p0127.png
p133
aVhttp://www.gutenberg.org/files/27595/27595-page-images/p0128.png
p134
aVhttp://www.gutenberg.org/files/27595/27595-page-images/p0129.png
p135
aVhttp://www.gutenberg.org/files/27595/27595-page-images/p0130.png
p136
aVhttp://www.gutenberg.org/files/27595/27595-page-images/p0131.png
p137
aVhttp://www.gutenberg.org/files/27595/27595-page-images/p0132.png
p138
aVhttp://www.gutenberg.org/files/27595/27595-page-images/p0133.png
p139
aVhttp://www.gutenberg.org/files/27595/27595-page-images/p0134.png
p140
aVhttp://www.gutenberg.org/files/27595/27595-page-images/p0135.png
p141
aVhttp://www.gutenberg.org/files/27595/27595-page-images/p0136.png
p142
aVhttp://www.gutenberg.org/files/27595/27595-page-images/p0137.png
p143
aVhttp://www.gutenberg.org/files/27595/27595-page-images/p0138.png
p144
aVhttp://www.gutenberg.org/files/27595/27595-page-images/p0139.png
p145
aVhttp://www.gutenberg.org/files/27595/27595-page-images/p0140.png
p146
aVhttp://www.gutenberg.org/files/27595/27595-page-images/p0141.png
p147
aVhttp://www.gutenberg.org/files/27595/27595-page-images/p0142.png
p148
aVhttp://www.gutenberg.org/files/27595/27595-page-images/p0143.png
p149
aVhttp://www.gutenberg.org/files/27595/27595-page-images/p0144.png
p150
aVhttp://www.gutenberg.org/files/27595/27595-page-images/p0145.png
p151
aVhttp://www.gutenberg.org/files/27595/27595-page-images/p0146.png
p152
aVhttp://www.gutenberg.org/files/27595/27595-page-images/p0147.png
p153
aVhttp://www.gutenberg.org/files/27595/27595-page-images/p0148.png
p154
aVhttp://www.gutenberg.org/files/27595/27595-page-images/p0149.png
p155
aVhttp://www.gutenberg.org/files/27595/27595-page-images/p0150.png
p156
aVhttp://www.gutenberg.org/files/27595/27595-page-images/p0151.png
p157
aVhttp://www.gutenberg.org/files/27595/27595-page-images/p0152.png
p158
aVhttp://www.gutenberg.org/files/27595/27595-page-images/p0153.png
p159
aVhttp://www.gutenberg.org/files/27595/27595-page-images/p0154.png
p160
aVhttp://www.gutenberg.org/files/27595/27595-page-images/p0155.png
p161
aVhttp://www.gutenberg.org/files/27595/27595-page-images/p0156.png
p162
aVhttp://www.gutenberg.org/files/27595/27595-page-images/p0157.png
p163
aVhttp://www.gutenberg.org/files/27595/27595-page-images/p0158.png
p164
aVhttp://www.gutenberg.org/files/27595/27595-page-images/p0159.png
p165
aVhttp://www.gutenberg.org/files/27595/27595-page-images/p0160.png
p166
aVhttp://www.gutenberg.org/files/27595/27595-page-images/p0161.png
p167
aVhttp://www.gutenberg.org/files/27595/27595-page-images/p0162.png
p168
aVhttp://www.gutenberg.org/files/27595/27595-page-images/p0163.png
p169
aVhttp://www.gutenberg.org/files/27595/27595-page-images/p0164.png
p170
aVhttp://www.gutenberg.org/files/27595/27595-page-images/p0165.png
p171
aVhttp://www.gutenberg.org/files/27595/27595-page-images/p0166.png
p172
aVhttp://www.gutenberg.org/files/27595/27595-page-images/p0167.png
p173
aVhttp://www.gutenberg.org/files/27595/27595-page-images/p0168.png
p174
aVhttp://www.gutenberg.org/files/27595/27595-page-images/p0169.png
p175
aVhttp://www.gutenberg.org/files/27595/27595-page-images/p0170.png
p176
aVhttp://www.gutenberg.org/files/27595/27595-page-images/p0171.png
p177
aVhttp://www.gutenberg.org/files/27595/27595-page-images/p0172.png
p178
aVhttp://www.gutenberg.org/files/27595/27595-page-images/p0173.png
p179
aVhttp://www.gutenberg.org/files/27595/27595-page-images/p0174.png
p180
aVhttp://www.gutenberg.org/files/27595/27595-page-images/p0175.png
p181
aVhttp://www.gutenberg.org/files/27595/27595-page-images/p0176.png
p182
aVhttp://www.gutenberg.org/files/27595/27595-page-images/p0177.png
p183
aVhttp://www.gutenberg.org/files/27595/27595-page-images/p0178.png
p184
aVhttp://www.gutenberg.org/files/27595/27595-page-images/p0179.png
p185
aVhttp://www.gutenberg.org/files/27595/27595-page-images/p0180.png
p186
aVhttp://www.gutenberg.org/files/27595/27595-page-images/p0181.png
p187
aVhttp://www.gutenberg.org/files/27595/27595-page-images/p0182.png
p188
aVhttp://www.gutenberg.org/files/27595/27595-page-images/p0183.png
p189
aVhttp://www.gutenberg.org/files/27595/27595-page-images/p0184.png
p190
aVhttp://www.gutenberg.org/files/27595/27595-page-images/p0185.png
p191
aVhttp://www.gutenberg.org/files/27595/27595-page-images/p0186.png
p192
aVhttp://www.gutenberg.org/files/27595/27595-page-images/p0187.png
p193
aVhttp://www.gutenberg.org/files/27595/27595-page-images/q0001.png
p194
asS'language_code'
p195
NsS'images'
p196
(lp197
sS'id'
p198
I735
sS'category'
p199
VText
p200
sS'genres'
p201
(lp202
sS'copyright'
p203
VPublic domain in the USA.
p204
sS'title'
p205
VEight Keys to Eden
p206
sS'wikipedia'
p207
(dp208
S'found'
p209
I00
ssS'average_rating'
p210
F3.79
sS'rating_count'
p211
I29
sS'content_available'
p212
I00
sS'goodreads'
p213
(dp214
S'url'
p215
Vhttps://www.goodreads.com/book/show/2664286-eight-keys-to-eden
p216
sg209
I01
sS'year'
p217
I1960
ssS'similar_books'
p218
(lp219
sS'description'
p220
VFROM THE HUGO WINNING NOVELIST Not long after the colonists landed on the uninhabited planet every human made artifact - ship communicators, tools--disappeared! Even their clothes! Here is an enthralling science alien planet puzzle from the man writer, critic and Nebula award winner Barry Maltzberg calls "One of the twelve most influential science fiction writers." When, Eden--the Earth colony eleven light years goes silent and fails to answer any communications from the mother planet, Earth's government goes into a panic. Has something tragic happened on a world already proven to have no intelligent, dangerous lifeforms? Or, are the colonists purposely disregarding the messages for some reason of their own? What could be the real explanation for the mysterious silence of a disciplined, scientific colony? <br /><br />To learn the answer, Earth's leaders turn to the Extrapolators- the honored group of men and women with an almost superhuman ability to see to the core of any problem. Soon the Es assign a probationary Extrapolator, Calvin Gray, to the hazardous journey to Eden, where he will win full admission into the ranks to the Extrapolators if he solves whatever problems he finds there. But, even with his special Extrapolator training, Grey is not prepared for the extent ort nature of the disaster that has struck the colony Eden--thrown back to an almost subhuman state of existence without houses, tools, equipment, or clothing. <br /><br />Here is a suspenseful science fiction from Mark Clifton, who, with his collaborator, Frank Riley, won the 1955 Hugo Award for best science fiction novel of the year for, They'd Rather Be Right. Galaxy magazine's editors called Clifton's work: "Full of excitement. Richly rewarding. Genuinely mature philosophy tinged with gentle irony."
p221
sS'format'
p222
VUnknown Binding
p223
sS'gutenberg'
p224
(dp225
g215
Vhttp://www.gutenberg.org/ebooks/27595
p226
sS'num'
p227
I27595
ssS'authors'
p228
(lp229
I236
asS'pages'
p230
I159
sS'isbn13'
p231
V9780898652581
p232
sS'language'
p233
VEnglish
p234
sS'country'
p235
I2
sS'release_date'
p236
S'2008-12-23T00:00:00'
p237
sS'author'
p238
I236
sS'classes'
p239
(lp240
Vdefault
p241
aVto-read
p242
aVfiction
p243
aVowned
p244
aV--196-
p245
aVscience-fiction
p246
aVsci-fi-fantasy
p247
aVexcess-kindle
p248
aVclassic
p249
aVvintage-book
p250
aVfeedbooks-com
p251
aVsf
p252
aVreading-buy-list
p253
aVhugo-nebula-reading-list
p254
aVsci-fi
p255
aVphilosophy
p256
aVscience
p257
aV--195-
p258
aVwaiting
p259
aV2015-reads
p260
aVbuy-or-read
p261
asS'loc_class'
p262
VPS: Language and Literatures: American and Canadian literature
p263
sS'n_authors'
p264
I1
sb.