ccopy_reg
_reconstructor
p0
(cdataset.Book
Book
p1
c__builtin__
object
p2
Ntp3
Rp4
(dp5
S'content_name'
p6
V51699.txt.utf-8
p7
sS'isbn'
p8
NsS'year'
p9
I1927
sS'author_name'
p10
VBill Doede
p11
sS'images_urls'
p12
(lp13
Vhttp://www.gutenberg.org/files/51699/51699-h/images/cover.jpg
p14
aVhttp://www.gutenberg.org/files/51699/51699-h/images/illus1.jpg
p15
aVhttp://www.gutenberg.org/files/51699/51699-h/images/illus2.jpg
p16
asS'language_code'
p17
NsS'images'
p18
(lp19
sS'id'
p20
I574
sS'category'
p21
VText
p22
sS'genres'
p23
(lp24
sS'copyright'
p25
VPublic domain in the USA.
p26
sS'title'
p27
VThe God Next Door
p28
sS'wikipedia'
p29
(dp30
S'found'
p31
I00
ssS'average_rating'
p32
F4.33
sS'rating_count'
p33
I3
sS'content_available'
p34
I01
sS'cover_art_url'
p35
S'http://www.gutenberg.org/cache/epub/51699/pg51699.cover.medium.jpg'
p36
sS'goodreads'
p37
(dp38
S'url'
p39
Vhttps://www.goodreads.com/book/show/13549018-no-god-next-door
p40
sg31
I01
sS'year'
p41
I1927
ssS'similar_books'
p42
(lp43
sS'description'
p44
NsS'format'
p45
NsS'gutenberg'
p46
(dp47
g39
Vhttp://www.gutenberg.org/ebooks/51699
p48
sS'num'
p49
I51699
ssS'authors'
p50
(lp51
I192
asS'isbn13'
p52
NsS'language'
p53
VEnglish
p54
sS'release_date'
p55
S'2016-04-08T00:00:00'
p56
sS'author'
p57
I192
sS'content_cleaned'
p58
I01
sS'classes'
p59
(lp60
sS'loc_class'
p61
S''
p62
sS'n_authors'
p63
I1
sb.