ccopy_reg
_reconstructor
p0
(cdataset.Book
Book
p1
c__builtin__
object
p2
Ntp3
Rp4
(dp5
S'content_name'
p6
V31062.txt.utf-8
p7
sS'isbn'
p8
NsS'year'
p9
I1955
sS'author_name'
p10
VIrving E. Cox
p11
sS'images_urls'
p12
(lp13
Vhttp://www.gutenberg.org/files/31062/31062-h/images/cover.jpg
p14
asS'language_code'
p15
NsS'id'
p16
I950
sS'category'
p17
VText
p18
sS'genres'
p19
(lp20
sS'copyright'
p21
VPublic domain in the USA.
p22
sS'title'
p23
VThe Cartels Jungle
p24
sS'wikipedia'
p25
(dp26
S'found'
p27
I00
ssS'average_rating'
p28
F4.5
sS'rating_count'
p29
I2
sS'content_available'
p30
I01
sS'cover_art_url'
p31
S'http://www.gutenberg.org/cache/epub/31062/pg31062.cover.medium.jpg'
p32
sS'goodreads'
p33
(dp34
S'url'
p35
Vhttps://www.goodreads.com/book/show/20421935-the-cartels-jungle
p36
sS'found'
p37
I01
sS'year'
p38
I2011
ssS'similar_books'
p39
(lp40
sS'description'
p41
NsS'gutenberg'
p42
(dp43
g35
Vhttp://www.gutenberg.org/ebooks/31062
p44
sS'num'
p45
I31062
ssS'authors'
p46
(lp47
I160
asS'isbn13'
p48
NsS'language'
p49
VEnglish
p50
sS'countries'
p51
(lp52
I1
asS'release_date'
p53
S'2010-03-16T00:00:00'
p54
sS'author'
p55
I160
sS'content_cleaned'
p56
I01
sS'classes'
p57
(lp58
Vto-read
p59
aV21st-century-lit
p60
aVshelf-c-authors
p61
aVgenre-syfi-fan-horr
p62
aVbooks
p63
asS'loc_class'
p64
VPS: Language and Literatures: American and Canadian literature
p65
sS'n_authors'
p66
I1
sb.