ccopy_reg
_reconstructor
p0
(cdataset.Book
Book
p1
c__builtin__
object
p2
Ntp3
Rp4
(dp5
S'similar_books'
p6
(lp7
sS'genres'
p8
(lp9
sS'author'
p10
I918
sS'countries'
p11
(lp12
I2
asS'year'
p13
I1958
sS'title'
p14
VIF Magazine December 1958
p15
sS'cover'
p16
Vhttps://ia601305.us.archive.org/BookReader/BookReaderImages.php?zip=/27/items/1958-12_IF/1958-12_IF_jp2.zip&file=1958-12_IF_jp2/1958-12_IF_0000.jp2&scale=0&rotate=0
p17
sS'cover_art'
p18
S'http://www.isfdb.org/wiki/images/d/d1/WOFIFDEC1958.jpg'
p19
sS'author_name'
p20
VIF Magazine
p21
sS'images_urls'
p22
(lp23
sS'authors'
p24
(lp25
I363
aI412
aI204
aI326
aI208
aI1046
aI586
aI569
aI479
aI130
aI8
aI918
asS'images'
p26
(lp27
sS'id'
p28
I1266
sS'contents'
p29
(lp30
(dp31
g10
I363
sg14
VRat in the Skull
p32
sa(dp33
g10
I412
sg14
VTwo Whole Glorious Weeks
p34
sa(dp35
g10
I363
sg14
VSatellite Passage
p36
sa(dp37
g10
I363
sg14
VThe Night of Hoggy Darn
p38
sa(dp39
g10
I412
sg14
VWestern Science Is so Wonderful
p40
sa(dp41
g10
I363
sg14
VHalf Around Pluto
p42
sa(dp43
g10
I363
sg14
VNull-O
p44
sa(dp45
g10
I204
sg14
VIn the Balance (If, December 1958)
p46
sa(dp47
g10
I326
sg14
VThe Retort (If, December 1958)
p48
sa(dp49
g10
I208
sg14
VRat in the Skull
p50
sa(dp51
g10
I1046
sg14
VThe Night of Hoggy Darn
p52
sa(dp53
g10
I586
sg14
VTwo Whole Glorious Weeks
p54
sa(dp55
g10
I569
sg14
VSatellite Passage
p56
sa(dp57
g10
I479
sg14
VWestern Science Is so Wonderful
p58
sa(dp59
g10
I130
sg14
VHalf Around Pluto
p60
sa(dp61
g10
I8
sg14
VNull-O
p62
sasb.