ccopy_reg
_reconstructor
p0
(cdataset.Book
Book
p1
c__builtin__
object
p2
Ntp3
Rp4
(dp5
S'similar_books'
p6
(lp7
sS'genres'
p8
(lp9
sS'author'
p10
I918
sS'countries'
p11
(lp12
I2
asS'year'
p13
I1964
sS'title'
p14
VIF Magazine January 1964
p15
sS'cover'
p16
Vhttps://ia800207.us.archive.org/BookReader/BookReaderImages.php?zip=/24/items/1964-01_IF_modified/1964-01_IF_modified_jp2.zip&file=1964-01_IF_modified_jp2/1964-01_IF_modified_0000.jp2&scale=0&rotate=0
p17
sS'cover_art'
p18
S'http://www.isfdb.org/wiki/images/e/ee/WOFIFJAN1964.jpg'
p19
sS'author_name'
p20
VIF Magazine
p21
sS'images_urls'
p22
(lp23
sS'authors'
p24
(lp25
I1096
aI545
aI581
aI497
aI341
aI205
aI40
aI610
aI8
aI30
aI1097
aI229
aI918
asS'images'
p26
(lp27
sS'id'
p28
I1295
sS'contents'
p29
(lp30
(dp31
g10
I1096
sg14
VThree Worlds to Conquer (Part 1 of 2)
p32
sa(dp33
g10
I545
sg14
VMack
p34
sa(dp35
g10
I581
sg14
VThe Competitors
p36
sa(dp37
g10
I497
sg14
VWaterspider
p38
sa(dp39
g10
I497
sg14
VWaterspider [2]
p40
sa(dp41
g10
I341
sg14
VThe Day They Threw God at Me
p42
sa(dp43
g10
I341
sg14
VPersonal Monuments
p44
sa(dp45
g10
I205
sg14
VScience-Fantasy Crossword Puzzle
p46
sa(dp47
g10
I40
sg14
VHue and Cry (If, January 1964)
p48
sa(dp49
g10
I610
sg14
VThe Competitors
p50
sa(dp51
g10
I8
sg14
VWaterspider
p52
sa(dp53
g10
I30
sg14
VThree Worlds to Conquer (Part 1 of 2)
p54
sa(dp55
g10
I1097
sg14
VMack
p56
sa(dp57
g10
I229
sg14
VThe Car Pool
p58
sasb.