ccopy_reg
_reconstructor
p0
(cdataset.Book
Book
p1
c__builtin__
object
p2
Ntp3
Rp4
(dp5
S'content_name'
p6
V17958.txt.utf-8
p7
sS'isbn'
p8
V1434619346
p9
sS'year'
p10
I1963
sS'author_name'
p11
VTerry Gene Carr
p12
sS'images_urls'
p13
(lp14
sS'language_code'
p15
NsS'images'
p16
(lp17
sS'id'
p18
I536
sS'category'
p19
VText
p20
sS'genres'
p21
(lp22
sS'copyright'
p23
VPublic domain in the USA.
p24
sS'title'
p25
VWarlord of Kor
p26
sS'wikipedia'
p27
(dp28
S'found'
p29
I00
ssS'average_rating'
p30
F3.57
sS'rating_count'
p31
I15
sS'content_available'
p32
I01
sS'goodreads'
p33
(dp34
S'url'
p35
Vhttps://www.goodreads.com/book/show/2511999.Warlord_of_Kor
p36
sg29
I01
sS'year'
p37
I1963
ssS'similar_books'
p38
(lp39
sS'description'
p40
VThis is a pre-1923 historical reproduction that was curated for quality. Quality assurance was conducted on each of these books in an attempt to remove books with imperfections introduced by the digitization process. Though we have made best efforts - the books may have occasional errors that do not impede the reading experience. We believe this work is culturally important and have elected to bring the book back into print as part of our continuing commitment to the preservation of printed works worldwide.
p41
sS'gutenberg'
p42
(dp43
g35
Vhttp://www.gutenberg.org/ebooks/17958
p44
sS'num'
p45
I17958
ssS'authors'
p46
(lp47
I177
asS'isbn13'
p48
V9781434619341
p49
sS'language'
p50
VEnglish
p51
sS'countries'
p52
(lp53
I2
asS'release_date'
p54
S'2006-03-10T00:00:00'
p55
sS'author'
p56
I177
sS'content_cleaned'
p57
I00
sS'classes'
p58
(lp59
Vto-read
p60
aVscience-fiction
p61
aVcurrently-reading
p62
aVto-get
p63
aVpublic-domain
p64
aVnovels
p65
aVown-audiobook
p66
aVaudiobooks
p67
aVbooks
p68
aVowned-books
p69
aVunread
p70
aVfiction
p71
aVcover-art-collection
p72
aVace-doubles
p73
aVdonated
p74
aVebook
p75
aVfeedbooks-com
p76
aVreimport
p77
aVsword-and-planet
p78
aVsci-fi-fantasy
p79
aVsci-fic
p80
aVto-purchase
p81
aVe-books
p82
aVread-on-pc
p83
aVmy-ebooks
p84
aVreorganize
p85
aVshelved
p86
aVs-tr
p87
aVtanith
p88
aVlee
p89
asS'loc_class'
p90
VPS: Language and Literatures: American and Canadian literature
p91
sS'n_authors'
p92
I1
sb.