ccopy_reg
_reconstructor
p0
(cdataset.Book
Book
p1
c__builtin__
object
p2
Ntp3
Rp4
(dp5
S'content_name'
p6
V25629.txt.utf-8
p7
sS'isbn'
p8
NsS'year'
p9
I2008
sS'author_name'
p10
VRobert Silverberg
p11
sS'images_urls'
p12
(lp13
Vhttp://www.gutenberg.org/files/25629/25629-h/images/001.png
p14
aVhttp://www.gutenberg.org/files/25629/25629-page-images/p055.png
p15
aVhttp://www.gutenberg.org/files/25629/25629-page-images/p056.png
p16
aVhttp://www.gutenberg.org/files/25629/25629-page-images/p057-image.png
p17
aVhttp://www.gutenberg.org/files/25629/25629-page-images/p057.png
p18
aVhttp://www.gutenberg.org/files/25629/25629-page-images/p058.png
p19
aVhttp://www.gutenberg.org/files/25629/25629-page-images/p059.png
p20
aVhttp://www.gutenberg.org/files/25629/25629-page-images/p060.png
p21
aVhttp://www.gutenberg.org/files/25629/25629-page-images/p061.png
p22
aVhttp://www.gutenberg.org/files/25629/25629-page-images/p062.png
p23
aVhttp://www.gutenberg.org/files/25629/25629-page-images/p063.png
p24
asS'language_code'
p25
Veng
p26
sS'images'
p27
(lp28
sS'id'
p29
I242
sS'category'
p30
VText
p31
sS'genres'
p32
(lp33
sS'copyright'
p34
VPublic domain in the USA.
p35
sS'title'
p36
VPostmark Ganymede
p37
sS'wikipedia'
p38
(dp39
S'found'
p40
I00
ssS'average_rating'
p41
F3.36
sS'rating_count'
p42
I43
sS'content_available'
p43
I01
sS'goodreads'
p44
(dp45
S'url'
p46
Vhttps://www.goodreads.com/book/show/6280596-postmark-ganymede
p47
sg40
I01
sS'year'
p48
I2008
ssS'similar_books'
p49
(lp50
sS'description'
p51
VPostmark Ganymede is presented here in a high quality paperback edition. This popular classic work by Robert Silverberg is in the English language, and may not include graphics or images from the original edition. If you enjoy the works of Robert Silverberg then we highly recommend this publication for your book collection.
p52
sS'format'
p53
NsS'gutenberg'
p54
(dp55
g46
Vhttp://www.gutenberg.org/ebooks/25629
p56
sS'num'
p57
I25629
ssS'authors'
p58
(lp59
I50
asS'isbn13'
p60
NsS'language'
p61
VEnglish
p62
sS'countries'
p63
(lp64
I2
asS'release_date'
p65
S'2008-05-27T00:00:00'
p66
sS'author'
p67
I50
sS'content_cleaned'
p68
I01
sS'classes'
p69
(lp70
Vto-read
p71
aVscience-fiction
p72
aVsci-fi
p73
aVepub
p74
aVown-unread
p75
aVon-pc-to-read
p76
aVcurrently-reading
p77
aVunread-owned
p78
aVto-read-later
p79
aVamerican
p80
aVkindle-books-i-own-unread
p81
aVsf
p82
aVowned
p83
aVowned-pending-kindle-free-ebook
p84
aVz_fiction
p85
aVx_shortstory
p86
aVwo_scifi
p87
aVw_us_unitary
p88
aVshort-story
p89
aVaudio-obtained-lvss
p90
aVebooks
p91
aVlus-en-anglais
p92
aVz
p93
aVto-read-short
p94
aVlus-sur-ma-liseuse
p95
aVparce-que-fernand-le-vaut-bien
p96
aVfiction-science-fiction
p97
aVe-book
p98
aVe-reader
p99
aVcalibre-library
p100
aVfavscifi-vol1
p101
aVspeculative-fiction
p102
aVshort-stories
p103
aVfiction
p104
aVebook
p105
aVon-nook
p106
aVpdfs
p107
aVtype-short-story
p108
aVaudio-obtained-ss
p109
aVcurrently-on-nook
p110
asS'loc_class'
p111
VPS: Language and Literatures: American and Canadian literature
p112
sS'n_authors'
p113
I1
sb.