ccopy_reg
_reconstructor
p0
(cdataset.Book
Book
p1
c__builtin__
object
p2
Ntp3
Rp4
(dp5
S'content_name'
p6
V28643.txt.utf-8
p7
sS'isbn'
p8
V0738210072
p9
sS'year'
p10
I1953
sS'author_name'
p11
VRandall Garrett
p12
sS'images_urls'
p13
(lp14
Vhttp://www.gutenberg.org/files/28643/28643-h/images/001.png
p15
asS'language_code'
p16
NsS'id'
p17
I363
sS'category'
p18
VText
p19
sS'genres'
p20
(lp21
sS'copyright'
p22
VPublic domain in the USA.
p23
sS'title'
p24
VBelly Laugh
p25
sS'wikipedia'
p26
(dp27
S'found'
p28
I00
ssS'average_rating'
p29
F3.72
sS'rating_count'
p30
I12391
sS'content_available'
p31
I01
sS'goodreads'
p32
(dp33
S'url'
p34
Vhttps://www.goodreads.com/book/show/12499.Belly_Laughs
p35
sS'found'
p36
I01
sS'year'
p37
I2004
ssS'similar_books'
p38
(lp39
VYour Pregnancy Week by Week
p40
aVThe Girlfriends' Guide to Pregnancy
p41
aVPregnancy Sucks: What to Do When Your Miracle Makes You Miserable
p42
aVFrom the Hips: A Comprehensive, Open-Minded, Uncensored, Totally Honest Guide to Pregnancy, Birth, and Becoming a Parent
p43
aVThe Second Nine Months: One Woman Tells the Real Truth about Becoming a Mom. Finally.
p44
aVSippy Cups Are Not for Chardonnay: And Other Things I Had to Learn as a New Mom
p45
aVMommywood
p46
aVYour Pregnancy & Birth: Information You Can Trust from the Leading Experts in Women's Health Care
p47
aVYOU: Having a Baby: The Owner's Manual to a Happy and Healthy Pregnancy
p48
aVThe Mother of all Pregnancy Books
p49
aVBaby Bargains: Secrets to Saving 20% to 50% on baby furniture, gear, clothes, toys, maternity wear and much more! (Baby Bargains)
p50
aVKnocked Up: Confessions of a Hip Mother-to-be
p51
aVThe Pregnancy Journal, Revised Edition: A Day-to-Day Guide to a Healthy and Happy Pregnancy
p52
aVThe Pregnancy Bible: Your Complete Guide to Pregnancy and Early Parenthood
p53
aVI'd Trade My Husband for a Housekeeper: Loving Your Marriage after the Baby Carriage
p54
aVDown Came the Rain: My Journey Through Postpartum Depression
p55
aVGreat Expectations: Your All-In-One Resource for Pregnancy  Childbirth
p56
aVBabyproofing Your Marriage: How to Laugh More, Argue Less, and Communicate Better as Your Family Grows
p57
asS'description'
p58
NsS'format'
p59
NsS'gutenberg'
p60
(dp61
g34
Vhttp://www.gutenberg.org/ebooks/28643
p62
sS'num'
p63
I28643
ssS'authors'
p64
(lp65
I49
asS'pages'
p66
I165
sS'isbn13'
p67
V9780738210070
p68
sS'language'
p69
VEnglish
p70
sS'countries'
p71
(lp72
I2
asS'release_date'
p73
S'2009-04-30T00:00:00'
p74
sS'author'
p75
I49
sS'content_cleaned'
p76
I01
sS'classes'
p77
(lp78
Vto-read
p79
aVnon-fiction
p80
aVparenting
p81
aVhumor
p82
aVpregnancy
p83
aVcurrently-reading
p84
aVnonfiction
p85
aVmemoir
p86
aVbaby
p87
aVbooks-i-own
p88
aVfavorites
p89
aVmemoirs
p90
aVfunny
p91
aVmotherhood
p92
aVadult
p93
aVbiography
p94
aVcomedy
p95
aVread-in-2010
p96
aVpregnancy-parenting
p97
aVbaby-books
p98
aVread-in-2011
p99
aVmy-books
p100
aVlibrary
p101
aVread-in-2012
p102
aVchick-lit
p103
aVself-help
p104
aVread-in-2013
p105
aVhumour
p106
aVcelebrity
p107
aVkindle
p108
aVpregnancy-baby
p109
aVbiography-memoir
p110
aVread-2013
p111
aVpregnancy-books
p112
aVparenting-books
p113
aVpregnancy-and-parenting
p114
aVread-2014
p115
aVparenthood
p116
aVautobiography
p117
aVlol
p118
aVchildbirth
p119
aVfamily
p120
aVhealth
p121
aVadult-nonfiction
p122
aVadult-non-fiction
p123
aVcelebs
p124
aVread-in-2016
p125
aVread-in-2014
p126
aVdefault
p127
aVowned
p128
aVread-2012
p129
aVown-it
p130
aVbabies-and-parenting
p131
aVe-books
p132
aVebook
p133
aVborrowed
p134
aVpregnancy-childbirth
p135
aVpregnancy-birth
p136
aVmemoir-biography
p137
aVbiographies
p138
aVmommy-books
p139
aVfinished
p140
aVmommy
p141
aVi-own
p142
aVcalibre
p143
aVshelfari-favorites
p144
aVread-in-2015
p145
aV2013-reads
p146
aVautobiography-biography-memoir
p147
aVlibrary-book
p148
aVnot-interested
p149
aVlibrary-books
p150
aVhumorous
p151
aVread-2011
p152
aVbooks-by-celebrities
p153
aVauto-biography
p154
aVread-2010
p155
aVto-read-own
p156
aVmommyhood
p157
aVbabies
p158
aVwish-list
p159
aVreal-life
p160
aVbooks
p161
aVparenting-pregnancy
p162
aVread-2009
p163
aVread-in-2007
p164
aVmom-stuff
p165
aVmy-library
p166
aVread-2016
p167
aV2016-reads
p168
aVchildren
p169
aVunread
p170
aVpregnancy-and-breastfeeding
p171
aVlaugh-out-loud
p172
aVbooks-read-in-2014
p173
aVgrown-up-books
p174
aVabandoned
p175
aVdid-not-finish
p176
aVto-buy
p177
aVeducational
p178
asS'loc_class'
p179
VPS: Language and Literatures: American and Canadian literature
p180
sS'n_authors'
p181
I1
sb.