ccopy_reg
_reconstructor
p0
(cdataset.Book
Book
p1
c__builtin__
object
p2
Ntp3
Rp4
(dp5
S'content_name'
p6
V29389.txt.utf-8
p7
sS'isbn'
p8
NsS'year'
p9
I1932
sS'author_name'
p10
VDonald A. Wandrei
p11
sS'images_urls'
p12
(lp13
Vhttp://www.gutenberg.org/files/29389/29389-h/images/001.png
p14
aVhttp://www.gutenberg.org/files/29389/29389-h/images/002-1.jpg
p15
aVhttp://www.gutenberg.org/files/29389/29389-h/images/002-2.jpg
p16
asS'language_code'
p17
NsS'id'
p18
I495
sS'category'
p19
VText
p20
sS'genres'
p21
(lp22
sS'copyright'
p23
VPublic domain in the USA.
p24
sS'title'
p25
VRaiders of the Universes
p26
sS'wikipedia'
p27
(dp28
S'found'
p29
I00
ssS'average_rating'
p30
F3.25
sS'rating_count'
p31
I14
sS'content_available'
p32
I01
sS'goodreads'
p33
(dp34
S'url'
p35
Vhttps://www.goodreads.com/book/show/19328675-raiders-of-the-universes
p36
sS'found'
p37
I01
sS'year'
p38
I2011
ssS'similar_books'
p39
(lp40
sS'description'
p41
NsS'gutenberg'
p42
(dp43
g35
Vhttp://www.gutenberg.org/ebooks/29389
p44
sS'num'
p45
I29389
ssS'authors'
p46
(lp47
I165
asS'isbn13'
p48
NsS'language'
p49
VEnglish
p50
sS'countries'
p51
(lp52
I2
asS'release_date'
p53
S'2009-07-12T00:00:00'
p54
sS'author'
p55
I165
sS'content_cleaned'
p56
I01
sS'classes'
p57
(lp58
Vto-read
p59
aVcurrently-reading
p60
aVscience-fiction
p61
aVshort-stories
p62
aVaudiobooks
p63
aVsci-fi
p64
aV21st-century-lit
p65
aVfiction
p66
aVclassics
p67
aVaudiobooks-read
p68
aV3-stars
p69
aVfree-from-amazon
p70
aVshelf-w-authors
p71
aVgenre-syfi-fan-horr
p72
aVaudio-books-to-read
p73
aVaudio-obtained-lvss
p74
aVcalibre
p75
aV14
p76
aVaudiobooks-to-read
p77
aVaudio-obtained-ss
p78
asS'loc_class'
p79
VPS: Language and Literatures: American and Canadian literature
p80
sS'n_authors'
p81
I1
sb.