ccopy_reg
_reconstructor
p0
(cdataset.Book
Book
p1
c__builtin__
object
p2
Ntp3
Rp4
(dp5
S'similar_books'
p6
(lp7
sS'genres'
p8
(lp9
sS'author'
p10
I302
sS'countries'
p11
(lp12
I2
asS'year'
p13
I1951
sS'title'
p14
VGalaxy Magazine November 1951
p15
sS'cover'
p16
Vhttps://ia600207.us.archive.org/BookReader/BookReaderImages.php?zip=/15/items/Galaxy_v03n02_1951-11/Galaxy_v03n02_1951-11_jp2.zip&file=Galaxy_v03n02_1951-11_jp2/Galaxy_v03n02_1951-11_0000.jp2&scale=0&rotate=0
p17
sS'cover_art'
p18
S'http://www.isfdb.org/wiki/images/9/9b/GALNOV1951.jpg'
p19
sS'author_name'
p20
VGalaxy Magazine
p21
sS'images_urls'
p22
(lp23
sS'authors'
p24
(lp25
I363
aI377
aI378
aI367
aI366
aI336
aI342
aI305
aI340
aI379
aI249
aI380
aI371
aI298
aI381
aI302
asS'images'
p26
(lp27
sS'id'
p28
I986
sS'contents'
p29
(lp30
(dp31
g10
I363
sg14
VSea Legs
p32
sa(dp33
g10
I363
sg14
VSea Legs [2]
p34
sa(dp35
g10
I363
sg14
VSea Legs [3]
p36
sa(dp37
g10
I377
sg14
VTiger
p38
sa(dp39
g10
I378
sg14
VTiger
p40
sa(dp41
g10
I367
sg14
VZeritsky's Law
p42
sa(dp43
g10
I366
sg14
VSelf Portrait
p44
sa(dp45
g10
I366
sg14
VSelf Portrait [2]
p46
sa(dp47
g10
I366
sg14
VSelf Portrait [3]
p48
sa(dp49
g10
I336
sg14
VPsychotennis, Anyone?
p50
sa(dp51
g10
I342
sg14
VThe Puppet Masters (Part 3 of 3)
p52
sa(dp53
g10
I342
sg14
VThe Puppet Masters (Part 3 of 3) [2]
p54
sa(dp55
g10
I342
sg14
VThe Puppet Masters (Part 3 of 3) [3]
p56
sa(dp57
g10
I342
sg14
VThe Puppet Masters (Part 3 of 3) [4]
p58
sa(dp59
g10
I305
sg14
VStep Outside
p60
sa(dp61
g10
I340
sg14
VGalaxy's Five Star Shelf (Galaxy, November 1951)
p62
sa(dp63
g10
I379
sg14
VReview of the Nonfiction Work "Nature's Ways"
p64
sa(dp65
g10
I249
sg14
VSea Legs
p66
sa(dp67
g10
I380
sg14
VSelf Portrait
p68
sa(dp69
g10
I371
sg14
VThe Puppet Masters (Part 3 of 3)
p70
sa(dp71
g10
I298
sg14
VZeritsky's Law
p72
sa(dp73
g10
I381
sg14
VPsychotennis, Anyone?
p74
sasb.