ccopy_reg
_reconstructor
p0
(cdataset.Book
Book
p1
c__builtin__
object
p2
Ntp3
Rp4
(dp5
S'content_name'
p6
V51805.txt.utf-8
p7
sS'isbn'
p8
NsS'year'
p9
I1960
sS'author_name'
p10
VEarl Goodale
p11
sS'images_urls'
p12
(lp13
Vhttp://www.gutenberg.org/files/51805/51805-h/images/cover.jpg
p14
aVhttp://www.gutenberg.org/files/51805/51805-h/images/illus1.jpg
p15
aVhttp://www.gutenberg.org/files/51805/51805-h/images/illus2.jpg
p16
aVhttp://www.gutenberg.org/files/51805/51805-h/images/illus3.jpg
p17
asS'language_code'
p18
NsS'id'
p19
I594
sS'category'
p20
VText
p21
sS'genres'
p22
(lp23
sS'copyright'
p24
VPublic domain in the USA.
p25
sS'title'
p26
VSuccess Story
p27
sS'wikipedia'
p28
(dp29
S'found'
p30
I00
ssS'average_rating'
p31
F4.11
sS'rating_count'
p32
I1
sS'content_available'
p33
I01
sS'cover_art_url'
p34
S'http://www.gutenberg.org/cache/epub/51805/pg51805.cover.medium.jpg'
p35
sS'goodreads'
p36
(dp37
S'url'
p38
S'https://www.goodreads.com/book/show/33959083-success-story'
p39
sS'found'
p40
I01
ssS'similar_books'
p41
(lp42
sS'description'
p43
NsS'gutenberg'
p44
(dp45
S'url'
p46
Vhttp://www.gutenberg.org/ebooks/51805
p47
sS'num'
p48
I51805
ssS'authors'
p49
(lp50
I198
asS'isbn13'
p51
NsS'language'
p52
VEnglish
p53
sS'countries'
p54
(lp55
I3
asS'release_date'
p56
S'2016-04-19T00:00:00'
p57
sS'author'
p58
I198
sS'content_cleaned'
p59
I01
sS'classes'
p60
(lp61
Vto-read
p62
aVunknown-publication-dates
p63
asS'loc_class'
p64
S''
p65
sS'n_authors'
p66
I1
sb.