ccopy_reg
_reconstructor
p0
(cdataset.Book
Book
p1
c__builtin__
object
p2
Ntp3
Rp4
(dp5
S'content_name'
p6
V30583.txt.utf-8
p7
sS'isbn'
p8
NsS'year'
p9
I1961
sS'author_name'
p10
VRandall Garrett
p11
sS'images_urls'
p12
(lp13
Vhttp://www.gutenberg.org/files/30583/30583-h/images/image_001.jpg
p14
aVhttp://www.gutenberg.org/files/30583/30583-h/images/image_002.jpg
p15
aVhttp://www.gutenberg.org/files/30583/30583-h/images/image_003.jpg
p16
aVhttp://www.gutenberg.org/files/30583/30583-h/images/image_004.jpg
p17
aVhttp://www.gutenberg.org/files/30583/30583-h/images/image_w.jpg
p18
asS'language_code'
p19
NsS'images'
p20
(lp21
sS'id'
p22
I437
sS'category'
p23
VText
p24
sS'genres'
p25
(lp26
sS'copyright'
p27
VPublic domain in the USA.
p28
sS'title'
p29
VThe Asses of Balaam
p30
sS'wikipedia'
p31
(dp32
S'found'
p33
I00
ssS'average_rating'
p34
F3.67
sS'rating_count'
p35
I3
sS'content_available'
p36
I01
sS'goodreads'
p37
(dp38
S'url'
p39
Vhttps://www.goodreads.com/book/show/9311023-the-asses-of-balaam
p40
sg33
I01
sS'year'
p41
I2009
ssS'similar_books'
p42
(lp43
sS'description'
p44
NsS'gutenberg'
p45
(dp46
g39
Vhttp://www.gutenberg.org/ebooks/30583
p47
sS'num'
p48
I30583
ssS'authors'
p49
(lp50
I49
asS'isbn13'
p51
NsS'language'
p52
VEnglish
p53
sS'countries'
p54
(lp55
I2
asS'release_date'
p56
S'2009-12-02T00:00:00'
p57
sS'author'
p58
I49
sS'cover'
p59
Vhttps://s.gr-assets.com/assets/nophoto/book/111x148-bcc042a9c91a29c1d680899eff700a03.png
p60
sS'content_cleaned'
p61
I01
sS'classes'
p62
(lp63
Vshort-stories
p64
aVshort-story
p65
aVaudio-obtained
p66
aVto-read
p67
aVscience
p68
aVfiction
p69
aVshort
p70
aVtype-short-story
p71
aVaudio-obtained-ss
p72
asS'loc_class'
p73
VPS: Language and Literatures: American and Canadian literature
p74
sS'n_authors'
p75
I1
sb.