ccopy_reg
_reconstructor
p0
(cdataset.Book
Book
p1
c__builtin__
object
p2
Ntp3
Rp4
(dp5
S'content_name'
p6
V50980.txt.utf-8
p7
sS'isbn'
p8
V1516951042
p9
sS'year'
p10
I1955
sS'author_name'
p11
VRobert Zacks
p12
sS'images_urls'
p13
(lp14
Vhttp://www.gutenberg.org/files/50980/50980-h/images/cover.jpg
p15
aVhttp://www.gutenberg.org/files/50980/50980-h/images/illus.jpg
p16
asS'language_code'
p17
Veng
p18
sS'images'
p19
(lp20
sS'id'
p21
I636
sS'category'
p22
VText
p23
sS'genres'
p24
(lp25
sS'copyright'
p26
VPublic domain in the USA.
p27
sS'title'
p28
VThe Freelancer
p29
sS'wikipedia'
p30
(dp31
S'found'
p32
I00
ssS'average_rating'
p33
F3.88
sS'rating_count'
p34
I57
sS'content_available'
p35
I01
sS'cover_art_url'
p36
S'http://www.gutenberg.org/cache/epub/50980/pg50980.cover.medium.jpg'
p37
sS'goodreads'
p38
(dp39
S'url'
p40
Vhttps://www.goodreads.com/book/show/26840488-freelancer
p41
sg32
I01
sS'year'
p42
I2015
ssS'similar_books'
p43
(lp44
VThe Milk of Female Kindness: An Anthology of Honest Motherhood
p45
aVMisfortune
p46
aVLike A Box Of Chocolates
p47
aVStained Glass Summer
p48
aVStories for Ears to Hear: A Reimagining of the Parables of Jesus
p49
aVBeyond the Rails: Six Tales of Steampunk Adventure on the African Frontier
p50
aVThe Trilisk Hunt (Parker Interstellar Travels, #4)
p51
aVSign of the Sandman
p52
aVKitchen Science Lab for Kids: 52 Family Friendly Experiments from Around the House
p53
aVThe Sugar Mountain Snow Ball
p54
aVImmortal Max
p55
aVHacking Timbuktu
p56
aVHunting the Corrigan's Blood (Cadence Drake, #1)
p57
aVConviction (Razia, #3)
p58
aVThe Journey of Annabelle Leigh
p59
aVFour Tenths of an Acre: Reflections on a Gardening Life
p60
aVFrontier Incursion
p61
aVCinnamon Girl: A Village Cooks Mystery
p62
asS'description'
p63
VKari is a freelance hacker, taking jobs from clients to design anything from art to security software. In a world where 3D printers, drones and computers that connect directly to the brain are common things, Kari finds keeping her talents secret while trying to finish high school to be quite the problem. With the threat of the 2nd Civil War, Kari must decide how far she will go to protect herself and others from harm's way, even when her choices might have consequences she's not ready to face.
p64
sS'format'
p65
VPaperback
p66
sS'gutenberg'
p67
(dp68
g40
Vhttp://www.gutenberg.org/ebooks/50980
p69
sS'num'
p70
I50980
ssS'authors'
p71
(lp72
I193
asS'pages'
p73
I235
sS'isbn13'
p74
V9781516951048
p75
sS'language'
p76
VEnglish
p77
sS'countries'
p78
(lp79
I3
asS'release_date'
p80
S'2016-01-20T00:00:00'
p81
sS'author'
p82
I193
sS'content_cleaned'
p83
I01
sS'classes'
p84
(lp85
Vto-read
p86
aVcurrently-reading
p87
aVscience-fiction
p88
aVyoung-adult
p89
aVkindle
p90
aVowned
p91
aVebook
p92
aVsci-fi
p93
aVpotential-read
p94
aVfirst-reads
p95
aVwarfare
p96
aVhigh-school
p97
aVengineering
p98
aVcyberpunk
p99
aVkindle-scout
p100
aVkindle-app
p101
aVfiction-science-fiction
p102
aVsoftware-development
p103
aVre-read
p104
aVpoc-mc
p105
aVscience-fiction-and-fantasy
p106
aVebooks-i-own-tbr
p107
aVebookshelf
p108
aVscifi
p109
aVborrowed
p110
aVkindle-unlimited
p111
aVbooks-i-own
p112
aVyoung-genius
p113
aVprison
p114
aVjuv-ya
p115
aVcomputer
p116
aVown-it-ebook
p117
aVown-ebook
p118
aVebooks
p119
aVa-list
p120
aVur-ku
p121
aVur-ks
p122
aVmaybe
p123
aVnovels
p124
aVread-2016
p125
aVwanted
p126
aVowned-unread-ebook-3
p127
aVfantasy
p128
aVread-in-2016
p129
aVkindle-scout-books
p130
aVya-science-fiction
p131
aVya-dystopian
p132
aVread-and-review-misc
p133
aVdystopia
p134
aVindie
p135
aVteen-girl-adventurers
p136
aVcontemporary
p137
aVcomputing
p138
aVcool-sci-fi
p139
aVbooks
p140
aVget-this
p141
aVkindle-unlimited-queue
p142
aVown-kindle
p143
aVrecommended-books
p144
aVbooks-i-own-and-need-to-read
p145
aVowned-books
p146
aVto-read-or-not-to-read
p147
aVgiveaway
p148
aVthriller
p149
aVgiveaway-books
p150
aVreordering
p151
aVentered-to-win
p152
aVto-buy
p153
aVgiveaway-entry
p154
aVya
p155
aVf
p156
aVgood-reads
p157
aVfree-ebooks
p158
aVfiction
p159
aV2015-books
p160
aVamazon
p161
aV0694-f
p162
asS'loc_class'
p163
S''
p164
sS'n_authors'
p165
I1
sb.