ccopy_reg
_reconstructor
p0
(cdataset.Book
Book
p1
c__builtin__
object
p2
Ntp3
Rp4
(dp5
S'content_name'
p6
V29579.txt.utf-8
p7
sS'isbn'
p8
NsS'year'
p9
I1990
sS'author_name'
p10
VRobert Sheckley
p11
sS'images_urls'
p12
(lp13
Vhttp://www.gutenberg.org/files/29579/29579-h/images/001.png
p14
aVhttp://www.gutenberg.org/files/29579/29579-h/images/002.png
p15
aVhttp://www.gutenberg.org/files/29579/29579-h/images/003.png
p16
aVhttp://www.gutenberg.org/files/29579/29579-h/images/004.png
p17
aVhttp://www.gutenberg.org/files/29579/29579-h/images/005.png
p18
aVhttp://www.gutenberg.org/files/29579/29579-h/images/006-1.jpg
p19
aVhttp://www.gutenberg.org/files/29579/29579-h/images/006-2.jpg
p20
asS'language_code'
p21
Veng
p22
sS'images'
p23
(lp24
sS'id'
p25
I187
sS'category'
p26
VText
p27
sS'genres'
p28
(lp29
sS'copyright'
p30
VPublic domain in the USA.
p31
sS'title'
p32
VWatchbird
p33
sS'wikipedia'
p34
(dp35
S'found'
p36
I00
ssS'average_rating'
p37
F4.14
sS'rating_count'
p38
I138
sS'content_available'
p39
I01
sS'goodreads'
p40
(dp41
S'url'
p42
Vhttps://www.goodreads.com/book/show/6681108-watchbird
p43
sg36
I01
sS'year'
p44
I1990
ssS'similar_books'
p45
(lp46
VThe Death Clock
p47
aVThe Disintegration Machine (Professor Challenger, #5)
p48
aVThe Wind Has Teeth Tonight: A Gwennie Story (The Heartland Trilogy #0.5)
p49
aVReal Lies
p50
aVThe Souls of the Ships
p51
aVPigeons from Hell
p52
aVThe Marching Morons
p53
aVRag and Bone
p54
aVProfession
p55
aVSelected from Dark They Were and Golden-Eyed
p56
aVPoet Anderson: The Dream Walker
p57
aVOtto Von Trapezoid and the Empress of Thieves
p58
aVThe Dreadful Fate of Jonathan York: A Yarn for the Strange at Heart
p59
aVDiary of an AssCan: A Mark Watney Short Story (The Martian, #0.5)
p60
aVFree Five: Flash Fiction
p61
aVSword of Lies
p62
aVA Circle Of Iron (Eldernost, #1)
p63
aVWhat the Dead Fear
p64
asS'description'
p65
VStrange how often the Millennium has been at hand. The idea is peace on Earth, see, and the way to do it is by figuring out angles.
p66
sS'format'
p67
NsS'gutenberg'
p68
(dp69
g42
Vhttp://www.gutenberg.org/ebooks/29579
p70
sS'num'
p71
I29579
ssS'authors'
p72
(lp73
I23
asS'isbn13'
p74
NsS'language'
p75
VEnglish
p76
sS'release_date'
p77
S'2009-08-02T00:00:00'
p78
sS'author'
p79
I23
sS'content_cleaned'
p80
I01
sS'classes'
p81
(lp82
Vto-read
p83
aVscience-fiction
p84
aVshort-stories
p85
aVsci-fi
p86
aVfiction
p87
aVsci-fi-fantasy
p88
aVamerican
p89
aVfantasy
p90
aVebooks
p91
aVclassics
p92
aVfavorites
p93
aVreviewed
p94
aVsf
p95
aVsf-fantasy
p96
aVaudiobook
p97
aV20th-century-lit
p98
aVaudiobooks-read
p99
aV3-stars
p100
aVthere-should-be-a-band
p101
aVshort-stories-novellas
p102
aVkindle
p103
aVcrime-whodunits
p104
aVcomedy-satire
p105
aVscifi
p106
aVunowned
p107
aVhumor
p108
aVaudiobooks
p109
aVneed
p110
aV\u10e1\u10d0\u10e8\u10e3\u10d0\u10da\u10dd-\u10e4\u10d0\u10dc\u10e2\u10d0\u10e1\u10e2\u10d8\u10d9\u10d0
p111
aVread-in-2016
p112
aVsampled-and-liked
p113
aVmainstream
p114
aV\u10e4\u10d0\u10dc\u10e2\u10d0\u10e1\u10e2\u10d8\u10d9\u10d0-\u10e4\u10d4\u10dc\u10e2\u10d4\u10d6\u10d8-\u10e1\u10d0\u10d8\u10e4\u10d0\u10d8-\u10d4\u10e2\u10ea
p115
aVdystopian
p116
aVlooking-for
p117
aVshort-story
p118
aVfood-for-thought
p119
aVbooks-i-reviewed
p120
aVbooks-i-recommend
p121
aV\u10e0\u10e9\u10d4\u10e3\u10da\u10d8-\u10db\u10dd\u10d7\u10ee\u10e0\u10dd\u10d1\u10d4\u10d1\u10d8
p122
aVfavorite-sci-fi
p123
aVlibrivox
p124
aVthe-end-of-the-world
p125
aVdystopia
p126
aVaudio-books
p127
aVaudio-obtained
p128
aVread-in-my-50s
p129
aVliked-it
p130
aVto-read-sci-fi
p131
aVread-in-2014
p132
aVg
p133
aVeb-other
p134
aVeb
p135
aVbellow_100_ratings
p136
aVfiction-sf
p137
aVrobert-sheckley
p138
aVseen-movie
p139
aVhorror-thriller-etc
p140
aVin-ru
p141
aVaround-the-usa
p142
aVto-read-owned
p143
aVsci-fi-and-horror
p144
aVshort-read
p145
aVe-book
p146
aVaudio-book
p147
aVenglish-american
p148
aVfantasy-utopia-magic
p149
aV\u10e4\u10d0\u10dc\u10e2\u10d0\u10e1\u10e2\u10d8\u10d9\u10d0
p150
aVaudiobooks-to-read
p151
aVaudio-obtained-lvss
p152
aVto-read-own
p153
aV2013-reads
p154
aVaaaaaaaa
p155
asS'loc_class'
p156
VPS: Language and Literatures: American and Canadian literature
p157
sS'n_authors'
p158
I1
sb.