ccopy_reg
_reconstructor
p0
(cdataset.Book
Book
p1
c__builtin__
object
p2
Ntp3
Rp4
(dp5
S'similar_books'
p6
(lp7
sS'genres'
p8
(lp9
sS'author'
p10
I302
sS'countries'
p11
(lp12
I2
asS'year'
p13
I1953
sS'title'
p14
VGalaxy Magazine January 1953
p15
sS'cover'
p16
Vhttps://ia601307.us.archive.org/BookReader/BookReaderImages.php?zip=/26/items/Galaxy_v05n04_1953-01/Galaxy_v05n04_1953-01_jp2.zip&file=Galaxy_v05n04_1953-01_jp2/Galaxy_v05n04_1953-01_0000.jp2&scale=0&rotate=0
p17
sS'cover_art'
p18
S'http://www.isfdb.org/wiki/images/d/d1/GALJAN53.jpg'
p19
sS'author_name'
p20
VGalaxy Magazine
p21
sS'images_urls'
p22
(lp23
sS'authors'
p24
(lp25
I363
aI419
aI402
aI420
aI342
aI305
aI339
aI340
aI326
aI8
aI217
aI56
aI421
aI422
aI423
aI302
asS'images'
p26
(lp27
sS'id'
p28
I1000
sS'contents'
p29
(lp30
(dp31
g10
I363
sg14
VThe Defenders
p32
sa(dp33
g10
I363
sg14
VThe Defenders [2]
p34
sa(dp35
g10
I363
sg14
VThe Defenders [3]
p36
sa(dp37
g10
I419
sg14
VTeething Ring
p38
sa(dp39
g10
I419
sg14
VLife Sentence
p40
sa(dp41
g10
I402
sg14
VThe Inhabited
p42
sa(dp43
g10
I402
sg14
VThe Inhabited [2]
p44
sa(dp45
g10
I402
sg14
VThe Inhabited [3]
p46
sa(dp47
g10
I420
sg14
VPrott
p48
sa(dp49
g10
I342
sg14
VRing Around the Sun (Part 2 of 3)
p50
sa(dp51
g10
I342
sg14
VRing Around the Sun (Part 2 of 3) [2]
p52
sa(dp53
g10
I342
sg14
VRing Around the Sun (Part 2 of 3) [3]
p54
sa(dp55
g10
I342
sg14
VRing Around the Sun (Part 2 of 3) [4]
p56
sa(dp57
g10
I305
sg14
VCommon Sense
p58
sa(dp59
g10
I339
sg14
VFor Your Information: Ice Age (Ii)
p60
sa(dp61
g10
I340
sg14
VGalaxy's Five Star Shelf (Galaxy, January 1953)
p62
sa(dp63
g10
I326
sg14
VForecast (Galaxy, January 1953)
p64
sa(dp65
g10
I8
sg14
VThe Defenders
p66
sa(dp67
g10
I217
sg14
VThe Inhabited
p68
sa(dp69
g10
I56
sg14
VRing Around the Sun (Part 2 of 3)
p70
sa(dp71
g10
I421
sg14
VTeething Ring
p72
sa(dp73
g10
I422
sg14
VLife Sentence
p74
sa(dp75
g10
I423
sg14
VPrott
p76
sasb.