ccopy_reg
_reconstructor
p0
(cdataset.Book
Book
p1
c__builtin__
object
p2
Ntp3
Rp4
(dp5
S'content_name'
p6
V28062.txt.utf-8
p7
sS'isbn'
p8
NsS'year'
p9
I1930
sS'author_name'
p10
VEdmond Hamilton
p11
sS'images_urls'
p12
(lp13
Vhttp://www.gutenberg.org/files/28062/28062-h/images/001.png
p14
asS'language_code'
p15
NsS'id'
p16
I249
sS'category'
p17
VText
p18
sS'genres'
p19
(lp20
sS'copyright'
p21
VPublic domain in the USA.
p22
sS'title'
p23
VThe Man Who Saw the Future
p24
sS'wikipedia'
p25
(dp26
S'found'
p27
I00
ssS'average_rating'
p28
F3.3
sS'rating_count'
p29
I23
sS'content_available'
p30
I01
sS'goodreads'
p31
(dp32
S'url'
p33
Vhttps://www.goodreads.com/book/show/6568286-the-man-who-saw-the-future
p34
sS'found'
p35
I01
sS'year'
p36
I1932
ssS'similar_books'
p37
(lp38
sS'description'
p39
V"The Man Who Saw the Future" is the tale of a man who traveled from the medieval past into the "here" and "now." When "here" and "now" was 1930! Amazing, the scientific breakthroughs that used to happen in those isolated laboratories. . . .
p40
sS'format'
p41
NsS'gutenberg'
p42
(dp43
g33
Vhttp://www.gutenberg.org/ebooks/28062
p44
sS'num'
p45
I28062
ssS'authors'
p46
(lp47
I83
asS'isbn13'
p48
NsS'language'
p49
VEnglish
p50
sS'countries'
p51
(lp52
I2
asS'release_date'
p53
S'2009-02-13T00:00:00'
p54
sS'author'
p55
I83
sS'cover'
p56
Vhttps://s.gr-assets.com/assets/nophoto/book/111x148-bcc042a9c91a29c1d680899eff700a03.png
p57
sS'content_cleaned'
p58
I01
sS'classes'
p59
(lp60
Vto-read
p61
aVsci-fi
p62
aVscience-fiction
p63
aVowned
p64
aVtime-travel
p65
aVshort-story
p66
aVcurrently-reading
p67
aVsci-fi-fantasy
p68
aV20th-century-lit
p69
aVmust-reads-calibre
p70
aV15
p71
aVunread
p72
aVpulp
p73
aVeua
p74
aVtime-traveling
p75
aVfuture-antecipation
p76
aVfeedbooks-com
p77
aVebook
p78
aVshort
p79
aVkindle
p80
aVtype-short-story
p81
aVaudio-books
p82
asS'loc_class'
p83
VPS: Language and Literatures: American and Canadian literature
p84
sS'n_authors'
p85
I1
sb.