ccopy_reg
_reconstructor
p0
(cdataset.Book
Book
p1
c__builtin__
object
p2
Ntp3
Rp4
(dp5
S'content_name'
p6
V51519.txt.utf-8
p7
sS'isbn'
p8
V0743236017
p9
sS'year'
p10
I1961
sS'author_name'
p11
VC. C. MacApp
p12
sS'images_urls'
p13
(lp14
Vhttp://www.gutenberg.org/files/51519/51519-h/images/cover.jpg
p15
aVhttp://www.gutenberg.org/files/51519/51519-h/images/illus1.jpg
p16
aVhttp://www.gutenberg.org/files/51519/51519-h/images/illus2.jpg
p17
asS'language_code'
p18
Ven-US
p19
sS'images'
p20
(lp21
sS'id'
p22
I607
sS'category'
p23
VText
p24
sS'genres'
p25
(lp26
sS'copyright'
p27
VPublic domain in the USA.
p28
sS'title'
p29
VThe Drug
p30
sS'wikipedia'
p31
(dp32
S'found'
p33
I00
ssS'average_rating'
p34
F3.75
sS'rating_count'
p35
I56582
sS'content_available'
p36
I01
sS'cover_art_url'
p37
S'http://www.gutenberg.org/cache/epub/51519/pg51519.cover.medium.jpg'
p38
sS'goodreads'
p39
(dp40
S'url'
p41
Vhttps://www.goodreads.com/book/show/599.Sex_Drugs_and_Cocoa_Puffs
p42
sg33
I01
sS'year'
p43
I2003
ssS'similar_books'
p44
(lp45
VInventory: 16 Films Featuring Manic Pixie Dream Girls, 10 Great Songs Nearly Ruined by Saxophone, and 100 More Obsessively Specific Pop-Culture Lists
p46
aVHip: The History
p47
aVNothing Feels Good: Punk Rock, Teenagers, and EMO
p48
aVBack to Our Future: How the 1980s Explain the World We Live in Now--Our Culture, Our Politics, Our Everything
p49
aVLove Is a Mix Tape
p50
aVThe Disappointment Artist
p51
aVWilco: Learning How to Die
p52
aVConsider the Lobster and Other Essays
p53
aVPlanet Simpson: How a Cartoon Masterpiece Defined a Generation
p54
aVIn the Aeroplane Over the Sea
p55
aVThings I've Learned from Women Who've Dumped Me
p56
aV(Not that You Asked): Rants, Exploits, and Obsessions
p57
aVThe Dead Travel Fast: Stalking Vampires from Nosferatu to Count Chocula
p58
aVCan't Stop Won't Stop: A History of the Hip-Hop Generation
p59
aVThe Advanced Genius Theory: Are They Out of Their Minds or Ahead of Their Time?
p60
aVRock On: An Office Power Ballad
p61
aVLet It Blurt: The Life and Times of Lester Bangs, America's Greatest Rock Critic
p62
aVLet's Talk About Love: A Journey to the End of Taste
p63
asS'description'
p64
VCountless writers and artists have spoken for a generation, but no one has done it quite like Chuck Klosterman. With an exhaustive knowledge of popular culture and an almost effortless ability to spin brilliant prose out of unlikely subject matter, Klosterman attacks the entire spectrum of postmodern America: reality TV, Internet porn, Pamela Anderson, literary Jesus freaks, and the real difference between apples and oranges (of which there is none). And don't even get him started on his love life and the whole Harry-Met-Sally situation. <br /><br />Whether deconstructing <i>Saved by the Bell</i> episodes or the artistic legacy of Billy Joel, the symbolic importance of <i>The Empire Strikes Back</i> or the Celtics/Lakers rivalry, Chuck will make you think, he'll make you laugh, and he'll drive you insane -- usually all at once. <i>Sex, Drugs, and Cocoa Puffs</i> is ostensibly about art, entertainment, infotainment, sports, politics, and kittens, but -- really -- it's about us. All of us. As Klosterman realizes late at night, in the moment before he falls asleep, "In and of itself, nothing really matters. What matters is that nothing is ever 'in and of itself.'" Read to believe.
p65
sS'format'
p66
NsS'gutenberg'
p67
(dp68
g41
Vhttp://www.gutenberg.org/ebooks/51519
p69
sS'num'
p70
I51519
ssS'authors'
p71
(lp72
I111
asS'pages'
p73
I253
sS'isbn13'
p74
V9780743236010
p75
sS'language'
p76
VEnglish
p77
sS'countries'
p78
(lp79
I2
asS'release_date'
p80
S'2016-03-21T00:00:00'
p81
sS'author'
p82
I111
sS'content_cleaned'
p83
I01
sS'classes'
p84
(lp85
Vto-read
p86
aVcurrently-reading
p87
aVnon-fiction
p88
aVnonfiction
p89
aVessays
p90
aVfavorites
p91
aVhumor
p92
aVpop-culture
p93
aVmusic
p94
aVowned
p95
aVbooks-i-own
p96
aVculture
p97
aVmemoir
p98
aVsociology
p99
aVcomedy
p100
aVto-buy
p101
aVfunny
p102
aVfiction
p103
aVhumour
p104
aVcontemporary
p105
aVlibrary
p106
aVadult
p107
aVbook-club
p108
aVmemoirs
p109
aVabandoned
p110
aVowned-books
p111
aVphilosophy
p112
aVessay
p113
aVmy-library
p114
aVcultural-studies
p115
aVsocial-commentary
p116
aVdefault
p117
aVkindle
p118
aVunfinished
p119
aVpop
p120
aVjournalism
p121
aVchuck-klosterman
p122
aVshort-stories
p123
aVhistory
p124
aVaudiobook
p125
aVown-it
p126
aV2006
p127
aVpopculture
p128
aVamerican
p129
aVklosterman
p130
aVbookclub
p131
aVbiography
p132
aVsports
p133
aVborrowed
p134
aVi-own
p135
aVbooks
p136
aVread-in-2010
p137
aVfavourites
p138
aVnon-fic
p139
aVaudiobooks
p140
aVdidn-t-finish
p141
aVcouldn-t-finish
p142
aVhumorous
p143
aVcriticism
p144
aVnonfic
p145
aVshelfari-wishlist
p146
aVdid-not-finish
p147
aVsocial
p148
aVnon-fiction-to-read
p149
aVneed-to-buy
p150
aVentertainment
p151
aVaudio
p152
aVpsychology
p153
aVpopular-culture
p154
aVmy-books
p155
aVread-in-2011
p156
aVnon-fiction-humor
p157
aVcollection
p158
aVsociety
p159
aVmy-bookshelf
p160
aVnever-finished
p161
aVshelfari-favorites
p162
aVhome-library
p163
aVebook
p164
aVto-read-non-fiction
p165
aVsex
p166
aVsocial-science
p167
aV2000s
p168
aVother
p169
aVtelevision
p170
aVread-in-2009
p171
aV2005
p172
aVread-in-2008
p173
aVhigh-school
p174
aVpartially-read
p175
aVnf
p176
aVleisure
p177
aVfavorite
p178
aVamerica
p179
aVwish-list
p180
aVread-in-2014
p181
aVread-in-2013
p182
aVto-read-nonfiction
p183
aVbookshelf
p184
aVscience
p185
asS'loc_class'
p186
S''
p187
sS'n_authors'
p188
I1
sb.