ccopy_reg
_reconstructor
p0
(cdataset.Book
Book
p1
c__builtin__
object
p2
Ntp3
Rp4
(dp5
S'similar_books'
p6
(lp7
sS'genres'
p8
(lp9
sS'author'
p10
I302
sS'countries'
p11
(lp12
I2
asS'year'
p13
I1965
sS'title'
p14
VGalaxy Magazine October 1965
p15
sS'cover'
p16
Vhttps://ia600204.us.archive.org/BookReader/BookReaderImages.php?zip=/16/items/Galaxy_v24n01_1965-10/Galaxy_v24n01_1965-10_jp2.zip&file=Galaxy_v24n01_1965-10_jp2/Galaxy_v24n01_1965-10_0000.jp2&scale=0&rotate=0
p17
sS'cover_art'
p18
S'http://www.isfdb.org/wiki/images/6/69/GALOCT65.jpg'
p19
sS'author_name'
p20
VGalaxy Magazine
p21
sS'images_urls'
p22
(lp23
sS'authors'
p24
(lp25
I519
aI545
aI499
aI40
aI339
aI91
aI326
aI479
aI23
aI18
aI305
aI132
aI56
aI32
aI3
aI302
asS'images'
p26
(lp27
sS'id'
p28
I1109
sS'contents'
p29
(lp30
(dp31
S'title'
p32
VThe Age of the Pussyfoot (Part 1 of 3)
p33
sS'author'
p34
I519
sa(dp35
g32
VThe Age of the Pussyfoot (Part 1 of 3) [2]
p36
sg34
I519
sa(dp37
g32
VThe Age of the Pussyfoot (Part 1 of 3) [3]
p38
sg34
I519
sa(dp39
g32
VThree to a Given Star
p40
sg34
I545
sa(dp41
g32
VThree to a Given Star [2]
p42
sg34
I545
sa(dp43
g32
VThree to a Given Star [3]
p44
sg34
I545
sa(dp45
g32
VShall We Have a Little Talk?
p46
sg34
I499
sa(dp47
g32
VShall We Have a Little Talk? [2]
p48
sg34
I499
sa(dp49
g32
VThe Day After Tomorrow
p50
sg34
I40
sa(dp51
g32
VFor Your Information: Fifteen Years of Galaxy -- Thirteen Years of F.Y.I.
p52
sg34
I339
sa(dp53
g32
VGalaxy Bookshelf (Galaxy, October 1965)
p54
sg34
I91
sa(dp55
g32
VForecast (Galaxy, October 1965)
p56
sg34
I326
sa(dp57
g32
VThree to a Given Star
p58
sg34
I479
sa(dp59
g32
VShall We Have a Little Talk?
p60
sg34
I23
sa(dp61
g32
VThe Machines, Beyond Shylock
p62
sg34
I18
sa(dp63
g32
VThe Age of the Pussyfoot (Part 1 of 3)
p64
sg34
I40
sa(dp65
g32
VInside Man
p66
sg34
I305
sa(dp67
g32
VA Better Mousehole
p68
sg34
I132
sa(dp69
g32
VSmall Deer
p70
sg34
I56
sa(dp71
g32
VThe Good New Days
p72
sg34
I32
sa(dp73
g32
VFounding Father
p74
sg34
I3
sasb.