ccopy_reg
_reconstructor
p0
(cdataset.Book
Book
p1
c__builtin__
object
p2
Ntp3
Rp4
(dp5
S'content_name'
p6
V23426.txt.utf-8
p7
sS'isbn'
p8
NsS'year'
p9
I1962
sS'author_name'
p10
VJim Harmon
p11
sS'images_urls'
p12
(lp13
Vhttp://www.gutenberg.org/files/23426/23426-h/images/illustration.png
p14
aVhttp://www.gutenberg.org/files/23426/23426-page-images/p030.png
p15
aVhttp://www.gutenberg.org/files/23426/23426-page-images/p031a.png
p16
aVhttp://www.gutenberg.org/files/23426/23426-page-images/p031b.png
p17
aVhttp://www.gutenberg.org/files/23426/23426-page-images/p032a.png
p18
aVhttp://www.gutenberg.org/files/23426/23426-page-images/p032b.png
p19
aVhttp://www.gutenberg.org/files/23426/23426-page-images/p033a.png
p20
aVhttp://www.gutenberg.org/files/23426/23426-page-images/p033b.png
p21
aVhttp://www.gutenberg.org/files/23426/23426-page-images/p034a.png
p22
aVhttp://www.gutenberg.org/files/23426/23426-page-images/p034b.png
p23
aVhttp://www.gutenberg.org/files/23426/23426-page-images/p035a.png
p24
aVhttp://www.gutenberg.org/files/23426/23426-page-images/p035b.png
p25
aVhttp://www.gutenberg.org/files/23426/23426-page-images/p036a.png
p26
aVhttp://www.gutenberg.org/files/23426/23426-page-images/p036b.png
p27
aVhttp://www.gutenberg.org/files/23426/23426-page-images/p037a.png
p28
aVhttp://www.gutenberg.org/files/23426/23426-page-images/p037b.png
p29
aVhttp://www.gutenberg.org/files/23426/23426-page-images/p038a.png
p30
aVhttp://www.gutenberg.org/files/23426/23426-page-images/p038b.png
p31
aVhttp://www.gutenberg.org/files/23426/23426-page-images/p039a.png
p32
aVhttp://www.gutenberg.org/files/23426/23426-page-images/p039b.png
p33
aVhttp://www.gutenberg.org/files/23426/23426-page-images/p040a.png
p34
aVhttp://www.gutenberg.org/files/23426/23426-page-images/p040b.png
p35
aVhttp://www.gutenberg.org/files/23426/23426-page-images/p041.png
p36
aVhttp://www.gutenberg.org/files/23426/23426-page-images/p042a.png
p37
aVhttp://www.gutenberg.org/files/23426/23426-page-images/p042b.png
p38
aVhttp://www.gutenberg.org/files/23426/23426-page-images/p043a.png
p39
aVhttp://www.gutenberg.org/files/23426/23426-page-images/p043b.png
p40
aVhttp://www.gutenberg.org/files/23426/23426-page-images/p044a.png
p41
aVhttp://www.gutenberg.org/files/23426/23426-page-images/p044b.png
p42
aVhttp://www.gutenberg.org/files/23426/23426-page-images/p045a.png
p43
aVhttp://www.gutenberg.org/files/23426/23426-page-images/p045b.png
p44
aVhttp://www.gutenberg.org/files/23426/23426-page-images/p046a.png
p45
aVhttp://www.gutenberg.org/files/23426/23426-page-images/p046b.png
p46
aVhttp://www.gutenberg.org/files/23426/23426-page-images/p047a.png
p47
aVhttp://www.gutenberg.org/files/23426/23426-page-images/p047b.png
p48
asS'language_code'
p49
NsS'images'
p50
(lp51
sS'id'
p52
I631
sS'category'
p53
VText
p54
sS'genres'
p55
(lp56
sS'copyright'
p57
VPublic domain in the USA.
p58
sS'title'
p59
VThe Last Place on Earth
p60
sS'wikipedia'
p61
(dp62
S'found'
p63
I00
ssS'average_rating'
p64
F3.14
sS'rating_count'
p65
I2
sS'content_available'
p66
I01
sS'goodreads'
p67
(dp68
S'url'
p69
S'https://www.goodreads.com/book/show/19463452-the-last-place-on-earth'
p70
sS'found'
p71
I01
ssS'similar_books'
p72
(lp73
sS'description'
p74
NsS'gutenberg'
p75
(dp76
S'url'
p77
Vhttp://www.gutenberg.org/ebooks/23426
p78
sS'num'
p79
I23426
ssS'authors'
p80
(lp81
I142
asS'isbn13'
p82
NsS'language'
p83
VEnglish
p84
sS'countries'
p85
(lp86
I2
asS'release_date'
p87
S'2007-11-09T00:00:00'
p88
sS'author'
p89
I142
sS'content_cleaned'
p90
I01
sS'classes'
p91
(lp92
Vto-read
p93
aVcurrently-reading
p94
aV21st-century-lit
p95
aVclassics
p96
asS'loc_class'
p97
VPS: Language and Literatures: American and Canadian literature
p98
sS'n_authors'
p99
I1
sb.