ccopy_reg
_reconstructor
p0
(cdataset.Book
Book
p1
c__builtin__
object
p2
Ntp3
Rp4
(dp5
S'content_name'
p6
V29525.txt.utf-8
p7
sS'isbn'
p8
NsS'year'
p9
I1952
sS'author_name'
p10
VRobert Sheckley
p11
sS'images_urls'
p12
(lp13
Vhttp://www.gutenberg.org/files/29525/29525-h/images/001.png
p14
aVhttp://www.gutenberg.org/files/29525/29525-h/images/002-1.jpg
p15
aVhttp://www.gutenberg.org/files/29525/29525-h/images/002-2.jpg
p16
asS'language_code'
p17
Veng
p18
sS'images'
p19
(lp20
sS'id'
p21
I322
sS'category'
p22
VText
p23
sS'genres'
p24
(lp25
sS'copyright'
p26
VPublic domain in the USA.
p27
sS'title'
p28
VThe Leech
p29
sS'wikipedia'
p30
(dp31
S'found'
p32
I00
ssS'average_rating'
p33
F3.53
sS'rating_count'
p34
I29
sS'content_available'
p35
I01
sS'goodreads'
p36
(dp37
S'url'
p38
S'https://www.goodreads.com/book/show/10215282-the-leech'
p39
sS'found'
p40
I01
ssS'similar_books'
p41
(lp42
sS'description'
p43
NsS'gutenberg'
p44
(dp45
S'url'
p46
Vhttp://www.gutenberg.org/ebooks/29525
p47
sS'num'
p48
I29525
ssS'authors'
p49
(lp50
I23
asS'isbn13'
p51
NsS'language'
p52
VEnglish
p53
sS'countries'
p54
(lp55
I2
asS'release_date'
p56
S'2009-07-27T00:00:00'
p57
sS'author'
p58
I23
sS'cover'
p59
Vhttps://s.gr-assets.com/assets/nophoto/book/111x148-bcc042a9c91a29c1d680899eff700a03.png
p60
sS'content_cleaned'
p61
I01
sS'classes'
p62
(lp63
Vto-read
p64
aVscience-fiction
p65
aVsci-fi
p66
aVshort-story
p67
aVfiction
p68
aVx-weird-and-scifi
p69
aVshort-fiction
p70
aVshort-stories
p71
aVto-read-someday
p72
aVowned-pending-kindle-free-ebook
p73
aVshould-try-to-read
p74
aVteenager
p75
aVenglish
p76
aVe-book
p77
aVbooks-i-own
p78
aV2015-have-reads
p79
aVlibrivox-short-scifi
p80
aVauthor-s
p81
aV1940s-1950s-sf-golden-age
p82
aVshort-stories-novellas
p83
aVmight-read-sometime
p84
aVtype-short-story
p85
aVaudio-books
p86
asS'loc_class'
p87
VPS: Language and Literatures: American and Canadian literature
p88
sS'n_authors'
p89
I1
sb.