ccopy_reg
_reconstructor
p0
(cdataset.Book
Book
p1
c__builtin__
object
p2
Ntp3
Rp4
(dp5
S'similar_books'
p6
(lp7
sS'genres'
p8
(lp9
sS'author'
p10
I302
sS'countries'
p11
(lp12
I2
asS'year'
p13
I1962
sS'title'
p14
VGalaxy Magazine December 1962
p15
sS'cover'
p16
Vhttps://ia600208.us.archive.org/BookReader/BookReaderImages.php?zip=/15/items/Galaxy_v21n02_1962.12/Galaxy_v21n02_1962.12_jp2.zip&file=Galaxy_v21n02_1962.12_jp2/Galaxy_v21n02_1962.12_0000.jp2&scale=0&rotate=0
p17
sS'cover_art'
p18
S'http://www.isfdb.org/wiki/images/e/e4/GALDEC1962.jpg'
p19
sS'author_name'
p20
VGalaxy Magazine
p21
sS'images_urls'
p22
(lp23
sS'authors'
p24
(lp25
I519
aI499
aI578
aI560
aI40
aI326
aI579
aI339
aI483
aI32
aI194
aI514
aI229
aI74
aI215
aI302
asS'images'
p26
(lp27
sS'id'
p28
I1093
sS'contents'
p29
(lp30
(dp31
S'title'
p32
VThe Creature From Cleveland Depths
p33
sS'author'
p34
I519
sa(dp35
g32
VThe Creature From Cleveland Depths [2]
p36
sg34
I519
sa(dp37
g32
VThe Creature From Cleveland Depths [3]
p38
sg34
I519
sa(dp39
g32
VDr. Morris Goldpepper Returns
p40
sg34
I499
sa(dp41
g32
VGeneral Max Shorter
p42
sg34
I578
sa(dp43
g32
VSodom and Gomorrah, Texas
p44
sg34
I560
sa(dp45
g32
VPlague of Pythons (Part 2 of 2)
p46
sg34
I560
sa(dp47
g32
VPlague of Pythons (Part 2 of 2) [2]
p48
sg34
I560
sa(dp49
g32
VPlague of Pythons (Part 2 of 2) [3]
p50
sg34
I560
sa(dp51
g32
VPlague of Pythons (Part 2 of 2) [4]
p52
sg34
I560
sa(dp53
g32
VOpportunity Knocked - but No One Was Home
p54
sg34
I40
sa(dp55
g32
VForecast (Galaxy, December 1962)
p56
sg34
I326
sa(dp57
g32
VPluto, Doorway to the Stars
p58
sg34
I579
sa(dp59
g32
VFor Your Information: Are We Going to Build a Space Station?
p60
sg34
I339
sa(dp61
g32
VGalaxy's 5 Star Shelf (Galaxy, December 1962)
p62
sg34
I483
sa(dp63
g32
VThe Creature From Cleveland Depths
p64
sg34
I32
sa(dp65
g32
VGeneral Max Shorter
p66
sg34
I194
sa(dp67
g32
VPlague of Pythons (Part 2 of 2)
p68
sg34
I40
sa(dp69
g32
VDr. Morris Goldpepper Returns
p70
sg34
I514
sa(dp71
g32
VDroozle
p72
sg34
I229
sa(dp73
g32
VSodom and Gomorrah, Texas
p74
sg34
I74
sa(dp75
g32
VThe Glory of Ippling
p76
sg34
I215
sasb.