ccopy_reg
_reconstructor
p0
(cdataset.Book
Book
p1
c__builtin__
object
p2
Ntp3
Rp4
(dp5
S'content_name'
p6
V42209.txt.utf-8
p7
sS'isbn'
p8
V0448145804
p9
sS'year'
p10
I1976
sS'author_name'
p11
VRobert E. Howard
p12
sS'images_urls'
p13
(lp14
Vhttp://www.gutenberg.org/files/42209/42209-h/images/cover.jpg
p15
asS'language_code'
p16
NsS'images'
p17
(lp18
sS'id'
p19
I119
sS'category'
p20
VText
p21
sS'genres'
p22
(lp23
sS'copyright'
p24
VPublic domain in the USA.
p25
sS'title'
p26
VThe Devil in Iron
p27
sS'wikipedia'
p28
(dp29
S'url'
p30
Vhttps://en.wikipedia.org/wiki/The_Devil_in_Iron_(collection)
p31
sS'found'
p32
I01
sS'year'
p33
I-1
ssS'published_in'
p34
NsS'average_rating'
p35
F3.51
sS'rating_count'
p36
I126
sS'content_available'
p37
I01
sS'cover_art_url'
p38
S'http://www.gutenberg.org/cache/epub/42209/pg42209.cover.medium.jpg'
p39
sS'goodreads'
p40
(dp41
g30
Vhttps://www.goodreads.com/book/show/6052585-the-devil-in-iron
p42
sg32
I01
sg33
I1976
ssS'similar_books'
p43
(lp44
sS'description'
p45
NsS'format'
p46
VHardcover
p47
sS'gutenberg'
p48
(dp49
g30
Vhttp://www.gutenberg.org/ebooks/42209
p50
sS'num'
p51
I42209
ssS'authors'
p52
(lp53
I22
asS'pages'
p54
I153
sS'isbn13'
p55
V9780448145808
p56
sS'language'
p57
VEnglish
p58
sS'release_date'
p59
S'2013-02-26T00:00:00'
p60
sS'author'
p61
I22
sS'original_title'
p62
VThe Devil in Iron (collection)
p63
sS'summary'
p64
VThe Devil in Iron is a 1976 collection of two fantasy short stories written by Robert E. Howard featuring his sword and sorcery hero Conan the Barbarian. The book was published in 1976 by Donald M. Grant, Publisher, Inc. as volume V of their deluxe Conan set. The stories both originally appeared in the magazine Weird Tales.
p65
sS'content_cleaned'
p66
I01
sS'classes'
p67
(lp68
Vfantasy
p69
aVto-read
p70
aVshort-stories
p71
aVconan
p72
aVadventure
p73
aVfiction
p74
aVsword-and-sorcery
p75
aVclassics
p76
aVpulp
p77
aVhorror
p78
aVrobert-e-howard
p79
aVshort-story
p80
aVpublic-domain
p81
aVebooks
p82
aVshort
p83
aVclassic
p84
aVlibrivox
p85
aVebook
p86
aVjunk
p87
aVsci-fi-horror-fantasy
p88
aVto-read-ebook
p89
aV01-classic-fantasy
p90
aVread-2017
p91
aVtest
p92
aVkindle
p93
aVgutenberg
p94
aVdigital
p95
aVamerican
p96
aVseries
p97
aVfree-ebooks
p98
aVowned
p99
aVpulpy-sci-fi-club
p100
aVhyborian-age
p101
aVpathfinder-recommendations
p102
aVfor-reference
p103
aVsword-sorcery
p104
aVsword-amp-sorcery
p105
aVpulp-fiction
p106
aVmythic-warrior
p107
aVmagic
p108
aVgraphic-novel
p109
aVfantasy-masterworks
p110
aVon-calibre
p111
aVz_fiction
p112
aVx_shortstory
p113
aVw_us_federal
p114
aVread-in-2016
p115
aVs-s-conan
p116
aVthriller
p117
aVdark-fantasy
p118
aVaction
p119
aVaudio
p120
aVhyborean-age
p121
aVread-this
p122
aVmonsters
p123
aVfeedbooks-com
p124
aVfinished
p125
aVbought
p126
aVto-read-fantasy
p127
aV1930s
p128
aVauthor-robert-e-howard
p129
aVaudiobooks
p130
aVscience-fic-fantasy
p131
aVfantasy-epic
p132
aVmy-e-books
p133
aVsci-fi-fantasy
p134
aVadventure-pulp-fiction
p135
aVe-book
p136
asS'loc_class'
p137
VPS: Language and Literatures: American and Canadian literature
p138
sS'n_authors'
p139
I1
sb.