ccopy_reg
_reconstructor
p0
(cdataset.Book
Book
p1
c__builtin__
object
p2
Ntp3
Rp4
(dp5
S'content_name'
p6
V32272.txt.utf-8
p7
sS'isbn'
p8
NsS'year'
p9
I1959
sS'author_name'
p10
VJesse F. Bone
p11
sS'images_urls'
p12
(lp13
Vhttp://www.gutenberg.org/files/32272/32272-h/images/cover.jpg
p14
aVhttp://www.gutenberg.org/files/32272/32272-h/images/illus1.jpg
p15
aVhttp://www.gutenberg.org/files/32272/32272-h/images/illus2.jpg
p16
aVhttp://www.gutenberg.org/files/32272/32272-h/images/illus3.jpg
p17
aVhttp://www.gutenberg.org/files/32272/32272-h/images/illus4.jpg
p18
asS'language_code'
p19
Veng
p20
sS'images'
p21
(lp22
sS'id'
p23
I532
sS'category'
p24
VText
p25
sS'genres'
p26
(lp27
sS'copyright'
p28
VPublic domain in the USA.
p29
sS'title'
p30
VInsidekick
p31
sS'wikipedia'
p32
(dp33
S'found'
p34
I00
ssS'average_rating'
p35
F3.56
sS'rating_count'
p36
I8
sS'content_available'
p37
I01
sS'cover_art_url'
p38
S'http://www.gutenberg.org/cache/epub/32272/pg32272.cover.medium.jpg'
p39
sS'goodreads'
p40
(dp41
S'url'
p42
Vhttps://www.goodreads.com/book/show/18130180-insidekick
p43
sg34
I01
sS'year'
p44
I2011
ssS'similar_books'
p45
(lp46
sS'description'
p47
VThis book was converted from it physical edition to the digital format by a team of volunteers. You may find it free on the web. Purchase of the Kindle edition includes wireless delivery.
p48
sS'format'
p49
VKindle Edition
p50
sS'gutenberg'
p51
(dp52
g42
Vhttp://www.gutenberg.org/ebooks/32272
p53
sS'num'
p54
I32272
ssS'authors'
p55
(lp56
I68
asS'isbn13'
p57
NsS'language'
p58
VEnglish
p59
sS'countries'
p60
(lp61
I2
asS'release_date'
p62
S'2010-05-06T00:00:00'
p63
sS'author'
p64
I68
sS'content_cleaned'
p65
I01
sS'classes'
p66
(lp67
Vto-read
p68
aVcurrently-reading
p69
aV21st-century-lit
p70
aVsci-fi
p71
aVe-books
p72
asS'loc_class'
p73
VPS: Language and Literatures: American and Canadian literature
p74
sS'n_authors'
p75
I1
sb.