ccopy_reg
_reconstructor
p0
(cdataset.Book
Book
p1
c__builtin__
object
p2
Ntp3
Rp4
(dp5
S'content_name'
p6
V28437.txt.utf-8
p7
sS'isbn'
p8
NsS'year'
p9
I2009
sS'author_name'
p10
VAllan Howard
p11
sS'images_urls'
p12
(lp13
sS'language_code'
p14
Veng
p15
sS'images'
p16
(lp17
sS'id'
p18
I840
sS'category'
p19
VText
p20
sS'genres'
p21
(lp22
sS'copyright'
p23
VPublic domain in the USA.
p24
sS'title'
p25
VIt's a Small Solar System
p26
sS'wikipedia'
p27
(dp28
S'found'
p29
I00
ssS'average_rating'
p30
F2.74
sS'rating_count'
p31
I11
sS'content_available'
p32
I01
sS'goodreads'
p33
(dp34
S'url'
p35
Vhttps://www.goodreads.com/book/show/9749568-it-s-a-small-solar-system
p36
sg29
I01
sS'year'
p37
I2009
ssS'similar_books'
p38
(lp39
sS'description'
p40
NsS'format'
p41
NsS'gutenberg'
p42
(dp43
g35
Vhttp://www.gutenberg.org/ebooks/28437
p44
sS'num'
p45
I28437
ssS'authors'
p46
(lp47
I264
asS'isbn13'
p48
NsS'language'
p49
VEnglish
p50
sS'release_date'
p51
S'2009-03-29T00:00:00'
p52
sS'author'
p53
I264
sS'content_cleaned'
p54
I01
sS'classes'
p55
(lp56
Vscience-fiction
p57
aVaudiobooks
p58
aVshort-story
p59
aV14
p60
aVsci-fi
p61
aVtype-short-story
p62
asS'loc_class'
p63
VPS: Language and Literatures: American and Canadian literature
p64
sS'n_authors'
p65
I1
sb.