ccopy_reg
_reconstructor
p0
(cdataset.Book
Book
p1
c__builtin__
object
p2
Ntp3
Rp4
(dp5
S'content_name'
p6
V25627.txt.utf-8
p7
sS'isbn'
p8
NsS'year'
p9
I2009
sS'author_name'
p10
VRobert Silverberg
p11
sS'images_urls'
p12
(lp13
Vhttp://www.gutenberg.org/files/25627/25627-h/images/001.png
p14
aVhttp://www.gutenberg.org/files/25627/25627-page-images/p064.png
p15
aVhttp://www.gutenberg.org/files/25627/25627-page-images/p065-image.png
p16
aVhttp://www.gutenberg.org/files/25627/25627-page-images/p065.png
p17
aVhttp://www.gutenberg.org/files/25627/25627-page-images/p066.png
p18
aVhttp://www.gutenberg.org/files/25627/25627-page-images/p067.png
p19
aVhttp://www.gutenberg.org/files/25627/25627-page-images/p068.png
p20
aVhttp://www.gutenberg.org/files/25627/25627-page-images/p069.png
p21
aVhttp://www.gutenberg.org/files/25627/25627-page-images/p070.png
p22
aVhttp://www.gutenberg.org/files/25627/25627-page-images/p071.png
p23
aVhttp://www.gutenberg.org/files/25627/25627-page-images/p072.png
p24
aVhttp://www.gutenberg.org/files/25627/25627-page-images/p073.png
p25
aVhttp://www.gutenberg.org/files/25627/25627-page-images/p074.png
p26
aVhttp://www.gutenberg.org/files/25627/25627-page-images/p075.png
p27
aVhttp://www.gutenberg.org/files/25627/25627-page-images/p076.png
p28
aVhttp://www.gutenberg.org/files/25627/25627-page-images/p077.png
p29
asS'language_code'
p30
Veng
p31
sS'images'
p32
(lp33
sS'id'
p34
I443
sS'category'
p35
VText
p36
sS'plot'
p37
V
p38
sS'genres'
p39
(lp40
sS'copyright'
p41
VPublic domain in the USA.
p42
sS'title'
p43
VThe Hunted Heroes
p44
sS'wikipedia'
p45
(dp46
S'url'
p47
Vhttps://en.wikipedia.org/wiki/The_Great_Hunt
p48
sS'found'
p49
I01
sS'year'
p50
I-1
ssS'published_in'
p51
NsS'average_rating'
p52
F2.93
sS'rating_count'
p53
I23
sS'content_available'
p54
I01
sS'goodreads'
p55
(dp56
g47
Vhttps://www.goodreads.com/book/show/8708880-the-hunted-heroes
p57
sg49
I01
sg50
I2009
ssS'similar_books'
p58
(lp59
sS'description'
p60
NsS'format'
p61
NsS'gutenberg'
p62
(dp63
g47
Vhttp://www.gutenberg.org/ebooks/25627
p64
sS'num'
p65
I25627
ssS'authors'
p66
(lp67
I50
asS'isbn13'
p68
NsS'language'
p69
VEnglish
p70
sS'release_date'
p71
S'2008-05-27T00:00:00'
p72
sS'author'
p73
I50
sS'original_title'
p74
VThe Great Hunt
p75
sS'summary'
p76
VThe Great Hunt is the second book of The Wheel of Time fantasy series written by American author Robert Jordan. It was published by Tor Books and released on November 15, 1990. The Great Hunt consists of a prologue and 50 chapters. In 2004 The Great Hunt was re-released as two separate books, The Hunt Begins and New Threads in the Pattern.\u000aThe story features young heroes Rand al'Thor, Mat Cauthon, and Perrin Aybara, who join Shienaren soldiers in a quest to retrieve the Horn of Valere. At the same time, Egwene al'Vere, Nynaeve al'Meara, and Elayne Trakand go to the White Tower in Tar Valon to learn Aes Sedai ways. Finally, an exotic army invades the western coast.
p77
sS'content_cleaned'
p78
I01
sS'classes'
p79
(lp80
Vto-read
p81
aVscience-fiction
p82
aVjunk
p83
aVown-unread
p84
aVunread-owned
p85
aV21st-century-lit
p86
aVshort-ebooks
p87
aVcurrently-reading
p88
aVowned-pending-kindle-free-ebook
p89
aVkindle-free-ebook
p90
aVz_fiction
p91
aVx_shortstory
p92
aVwo_scifi
p93
aVw_us_unitary
p94
aVsci-fi
p95
aVshould-try-to-read
p96
aVshort-story
p97
aVebooks
p98
aVon-kobo
p99
aVz
p100
aVto-read-short
p101
aVepub
p102
aVe-book
p103
aVspeculative-fiction
p104
aVe-reader
p105
aVtype-short-story
p106
asS'loc_class'
p107
VPS: Language and Literatures: American and Canadian literature
p108
sS'n_authors'
p109
I1
sb.