ccopy_reg
_reconstructor
p0
(cdataset.Book
Book
p1
c__builtin__
object
p2
Ntp3
Rp4
(dp5
S'content_name'
p6
V26761.txt.utf-8
p7
sS'isbn'
p8
NsS'year'
p9
I1963
sS'author_name'
p10
VAlbert Teichner
p11
sS'images_urls'
p12
(lp13
Vhttp://www.gutenberg.org/files/26761/26761-h/images/001.png
p14
aVhttp://www.gutenberg.org/files/26761/26761-h/images/002-1.jpg
p15
aVhttp://www.gutenberg.org/files/26761/26761-h/images/002-2.jpg
p16
aVhttp://www.gutenberg.org/files/26761/26761-page-images/c0001-image1.jpg
p17
aVhttp://www.gutenberg.org/files/26761/26761-page-images/p0006-image1.png
p18
aVhttp://www.gutenberg.org/files/26761/26761-page-images/p0006.png
p19
aVhttp://www.gutenberg.org/files/26761/26761-page-images/p0007-image1.png
p20
aVhttp://www.gutenberg.org/files/26761/26761-page-images/p0007.png
p21
aVhttp://www.gutenberg.org/files/26761/26761-page-images/p0008.png
p22
aVhttp://www.gutenberg.org/files/26761/26761-page-images/p0009.png
p23
aVhttp://www.gutenberg.org/files/26761/26761-page-images/p0010.png
p24
aVhttp://www.gutenberg.org/files/26761/26761-page-images/p0011.png
p25
aVhttp://www.gutenberg.org/files/26761/26761-page-images/p0012.png
p26
aVhttp://www.gutenberg.org/files/26761/26761-page-images/p0013.png
p27
aVhttp://www.gutenberg.org/files/26761/26761-page-images/p0014.png
p28
aVhttp://www.gutenberg.org/files/26761/26761-page-images/p0015.png
p29
aVhttp://www.gutenberg.org/files/26761/26761-page-images/p0016.png
p30
aVhttp://www.gutenberg.org/files/26761/26761-page-images/p0017.png
p31
aVhttp://www.gutenberg.org/files/26761/26761-page-images/p0018.png
p32
aVhttp://www.gutenberg.org/files/26761/26761-page-images/p0019.png
p33
aVhttp://www.gutenberg.org/files/26761/26761-page-images/p0020.png
p34
aVhttp://www.gutenberg.org/files/26761/26761-page-images/p0021.png
p35
aVhttp://www.gutenberg.org/files/26761/26761-page-images/p0022.png
p36
aVhttp://www.gutenberg.org/files/26761/26761-page-images/p0023.png
p37
asS'language_code'
p38
Veng
p39
sS'images'
p40
(lp41
sS'id'
p42
I863
sS'category'
p43
VText
p44
sS'genres'
p45
(lp46
sS'copyright'
p47
VPublic domain in the USA.
p48
sS'title'
p49
VCerebrum
p50
sS'wikipedia'
p51
(dp52
S'found'
p53
I00
ssS'average_rating'
p54
F3.27
sS'rating_count'
p55
I7
sS'content_available'
p56
I01
sS'goodreads'
p57
(dp58
S'url'
p59
Vhttps://www.goodreads.com/book/show/18110826-cerebrum
p60
sg53
I01
sS'year'
p61
I1963
ssS'similar_books'
p62
(lp63
sS'description'
p64
VFor thousands of years the big brain served as a master<br />switchboard for the thoughts and emotions of humanity. Now the<br />central mind was showing signs of decay ... and men went mad.
p65
sS'format'
p66
Vebook
p67
sS'gutenberg'
p68
(dp69
g59
Vhttp://www.gutenberg.org/ebooks/26761
p70
sS'num'
p71
I26761
ssS'authors'
p72
(lp73
I267
asS'pages'
p74
I17
sS'isbn13'
p75
NsS'language'
p76
VEnglish
p77
sS'countries'
p78
(lp79
I3
asS'release_date'
p80
S'2008-10-03T00:00:00'
p81
sS'author'
p82
I267
sS'content_cleaned'
p83
I01
sS'classes'
p84
(lp85
Vto-read
p86
aVsci-fi
p87
aVshort-story
p88
aVaudio-obtained
p89
aV14
p90
aVscience-fiction
p91
aVshort-stories
p92
aVebook
p93
aVdystopia
p94
aVtype-short-story
p95
aVaudio-obtained-ss
p96
asS'loc_class'
p97
VPS: Language and Literatures: American and Canadian literature
p98
sS'n_authors'
p99
I1
sb.