ccopy_reg
_reconstructor
p0
(cdataset.Book
Book
p1
c__builtin__
object
p2
Ntp3
Rp4
(dp5
S'content_name'
p6
V30437.txt.utf-8
p7
sS'isbn'
p8
NsS'year'
p9
I2010
sS'author_name'
p10
VGerald Vance
p11
sS'images_urls'
p12
(lp13
Vhttp://www.gutenberg.org/files/30437/30437-h/images/001.png
p14
aVhttp://www.gutenberg.org/files/30437/30437-h/images/002-1.jpg
p15
aVhttp://www.gutenberg.org/files/30437/30437-h/images/002-2.jpg
p16
asS'language_code'
p17
NsS'images'
p18
(lp19
sS'id'
p20
I622
sS'category'
p21
VText
p22
sS'genres'
p23
(lp24
sS'copyright'
p25
VPublic domain in the USA.
p26
sS'title'
p27
VLarson's Luck
p28
sS'wikipedia'
p29
(dp30
S'found'
p31
I00
ssS'average_rating'
p32
F3.5
sS'rating_count'
p33
I5
sS'content_available'
p34
I01
sS'goodreads'
p35
(dp36
S'url'
p37
Vhttps://www.goodreads.com/book/show/8708970-larson-s-luck
p38
sg31
I01
sS'year'
p39
I2010
ssS'similar_books'
p40
(lp41
sS'description'
p42
NsS'format'
p43
NsS'gutenberg'
p44
(dp45
g37
Vhttp://www.gutenberg.org/ebooks/30437
p46
sS'num'
p47
I30437
ssS'authors'
p48
(lp49
I185
asS'isbn13'
p50
NsS'language'
p51
VEnglish
p52
sS'country'
p53
I3
sS'release_date'
p54
S'2009-11-09T00:00:00'
p55
sS'author'
p56
I185
sS'content_cleaned'
p57
I01
sS'classes'
p58
(lp59
Vscience-fiction
p60
aV15
p61
aVto-read
p62
asS'loc_class'
p63
VPS: Language and Literatures: American and Canadian literature
p64
sS'n_authors'
p65
I1
sb.