ccopy_reg
_reconstructor
p0
(cdataset.Book
Book
p1
c__builtin__
object
p2
Ntp3
Rp4
(dp5
S'similar_books'
p6
(lp7
sS'genres'
p8
(lp9
sS'author'
p10
I302
sS'countries'
p11
(lp12
I2
asS'year'
p13
I1975
sS'title'
p14
VGalaxy Magazine October 1975
p15
sS'cover'
p16
Vhttps://ia600204.us.archive.org/BookReader/BookReaderImages.php?zip=/22/items/Galaxy_v36n09_1975-10/Galaxy_v36n09_1975-10_jp2.zip&file=Galaxy_v36n09_1975-10_jp2/Galaxy_v36n09_1975-10_0000.jp2&scale=0&rotate=0
p17
sS'cover_art'
p18
S'http://www.isfdb.org/wiki/images/b/be/GALOCT75.jpg'
p19
sS'author_name'
p20
VGalaxy Magazine
p21
sS'images_urls'
p22
(lp23
sS'authors'
p24
(lp25
I744
aI763
aI753
aI326
aI764
aI305
aI734
aI767
aI770
aI728
aI755
aI765
aI604
aI766
aI791
aI792
aI302
asS'images'
p26
(lp27
sS'id'
p28
I1188
sS'contents'
p29
(lp30
(dp31
g10
I744
sg14
VThe Experimenter
p32
sa(dp33
g10
I744
sg14
VThe Experimenter [2]
p34
sa(dp35
g10
I744
sg14
VThe End Result
p36
sa(dp37
g10
I744
sg14
VBut Loyal to His Own
p38
sa(dp39
g10
I744
sg14
VBut Loyal to His Own [2]
p40
sa(dp41
g10
I763
sg14
VInferno (Part 3 of 3)
p42
sa(dp43
g10
I763
sg14
VInferno (Part 3 of 3) [2]
p44
sa(dp45
g10
I763
sg14
VInferno (Part 3 of 3) [3]
p46
sa(dp47
g10
I763
sg14
VInferno (Part 3 of 3) [4]
p48
sa(dp49
g10
I753
sg14
VHelbent 4
p50
sa(dp51
g10
I326
sg14
VNo Mother Near
p52
sa(dp53
g10
I753
sg14
VCrusade
p54
sa(dp55
g10
I744
sg14
VShowcase: Harlequin Nova
p56
sa(dp57
g10
I764
sg14
VAd Astra Per ...
p58
sa(dp59
g10
I305
sg14
VForum: Looking Aft
p60
sa(dp61
g10
I734
sg14
VIn the Beginning
p62
sa(dp63
g10
I326
sg14
VS. F. Calendar (Galaxy, October 1975)
p64
sa(dp65
g10
I767
sg14
VThe Alien Viewpoint (Galaxy, October 1975)
p66
sa(dp67
g10
I770
sg14
VBookshelf (Galaxy, October 1975)
p68
sa(dp69
g10
I326
sg14
VDirections (Galaxy, October 1975)
p70
sa(dp71
g10
I728
sg14
VThe Experimenter
p72
sa(dp73
g10
I755
sg14
VBut Loyal to His Own
p74
sa(dp75
g10
I765
sg14
VHelbent 4
p76
sa(dp77
g10
I604
sg14
VInferno (Part 3 of 3)
p78
sa(dp79
g10
I766
sg14
VThe End Result
p80
sa(dp81
g10
I791
sg14
VNo Mother Near
p82
sa(dp83
g10
I792
sg14
VCrusade
p84
sasb.