ccopy_reg
_reconstructor
p0
(cdataset.Book
Book
p1
c__builtin__
object
p2
Ntp3
Rp4
(dp5
S'content_name'
p6
V30679.txt.utf-8
p7
sS'isbn'
p8
NsS'year'
p9
I2010
sS'author_name'
p10
VJohn Berryman
p11
sS'images_urls'
p12
(lp13
Vhttp://www.gutenberg.org/files/30679/30679-h/images/image_001.jpg
p14
aVhttp://www.gutenberg.org/files/30679/30679-h/images/image_002.jpg
p15
aVhttp://www.gutenberg.org/files/30679/30679-h/images/image_003.jpg
p16
aVhttp://www.gutenberg.org/files/30679/30679-h/images/image_004.jpg
p17
aVhttp://www.gutenberg.org/files/30679/30679-h/images/image_005.jpg
p18
aVhttp://www.gutenberg.org/files/30679/30679-h/images/image_006.jpg
p19
aVhttp://www.gutenberg.org/files/30679/30679-h/images/image_d.jpg
p20
asS'language_code'
p21
Veng
p22
sS'images'
p23
(lp24
sS'id'
p25
I299
sS'category'
p26
VText
p27
sS'genres'
p28
(lp29
sS'copyright'
p30
VPublic domain in the USA.
p31
sS'title'
p32
VThe Trouble with Telstar
p33
sS'wikipedia'
p34
(dp35
S'found'
p36
I00
ssS'average_rating'
p37
F4.0
sS'rating_count'
p38
I2
sS'content_available'
p39
I01
sS'goodreads'
p40
(dp41
S'url'
p42
Vhttps://www.goodreads.com/book/show/21520191-the-trouble-with-telstar
p43
sg36
I01
sS'year'
p44
I2010
ssS'similar_books'
p45
(lp46
sS'description'
p47
VThe real trouble with communications satellites is the enormous difficulty of repairing even the simplest little trouble. You need such a loooong screwdriver.
p48
sS'format'
p49
NsS'gutenberg'
p50
(dp51
g42
Vhttp://www.gutenberg.org/ebooks/30679
p52
sS'num'
p53
I30679
ssS'authors'
p54
(lp55
I78
asS'isbn13'
p56
NsS'language'
p57
VEnglish
p58
sS'country'
p59
I3
sS'release_date'
p60
S'2009-12-14T00:00:00'
p61
sS'author'
p62
I78
sS'content_cleaned'
p63
I01
sS'classes'
p64
(lp65
Vto-read
p66
aV21st-century-lit
p67
aVowned
p68
aVkindle
p69
asS'loc_class'
p70
VPS: Language and Literatures: American and Canadian literature
p71
sS'n_authors'
p72
I1
sb.