ccopy_reg
_reconstructor
p0
(cdataset.Book
Book
p1
c__builtin__
object
p2
Ntp3
Rp4
(dp5
S'similar_books'
p6
(lp7
sS'genres'
p8
(lp9
sS'author'
p10
I918
sS'countries'
p11
(lp12
I2
asS'year'
p13
I1954
sS'title'
p14
VIF Magazine July 1954
p15
sS'cover'
p16
Vhttps://ia601309.us.archive.org/BookReader/BookReaderImages.php?zip=/31/items/1954-07_IF/1954-07_IF_jp2.zip&file=1954-07_IF_jp2/1954-07_IF_0000.jp2&scale=0&rotate=0
p17
sS'cover_art'
p18
S'http://www.isfdb.org/wiki/images/6/62/WOFIFJUL1954.jpg'
p19
sS'author_name'
p20
VIF Magazine
p21
sS'images_urls'
p22
(lp23
sS'authors'
p24
(lp25
I951
aI956
aI363
aI984
aI412
aI948
aI326
aI985
aI55
aI153
aI986
aI161
aI987
aI631
aI88
aI434
aI918
asS'images'
p26
(lp27
sS'id'
p28
I1234
sS'contents'
p29
(lp30
(dp31
g10
I951
sg14
VMeteor Hazards On the Moon
p32
sa(dp33
g10
I956
sg14
VThe Thing in the Attic
p34
sa(dp35
g10
I363
sg14
VBeauty and the Beast
p36
sa(dp37
g10
I363
sg14
VThe Small World of M-75
p38
sa(dp39
g10
I984
sg14
VCartoon: No Caption
p40
sa(dp41
g10
I956
sg14
VA Monster Named Smith
p42
sa(dp43
g10
I412
sg14
VLonesome Hearts
p44
sa(dp45
g10
I956
sg14
VFair and Warmer
p46
sa(dp47
g10
I956
sg14
VHas Anybody Here Seen Kelly?
p48
sa(dp49
g10
I363
sg14
VThe Big Stink
p50
sa(dp51
g10
I951
sg14
VMoonquakes
p52
sa(dp53
g10
I948
sg14
VA Chat with the Editor (If, July 1954)
p54
sa(dp55
g10
I326
sg14
VWorth Citing (If, July 1954)
p56
sa(dp57
g10
I985
sg14
VBreaking the Time Barrier
p58
sa(dp59
g10
I326
sg14
VWhat Is Your Science I. Q.? (If, July 1954)
p60
sa(dp61
g10
I326
sg14
VScience Briefs (If, July 1954)
p62
sa(dp63
g10
I55
sg14
VThe Thing in the Attic
p64
sa(dp65
g10
I153
sg14
VBeauty and the Beast
p66
sa(dp67
g10
I986
sg14
VThe Small World of M-75
p68
sa(dp69
g10
I161
sg14
VA Monster Named Smith
p70
sa(dp71
g10
I987
sg14
VLonesome Hearts
p72
sa(dp73
g10
I631
sg14
VFair and Warmer
p74
sa(dp75
g10
I88
sg14
VHas Anybody Here Seen Kelly?
p76
sa(dp77
g10
I434
sg14
VThe Big Stink
p78
sasb.