ccopy_reg
_reconstructor
p0
(cdataset.Book
Book
p1
c__builtin__
object
p2
Ntp3
Rp4
(dp5
S'content_name'
p6
V32154.txt.utf-8
p7
sS'isbn'
p8
NsS'year'
p9
I1953
sS'author_name'
p10
VPhilip K. Dick
p11
sS'images_urls'
p12
(lp13
Vhttp://www.gutenberg.org/files/32154/32154-h/images/cover.jpg
p14
aVhttp://www.gutenberg.org/files/32154/32154-h/images/illo1-left.jpg
p15
aVhttp://www.gutenberg.org/files/32154/32154-h/images/illo1-right.jpg
p16
aVhttp://www.gutenberg.org/files/32154/32154-h/images/illo1-small.jpg
p17
aVhttp://www.gutenberg.org/files/32154/32154-h/images/illo2-small.jpg
p18
aVhttp://www.gutenberg.org/files/32154/32154-h/images/illo2.jpg
p19
asS'language_code'
p20
Veng
p21
sS'images'
p22
(lp23
sS'id'
p24
I22
sS'category'
p25
VText
p26
sS'genres'
p27
(lp28
sS'copyright'
p29
VPublic domain in the USA.
p30
sS'title'
p31
VThe Variable Man
p32
sS'wikipedia'
p33
(dp34
S'url'
p35
Vhttps://en.wikipedia.org/wiki/The_Variable_Man_(collection)
p36
sS'found'
p37
I01
sS'year'
p38
I-1
ssS'published_in'
p39
NsS'average_rating'
p40
F3.76
sS'rating_count'
p41
I995
sS'content_available'
p42
I01
sS'cover_art_url'
p43
S'http://www.gutenberg.org/cache/epub/32154/pg32154.cover.medium.jpg'
p44
sS'goodreads'
p45
(dp46
g35
Vhttps://www.goodreads.com/book/show/8734881-the-variable-man
p47
sg37
I01
sg38
I1953
ssS'similar_books'
p48
(lp49
VYouth
p50
aVThe Pirates of Ersatz
p51
aVForbidden the Stars (The Interstellar Age, #1)
p52
aVEmpire
p53
aVAfter the Battle on Starship Hill: Prologue to The Children of the Sky
p54
aVChristmas in the Trenches
p55
aVThe Dreaming Jewels
p56
aVEven the Queen: & Other Short Stories
p57
aVPress Enter
p58
aVCitizen In Space
p59
aVTales of Space and Time
p60
aVApex Cypher (Techxorcist #0)
p61
aVThe Constitution of the United States with the Declaration of Independence and the Articles of Confederation
p62
aVWhite Collar Christmas
p63
aVThe U.S. Constitution: And Fascinating Facts about It
p64
aVThe Misplaced Battleship
p65
aVThe Unveiling
p66
aVThe Best and the Brightest
p67
asS'description'
p68
VPredictability has come a long way. The computers of the future can tell you if you\u2019re going to win a war before you fire a shot. Unfortunately they\u2019re predicting perpetual standoff between the Terran and Centaurian Empires. What they need is something unpredictable, what they get is Thomas Cole, a man from the past accidently dragged forward in time. Will he fit their calculations, or is he the random variable that can break the stalemate? \u2013 The Variable Man first appeared in the September, 1953 issue of Space Science Fiction magazine.<br /><br />Approx. 3 hours
p69
sS'format'
p70
VAudiobook
p71
sS'gutenberg'
p72
(dp73
g35
Vhttp://www.gutenberg.org/ebooks/32154
p74
sS'num'
p75
I32154
ssS'authors'
p76
(lp77
I8
asS'pages'
p78
I3
sS'isbn13'
p79
NsS'language'
p80
VEnglish
p81
sS'release_date'
p82
S'2010-04-27T00:00:00'
p83
sS'author'
p84
I8
sS'original_title'
p85
VThe Variable Man (collection)
p86
sS'summary'
p87
VThe Variable Man is a collection of science fiction stories by Philip K. Dick. It was first published by Ace Books in 1957. The stories had originally appeared in the magazines Space Science Fiction, Fantastic Universe and Galaxy Science Fiction\u000a\u000a
p88
sS'content_cleaned'
p89
I01
sS'classes'
p90
(lp91
Vto-read
p92
aVcurrently-reading
p93
aVscience-fiction
p94
aVkindle
p95
aVfiction
p96
aVshort-stories
p97
aVsci-fi
p98
aVebooks
p99
aVscifi
p100
aVphilip-k-dick
p101
aVaudiobook
p102
aVebook
p103
aVsf
p104
aVshort-story
p105
aVtime-travel
p106
aVsci-fi-fantasy
p107
aVe-book
p108
aVaudiobooks
p109
aVfavorites
p110
aVclassics
p111
aVowned
p112
aVaudio
p113
aVnovella
p114
aVlibrivox
p115
aVread-in-2015
p116
aVphillip-k-dick
p117
aVscifi-fantasy
p118
aVamazon
p119
aVe-books
p120
aV1950s
p121
aVspeculative-fiction
p122
aVscience-fiction-fantasy
p123
aVpkd
p124
aVbooks-i-own
p125
aVdystopia
p126
aVf-sf
p127
aVunread
p128
aVother
p129
aVowned-books
p130
aVsci-fi-classics
p131
aVbooks-owned
p132
aVmy-books
p133
aVnovellas
p134
aVown-it
p135
aVenglish
p136
aVebooks-i-own
p137
aVkindle-books
p138
aVpulp
p139
aVgot-for-free
p140
aVbooks-read
p141
aVclassic-american-literature
p142
aVwar
p143
aValiens
p144
aVfizic
p145
aV20th-century-lit
p146
aVdid-not-finish
p147
aVthe-shorts
p148
aVoldies-but-goodies
p149
aVdated-social-attitudes
p150
aVexperimenting
p151
aVroman
p152
aVbooks
p153
aVread-in-2017
p154
aVfuturism
p155
aVamerican
p156
aVphysics
p157
aVphilosophy
p158
aVbritta-runne-a-z-challenge-17
p159
aVread-2017
p160
aVpersonal-read
p161
aVaction
p162
aVmission-impossible-2017
p163
aVdick-philip
p164
aVamerican-literature-authors
p165
aVown-kindle
p166
aVto-read-short-stories
p167
aVshort-fiction
p168
aVnew
p169
aValdiko
p170
aVread-2016
p171
aVread-in-2016
p172
aVdigital-copy
p173
aVelectronic-library
p174
aVread-gutenberg
p175
aVto-read-low-priority
p176
aVexcess-kindle
p177
aVown-audiobook
p178
aVshelf
p179
aVshortstories
p180
aVon-kindle
p181
aVkindle-version
p182
aVfree-books
p183
aVfantasy
p184
aVfavourites
p185
aVg-authors
p186
aVlistened-to
p187
aVdigital-audio-combo
p188
aVin-my-library
p189
aVto-read-science-fiction
p190
aVp-k-dick
p191
asS'loc_class'
p192
VPS: Language and Literatures: American and Canadian literature
p193
sS'n_authors'
p194
I1
sb.