ccopy_reg
_reconstructor
p0
(cdataset.Book
Book
p1
c__builtin__
object
p2
Ntp3
Rp4
(dp5
S'content_name'
p6
V24189.txt.utf-8
p7
sS'isbn'
p8
V3655229259
p9
sS'year'
p10
I1963
sS'author_name'
p11
VDavid Mason
p12
sS'images_urls'
p13
(lp14
Vhttp://www.gutenberg.org/files/24189/24189-h/images/illus01.png
p15
aVhttp://www.gutenberg.org/files/24189/24189-h/images/illus02.png
p16
asS'language_code'
p17
NsS'images'
p18
(lp19
sS'id'
p20
I887
sS'category'
p21
VText
p22
sS'genres'
p23
(lp24
sS'copyright'
p25
VPublic domain in the USA.
p26
sS'title'
p27
VSomething Will Turn Up
p28
sS'wikipedia'
p29
(dp30
S'found'
p31
I00
ssS'average_rating'
p32
F2.45
sS'rating_count'
p33
I10
sS'content_available'
p34
I01
sS'goodreads'
p35
(dp36
S'url'
p37
Vhttps://www.goodreads.com/book/show/12656483-something-will-turn-up
p38
sg31
I01
sS'year'
p39
I2010
ssS'similar_books'
p40
(lp41
sS'description'
p42
NsS'gutenberg'
p43
(dp44
g37
Vhttp://www.gutenberg.org/ebooks/24189
p45
sS'num'
p46
I24189
ssS'authors'
p47
(lp48
I271
asS'isbn13'
p49
V9783655229255
p50
sS'language'
p51
VEnglish
p52
sS'countries'
p53
(lp54
I2
asS'release_date'
p55
S'2008-01-07T00:00:00'
p56
sS'author'
p57
I271
sS'content_cleaned'
p58
I01
sS'classes'
p59
(lp60
Vshort-story
p61
aVaudio-obtained-lvss
p62
aV15
p63
aVscience-fiction
p64
aVsci-fi
p65
aVtype-short-story
p66
aVaudio-obtained-ss
p67
asS'loc_class'
p68
VPS: Language and Literatures: American and Canadian literature
p69
sS'n_authors'
p70
I1
sb.