ccopy_reg
_reconstructor
p0
(cdataset.Book
Book
p1
c__builtin__
object
p2
Ntp3
Rp4
(dp5
S'content_name'
p6
V25024.txt.utf-8
p7
sS'isbn'
p8
V1604596651
p9
sS'year'
p10
I1960
sS'author_name'
p11
VFritz Leiber
p12
sS'images_urls'
p13
(lp14
Vhttp://www.gutenberg.org/files/25024/25024-h/images/001.png
p15
aVhttp://www.gutenberg.org/files/25024/25024-h/images/002-1.jpg
p16
aVhttp://www.gutenberg.org/files/25024/25024-h/images/002-2.jpg
p17
aVhttp://www.gutenberg.org/files/25024/25024-page-images/c0001.jpg
p18
aVhttp://www.gutenberg.org/files/25024/25024-page-images/p0076-image.png
p19
aVhttp://www.gutenberg.org/files/25024/25024-page-images/p0076.png
p20
aVhttp://www.gutenberg.org/files/25024/25024-page-images/p0077-image.png
p21
aVhttp://www.gutenberg.org/files/25024/25024-page-images/p0077.png
p22
aVhttp://www.gutenberg.org/files/25024/25024-page-images/p0078.png
p23
aVhttp://www.gutenberg.org/files/25024/25024-page-images/p0079.png
p24
aVhttp://www.gutenberg.org/files/25024/25024-page-images/p0080.png
p25
aVhttp://www.gutenberg.org/files/25024/25024-page-images/p0081.png
p26
aVhttp://www.gutenberg.org/files/25024/25024-page-images/p0082.png
p27
aVhttp://www.gutenberg.org/files/25024/25024-page-images/p0083.png
p28
aVhttp://www.gutenberg.org/files/25024/25024-page-images/p0084.png
p29
aVhttp://www.gutenberg.org/files/25024/25024-page-images/p0085.png
p30
aVhttp://www.gutenberg.org/files/25024/25024-page-images/p0086.png
p31
aVhttp://www.gutenberg.org/files/25024/25024-page-images/p0087.png
p32
aVhttp://www.gutenberg.org/files/25024/25024-page-images/p0088.png
p33
aVhttp://www.gutenberg.org/files/25024/25024-page-images/p0089.png
p34
aVhttp://www.gutenberg.org/files/25024/25024-page-images/p0090.png
p35
aVhttp://www.gutenberg.org/files/25024/25024-page-images/p0091.png
p36
aVhttp://www.gutenberg.org/files/25024/25024-page-images/p0092.png
p37
aVhttp://www.gutenberg.org/files/25024/25024-page-images/p0093.png
p38
aVhttp://www.gutenberg.org/files/25024/25024-page-images/p0094.png
p39
aVhttp://www.gutenberg.org/files/25024/25024-page-images/p0095.png
p40
aVhttp://www.gutenberg.org/files/25024/25024-page-images/p0096.png
p41
aVhttp://www.gutenberg.org/files/25024/25024-page-images/p0097.png
p42
aVhttp://www.gutenberg.org/files/25024/25024-page-images/p0098.png
p43
aVhttp://www.gutenberg.org/files/25024/25024-page-images/p0099.png
p44
aVhttp://www.gutenberg.org/files/25024/25024-page-images/p0100.png
p45
aVhttp://www.gutenberg.org/files/25024/25024-page-images/p0101.png
p46
aVhttp://www.gutenberg.org/files/25024/25024-page-images/p0102.png
p47
aVhttp://www.gutenberg.org/files/25024/25024-page-images/p0103.png
p48
aVhttp://www.gutenberg.org/files/25024/25024-page-images/p0104.png
p49
aVhttp://www.gutenberg.org/files/25024/25024-page-images/p0105.png
p50
aVhttp://www.gutenberg.org/files/25024/25024-page-images/p0106.png
p51
aVhttp://www.gutenberg.org/files/25024/25024-page-images/p0107.png
p52
aVhttp://www.gutenberg.org/files/25024/25024-page-images/p0108.png
p53
aVhttp://www.gutenberg.org/files/25024/25024-page-images/p0109.png
p54
aVhttp://www.gutenberg.org/files/25024/25024-page-images/p0110.png
p55
aVhttp://www.gutenberg.org/files/25024/25024-page-images/p0111.png
p56
aVhttp://www.gutenberg.org/files/25024/25024-page-images/p0112.png
p57
aVhttp://www.gutenberg.org/files/25024/25024-page-images/p0113.png
p58
aVhttp://www.gutenberg.org/files/25024/25024-page-images/p0114.png
p59
aVhttp://www.gutenberg.org/files/25024/25024-page-images/p0115.png
p60
aVhttp://www.gutenberg.org/files/25024/25024-page-images/p0116.png
p61
aVhttp://www.gutenberg.org/files/25024/25024-page-images/p0117.png
p62
aVhttp://www.gutenberg.org/files/25024/25024-page-images/p0118.png
p63
aVhttp://www.gutenberg.org/files/25024/25024-page-images/p0119.png
p64
aVhttp://www.gutenberg.org/files/25024/25024-page-images/p0120.png
p65
aVhttp://www.gutenberg.org/files/25024/25024-page-images/p0121.png
p66
aVhttp://www.gutenberg.org/files/25024/25024-page-images/p0122.png
p67
aVhttp://www.gutenberg.org/files/25024/25024-page-images/p0123.png
p68
aVhttp://www.gutenberg.org/files/25024/25024-page-images/p0124.png
p69
aVhttp://www.gutenberg.org/files/25024/25024-page-images/p0125.png
p70
aVhttp://www.gutenberg.org/files/25024/25024-page-images/p0126.png
p71
aVhttp://www.gutenberg.org/files/25024/25024-page-images/p0127.png
p72
aVhttp://www.gutenberg.org/files/25024/25024-page-images/p0128.png
p73
aVhttp://www.gutenberg.org/files/25024/25024-page-images/p0129.png
p74
aVhttp://www.gutenberg.org/files/25024/25024-page-images/p0130.png
p75
aVhttp://www.gutenberg.org/files/25024/25024-page-images/p0131.png
p76
aVhttp://www.gutenberg.org/files/25024/25024-page-images/p0132.png
p77
aVhttp://www.gutenberg.org/files/25024/25024-page-images/p0133.png
p78
aVhttp://www.gutenberg.org/files/25024/25024-page-images/p0134.png
p79
aVhttp://www.gutenberg.org/files/25024/25024-page-images/p0135.png
p80
aVhttp://www.gutenberg.org/files/25024/25024-page-images/p0136.png
p81
aVhttp://www.gutenberg.org/files/25024/25024-page-images/p0137.png
p82
aVhttp://www.gutenberg.org/files/25024/25024-page-images/p0138.png
p83
aVhttp://www.gutenberg.org/files/25024/25024-page-images/p0139.png
p84
aVhttp://www.gutenberg.org/files/25024/25024-page-images/p0140.png
p85
aVhttp://www.gutenberg.org/files/25024/25024-page-images/p0141.png
p86
aVhttp://www.gutenberg.org/files/25024/25024-page-images/p0142.png
p87
aVhttp://www.gutenberg.org/files/25024/25024-page-images/p0143.png
p88
aVhttp://www.gutenberg.org/files/25024/25024-page-images/p0144.png
p89
asS'language_code'
p90
NsS'images'
p91
(lp92
sS'id'
p93
I218
sS'category'
p94
VText
p95
sS'genres'
p96
(lp97
sS'copyright'
p98
VPublic domain in the USA.
p99
sS'title'
p100
VThe Night of the Long Knives
p101
sS'wikipedia'
p102
(dp103
S'found'
p104
I00
ssS'average_rating'
p105
F3.61
sS'rating_count'
p106
I195
sS'content_available'
p107
I01
sS'goodreads'
p108
(dp109
S'url'
p110
Vhttps://www.goodreads.com/book/show/6290519-the-night-of-the-long-knives
p111
sg104
I01
sS'year'
p112
I1960
ssS'similar_books'
p113
(lp114
VThe Sky Is Falling
p115
aVInvaders from the Infinite
p116
aVTime's Edge (Time's Edge, #1)
p117
aVVoodoo Planet (Solar Queen, #3)
p118
aVCrab Town
p119
aVA Call to Arms (The Damned, #1)
p120
aVThe Colors of Space
p121
aVWith His Ring (The Brides of Bath, #2)
p122
aVEmpty World
p123
aVMiasma (Star Trek: The Original Series)
p124
aVThe Rosicrucian Mysteries An Elementary Exposition of Their Secret Teachings
p125
aV2113 : Stories Inspired by the Music of Rush
p126
aVDownfall of the Gods
p127
aVThe Greatest Prayer: A Revolutionary Manifesto and Hymn of Hope
p128
aVLong Voyage Back
p129
aVRealtime Interrupt
p130
aVBiohazard
p131
aVLost and Found
p132
asS'description'
p133
VThey were two desperate scavengers in a no-man's land of radiation and death. Living in a kill or be killed world. Can they fin a new life and hope? A grim, grisly post-apocalypse story.
p134
sS'format'
p135
VPaperback
p136
sS'gutenberg'
p137
(dp138
g110
Vhttp://www.gutenberg.org/ebooks/25024
p139
sS'num'
p140
I25024
ssS'authors'
p141
(lp142
I32
asS'isbn13'
p143
V9781604596656
p144
sS'language'
p145
VEnglish
p146
sS'countries'
p147
(lp148
I2
asS'release_date'
p149
S'2008-04-09T00:00:00'
p150
sS'author'
p151
I32
sS'content_cleaned'
p152
I01
sS'classes'
p153
(lp154
Vto-read
p155
aVscience-fiction
p156
aVsci-fi
p157
aVkindle
p158
aVscifi
p159
aVscifi-fantasy
p160
aVpost-apocalyptic
p161
aVaudiobook
p162
aVnovella
p163
aVfiction
p164
aVcurrently-reading
p165
aVowned
p166
aVaudio
p167
aVnetgalley
p168
aVnovels
p169
aVepub
p170
aVdystopia
p171
aVshort-fiction
p172
aVdystopian
p173
aVread-by-kat
p174
aVebooks
p175
aVthriller
p176
aVpost-apocalypse
p177
aVpropios
p178
aVnovela-corta
p179
aVingles
p180
aVdistopias
p181
aVciencia-ficcion
p182
aVdownloaded
p183
aVshorts
p184
aVaudio-books
p185
aV20th-century-lit
p186
aVhistory
p187
aVscience-fiction-and-fantasy
p188
aVtheskyisfalling
p189
aVsfthatdoesntsuck
p190
aVsf-fantasy-general
p191
aVwork-reads
p192
aVown-kindle
p193
aVsci-fy
p194
aVdigital
p195
aVshort-stories
p196
aVapocalyptic
p197
aVaudiobooks
p198
aVapocalyse-dystopia
p199
aVz-read
p200
aV20th-century
p201
aVscribd
p202
aVapocalypse
p203
aVamericana
p204
aV1960s
p205
aV20th-century-sff
p206
aVarc
p207
aVown-audiobook
p208
aVsf-fantasy
p209
aVaugust-2015
p210
aVreview-copies
p211
aV15
p212
aVnet-galley
p213
aVhorrordarkfiction
p214
aVreview-copy-to-read
p215
aVreview-copy-net-galley
p216
aVebooks_unread
p217
aVto-read-1b-dyst-pa
p218
aVto-read-1
p219
aV10-post-apocalyptic
p220
aVliterature-20th-century
p221
aVfritz-leiber
p222
aVnovellas-and-short-stories
p223
aVhorror-expansion
p224
aVfavorites
p225
aVmost-wanted
p226
aVprinted-word
p227
aVfeedbooks-com
p228
aVdystopia-and-apocalypse
p229
aVaudiobook-i-own
p230
aVto-read-kindle
p231
aVsci-fi-fantasy
p232
aVebook
p233
aVshort-stories-novellas
p234
aVpost-holocaust
p235
aVebook-kindle
p236
aVall-ebook
p237
aVenglish
p238
aVaudio-ebooks
p239
aV2013-books-read
p240
aVac-iyidagh
p241
aVunread
p242
aVapocalyptic-fiction
p243
aVteotwawki
p244
aVgutenberg
p245
aVown-ebook
p246
aVacquired
p247
aV2012-books
p248
aVworld-in-the-shitter
p249
aVscience
p250
aVsci-fi-and-fantasy
p251
aVon-deck-next
p252
aVnovellas
p253
aVhistorical
p254
asS'loc_class'
p255
VPS: Language and Literatures: American and Canadian literature
p256
sS'n_authors'
p257
I1
sb.