ccopy_reg
_reconstructor
p0
(cdataset.Book
Book
p1
c__builtin__
object
p2
Ntp3
Rp4
(dp5
S'similar_books'
p6
(lp7
sS'genres'
p8
(lp9
sS'author'
p10
I302
sS'countries'
p11
(lp12
I2
asS'year'
p13
I1954
sS'title'
p14
VGalaxy Magazine October 1954
p15
sS'cover'
p16
Vhttps://ia600200.us.archive.org/BookReader/BookReaderImages.php?zip=/17/items/Galaxy_v09n01_1954-10/Galaxy_v09n01_1954-10_jp2.zip&file=Galaxy_v09n01_1954-10_jp2/Galaxy_v09n01_1954-10_0000.jp2&scale=0&rotate=0
p17
sS'cover_art'
p18
S'http://www.isfdb.org/wiki/images/a/a4/MLO4372.jpg'
p19
sS'author_name'
p20
VGalaxy Magazine
p21
sS'images_urls'
p22
(lp23
sS'authors'
p24
(lp25
I433
aI436
aI363
aI454
aI456
aI305
aI326
aI339
aI340
aI8
aI384
aI23
aI56
aI24
aI220
aI302
asS'images'
p26
(lp27
sS'id'
p28
I1021
sS'contents'
p29
(lp30
(dp31
g10
I433
sg14
VA World of Talent
p32
sa(dp33
g10
I433
sg14
VA World of Talent [2]
p34
sa(dp35
g10
I433
sg14
VA World of Talent [3]
p36
sa(dp37
g10
I433
sg14
VA World of Talent [4]
p38
sa(dp39
g10
I433
sg14
VGhost V
p40
sa(dp41
g10
I436
sg14
VIdiot's Crusade
p42
sa(dp43
g10
I363
sg14
VCartoon: No Caption (Spaceman Hitchhiking On an Asteroid)
p44
sa(dp45
g10
I454
sg14
V$1,000 a Plate
p46
sa(dp47
g10
I436
sg14
VJebaburba
p48
sa(dp49
g10
I436
sg14
VJebaburba [2]
p50
sa(dp51
g10
I456
sg14
VSpy
p52
sa(dp53
g10
I456
sg14
VSpy [2]
p54
sa(dp55
g10
I456
sg14
VSpy [3]
p56
sa(dp57
g10
I456
sg14
VSpy [4]
p58
sa(dp59
g10
I456
sg14
VSpy [5]
p60
sa(dp61
g10
I305
sg14
VTake My Word
p62
sa(dp63
g10
I326
sg14
VForecast (Galaxy, October 1954)
p64
sa(dp65
g10
I339
sg14
VFor Your Information: The Oldest "Prediction"
p66
sa(dp67
g10
I340
sg14
VGalaxy's 5 Star Shelf (Galaxy, October 1954)
p68
sa(dp69
g10
I8
sg14
VA World of Talent
p70
sa(dp71
g10
I384
sg14
VSpy
p72
sa(dp73
g10
I23
sg14
VGhost V
p74
sa(dp75
g10
I56
sg14
VIdiot's Crusade
p76
sa(dp77
g10
I24
sg14
V$1,000 a Plate
p78
sa(dp79
g10
I220
sg14
VJebaburba
p80
sasb.