ccopy_reg
_reconstructor
p0
(cdataset.Book
Book
p1
c__builtin__
object
p2
Ntp3
Rp4
(dp5
S'content_name'
p6
V605.txt.utf-8
p7
sS'isbn'
p8
V0803262043
p9
sS'year'
p10
I1915
sS'author_name'
p11
VEdgar Rice Burroughs
p12
sS'images_urls'
p13
(lp14
sS'language_code'
p15
Veng
p16
sS'images'
p17
(lp18
sS'id'
p19
I64
sS'category'
p20
VText
p21
sS'plot'
p22
V'The Return to Pellucidar'. David Innes goes for a war and becomes a POW again, while Abner Perry makes a balloon, which escapes with Dian the Beautiful in it.\u000a'Men of the Bronze Age'. Dian meets the people who have advanced to bronze age and is made a goddess.\u000a'Tiger Girl'. David Innes goes after Dian in another balloon, he plays the role of a god.\u000a'Savage Pellucidar'. Two separate search parties are looking for the lost ones without knowing the other has already found the ones they are seeking.
p23
sS'genres'
p24
(lp25
sS'copyright'
p26
VPublic domain in the USA.
p27
sS'title'
p28
VPellucidar
p29
sS'wikipedia'
p30
(dp31
S'url'
p32
Vhttps://en.wikipedia.org/wiki/Savage_Pellucidar
p33
sS'found'
p34
I01
sS'year'
p35
I-1
ssS'published_in'
p36
NsS'average_rating'
p37
F3.78
sS'rating_count'
p38
I1438
sS'content_available'
p39
I01
sS'goodreads'
p40
(dp41
g32
Vhttps://www.goodreads.com/book/show/403355.Pellucidar
p42
sg34
I01
sg35
I1915
ssS'similar_books'
p43
(lp44
VDwellers in the Mirage
p45
aVEdgar Rice Burroughs' Tarzan: The Land That Time Forgot
p46
aVAlmuric
p47
aVThe Misplaced Battleship
p48
aVDare
p49
aVBlack Amazon of Mars
p50
aVThe Black Star Passes
p51
aVThe New Machiavelli
p52
aVThongor Against the Gods (Thongor, #3)
p53
aVMasters Of The Pit Or Barbarians Of Mars (Michael Kane, Vol. 3)
p54
aVConan of the Isles (Conan 12)
p55
aVLucky Starr and the Oceans of Venus (Lucky Starr, #3)
p56
aVThe Two Faces of Tomorrow
p57
aVThe Man of Bronze (Doc Savage, #1)
p58
aVConan the Warlord
p59
aVEdgar Rice Burroughs : Master of Adventure
p60
asS'description'
p61
VA Sequel To At the Earth\u2019s Core<br />American David Innes narrates return to exotic, savage land below the Earth crust, old pal Abner Perry, female Mahar, an untamed wilderness where the sun never sets. He seeks beloved Beautiful Dian, torn away by trickery. He crosses the Pellucidar, the Land of Awful Shadow under a pendant moon, encounters prehistoric beasts &amp; strange peoples.
p62
sS'format'
p63
VPaperback
p64
sS'gutenberg'
p65
(dp66
g32
Vhttp://www.gutenberg.org/ebooks/605
p67
sS'num'
p68
I605
ssS'authors'
p69
(lp70
I2
asS'pages'
p71
I167
sS'isbn13'
p72
V9780803262041
p73
sS'language'
p74
VEnglish
p75
sS'release_date'
p76
S'1996-07-01T00:00:00'
p77
sS'author'
p78
I2
sS'original_title'
p79
VSavage Pellucidar
p80
sS'summary'
p81
VSavage Pellucidar is a 1963 fantasy story collection by Edgar Rice Burroughs, the seventh and final book in his series about the fictional "hollow earth" land of Pellucidar. It was published twelve years after Burroughs's death.\u000aLike a number of other posthumously published books by Burroughs, this book is not a novel but a collection of short stories. The first three stories, The Return to Pellucidar, Men of the Bronze Age and Tiger Girl, were published in Amazing Stories in February, March, and April 1942. The fourth story, Savage Pellucidar, was published for the first time in November 1963 after being discovered in a safe by Burroughs' son Hulbert in the early 1960s.
p82
sS'content_cleaned'
p83
I01
sS'classes'
p84
(lp85
Vscience-fiction
p86
aVfantasy
p87
aVfiction
p88
aVadventure
p89
aVsci-fi
p90
aVto-read
p91
aVedgar-rice-burroughs
p92
aVclassics
p93
aVowned
p94
aVkindle
p95
aVebook
p96
aVpulp
p97
aVsf
p98
aVscifi
p99
aVclassic
p100
aVdefault
p101
aVappendix-n
p102
aVseries
p103
aVburroughs
p104
aVebooks
p105
aVcurrently-reading
p106
aVe-books
p107
aVdinosaurs
p108
aVfantasy-science-fiction
p109
aVaction
p110
aVclassic-sci-fi
p111
aVscifi-fantasy
p112
aVsci-fi-fantasy
p113
aVpellucidar
p114
aVclassic-science-fiction
p115
aVscience-fiction-fantasy
p116
aVscience-fantasy
p117
aVaction-adventure
p118
aVhollow-earth
p119
aVsf-fantasy
p120
aVpaperbacks
p121
aVmy-library
p122
aVlibrivox
p123
aVerb
p124
aVmystery
p125
aVshelfari-review-only
p126
aVshelfari-part-of-a-set
p127
aVshelfari-no
p128
aVshelfari-kindlebook
p129
aVshelfari-kindle-originalk3
p130
aVshelfari-kindle
p131
aVcollection
p132
aVdrama
p133
aVaudiobooks
p134
aVunread
p135
aVkindle-ebook
p136
aVnovels
p137
aVamerican-authors
p138
aVthriller
p139
aVburroughs-edgar-rice
p140
aVplanetary-romance
p141
aVkindle-book
p142
aVfantasy-sf
p143
aV20th-century
p144
aV1910-1919
p145
aVnot-read
p146
aVprehistoric
p147
aVbooks-i-own
p148
aVsciencefiction
p149
aVspeculative-fiction
p150
aVlost-world-lost-race
p151
aVjunk
p152
aVtravel-to-another-world
p153
aVquest
p154
aVprehistoric-bronze
p155
aVmagical-realism
p156
aVjourney
p157
aViconic
p158
aVexploration
p159
aVseries-obnf
p160
aVhave-cali
p161
aVactually-own
p162
aVread-have
p163
aV00-to-read-01
p164
aVnew-read
p165
aVscifi-or-steampunk
p166
aVkindle-library
p167
aV000src-su-15-05-u-p-c
p168
aVkindlecollection
p169
aVgalaktyka-gutenberga
p170
aVcovers-david-mattingly
p171
aVmy-collection
p172
aVrtc
p173
aV20th-century-lit
p174
aVclassic-adventure
p175
aVdndrecommended
p176
aVshelf1
p177
aVfantastyka
p178
aVvillains-creepy-disturbing-etc
p179
aVunique-memorable-world
p180
aVsword-fighting
p181
aVsci-fi-adult
p182
aVromance
p183
aVlove-the-writing-style
p184
aVkindle-freebies
p185
asS'loc_class'
p186
VPS: Language and Literatures: American and Canadian literature
p187
sS'n_authors'
p188
I1
sb.