ccopy_reg
_reconstructor
p0
(cdataset.Book
Book
p1
c__builtin__
object
p2
Ntp3
Rp4
(dp5
S'content_name'
p6
V28650.txt.utf-8
p7
sS'isbn'
p8
NsS'year'
p9
I1954
sS'author_name'
p10
VMarion Zimmer Bradley
p11
sS'images_urls'
p12
(lp13
sS'language_code'
p14
Veng
p15
sS'images'
p16
(lp17
sS'id'
p18
I196
sS'category'
p19
VText
p20
sS'genres'
p21
(lp22
sS'copyright'
p23
VPublic domain in the USA.
p24
sS'title'
p25
VYear of the Big Thaw
p26
sS'wikipedia'
p27
(dp28
S'found'
p29
I00
ssS'average_rating'
p30
F3.39
sS'rating_count'
p31
I67
sS'content_available'
p32
I01
sS'goodreads'
p33
(dp34
S'url'
p35
Vhttps://www.goodreads.com/book/show/6459428-year-of-the-big-thaw
p36
sg29
I01
sS'year'
p37
I1954
ssS'similar_books'
p38
(lp39
sS'description'
p40
VBradley stated that when she was a child she enjoyed reading adventure fantasy authors such as Henry Kuttner, Edmond Hamilton, C.L. Moore, and Leigh Brackett, especially when they wrote about "the glint of strange suns on worlds that never were and never would be." In this warm and fanciful story of a Connecticut farmer, Marion Zimmer Bradley has caught some of the glory that is man's love for man -- no matter who he is nor whence he's from. By heck, you'll like little Matt.
p41
sS'format'
p42
NsS'gutenberg'
p43
(dp44
g35
Vhttp://www.gutenberg.org/ebooks/28650
p45
sS'num'
p46
I28650
ssS'authors'
p47
(lp48
I25
asS'pages'
p49
I18
sS'isbn13'
p50
NsS'language'
p51
VEnglish
p52
sS'countries'
p53
(lp54
I2
asS'release_date'
p55
S'2009-05-01T00:00:00'
p56
sS'author'
p57
I25
sS'content_cleaned'
p58
I01
sS'classes'
p59
(lp60
Vto-read
p61
aVscience-fiction
p62
aVsci-fi
p63
aVfiction
p64
aVebooks
p65
aVcurrently-reading
p66
aVshort-stories
p67
aVsf
p68
aVkindle
p69
aVnot-read
p70
aVshort
p71
aVmarion-zimmer-bradley
p72
aVamazon
p73
aVpublic-library
p74
aVowned
p75
aVbbpost
p76
aVx-read-2017
p77
aV01-scifi
p78
aV01-pulp
p79
aVfantasy
p80
aVshelved-tbr
p81
aVlit-usa
p82
aValdiko
p83
aVfavorites
p84
aVwomen
p85
aVamerican
p86
aVcm
p87
aVown-unread
p88
aVscifi
p89
aVcomic-books
p90
aVkindle-freebie
p91
aVfantasy-sci-fi
p92
aVthree-star-books
p93
aVodd
p94
aVkindle-books
p95
aVgeneral-supernatural-fiction
p96
aVowned-pending-kindle-free-ebook
p97
aVkindle-free-ebook
p98
aVfree
p99
aVshort-stuff
p100
aVquinn-elementary
p101
aVfunny-stuff
p102
aVenglish-owned-high
p103
aVscience-fiction-fantasy
p104
aVsfbywomen
p105
aVw_us_modern
p106
aVpurchased-to-read
p107
aVshort-story
p108
aVaudio-obtained-lvss
p109
aVunread
p110
aVebook-sets
p111
aVhumor
p112
aVereader
p113
aVowned-ebooks
p114
aVto-read-fantasy
p115
aV1950s
p116
aVelectronic
p117
aVfeedbooks-com
p118
aVthe-freebie-queue
p119
aVkobo-ebook
p120
aVomnibus-anthology-shorts
p121
aVf-sf-horror
p122
aVhave
p123
aVsci-fi-and-fantasy
p124
aVi-really-like-this-author
p125
aVscifi-fantasy
p126
aVz-unsure
p127
aV2-wishlist
p128
aVebooks-kobo
p129
aVstories
p130
aVscience
p131
aVgeneral
p132
aVfind
p133
aVmy-books
p134
aV3-ebooks
p135
aV2011-reads
p136
aVto-read-scifi
p137
aVto-read-2
p138
aVmarionzimmerbradley
p139
aVwant-to-read-fantasy
p140
aVtype-short-story
p141
aVaudio-obtained-ss
p142
aVaudio-books-to-read
p143
aVw_us_unitary
p144
aVfind-that-book
p145
aVfantasy-and-horror
p146
aVunsure
p147
aV3a-ebooks
p148
aVaudio-books
p149
aVbradley
p150
aVzimmer
p151
aVmarion
p152
asS'loc_class'
p153
VPS: Language and Literatures: American and Canadian literature
p154
sS'n_authors'
p155
I1
sb.