ccopy_reg
_reconstructor
p0
(cdataset.Book
Book
p1
c__builtin__
object
p2
Ntp3
Rp4
(dp5
S'content_name'
p6
V51657.txt.utf-8
p7
sS'isbn'
p8
V1515405788
p9
sS'year'
p10
I1959
sS'author_name'
p11
VJim Harmon
p12
sS'images_urls'
p13
(lp14
Vhttp://www.gutenberg.org/files/51657/51657-h/images/cover.jpg
p15
aVhttp://www.gutenberg.org/files/51657/51657-h/images/illus1.jpg
p16
aVhttp://www.gutenberg.org/files/51657/51657-h/images/illus2.jpg
p17
aVhttp://www.gutenberg.org/files/51657/51657-h/images/illus3.jpg
p18
asS'language_code'
p19
NsS'images'
p20
(lp21
sS'id'
p22
I837
sS'category'
p23
VText
p24
sS'genres'
p25
(lp26
sS'copyright'
p27
VPublic domain in the USA.
p28
sS'title'
p29
VCharity Case
p30
sS'wikipedia'
p31
(dp32
S'found'
p33
I00
ssS'average_rating'
p34
F3.25
sS'rating_count'
p35
I2
sS'content_available'
p36
I01
sS'cover_art_url'
p37
S'http://www.gutenberg.org/cache/epub/51657/pg51657.cover.medium.jpg'
p38
sS'goodreads'
p39
(dp40
S'url'
p41
S'https://www.goodreads.com/book/show/30004051-charity-case'
p42
sS'found'
p43
I01
ssS'similar_books'
p44
(lp45
sS'description'
p46
VCertainly I see things that aren't there and don't say what my voice says-but how can I prove that I don't have my health?
p47
sS'gutenberg'
p48
(dp49
S'url'
p50
Vhttp://www.gutenberg.org/ebooks/51657
p51
sS'num'
p52
I51657
ssS'authors'
p53
(lp54
I142
asS'pages'
p55
I20
sS'isbn13'
p56
V9781515405788
p57
sS'language'
p58
VEnglish
p59
sS'countries'
p60
(lp61
I2
asS'release_date'
p62
S'2016-04-04T00:00:00'
p63
sS'author'
p64
I142
sS'content_cleaned'
p65
I01
sS'classes'
p66
(lp67
sS'loc_class'
p68
S''
p69
sS'n_authors'
p70
I1
sb.