ccopy_reg
_reconstructor
p0
(cdataset.Book
Book
p1
c__builtin__
object
p2
Ntp3
Rp4
(dp5
S'content_name'
p6
V31664.txt.utf-8
p7
sS'isbn'
p8
NsS'year'
p9
I2011
sS'author_name'
p10
VEvelyn E. Smith
p11
sS'images_urls'
p12
(lp13
Vhttp://www.gutenberg.org/files/31664/31664-h/images/cover.jpg
p14
aVhttp://www.gutenberg.org/files/31664/31664-h/images/illus1.jpg
p15
aVhttp://www.gutenberg.org/files/31664/31664-h/images/illus2.jpg
p16
aVhttp://www.gutenberg.org/files/31664/31664-h/images/illus3.jpg
p17
asS'language_code'
p18
NsS'images'
p19
(lp20
sS'id'
p21
I914
sS'category'
p22
VText
p23
sS'genres'
p24
(lp25
sS'copyright'
p26
VPublic domain in the USA.
p27
sS'title'
p28
VOnce a Greech
p29
sS'wikipedia'
p30
(dp31
S'found'
p32
I00
ssS'average_rating'
p33
F3.25
sS'rating_count'
p34
I4
sS'content_available'
p35
I01
sS'cover_art_url'
p36
S'http://www.gutenberg.org/cache/epub/31664/pg31664.cover.medium.jpg'
p37
sS'goodreads'
p38
(dp39
S'url'
p40
Vhttps://www.goodreads.com/book/show/20527705-once-a-greech
p41
sg32
I01
sS'year'
p42
I2011
ssS'similar_books'
p43
(lp44
sS'description'
p45
NsS'format'
p46
NsS'gutenberg'
p47
(dp48
g40
Vhttp://www.gutenberg.org/ebooks/31664
p49
sS'num'
p50
I31664
ssS'authors'
p51
(lp52
I172
asS'isbn13'
p53
NsS'language'
p54
VEnglish
p55
sS'release_date'
p56
S'2010-03-16T00:00:00'
p57
sS'author'
p58
I172
sS'content_cleaned'
p59
I01
sS'classes'
p60
(lp61
Vto-read
p62
aV21st-century-lit
p63
aV15
p64
asS'loc_class'
p65
VPS: Language and Literatures: American and Canadian literature
p66
sS'n_authors'
p67
I1
sb.