ccopy_reg
_reconstructor
p0
(cdataset.Book
Book
p1
c__builtin__
object
p2
Ntp3
Rp4
(dp5
S'content_name'
p6
V31686.txt.utf-8
p7
sS'isbn'
p8
NsS'year'
p9
I1954
sS'author_name'
p10
VEvelyn E. Smith
p11
sS'images_urls'
p12
(lp13
Vhttp://www.gutenberg.org/files/31686/31686-h/images/cover.jpg
p14
aVhttp://www.gutenberg.org/files/31686/31686-h/images/illus1.jpg
p15
aVhttp://www.gutenberg.org/files/31686/31686-h/images/illus2.jpg
p16
aVhttp://www.gutenberg.org/files/31686/31686-h/images/illus3.jpg
p17
aVhttp://www.gutenberg.org/files/31686/31686-h/images/illus4.jpg
p18
asS'language_code'
p19
Ven-GB
p20
sS'id'
p21
I521
sS'category'
p22
VText
p23
sS'genres'
p24
(lp25
sS'copyright'
p26
VPublic domain in the USA.
p27
sS'title'
p28
VCollector's Item
p29
sS'wikipedia'
p30
(dp31
S'found'
p32
I00
ssS'average_rating'
p33
F3.6
sS'rating_count'
p34
I20
sS'content_available'
p35
I01
sS'cover_art_url'
p36
S'http://www.gutenberg.org/cache/epub/31686/pg31686.cover.medium.jpg'
p37
sS'goodreads'
p38
(dp39
S'url'
p40
Vhttps://www.goodreads.com/book/show/17449207-collector-s-item
p41
sS'found'
p42
I01
sS'year'
p43
I2013
ssS'similar_books'
p44
(lp45
sS'description'
p46
VAlpha were-jaguar, Katarina "KT" Marant is trained to protect the pride so when her aunt disappears, KT naturally takes up the hunt. Her suspicion settles on the Collectors, humans who view shapeshifters as the ultimate big game.<br /><br />Peyton Allers can't believe he's got to blow his cover to rescue a shapeshifter "princess." Even harder to believe is that she wants to stage her own kidnapping in order to catch the leader of the Collectors and find her aunt.<br /><br />Everything goes sideways when KT is kidnapped for real and by someone she never suspected. Will Peyton find her before time runs out? Or will she become a true Collector's Item?
p47
sS'format'
p48
VKindle Edition
p49
sS'gutenberg'
p50
(dp51
g40
Vhttp://www.gutenberg.org/ebooks/31686
p52
sS'num'
p53
I31686
ssS'authors'
p54
(lp55
I172
asS'pages'
p56
I148
sS'isbn13'
p57
NsS'language'
p58
VEnglish
p59
sS'countries'
p60
(lp61
I2
asS'release_date'
p62
S'2010-03-18T00:00:00'
p63
sS'author'
p64
I172
sS'content_cleaned'
p65
I01
sS'classes'
p66
(lp67
Vto-read
p68
aVfreebies
p69
aVkindle
p70
aVfree
p71
aVfantasy
p72
aVkindle-mess-unread
p73
aVfree-not-read
p74
aVowned-kindle
p75
aVtype-novel
p76
aVfiction-romance-paranormal
p77
aVfiction-romance-contemporary
p78
aVfiction-romance
p79
aVfiction
p80
aVbooktype-novel
p81
aVbookmedium-ebook-kindle-free
p82
aVkindle-freebie
p83
aVhowling-at-the-moon
p84
aVfantasy-paranormal
p85
aVebook
p86
aVyear-2013-challenge
p87
aVparanormal-romance
p88
aVwishlist-caught-my-eye
p89
aVmine
p90
aVe-book
p91
aVno-thanks
p92
aVwerewolves-shifters
p93
aVto-read-kindle
p94
aV2013-kindle-freebie
p95
aVtop-to-read
p96
aVshort-story-100
p97
aVpnr
p98
aVpara-shifter
p99
aVpara-cat
p100
aVpara
p101
aVown-free-book
p102
aVheld-captive-abused
p103
aV1-have-remove-once-read
p104
aVwolf-shifter
p105
aVkindle-books-to-lend
p106
aVwerewolves-other-shifters
p107
aVpnr-scifi-rom
p108
aVkindle-lendable
p109
aVto-buy
p110
asS'loc_class'
p111
VPS: Language and Literatures: American and Canadian literature
p112
sS'n_authors'
p113
I1
sb.