ccopy_reg
_reconstructor
p0
(cdataset.Book
Book
p1
c__builtin__
object
p2
Ntp3
Rp4
(dp5
S'content_name'
p6
V24054.txt.utf-8
p7
sS'isbn'
p8
V0671666657
p9
sS'year'
p10
I1959
sS'author_name'
p11
VRandall Garrett
p12
sS'images_urls'
p13
(lp14
Vhttp://www.gutenberg.org/files/24054/24054-h/images/illus1.jpg
p15
aVhttp://www.gutenberg.org/files/24054/24054-h/images/illus2.jpg
p16
aVhttp://www.gutenberg.org/files/24054/24054-h/images/illus3.jpg
p17
aVhttp://www.gutenberg.org/files/24054/24054-h/images/illus4.jpg
p18
asS'language_code'
p19
Veng
p20
sS'images'
p21
(lp22
sS'id'
p23
I494
sS'category'
p24
VText
p25
sS'genres'
p26
(lp27
sS'copyright'
p28
VPublic domain in the USA.
p29
sS'title'
p30
VDead Giveaway
p31
sS'wikipedia'
p32
(dp33
S'found'
p34
I00
ssS'average_rating'
p35
F3.45
sS'rating_count'
p36
I186
sS'content_available'
p37
I01
sS'goodreads'
p38
(dp39
S'url'
p40
Vhttps://www.goodreads.com/book/show/876161.Dead_Giveaway
p41
sg34
I01
sS'year'
p42
I1990
ssS'similar_books'
p43
(lp44
VZero-Degree Murder (Search and Rescue Mystery #1)
p45
aVBinary Witness (The Amy Lane Mysteries, #1)
p46
aVThe Case of the Killer Divorce (Jamie Quinn Mystery #2)
p47
aVPerfect Game
p48
aVThe Coffin Trader
p49
aVThe Eye of Horus
p50
aVNight Kill (Iris Oakley, #1)
p51
aVNo Room for Error (Lexi Carmichael Mystery, #7)
p52
aVKittens Can Kill (Pru Marlowe, #5)
p53
aVBeat Until Stiff
p54
aVDead in the Water (Rebecca Schwartz, #4)
p55
aVEvery Breath You Take (Kristen Conner Mystery #2)
p56
aVMurder and Moonshine (Moonshine Mystery, #1)
p57
aVKiller Reunion (A Savannah Reid Mystery, #21)
p58
aVHow to be a Ghost (Libby Grace Mystery #1)
p59
aVScavenger Hunt (A Finny Aletter Mystery, Book 1)
p60
aVLove Thy Sister (Mina's Adventures, #1)
p61
aVStalking Jack: The Hunt Begins (Madeline Donovan #1)
p62
asS'description'
p63
VIN THE DESOLATE REACHES OF NEVADA, ONE MAN GUARDS A BRUTAL SECRET...<br />AND HE'LL KILL FOR IT.<br />AT A PLUSH MOUNTAIN RETREAT, LIFE IS A PLEASURE.<br />THE PRICE IS MURDER.<br /><br />The Deer Creek Condos are delightfully secluded, an ultra-luxury development nestled in the mountains above Las Vegas's garish, billion-dollar carnival. There are only nine apartments, one to a floor. The owners are rich, successful and cultured, enjoying the finest of everything, with the best security money can buy...<br /><br />Now a violent winter avalanche has trapped them in the wilderness. And the residents of Deer Creek are dying, in fatal accidents that add up to homicide. Only a handful of them are left--neighbors, friends, lovers--and a old, obsessive killer. Someone whose job is death. Someone who knows every way there is to snuff a human life...<br /><br />cover art Ron Barbagallo
p64
sS'format'
p65
VPaperback
p66
sS'gutenberg'
p67
(dp68
g40
Vhttp://www.gutenberg.org/ebooks/24054
p69
sS'num'
p70
I24054
ssS'authors'
p71
(lp72
I49
asS'pages'
p73
I280
sS'isbn13'
p74
V9780671666651
p75
sS'language'
p76
VEnglish
p77
sS'countries'
p78
(lp79
I2
asS'release_date'
p80
S'2007-12-27T00:00:00'
p81
sS'author'
p82
I49
sS'content_cleaned'
p83
I01
sS'classes'
p84
(lp85
Vto-read
p86
aVcurrently-reading
p87
aVmystery
p88
aVjoanne-fluke
p89
aVfiction
p90
aVdefault
p91
aVnook
p92
aVebooks
p93
aVmy-books
p94
aVmystery-thriller
p95
aVmysteries
p96
aVmystery-suspense
p97
aVifpl
p98
aV2015-reading-list
p99
aVto-buy
p100
aVread-in-2014
p101
aVowned-pbmystery-tbr
p102
aVfluke
p103
aVkindle
p104
aV2014-books-read
p105
aVtbr-master-list
p106
aVown-unread
p107
aVunfinished-books
p108
aVif-library
p109
aVcozy-mysteries-fluke
p110
aVj-fluke-various
p111
aVepub-mp3
p112
aV4-non-series-7-10
p113
aV__dont-own-yet
p114
aVbooks-i-ve-read
p115
aVthriller
p116
aV2016-reading-challenge
p117
aVmisc
p118
aVmystery-series
p119
aVi-own
p120
aVsuspense
p121
aVkobo
p122
aVgag-me-with-a-fork
p123
aVbut-why-is-the-rum-gone-mystery
p124
aVborrrrring
p125
aVbaby-its-cold-outside
p126
aVfluke-misc
p127
aVbought-2016
p128
aVscribd
p129
aVpleasure
p130
aVrt-10-15
p131
aVbooks
p132
aVstand-alone-2-read
p133
aVdled
p134
aVdo-not-want
p135
aV2015-150-goal
p136
aV2015-challenge
p137
aV2015-reading-challenge
p138
aVdigital-download
p139
aVaudio-book
p140
aVamazon
p141
aVebook-library
p142
aVmoonreader-app-nook
p143
aVbooks-i-want-to-read
p144
aVmy
p145
aVout-of-the-box
p146
aVguidall
p147
aVcatalog
p148
aVadult
p149
aVoverdrive-not-good
p150
aVcm
p151
aVmystrey
p152
aVshelved
p153
aVtbr-2014
p154
aVpub-pocket
p155
aVpc-200-299
p156
aVmystery-thrillers
p157
aVe-book
p158
aVd
p159
aVc-black
p160
aVauthor-f
p161
aVromance
p162
aVmurder-mystery
p163
aVask-greg
p164
aVmom-to-read
p165
aVmystery-suspense-thriller-crime
p166
aVebrary
p167
aVjoan-fluk
p168
aVon-oneclickdigital
p169
aVwish-list
p170
aVbrisbane
p171
aVto-find
p172
aVnovella
p173
aVebook
p174
aVnew-releases-2014-april
p175
aVto-read-mystery
p176
aVword-cat-editorial
p177
aVauthors-i-read-other-books
p178
aVlas-vegas-and-nevada
p179
aVfav-authors-to-read
p180
aVmysteries-to-read
p181
aVlook-for
p182
aVipad-books
p183
aVfluke-joanne
p184
aVpaperback
p185
asS'loc_class'
p186
VPS: Language and Literatures: American and Canadian literature
p187
sS'n_authors'
p188
I1
sb.