ccopy_reg
_reconstructor
p0
(cdataset.Book
Book
p1
c__builtin__
object
p2
Ntp3
Rp4
(dp5
S'content_name'
p6
V29019.txt.utf-8
p7
sS'isbn'
p8
NsS'year'
p9
I1953
sS'author_name'
p10
VAndre Norton
p11
sS'images_urls'
p12
(lp13
Vhttp://www.gutenberg.org/files/29019/29019-h/images/cover.jpg
p14
asS'language_code'
p15
NsS'images'
p16
(lp17
sS'id'
p18
I76
sS'category'
p19
VText
p20
sS'genres'
p21
(lp22
sS'copyright'
p23
VPublic domain in the USA.
p24
sS'title'
p25
VAll Cats Are Gray
p26
sS'wikipedia'
p27
(dp28
S'url'
p29
Vhttps://en.wikipedia.org/wiki/The_Many_Worlds_of_Andre_Norton
p30
sS'found'
p31
I01
sS'year'
p32
I-1
ssS'published_in'
p33
NsS'average_rating'
p34
F3.45
sS'rating_count'
p35
I289
sS'content_available'
p36
I01
sS'cover_art_url'
p37
S'http://www.gutenberg.org/cache/epub/29019/pg29019.cover.medium.jpg'
p38
sS'goodreads'
p39
(dp40
g29
Vhttps://www.goodreads.com/book/show/6522491-all-cats-are-gray
p41
sg31
I01
sg32
I1953
ssS'similar_books'
p42
(lp43
VThe Mountain of Marvels: A Celtic Tale of Magic, Retold from the Mabinogion
p44
aVGrace Immaculate
p45
aVWonder Tales: Six French Stories of Enchantment
p46
aVThe Demon You Know (Demon-Hunting Soccer Mom #4.5)
p47
aVTarzan Triumphant (Tarzan, #15)
p48
aVInconstant Star (Man-Kzin Wars)
p49
aVThe Cat Who Walked a Thousand Miles
p50
aVSpecimen 313
p51
aVSpace Viking
p52
aVSteel Walls and Dirt Drops
p53
aVAgent of Vega & Other Stories
p54
aVSmoked
p55
aVBreaths in Winter
p56
aVFirst Flight
p57
aVHappily Ever After (Girls to the Rescue #1)
p58
aVThe Spoils of War (The Damned, #3)
p59
aVRath's Reckoning (The Janus Group #3)
p60
aVLittle Girl Lost (The Valley of Ten Crescents, #0.5)
p61
asS'description'
p62
VUnder normal conditions a whole person has a decided advantage over a handicapped one. But out in deep space the normal may be reversed--for humans at any rate.
p63
sS'format'
p64
NsS'gutenberg'
p65
(dp66
g29
Vhttp://www.gutenberg.org/ebooks/29019
p67
sS'num'
p68
I29019
ssS'authors'
p69
(lp70
I28
asS'isbn13'
p71
NsS'language'
p72
VEnglish
p73
sS'country'
p74
I2
sS'release_date'
p75
S'2009-06-01T00:00:00'
p76
sS'author'
p77
I28
sS'original_title'
p78
VThe Many Worlds of Andre Norton
p79
sS'summary'
p80
VThe Many Worlds of Andre Norton is a collection of fantasy and science fantasy short stories by American writer Andre Norton, edited by Roger Elwood. It was first published in August 1974 in simultaneous hardcover editions by Chilton (U.S.) and Thomas Nelson (Canada). A paperback edition, retitled The Book of Andre Norton and omitting the name of the editor, was issued by DAW Books in October 1975, and was reprinted in November 1977, July 1981 and September 1987.\u000aThe book collects seven novellas and short stories along with one essay by Norton, with an introduction by Donald A. Wollheim, an essay on Norton by Rick Brooks, and a bibliography of Norton's works as of 1975 by Helen-Jo Jakusz Hewitt. The stories include the Witch World tale "The Toads of Grimmerdale".
p81
sS'content_cleaned'
p82
I01
sS'classes'
p83
(lp84
Vto-read
p85
aVscience-fiction
p86
aVsci-fi
p87
aVshort-stories
p88
aVfiction
p89
aVcurrently-reading
p90
aVebook
p91
aVkindle
p92
aVscifi
p93
aVshort-story
p94
aVkindle-books
p95
aVandre-norton
p96
aVsci-fi-fantasy
p97
aVcats
p98
aVbooks-i-own
p99
aVowned
p100
aVscifi-fantasy
p101
aVclassic
p102
aVebooks
p103
aV20th-century
p104
aVschool
p105
aVadventure
p106
aVe-book
p107
aVshort
p108
aVfree-ebook
p109
aVkindle-lendable
p110
aVaudiobooks
p111
aVanimals
p112
aVfree
p113
aVsf
p114
aVnovel-vella-velette
p115
aVread-fiction
p116
aVactually-own
p117
aVshort-ebooks
p118
aVpulp
p119
aVspace
p120
aVpublic-domain
p121
aVwant-to-read-later
p122
aVspace-opera
p123
aVkindle-freebie
p124
aV16
p125
aVself-esteem-issues
p126
aVon-librivox-web-site
p127
aVreview-done
p128
aVaudible-channels
p129
aVdetest-with-the-power-of-the-sun
p130
aVread-short-story
p131
aValiens
p132
aVchallenge-2016
p133
aVamazon-ebooks
p134
aVnon-sucky-scifi-and-fantasy
p135
aVnook-books
p136
aVz_fiction
p137
aVx_shortstory
p138
aVw_us_modern
p139
aVold-sci-fi
p140
aVown-not-read
p141
aV1960s-50s
p142
aVunread
p143
aVcalibre
p144
aVamazing-pre2k
p145
aVshelfari-science-fiction
p146
aVshelfari-review-only
p147
aVshelfari-part-of-a-set
p148
aVshelfari-no
p149
aVshelfari-kindlebook
p150
aVshelfari-eo
p151
aVshelfari-andre-norton
p152
aVto-read-aloud
p153
aV2015-books-read
p154
aValdiko
p155
aVlibrary-unread
p156
aVstraight-sci-fi-unread
p157
aVpnr-uf-sf-r
p158
aVfemale-author
p159
aVfavorites
p160
aVnovellas-and-short-stories
p161
aVaudio-obtained
p162
aVpre-2014
p163
aVsf-mys-older
p164
aVsf-uf-paranormal-etc
p165
aVfave-authors-books
p166
aVso-let-it-be-kitten
p167
aVshort-fiction
p168
aV1-loc-dropbox
p169
aVonline-read
p170
aVshorts
p171
aVread_in_english
p172
aVread-sci-fi
p173
aVin-space
p174
aVbrain-candy
p175
aVother
p176
aVread-in-2014
p177
aVhorror-sf-thriller
p178
aVmystery
p179
aVformat-ebooks
p180
aVfeminism
p181
aVclassics
p182
aVfeedbooks-com
p183
aVreimport
p184
asS'loc_class'
p185
VPS: Language and Literatures: American and Canadian literature
p186
sS'n_authors'
p187
I1
sb.