ccopy_reg
_reconstructor
p0
(cdataset.Book
Book
p1
c__builtin__
object
p2
Ntp3
Rp4
(dp5
S'similar_books'
p6
(lp7
sS'genres'
p8
(lp9
sS'author'
p10
I302
sS'countries'
p11
(lp12
I2
asS'year'
p13
I1970
sS'title'
p14
VGalaxy Magazine May 1970
p15
sS'cover'
p16
Vhttps://ia600203.us.archive.org/BookReader/BookReaderImages.php?zip=/2/items/Galaxy_v30n02_1970-05/Galaxy_v30n02_1970-05_jp2.zip&file=Galaxy_v30n02_1970-05_jp2/Galaxy_v30n02_1970-05_0000.jp2&scale=0&rotate=0
p17
sS'cover_art'
p18
S'http://www.isfdb.org/wiki/images/5/57/GALMAY70.jpg'
p19
sS'author_name'
p20
VGalaxy Magazine
p21
sS'images_urls'
p22
(lp23
sS'authors'
p24
(lp25
I499
aI326
aI626
aI615
aI667
aI91
aI40
aI55
aI668
aI675
aI50
aI542
aI514
aI302
asS'images'
p26
(lp27
sS'id'
p28
I1141
sS'contents'
p29
(lp30
(dp31
g10
I499
sg14
VA Style in Treason
p32
sa(dp33
g10
I499
sg14
VA Style in Treason [2]
p34
sa(dp35
g10
I326
sg14
VA Style in Treason [3]
p36
sa(dp37
g10
I626
sg14
VA Style in Treason [4]
p38
sa(dp39
g10
I626
sg14
VA Style in Treason [5]
p40
sa(dp41
g10
I326
sg14
VThe God Machine
p42
sa(dp43
g10
I499
sg14
VNeutron Tide
p44
sa(dp45
g10
I499
sg14
VThe Tower of Glass (Part 2 of 3)
p46
sa(dp47
g10
I499
sg14
VThe Tower of Glass (Part 2 of 3) [2]
p48
sa(dp49
g10
I499
sg14
VTimeserver
p50
sa(dp51
g10
I499
sg14
VWhatever Became of the Mcgowans?
p52
sa(dp53
g10
I615
sg14
VSunpot (Part 4 of 4)
p54
sa(dp55
g10
I499
sg14
VThe Tower of Glass (Part 2 of 3) [3]
p56
sa(dp57
g10
I667
sg14
VThe Ddts
p58
sa(dp59
g10
I91
sg14
VGalaxy Bookshelf (Galaxy, May 1970)
p60
sa(dp61
g10
I40
sg14
VThe Editorial View: Overkill
p62
sa(dp63
g10
I326
sg14
VGalaxy's Stars (Galaxy, May 1970)
p64
sa(dp65
g10
I55
sg14
VA Style in Treason
p66
sa(dp67
g10
I668
sg14
VThe God Machine
p68
sa(dp69
g10
I675
sg14
VWhatever Became of the Mcgowans?
p70
sa(dp71
g10
I50
sg14
VThe Tower of Glass (Part 2 of 3)
p72
sa(dp73
g10
I542
sg14
VNeutron Tide
p74
sa(dp75
g10
I514
sg14
VTimeserver
p76
sasb.