ccopy_reg
_reconstructor
p0
(cdataset.Book
Book
p1
c__builtin__
object
p2
Ntp3
Rp4
(dp5
S'content_name'
p6
V10966.txt.utf-8
p7
sS'isbn'
p8
V1421925818
p9
sS'year'
p10
I1909
sS'author_name'
p11
VWilliam Hope Hodgson
p12
sS'images_urls'
p13
(lp14
sS'language_code'
p15
Veng
p16
sS'images'
p17
(lp18
sS'id'
p19
I79
sS'category'
p20
VText
p21
sS'genres'
p22
(lp23
sS'copyright'
p24
VPublic domain in the USA.
p25
sS'title'
p26
VThe Ghost Pirates
p27
sS'wikipedia'
p28
(dp29
S'url'
p30
Vhttps://en.wikipedia.org/wiki/The_Ghost_Pirates
p31
sS'found'
p32
I01
sS'year'
p33
I-1
ssS'published_in'
p34
NsS'average_rating'
p35
F3.57
sS'rating_count'
p36
I389
sS'content_available'
p37
I01
sS'goodreads'
p38
(dp39
g30
Vhttps://www.goodreads.com/book/show/634043.The_Ghost_Pirates
p40
sg32
I01
sg33
I1909
ssS'similar_books'
p41
(lp42
VBurn, Witch, Burn! (Burn Witch Burn #1)
p43
aVBrood of the Witch-Queen
p44
aVTo Walk the Night
p45
aVThe Empty House and Other Ghost Stories
p46
aVMore Ghost Stories of an Antiquary
p47
aVThe Hill of Dreams
p48
aVCollected Stories, Vol. 3
p49
aVThe Were-Wolf
p50
aVTerror by Night: Classic Ghost & Horror Stories
p51
aVFolk-Lore and Legends Scotland
p52
aVThe Witch Of Prague & Other Stories
p53
aVPigeons from Hell and Other Weird and Fantastic Adventures
p54
aVThe Lost Continent: The Story of Atlantis
p55
aVConjure Wife
p56
aVSunfall
p57
asS'description'
p58
V"The Ghost Pirates . . . is a powerful account of a doomed and haunted ship on its last voyage, and of the terrible sea-devils (of quasi-human aspect, and perhaps the spirits of bygone buccaneers) that besiege it and finally drag it down to an unknown fate. With its command of maritime knowledge, and its clever selection of hints and incidents suggestive of latent horrors in nature, this book at times reaches enviable peaks of power." -- H.P. Lovecraft
p59
sS'format'
p60
VPaperback
p61
sS'gutenberg'
p62
(dp63
g30
Vhttp://www.gutenberg.org/ebooks/10966
p64
sS'num'
p65
I10966
ssS'authors'
p66
(lp67
I11
asS'pages'
p68
I176
sS'isbn13'
p69
V9781421925813
p70
sS'language'
p71
VEnglish
p72
sS'countries'
p73
(lp74
I1
asS'release_date'
p75
S'2004-02-01T00:00:00'
p76
sS'author'
p77
I11
sS'original_title'
p78
VThe Ghost Pirates
p79
sS'summary'
p80
VThe Ghost Pirates is a novel by William Hope Hodgson, first published in 1909. The economic style of writing has led horror writer Robert Weinberg to describe The Ghost Pirates as "one of the finest examples of the tightly written novel ever published." \u000aIn it, Hodgson never describes in any remarkable details the ghosts - if this is indeed what they are, since their true nature is left ambiguous - he merely reports on their gradual commandeering of the ship.\u000a"The Ghost Pirates . . . is a powerful account of a doomed and haunted ship on its last voyage, and of the terrible sea-devils (of quasi-human aspect, and perhaps the spirits of bygone buccaneers) that besiege it and finally drag it down to an unknown fate. With its command of maritime knowledge, and its clever selection of hints and incidents suggestive of latent horrors in nature, this book at times reaches enviable peaks of power." \u2014 H.P. Lovecraft\u000a\u000a
p81
sS'content_cleaned'
p82
I01
sS'classes'
p83
(lp84
Vto-read
p85
aVhorror
p86
aVfiction
p87
aVcurrently-reading
p88
aVkindle
p89
aVclassics
p90
aVpirates
p91
aVebook
p92
aVfantasy
p93
aVweird-fiction
p94
aVghosts
p95
aVterror
p96
aVclassic-horror
p97
aVclassic
p98
aVsupernatural
p99
aVghost-stories
p100
aVkindle-books
p101
aVhistorical
p102
aVowned
p103
aVgothic
p104
aVebooks
p105
aVaudiobook
p106
aVparanormal
p107
aVmystery
p108
aVadventure
p109
aVnautical
p110
aVhistorical-fiction
p111
aVnovels
p112
aVwant
p113
aVaudiobooks
p114
aVtaggare
p115
aVwish-list
p116
aVto-be-read-i-own
p117
aVbooks-i-own
p118
aVscience-fiction
p119
aVeown
p120
aVunrated
p121
aVearly-20th-century
p122
aVkindle-cloud
p123
aVowned-books
p124
aVe-book
p125
aVsf
p126
aVsea
p127
aVlibrary
p128
aVhorror-and-supernatural
p129
aVterror-at-sea
p130
aVghosts-and-horror
p131
aVa-still-to-read
p132
aVgot-for-free
p133
aVbarcos
p134
aVmistero-soprannaturale
p135
aVmia-biblioteca
p136
aVscifi
p137
aV4-classics-eown
p138
aVsea-adventures
p139
aVdesde-2013
p140
aVgrimoire
p141
aV3-considering
p142
aVtbr-terror
p143
aVebook-own
p144
aVreveries
p145
aVletture-brevi
p146
aV20th-century-lit
p147
aVlibros-2017
p148
aVshort-story-novella
p149
aVfavourites
p150
aVshort-story-collections
p151
aVundecided
p152
aVtype_novel
p153
aVlibreria-7-narrativa
p154
aVweirdness
p155
aVf-classics
p156
aVq2-reading-log
p157
aVbookshelf
p158
aV1-classic-literature
p159
aVhistorical-nonsense
p160
aVfantasy-scifi
p161
aVclassic-gothic-atmospherical-books
p162
aVadv-pirate-sailor-privateer-captain
p163
aVadv-adventure
p164
aVshelved
p165
aVshort-stories
p166
aVpaperwhite
p167
aVengland-scotland-ireland-wales
p168
aVto-read-in-sepoctnov-halloween-basi
p169
aVengland
p170
aVbarrea-bookshelf
p171
aVhalloween-reads
p172
aVpast
p173
aVbritish-folk-horror
p174
aVlovecraft-supernatural-horror-in-li
p175
aVposseduti
p176
aVclassici
p177
aVclassic-horror-etc
p178
aVaudio
p179
aVstarted-but-put-down
p180
aVcheck-it-out
p181
aVe-books
p182
aVwishlist-fiction
p183
aVlibros-rese-ados
p184
asS'loc_class'
p185
VPR: Language and Literatures: English literature
p186
sS'n_authors'
p187
I1
sb.