ccopy_reg
_reconstructor
p0
(cdataset.Book
Book
p1
c__builtin__
object
p2
Ntp3
Rp4
(dp5
S'content_name'
p6
V23162.txt.utf-8
p7
sS'isbn'
p8
NsS'year'
p9
I-1
sS'author_name'
p10
VFritz Leiber
p11
sS'images_urls'
p12
(lp13
Vhttp://www.gutenberg.org/files/23162/23162-h/images/frontis.png
p14
aVhttp://www.gutenberg.org/files/23162/23162-h/images/imagep161.png
p15
aVhttp://www.gutenberg.org/files/23162/23162-h/images/imagep180.png
p16
aVhttp://www.gutenberg.org/files/23162/23162-page-images/p150-image.png
p17
aVhttp://www.gutenberg.org/files/23162/23162-page-images/p150.png
p18
aVhttp://www.gutenberg.org/files/23162/23162-page-images/p151-image.png
p19
aVhttp://www.gutenberg.org/files/23162/23162-page-images/p151.png
p20
aVhttp://www.gutenberg.org/files/23162/23162-page-images/p152a.png
p21
aVhttp://www.gutenberg.org/files/23162/23162-page-images/p152b.png
p22
aVhttp://www.gutenberg.org/files/23162/23162-page-images/p153a.png
p23
aVhttp://www.gutenberg.org/files/23162/23162-page-images/p153b.png
p24
aVhttp://www.gutenberg.org/files/23162/23162-page-images/p154a.png
p25
aVhttp://www.gutenberg.org/files/23162/23162-page-images/p154b.png
p26
aVhttp://www.gutenberg.org/files/23162/23162-page-images/p155a.png
p27
aVhttp://www.gutenberg.org/files/23162/23162-page-images/p155b.png
p28
aVhttp://www.gutenberg.org/files/23162/23162-page-images/p156a.png
p29
aVhttp://www.gutenberg.org/files/23162/23162-page-images/p156b.png
p30
aVhttp://www.gutenberg.org/files/23162/23162-page-images/p157a.png
p31
aVhttp://www.gutenberg.org/files/23162/23162-page-images/p157b.png
p32
aVhttp://www.gutenberg.org/files/23162/23162-page-images/p158a.png
p33
aVhttp://www.gutenberg.org/files/23162/23162-page-images/p158b.png
p34
aVhttp://www.gutenberg.org/files/23162/23162-page-images/p159a.png
p35
aVhttp://www.gutenberg.org/files/23162/23162-page-images/p159b.png
p36
aVhttp://www.gutenberg.org/files/23162/23162-page-images/p160a.png
p37
aVhttp://www.gutenberg.org/files/23162/23162-page-images/p160b.png
p38
aVhttp://www.gutenberg.org/files/23162/23162-page-images/p161.png
p39
aVhttp://www.gutenberg.org/files/23162/23162-page-images/p162a.png
p40
aVhttp://www.gutenberg.org/files/23162/23162-page-images/p162b.png
p41
aVhttp://www.gutenberg.org/files/23162/23162-page-images/p163a.png
p42
aVhttp://www.gutenberg.org/files/23162/23162-page-images/p163b.png
p43
aVhttp://www.gutenberg.org/files/23162/23162-page-images/p164a.png
p44
aVhttp://www.gutenberg.org/files/23162/23162-page-images/p164b.png
p45
aVhttp://www.gutenberg.org/files/23162/23162-page-images/p165a.png
p46
aVhttp://www.gutenberg.org/files/23162/23162-page-images/p165b.png
p47
aVhttp://www.gutenberg.org/files/23162/23162-page-images/p166a.png
p48
aVhttp://www.gutenberg.org/files/23162/23162-page-images/p166b.png
p49
aVhttp://www.gutenberg.org/files/23162/23162-page-images/p167a.png
p50
aVhttp://www.gutenberg.org/files/23162/23162-page-images/p167b.png
p51
aVhttp://www.gutenberg.org/files/23162/23162-page-images/p168a.png
p52
aVhttp://www.gutenberg.org/files/23162/23162-page-images/p168b.png
p53
aVhttp://www.gutenberg.org/files/23162/23162-page-images/p169a.png
p54
aVhttp://www.gutenberg.org/files/23162/23162-page-images/p169b.png
p55
aVhttp://www.gutenberg.org/files/23162/23162-page-images/p170a.png
p56
aVhttp://www.gutenberg.org/files/23162/23162-page-images/p170b.png
p57
aVhttp://www.gutenberg.org/files/23162/23162-page-images/p171a.png
p58
aVhttp://www.gutenberg.org/files/23162/23162-page-images/p171b.png
p59
aVhttp://www.gutenberg.org/files/23162/23162-page-images/p172a.png
p60
aVhttp://www.gutenberg.org/files/23162/23162-page-images/p172b.png
p61
aVhttp://www.gutenberg.org/files/23162/23162-page-images/p173a.png
p62
aVhttp://www.gutenberg.org/files/23162/23162-page-images/p173b.png
p63
aVhttp://www.gutenberg.org/files/23162/23162-page-images/p174a.png
p64
aVhttp://www.gutenberg.org/files/23162/23162-page-images/p174b.png
p65
aVhttp://www.gutenberg.org/files/23162/23162-page-images/p175a.png
p66
aVhttp://www.gutenberg.org/files/23162/23162-page-images/p175b.png
p67
aVhttp://www.gutenberg.org/files/23162/23162-page-images/p176a.png
p68
aVhttp://www.gutenberg.org/files/23162/23162-page-images/p176b.png
p69
aVhttp://www.gutenberg.org/files/23162/23162-page-images/p177a.png
p70
aVhttp://www.gutenberg.org/files/23162/23162-page-images/p177b.png
p71
aVhttp://www.gutenberg.org/files/23162/23162-page-images/p178a.png
p72
aVhttp://www.gutenberg.org/files/23162/23162-page-images/p178b.png
p73
aVhttp://www.gutenberg.org/files/23162/23162-page-images/p179a.png
p74
aVhttp://www.gutenberg.org/files/23162/23162-page-images/p179b.png
p75
aVhttp://www.gutenberg.org/files/23162/23162-page-images/p180-image.png
p76
aVhttp://www.gutenberg.org/files/23162/23162-page-images/p180.png
p77
aVhttp://www.gutenberg.org/files/23162/23162-page-images/p181-image.png
p78
aVhttp://www.gutenberg.org/files/23162/23162-page-images/p181.png
p79
aVhttp://www.gutenberg.org/files/23162/23162-page-images/p182a.png.png
p80
aVhttp://www.gutenberg.org/files/23162/23162-page-images/p182b.png
p81
aVhttp://www.gutenberg.org/files/23162/23162-page-images/p183a.png
p82
aVhttp://www.gutenberg.org/files/23162/23162-page-images/p183b.png
p83
aVhttp://www.gutenberg.org/files/23162/23162-page-images/p184a.png
p84
aVhttp://www.gutenberg.org/files/23162/23162-page-images/p184b.png
p85
aVhttp://www.gutenberg.org/files/23162/23162-page-images/p185a.png
p86
aVhttp://www.gutenberg.org/files/23162/23162-page-images/p185b.png
p87
aVhttp://www.gutenberg.org/files/23162/23162-page-images/p186a.png
p88
aVhttp://www.gutenberg.org/files/23162/23162-page-images/p186b.png
p89
aVhttp://www.gutenberg.org/files/23162/23162-page-images/p187a.png
p90
aVhttp://www.gutenberg.org/files/23162/23162-page-images/p187b.png
p91
aVhttp://www.gutenberg.org/files/23162/23162-page-images/p188a.png
p92
aVhttp://www.gutenberg.org/files/23162/23162-page-images/p188b.png
p93
aVhttp://www.gutenberg.org/files/23162/23162-page-images/p189a.png
p94
aVhttp://www.gutenberg.org/files/23162/23162-page-images/p189b.png
p95
aVhttp://www.gutenberg.org/files/23162/23162-page-images/p190a.png
p96
aVhttp://www.gutenberg.org/files/23162/23162-page-images/p190b.png
p97
aVhttp://www.gutenberg.org/files/23162/23162-page-images/p191a.png
p98
aVhttp://www.gutenberg.org/files/23162/23162-page-images/p191b.png
p99
aVhttp://www.gutenberg.org/files/23162/23162-page-images/p192a.png
p100
aVhttp://www.gutenberg.org/files/23162/23162-page-images/p192b.png
p101
aVhttp://www.gutenberg.org/files/23162/23162-page-images/p193a.png
p102
aVhttp://www.gutenberg.org/files/23162/23162-page-images/p193b.png
p103
aVhttp://www.gutenberg.org/files/23162/23162-page-images/p194.png
p104
asS'language_code'
p105
NsS'images'
p106
(lp107
sS'id'
p108
I357
sS'category'
p109
VText
p110
sS'genres'
p111
(lp112
sS'copyright'
p113
VPublic domain in the USA.
p114
sS'title'
p115
VNo Great Magic
p116
sS'wikipedia'
p117
(dp118
S'url'
p119
Vhttps://en.wikipedia.org/wiki/Fafhrd_and_the_Gray_Mouser
p120
sS'found'
p121
I01
sS'year'
p122
I-1
ssS'published_in'
p123
NsS'average_rating'
p124
F3.43
sS'rating_count'
p125
I55
sS'content_available'
p126
I01
sS'goodreads'
p127
(dp128
g119
Vhttps://www.goodreads.com/book/show/12297818-no-great-magic
p129
sg121
I01
sg122
I-1
ssS'similar_books'
p130
(lp131
sS'description'
p132
VNo Great Magic is a science fiction novel by Fritz Leiber and the sequel to The Big Time. The story involves two warring factions that battle by using time travel to change the outcome of events throughout history. No Great Magic was originally published in Galaxy Science Fiction Magazine's December 1963 issue. To bring the dead to lifeIs no great magic.Few are wholly dead: Blow on a dead man's embersAnd a live flame will start. -GravesFritz Reuter Leiber, Jr was an American fantasy, horror and science fiction writer. He was an expert chess player and a champion fencer. He received the Gandalf award at the World Science Fiction Convention in 1975 and the Grand Master Award at the Science Fiction and Fantasy Writers of America in 1981.
p133
sS'format'
p134
NsS'gutenberg'
p135
(dp136
g119
Vhttp://www.gutenberg.org/ebooks/23162
p137
sS'num'
p138
I23162
ssS'authors'
p139
(lp140
I32
asS'isbn13'
p141
NsS'language'
p142
VEnglish
p143
sS'release_date'
p144
S'2007-10-24T00:00:00'
p145
sS'author'
p146
I32
sS'original_title'
p147
VFafhrd and the Gray Mouser
p148
sS'summary'
p149
VFafhrd and the Gray Mouser are two sword-and-sorcery heroes appearing in stories written by American author Fritz Leiber. They are the protagonists of what are probably Leiber's best-known stories. One of his motives in writing them was to have a couple of fantasy heroes closer to true human nature than the likes of Howard's Conan the Barbarian or Burroughs's Tarzan.\u000aFafhrd is a very tall (nearly seven feet) and strong northern barbarian, skilled at both swordsmanship and singing; the Mouser is a small (not much more than five feet) mercurial thief, gifted and deadly at swordsmanship (often using a sword in one hand and a long dagger\u2014technically a main-gauche\u2014in the other), and a former wizard's apprentice who retains some skill at magic. Fafhrd talks like a romantic, but his strong practicality usually wins through, while the cynical-sounding Mouser is prone to showing strains of sentiment at unexpected times. Both are rogues, living in a decadent world where to be so is a requirement of survival. They spend a lot of time drinking, feasting, wenching, brawling, stealing, and gambling, and are seldom fussy about who hires their swords. But they are humane and\u2014most of all\u2014relish true adventure.\u000aThe characters were loosely modeled upon Leiber himself and his friend Harry Otto Fischer. Fischer initially created them in a letter to Leiber in September 1934, naming at the same time their home city of Lankhmar. In 1936, Leiber finished the first Fafhrd and Gray Mouser novella, "Adept's Gambit", and began work on a second, "The Tale of the Grain Ships". At the same time, Fischer was writing the beginning of "The Lords of Quarmall". "Adept's Gambit" would not see publication until 1947, while "The Lords of Quarmall" would be finished by Leiber and published in 1964 and "The Tale of the Grain Ships" would become the prototype for "Scylla's Daughter" (1961) and, later, the novel The Swords of Lankhmar (1968).\u000aThe stories of the two were only loosely connected until the 1960s, when Leiber organized them chronologically and added additional material in preparation for paperback publication. Starting as young men, the two separately meet their female lovers, meet each other, and lose both their lovers in the same night, which explains both their friendship and the arrested adolescence of their lifestyles. However, in later stories, the two mature, learn leadership, and eventually settle down with new female partners on the Iceland-like Rime Isle. Leiber contemplated continuing the series beyond this point, but died prior to doing so.\u000a\u000a
p150
sS'content_cleaned'
p151
I01
sS'classes'
p152
(lp153
Vto-read
p154
aVscience-fiction
p155
aVsci-fi
p156
aVtime-travel
p157
aVfiction
p158
aVowned
p159
aVcurrently-reading
p160
aVe-book
p161
aVkindle
p162
aVroundtuit
p163
aVunread
p164
aVowned-to-read
p165
aVebooks-to-read
p166
aVaudio-books
p167
aVebook
p168
aVaudiobooks-to-read
p169
aVscifi-fantasy
p170
aVowned-but-unread
p171
aVfritz-leiber
p172
aVtbr-owned
p173
aVexcess-kindle
p174
aVaudiobooks
p175
aVno-time-soon
p176
aVundecided
p177
aVshort-story
p178
aVhorror-sci-fi
p179
aV15
p180
aVreviewed
p181
aVebooks_unread
p182
aVto-read-ebooks
p183
aVdonated
p184
aV20-century
p185
aV16th-century
p186
aVaudio-obtained
p187
aVfavorites
p188
aVto-read-kindle
p189
aVfantasy
p190
aVepub
p191
aVnovella
p192
aVscifi
p193
aVfiction-sf
p194
aVbacklog
p195
aVhigh-priority-tbr
p196
aVround-tuit
p197
aVaudio-obtained-ss
p198
aVbacklogue
p199
aVaaaaaaaa
p200
asS'loc_class'
p201
VPS: Language and Literatures: American and Canadian literature
p202
sS'n_authors'
p203
I1
sb.