ccopy_reg
_reconstructor
p0
(cdataset.Book
Book
p1
c__builtin__
object
p2
Ntp3
Rp4
(dp5
S'content_name'
p6
V51809.txt.utf-8
p7
sS'isbn'
p8
V0586049630
p9
sS'year'
p10
I1957
sS'author_name'
p11
VFrederik Pohl
p12
sS'images_urls'
p13
(lp14
Vhttp://www.gutenberg.org/files/51809/51809-h/images/cover.jpg
p15
aVhttp://www.gutenberg.org/files/51809/51809-h/images/illus1.jpg
p16
aVhttp://www.gutenberg.org/files/51809/51809-h/images/illus2.jpg
p17
aVhttp://www.gutenberg.org/files/51809/51809-h/images/illus3.jpg
p18
asS'language_code'
p19
Veng
p20
sS'images'
p21
(lp22
sS'id'
p23
I165
sS'category'
p24
VText
p25
sS'genres'
p26
(lp27
sS'copyright'
p28
VPublic domain in the USA.
p29
sS'title'
p30
VSurvival Kit
p31
sS'wikipedia'
p32
(dp33
S'found'
p34
I00
ssS'average_rating'
p35
F3.99
sS'rating_count'
p36
I17
sS'content_available'
p37
I01
sS'cover_art_url'
p38
S'http://www.gutenberg.org/cache/epub/51809/pg51809.cover.medium.jpg'
p39
sS'goodreads'
p40
(dp41
S'url'
p42
S'https://www.goodreads.com/book/show/3060708-survival-kit'
p43
sS'found'
p44
I01
ssS'similar_books'
p45
(lp46
sS'description'
p47
NsS'gutenberg'
p48
(dp49
S'url'
p50
Vhttp://www.gutenberg.org/ebooks/51809
p51
sS'num'
p52
I51809
ssS'authors'
p53
(lp54
I40
asS'pages'
p55
I192
sS'isbn13'
p56
V9780586049631
p57
sS'language'
p58
VEnglish
p59
sS'countries'
p60
(lp61
I2
asS'release_date'
p62
S'2016-04-20T00:00:00'
p63
sS'author'
p64
I40
sS'content_cleaned'
p65
I01
sS'classes'
p66
(lp67
Vto-read
p68
aVdefault
p69
aVsci-fi
p70
aVscience-fiction
p71
aVproject-gutenberg
p72
aVebook
p73
aVgot
p74
aV20th-century-lit
p75
aVowned
p76
aVtrb
p77
aVreview-done
p78
aVtype-short-story
p79
aVused-to-own
p80
aV04-sirpa-lukematta
p81
aV71-science-fiction
p82
aVsirpa-ei-tietoa
p83
aVsamin-kirjasto
p84
aVsami-lukenut
p85
aVomistuksessa
p86
aVcurrently-reading
p87
aVcollection
p88
aVsf
p89
aVpaperback
p90
aVmarket
p91
aVmass
p92
aVsoftcover
p93
aVshort-stories
p94
aVmaybe
p95
aVpulp-sf
p96
aV24-sirpa-ei-tietoa
p97
asS'loc_class'
p98
S''
p99
sS'n_authors'
p100
I1
sb.