ccopy_reg
_reconstructor
p0
(cdataset.Book
Book
p1
c__builtin__
object
p2
Ntp3
Rp4
(dp5
S'content_name'
p6
V24567.txt.utf-8
p7
sS'isbn'
p8
NsS'year'
p9
I1962
sS'author_name'
p10
VAllen Kim Lang
p11
sS'images_urls'
p12
(lp13
Vhttp://www.gutenberg.org/files/24567/24567-h/images/cover.jpg
p14
aVhttp://www.gutenberg.org/files/24567/24567-h/images/illus1.png
p15
aVhttp://www.gutenberg.org/files/24567/24567-h/images/illus2.png
p16
aVhttp://www.gutenberg.org/files/24567/24567-h/images/illus3.png
p17
aVhttp://www.gutenberg.org/files/24567/24567-h/images/illus4.png
p18
aVhttp://www.gutenberg.org/files/24567/24567-h/images/illus5.png
p19
aVhttp://www.gutenberg.org/files/24567/24567-page-images/f0001_image1.jpg
p20
aVhttp://www.gutenberg.org/files/24567/24567-page-images/f0002_image1.png
p21
aVhttp://www.gutenberg.org/files/24567/24567-page-images/p0007.png
p22
aVhttp://www.gutenberg.org/files/24567/24567-page-images/p0007_image1.png
p23
aVhttp://www.gutenberg.org/files/24567/24567-page-images/p0008.png
p24
aVhttp://www.gutenberg.org/files/24567/24567-page-images/p0009.png
p25
aVhttp://www.gutenberg.org/files/24567/24567-page-images/p0010.png
p26
aVhttp://www.gutenberg.org/files/24567/24567-page-images/p0011.png
p27
aVhttp://www.gutenberg.org/files/24567/24567-page-images/p0012.png
p28
aVhttp://www.gutenberg.org/files/24567/24567-page-images/p0013.png
p29
aVhttp://www.gutenberg.org/files/24567/24567-page-images/p0013_image1.png
p30
aVhttp://www.gutenberg.org/files/24567/24567-page-images/p0014.png
p31
aVhttp://www.gutenberg.org/files/24567/24567-page-images/p0015.png
p32
aVhttp://www.gutenberg.org/files/24567/24567-page-images/p0016.png
p33
aVhttp://www.gutenberg.org/files/24567/24567-page-images/p0017.png
p34
aVhttp://www.gutenberg.org/files/24567/24567-page-images/p0018.png
p35
aVhttp://www.gutenberg.org/files/24567/24567-page-images/p0019.png
p36
aVhttp://www.gutenberg.org/files/24567/24567-page-images/p0020.png
p37
aVhttp://www.gutenberg.org/files/24567/24567-page-images/p0020_image1.png
p38
aVhttp://www.gutenberg.org/files/24567/24567-page-images/p0021.png
p39
aVhttp://www.gutenberg.org/files/24567/24567-page-images/p0022.png
p40
aVhttp://www.gutenberg.org/files/24567/24567-page-images/p0023.png
p41
aVhttp://www.gutenberg.org/files/24567/24567-page-images/p0024.png
p42
aVhttp://www.gutenberg.org/files/24567/24567-page-images/p0025.png
p43
aVhttp://www.gutenberg.org/files/24567/24567-page-images/p0026.png
p44
aVhttp://www.gutenberg.org/files/24567/24567-page-images/p0027.png
p45
aVhttp://www.gutenberg.org/files/24567/24567-page-images/p0027_image1.png
p46
aVhttp://www.gutenberg.org/files/24567/24567-page-images/p0028.png
p47
aVhttp://www.gutenberg.org/files/24567/24567-page-images/p0029.png
p48
aVhttp://www.gutenberg.org/files/24567/24567-page-images/p0030.png
p49
aVhttp://www.gutenberg.org/files/24567/24567-page-images/p0031.png
p50
aVhttp://www.gutenberg.org/files/24567/24567-page-images/p0032.png
p51
aVhttp://www.gutenberg.org/files/24567/24567-page-images/p0033.png
p52
aVhttp://www.gutenberg.org/files/24567/24567-page-images/p0034.png
p53
asS'language_code'
p54
NsS'images'
p55
(lp56
sS'id'
p57
I721
sS'category'
p58
VText
p59
sS'genres'
p60
(lp61
sS'copyright'
p62
VPublic domain in the USA.
p63
sS'title'
p64
VBlind Man's Lantern
p65
sS'wikipedia'
p66
(dp67
S'found'
p68
I00
ssS'average_rating'
p69
F3.0
sS'rating_count'
p70
I6
sS'content_available'
p71
I01
sS'cover_art_url'
p72
S'http://www.gutenberg.org/cache/epub/24567/pg24567.cover.medium.jpg'
p73
sS'goodreads'
p74
(dp75
S'url'
p76
Vhttps://www.goodreads.com/book/show/5722783-blind-man-s-lantern
p77
sg68
I01
sS'year'
p78
I2010
ssS'similar_books'
p79
(lp80
sS'description'
p81
NsS'gutenberg'
p82
(dp83
g76
Vhttp://www.gutenberg.org/ebooks/24567
p84
sS'num'
p85
I24567
ssS'authors'
p86
(lp87
I179
asS'isbn13'
p88
NsS'language'
p89
VEnglish
p90
sS'countries'
p91
(lp92
I2
asS'release_date'
p93
S'2008-02-10T00:00:00'
p94
sS'author'
p95
I179
sS'cover'
p96
Vhttps://s.gr-assets.com/assets/nophoto/book/111x148-bcc042a9c91a29c1d680899eff700a03.png
p97
sS'content_cleaned'
p98
I01
sS'classes'
p99
(lp100
Vto-read
p101
aVcurrently-reading
p102
aVsci-fi
p103
aVscience-fiction
p104
aVjunk
p105
aV21st-century-lit
p106
aVebooks-owned
p107
aVbooks-owned
p108
aVshort-stories
p109
aVon-tablet
p110
aVon-calibre
p111
aVebook
p112
aVshould-try-to-read
p113
aV14
p114
aVe-book
p115
aVshort-story
p116
aVkindle
p117
aVsf
p118
asS'loc_class'
p119
VPS: Language and Literatures: American and Canadian literature
p120
sS'n_authors'
p121
I1
sb.