ccopy_reg
_reconstructor
p0
(cdataset.Book
Book
p1
c__builtin__
object
p2
Ntp3
Rp4
(dp5
S'content_name'
p6
V51256.txt.utf-8
p7
sS'author_name'
p8
VAndrew Fetler
p9
sS'images_urls'
p10
(lp11
Vhttp://www.gutenberg.org/files/51256/51256-h/images/cover.jpg
p12
aVhttp://www.gutenberg.org/files/51256/51256-h/images/illus.jpg
p13
asS'year'
p14
I1963
sS'images'
p15
(lp16
sS'id'
p17
I909
sS'category'
p18
VText
p19
sS'genres'
p20
(lp21
sS'copyright'
p22
VPublic domain in the USA.
p23
sS'title'
p24
VThe Cool War
p25
sS'wikipedia'
p26
(dp27
S'found'
p28
I00
ssS'average_rating'
p29
F3.28
sS'cover_art_url'
p30
S'http://www.gutenberg.org/cache/epub/51256/pg51256.cover.medium.jpg'
p31
sS'goodreads'
p32
(dp33
S'found'
p34
I00
ssS'content_available'
p35
I01
sS'gutenberg'
p36
(dp37
S'url'
p38
Vhttp://www.gutenberg.org/ebooks/51256
p39
sS'num'
p40
I51256
ssS'authors'
p41
(lp42
I278
asS'language'
p43
VEnglish
p44
sS'countries'
p45
(lp46
I3
asS'release_date'
p47
S'2016-02-21T00:00:00'
p48
sS'author'
p49
I278
sS'content_cleaned'
p50
I01
sS'loc_class'
p51
S''
p52
sS'n_authors'
p53
I1
sb.