ccopy_reg
_reconstructor
p0
(cdataset.Book
Book
p1
c__builtin__
object
p2
Ntp3
Rp4
(dp5
S'content_name'
p6
V27797.txt.utf-8
p7
sS'isbn'
p8
NsS'year'
p9
I2009
sS'author_name'
p10
VGerald Vance
p11
sS'images_urls'
p12
(lp13
Vhttp://www.gutenberg.org/files/27797/27797-h/images/001.png
p14
aVhttp://www.gutenberg.org/files/27797/27797-page-images/p0054-image1.png
p15
aVhttp://www.gutenberg.org/files/27797/27797-page-images/p0055.png
p16
aVhttp://www.gutenberg.org/files/27797/27797-page-images/p0056.png
p17
aVhttp://www.gutenberg.org/files/27797/27797-page-images/p0057.png
p18
aVhttp://www.gutenberg.org/files/27797/27797-page-images/p0058.png
p19
aVhttp://www.gutenberg.org/files/27797/27797-page-images/p0059.png
p20
aVhttp://www.gutenberg.org/files/27797/27797-page-images/p0060.png
p21
aVhttp://www.gutenberg.org/files/27797/27797-page-images/p0061.png
p22
aVhttp://www.gutenberg.org/files/27797/27797-page-images/p0062.png
p23
asS'language_code'
p24
NsS'images'
p25
(lp26
sS'id'
p27
I678
sS'category'
p28
VText
p29
sS'genres'
p30
(lp31
sS'copyright'
p32
VPublic domain in the USA.
p33
sS'title'
p34
VVital Ingredient
p35
sS'wikipedia'
p36
(dp37
S'found'
p38
I00
ssS'average_rating'
p39
F3.25
sS'rating_count'
p40
I4
sS'content_available'
p41
I01
sS'goodreads'
p42
(dp43
S'url'
p44
Vhttps://www.goodreads.com/book/show/10663606-vital-ingredient
p45
sg38
I01
sS'year'
p46
I2009
ssS'similar_books'
p47
(lp48
sS'description'
p49
NsS'format'
p50
NsS'gutenberg'
p51
(dp52
g44
Vhttp://www.gutenberg.org/ebooks/27797
p53
sS'num'
p54
I27797
ssS'authors'
p55
(lp56
I185
asS'isbn13'
p57
NsS'language'
p58
VEnglish
p59
sS'country'
p60
I3
sS'release_date'
p61
S'2009-01-21T00:00:00'
p62
sS'author'
p63
I185
sS'content_cleaned'
p64
I01
sS'classes'
p65
(lp66
Vunread
p67
aVebooks
p68
aV14
p69
aVstanza
p70
asS'loc_class'
p71
VPS: Language and Literatures: American and Canadian literature
p72
sS'n_authors'
p73
I1
sb.