ccopy_reg
_reconstructor
p0
(cdataset.Book
Book
p1
c__builtin__
object
p2
Ntp3
Rp4
(dp5
S'content_name'
p6
V30177.txt.utf-8
p7
sS'isbn'
p8
NsS'year'
p9
I1931
sS'author_name'
p10
VVarious
p11
sS'images_urls'
p12
(lp13
Vhttp://www.gutenberg.org/files/30177/30177-h/images/allah.png
p14
aVhttp://www.gutenberg.org/files/30177/30177-h/images/antri.png
p15
aVhttp://www.gutenberg.org/files/30177/30177-h/images/banner.png
p16
aVhttp://www.gutenberg.org/files/30177/30177-h/images/catapult-lg.png
p17
aVhttp://www.gutenberg.org/files/30177/30177-h/images/catapult-sm.png
p18
aVhttp://www.gutenberg.org/files/30177/30177-h/images/cover.jpg
p19
aVhttp://www.gutenberg.org/files/30177/30177-h/images/masthead.png
p20
aVhttp://www.gutenberg.org/files/30177/30177-h/images/pirate.png
p21
aVhttp://www.gutenberg.org/files/30177/30177-h/images/readers.png
p22
aVhttp://www.gutenberg.org/files/30177/30177-h/images/sunken-lg.png
p23
aVhttp://www.gutenberg.org/files/30177/30177-h/images/sunken-sm.png
p24
aVhttp://www.gutenberg.org/files/30177/30177-h/images/xoran.png
p25
asS'language_code'
p26
Veng
p27
sS'id'
p28
I98
sS'category'
p29
VText
p30
sS'genres'
p31
(lp32
sS'copyright'
p33
VPublic domain in the USA.
p34
sS'title'
p35
VAstounding Stories of Super-Science January 1931
p36
sS'wikipedia'
p37
(dp38
S'found'
p39
I00
ssS'average_rating'
p40
F4.0
sS'rating_count'
p41
I1
sS'content_available'
p42
I01
sS'cover_art_url'
p43
S'http://www.gutenberg.org/cache/epub/30177/pg30177.cover.medium.jpg'
p44
sS'goodreads'
p45
(dp46
S'url'
p47
Vhttps://www.goodreads.com/book/show/21902185-astounding-stories-of-super-science-january-1931
p48
sS'found'
p49
I01
sS'year'
p50
I2011
ssS'similar_books'
p51
(lp52
sS'description'
p53
VThis book was converted from its physical edition to the digital format by a community of volunteers. You may find it for free on the web. Purchase of the Kindle edition includes wireless delivery.
p54
sS'format'
p55
NsS'gutenberg'
p56
(dp57
g47
Vhttp://www.gutenberg.org/ebooks/30177
p58
sS'num'
p59
I30177
ssS'authors'
p60
(lp61
I17
asS'isbn13'
p62
NsS'language'
p63
VEnglish
p64
sS'countries'
p65
(lp66
I3
asS'release_date'
p67
S'2009-10-05T00:00:00'
p68
sS'author'
p69
I17
sS'content_cleaned'
p70
I01
sS'classes'
p71
(lp72
Vto-read
p73
aVsci-fi
p74
aVproject-gutenberg
p75
aVebook
p76
aVshort-stories
p77
aVscience-fiction
p78
aVgutenberg
p79
asS'loc_class'
p80
VPN: Language and Literatures: Literature: General, Criticism, Collections
p81
sS'n_authors'
p82
I1
sb.