ccopy_reg
_reconstructor
p0
(cdataset.Book
Book
p1
c__builtin__
object
p2
Ntp3
Rp4
(dp5
S'content_name'
p6
V18949.txt.utf-8
p7
sS'isbn'
p8
NsS'year'
p9
I1951
sS'author_name'
p10
VH. Beam Piper
p11
sS'images_urls'
p12
(lp13
Vhttp://www.gutenberg.org/files/18949/18949-h/images/ill001.jpg
p14
aVhttp://www.gutenberg.org/files/18949/18949-h/images/ill008.jpg
p15
aVhttp://www.gutenberg.org/files/18949/18949-h/images/ill014.jpg
p16
aVhttp://www.gutenberg.org/files/18949/18949-h/images/ill015.jpg
p17
aVhttp://www.gutenberg.org/files/18949/18949-h/images/ill021.jpg
p18
asS'language_code'
p19
NsS'id'
p20
I289
sS'category'
p21
VText
p22
sS'genres'
p23
(lp24
sS'copyright'
p25
VPublic domain in the USA.
p26
sS'title'
p27
VDay of the Moron
p28
sS'wikipedia'
p29
(dp30
S'found'
p31
I00
ssS'average_rating'
p32
F3.45
sS'rating_count'
p33
I53
sS'content_available'
p34
I01
sS'goodreads'
p35
(dp36
S'url'
p37
Vhttps://www.goodreads.com/book/show/6465197-day-of-the-moron
p38
sS'found'
p39
I01
sS'year'
p40
I1951
ssS'similar_books'
p41
(lp42
sS'description'
p43
NsS'gutenberg'
p44
(dp45
g37
Vhttp://www.gutenberg.org/ebooks/18949
p46
sS'num'
p47
I18949
ssS'authors'
p48
(lp49
I19
asS'pages'
p50
I26
sS'isbn13'
p51
NsS'language'
p52
VEnglish
p53
sS'countries'
p54
(lp55
I2
asS'release_date'
p56
S'2006-07-31T00:00:00'
p57
sS'author'
p58
I19
sS'cover'
p59
Vhttps://s.gr-assets.com/assets/nophoto/book/111x148-bcc042a9c91a29c1d680899eff700a03.png
p60
sS'content_cleaned'
p61
I01
sS'classes'
p62
(lp63
Vsci-fi
p64
aVscience-fiction
p65
aVkindle
p66
aVfiction
p67
aVscifi
p68
aVcurrently-reading
p69
aVshort-stories
p70
aVshort-story
p71
aV15
p72
aVmy-books
p73
aVebooks
p74
aVthe-real-stuff
p75
aVsf-challenge
p76
aVsf
p77
aVon-disk
p78
aVfantasy
p79
aVdystopian
p80
aVscifi-fantasy
p81
aVacquired
p82
aVh-beam-piper
p83
aVsci-fi-or-speculative
p84
aVclassic-lit
p85
aVcollected-classics
p86
aVbooks-on-kindle
p87
asS'loc_class'
p88
VPS: Language and Literatures: American and Canadian literature
p89
sS'n_authors'
p90
I1
sb.