ccopy_reg
_reconstructor
p0
(cdataset.Book
Book
p1
c__builtin__
object
p2
Ntp3
Rp4
(dp5
S'similar_books'
p6
(lp7
sS'genres'
p8
(lp9
sS'author'
p10
I302
sS'countries'
p11
(lp12
I2
asS'year'
p13
I1970
sS'title'
p14
VGalaxy Magazine August 1970
p15
sS'cover'
p16
Vhttps://ia600201.us.archive.org/BookReader/BookReaderImages.php?zip=/33/items/Galaxy_v30n05_1970-08-09/Galaxy_v30n05_1970-08-09_jp2.zip&file=Galaxy_v30n05_1970-08-09_jp2/Galaxy_v30n05_1970-08-09_0000.jp2&scale=0&rotate=0
p17
sS'cover_art'
p18
S'http://www.isfdb.org/wiki/images/8/89/GALAUGSEP70.jpg'
p19
sS'author_name'
p20
VGalaxy Magazine
p21
sS'images_urls'
p22
(lp23
sS'authors'
p24
(lp25
I326
aI499
aI667
aI91
aI112
aI55
aI371
aI74
aI662
aI663
aI302
asS'images'
p26
(lp27
sS'id'
p28
I1144
sS'contents'
p29
(lp30
(dp31
g10
I326
sg14
VThe Day After Judgment
p32
sa(dp33
g10
I326
sg14
VThe Day After Judgment [2]
p34
sa(dp35
g10
I326
sg14
VThe Day After Judgment [3]
p36
sa(dp37
g10
I326
sg14
VAbout a Secret Crocodile
p38
sa(dp39
g10
I499
sg14
VPower Play
p40
sa(dp41
g10
I326
sg14
VMoon Heat
p42
sa(dp43
g10
I326
sg14
VI Will Fear No Evil (Part 2 of 4)
p44
sa(dp45
g10
I326
sg14
VI Will Fear No Evil (Part 2 of 4) [2]
p46
sa(dp47
g10
I326
sg14
VI Will Fear No Evil (Part 2 of 4) [3]
p48
sa(dp49
g10
I667
sg14
VThe Raries
p50
sa(dp51
g10
I91
sg14
VGalaxy Book Shelf (Galaxy, August-September 1970)
p52
sa(dp53
g10
I112
sg14
VCoordinates
p54
sa(dp55
g10
I55
sg14
VThe Day After Judgment (Complete Novel)
p56
sa(dp57
g10
I371
sg14
VI Will Fear No Evil (Part 2 of 4)
p58
sa(dp59
g10
I74
sg14
VAbout a Secret Crocodile
p60
sa(dp61
g10
I662
sg14
VPower Play
p62
sa(dp63
g10
I663
sg14
VMoon Heat
p64
sasb.