ccopy_reg
_reconstructor
p0
(cdataset.Book
Book
p1
c__builtin__
object
p2
Ntp3
Rp4
(dp5
S'content_name'
p6
V31207.txt.utf-8
p7
sS'isbn'
p8
NsS'year'
p9
I1954
sS'author_name'
p10
VHenry Kuttner
p11
sS'images_urls'
p12
(lp13
sS'language_code'
p14
NsS'id'
p15
I613
sS'category'
p16
VText
p17
sS'genres'
p18
(lp19
sS'copyright'
p20
VPublic domain in the USA.
p21
sS'title'
p22
VWhere the World is Quiet
p23
sS'wikipedia'
p24
(dp25
S'found'
p26
I00
ssS'average_rating'
p27
F3.17
sS'rating_count'
p28
I17
sS'content_available'
p29
I01
sS'goodreads'
p30
(dp31
S'url'
p32
Vhttps://www.goodreads.com/book/show/10379594-where-the-world-is-quiet
p33
sS'found'
p34
I01
sS'year'
p35
I2010
ssS'similar_books'
p36
(lp37
sS'description'
p38
VThe life of an anthropologist is no doubt filled much of the time with the monotonous routine of carefully assembling powdery relics of ancient races and civilizations. But White's lone Peruvian odyssey was most unusual. Fra Rafael saw strange things, impossible things. Then there was the mystery of the seven young virginal girls of Huascan. . . .
p39
sS'format'
p40
NsS'gutenberg'
p41
(dp42
g32
Vhttp://www.gutenberg.org/ebooks/31207
p43
sS'num'
p44
I31207
ssS'authors'
p45
(lp46
I123
asS'isbn13'
p47
V2940012617705
p48
sS'language'
p49
VEnglish
p50
sS'countries'
p51
(lp52
I2
asS'release_date'
p53
S'2010-02-07T00:00:00'
p54
sS'author'
p55
I123
sS'content_cleaned'
p56
I01
sS'classes'
p57
(lp58
Vto-read
p59
aVsci-fi
p60
aVcurrently-reading
p61
aVshort-stories
p62
aVscience-fiction
p63
aVshort-story
p64
aVjunk
p65
aVspeculative-fiction
p66
aVz_fiction
p67
aVx_shortstory
p68
aVwo_scifi
p69
aVw_us_federal
p70
aVon-calibre
p71
aVmaybe-reads
p72
aVclassics
p73
aVaudio-obtained-lvss
p74
aVebook
p75
aVowned-amazon
p76
aV13
p77
aVsci-fi-fantasy
p78
aVfantasy
p79
aVbooks-i-like
p80
aVowned
p81
aVfantasy-science-fiction
p82
aVfront-shelf
p83
aVtype-short-story
p84
aVaudio-obtained-ss
p85
asS'loc_class'
p86
VPS: Language and Literatures: American and Canadian literature
p87
sS'n_authors'
p88
I1
sb.