ccopy_reg
_reconstructor
p0
(cdataset.Book
Book
p1
c__builtin__
object
p2
Ntp3
Rp4
(dp5
S'content_name'
p6
V31778.txt.utf-8
p7
sS'isbn'
p8
V0395530075
p9
sS'year'
p10
I1941
sS'author_name'
p11
VJerome Bixby
p12
sS'images_urls'
p13
(lp14
Vhttp://www.gutenberg.org/files/31778/31778-h/images/cover.jpg
p15
aVhttp://www.gutenberg.org/files/31778/31778-h/images/image_001.jpg
p16
aVhttp://www.gutenberg.org/files/31778/31778-h/images/image_002.jpg
p17
aVhttp://www.gutenberg.org/files/31778/31778-h/images/image_j.jpg
p18
asS'language_code'
p19
Ven-US
p20
sS'images'
p21
(lp22
sS'id'
p23
I311
sS'category'
p24
VText
p25
sS'genres'
p26
(lp27
sS'copyright'
p28
VPublic domain in the USA.
p29
sS'title'
p30
VThe Draw
p31
sS'wikipedia'
p32
(dp33
S'found'
p34
I00
ssS'average_rating'
p35
F3.88
sS'rating_count'
p36
I30885
sS'content_available'
p37
I01
sS'cover_art_url'
p38
S'http://www.gutenberg.org/cache/epub/31778/pg31778.cover.medium.jpg'
p39
sS'goodreads'
p40
(dp41
S'url'
p42
Vhttps://www.goodreads.com/book/show/3061.The_Natural_Way_to_Draw
p43
sg34
I01
sS'year'
p44
I1941
ssS'similar_books'
p45
(lp46
VDrawing Dynamic Hands
p47
aVAnatomy for the Artist
p48
aVDrawing Lessons from the Great Masters: 100 Great Drawings Analyzed, Figure Drawing Fundamentals Defined
p49
aVDrawing the Head and Figure
p50
aVZen of Seeing: Seeing/Drawing as Meditation
p51
aVThe Artist's Complete Guide to Facial Expression
p52
aVDrawing on the Artist Within
p53
aVFigure Drawing for All It's Worth (How to draw and paint)
p54
aVThe Artist's Complete Guide to Figure Drawing: A Contemporary Master Reveals the Secrets of Drawing the Human Form
p55
aVThe Practice and Science of Drawing
p56
aVAnatomy for the Artist
p57
aVClassical Drawing Atelier: A Contemporary Guide to Traditional Studio Practice
p58
aVAtlas of Human Anatomy for the Artist (Galaxy Books)
p59
aVDrawing Realistic Textures in Pencil
p60
aVKeys to Drawing
p61
aVThe Creative License: Giving Yourself Permission to Be The Artist You Truly Are
p62
aVBridgman's Complete Guide to Drawing From Life: Over 1,000 Illustrations
p63
aVThe Story of Painting
p64
asS'description'
p65
VGreat for the beginner and the expert, this book offers readers exercises to improve their work.
p66
sS'format'
p67
VPaperback
p68
sS'gutenberg'
p69
(dp70
g42
Vhttp://www.gutenberg.org/ebooks/31778
p71
sS'num'
p72
I31778
ssS'authors'
p73
(lp74
I85
asS'pages'
p75
I240
sS'isbn13'
p76
V9780395530078
p77
sS'language'
p78
VEnglish
p79
sS'countries'
p80
(lp81
I2
asS'release_date'
p82
S'2010-03-25T00:00:00'
p83
sS'author'
p84
I85
sS'content_cleaned'
p85
I01
sS'classes'
p86
(lp87
Vto-read
p88
aVart
p89
aVcurrently-reading
p90
aVdrawing
p91
aVnon-fiction
p92
aVart-books
p93
aVnonfiction
p94
aVreference
p95
aVfavorites
p96
aVart-instruction
p97
aVowned
p98
aVarts
p99
aVdefault
p100
aVcreativity
p101
aVto-buy
p102
aVart-technique
p103
aVlibrary
p104
aVdesign
p105
aVbooks-i-own
p106
aVwish-list
p107
aVart-drawing
p108
aVdrawing-books
p109
aVdraw
p110
aVart-and-design
p111
aVart-reference
p112
aVcrafts
p113
aVdrawing-painting
p114
aVreading
p115
aVpressing
p116
aVto-read-2
p117
aVhow-to
p118
aVart-history
p119
aVanatomy
p120
aVowned-books
p121
aVart-drawing-painting
p122
aVmy-library
p123
aVto-read-non-fiction
p124
aVmy-books
p125
aVborrowed-from-library
p126
aVanimation
p127
aVartsy
p128
aVinstructional
p129
aVvisual-art
p130
aVhave
p131
aVi-own
p132
aVstopped-reading
p133
aVdiy
p134
aVmine
p135
aVart---animation
p136
aVart-design
p137
aVbooks-i-don-t-have
p138
aVtoread_art
p139
aVkelly-melvin
p140
aVwant-to-buy
p141
aVall-things-art
p142
aVbooks-i-have
p143
aVratings-10k
p144
aVcollection
p145
aVyang
p146
aVsketch-drawing
p147
aV1507-office
p148
aVdelete
p149
aVhistory
p150
aVart-animation
p151
aVbooks-at-home
p152
aVgone
p153
aVrecreational
p154
aV0-0-bingo
p155
aVhobby-nature-drawing
p156
aVinstructional-art-drawing
p157
aVinterested-in
p158
aVartistic
p159
aVart-school
p160
aVtnn
p161
aVcreative-arts
p162
aVpersonal-library-print
p163
aVd
p164
aVratings-over-10000
p165
aVcreative-art
p166
aV0-pgs-200-to-299
p167
aVpoints-3-or-4
p168
aVau-amer-n
p169
aVnyampong
p170
aVkwame
p171
aVskill-books
p172
aVhave-it
p173
aVart-literature
p174
aVown-it
p175
aVto-read-someday
p176
aVreference-books
p177
aV1940-to-1949
p178
aVbackseated
p179
aVb-do-not-own
p180
aVinteresting
p181
aVart-drawing-dance
p182
aVhighly-recd-art-books
p183
aVto-check
p184
aVtraditional-illustration
p185
aVgraphic-comic
p186
aVgave-up-on
p187
asS'loc_class'
p188
VPS: Language and Literatures: American and Canadian literature
p189
sS'n_authors'
p190
I1
sb.