ccopy_reg
_reconstructor
p0
(cdataset.Book
Book
p1
c__builtin__
object
p2
Ntp3
Rp4
(dp5
S'content_name'
p6
V37653.txt.utf-8
p7
sS'isbn'
p8
NsS'year'
p9
I1953
sS'author_name'
p10
VPoul Anderson
p11
sS'images_urls'
p12
(lp13
Vhttp://www.gutenberg.org/files/37653/37653-h/images/sfs1953001_1.jpg
p14
aVhttp://www.gutenberg.org/files/37653/37653-h/images/sfs1953004i.png
p15
aVhttp://www.gutenberg.org/files/37653/37653-h/images/sfs1953005i.png
p16
asS'language_code'
p17
Veng
p18
sS'images'
p19
(lp20
sS'id'
p21
I155
sS'category'
p22
VText
p23
sS'genres'
p24
(lp25
sS'copyright'
p26
VPublic domain in the USA.
p27
sS'title'
p28
VSentiment, Inc.
p29
sS'wikipedia'
p30
(dp31
S'found'
p32
I00
ssS'average_rating'
p33
F3.05
sS'rating_count'
p34
I35
sS'content_available'
p35
I01
sS'goodreads'
p36
(dp37
S'url'
p38
Vhttps://www.goodreads.com/book/show/17902201-sentiment-inc
p39
sg32
I01
sS'year'
p40
I2011
ssS'similar_books'
p41
(lp42
sS'description'
p43
VThis book was converted from its physical to the digital format by a community of volunteers. You may find it for free on the web. Purchase of the Kindle edition includes wireless delivery.
p44
sS'gutenberg'
p45
(dp46
g38
Vhttp://www.gutenberg.org/ebooks/37653
p47
sS'num'
p48
I37653
ssS'authors'
p49
(lp50
I30
asS'isbn13'
p51
NsS'language'
p52
VEnglish
p53
sS'countries'
p54
(lp55
I2
asS'release_date'
p56
S'2011-10-07T00:00:00'
p57
sS'author'
p58
I30
sS'content_cleaned'
p59
I01
sS'classes'
p60
(lp61
Vto-read
p62
aVscience-fiction
p63
aVsci-fi
p64
aVshort-stories
p65
aVaudiobook
p66
aVcurrently-reading
p67
aV21st-century-lit
p68
aVaudiobooks
p69
aVproject-gutenberg
p70
aVenglisch
p71
aVebook
p72
aVsf
p73
aVundecided
p74
aVsf-ordinary
p75
aVmystery-suspense
p76
aVeua
p77
aVspeculative-fiction
p78
aVto-read-sort
p79
aVkindle-own
p80
aVone-book-per-week
p81
aV14
p82
asS'loc_class'
p83
VPS: Language and Literatures: American and Canadian literature
p84
sS'n_authors'
p85
I1
sb.