ccopy_reg
_reconstructor
p0
(cdataset.Book
Book
p1
c__builtin__
object
p2
Ntp3
Rp4
(dp5
S'content_name'
p6
V27013.txt.utf-8
p7
sS'isbn'
p8
V1604596686
p9
sS'year'
p10
I1932
sS'author_name'
p11
VClifford D. Simak
p12
sS'images_urls'
p13
(lp14
Vhttp://www.gutenberg.org/files/27013/27013-h/images/001.png
p15
aVhttp://www.gutenberg.org/files/27013/27013-page-images/f0001.png
p16
aVhttp://www.gutenberg.org/files/27013/27013-page-images/p0037.png
p17
aVhttp://www.gutenberg.org/files/27013/27013-page-images/p0038.png
p18
aVhttp://www.gutenberg.org/files/27013/27013-page-images/p0039.png
p19
aVhttp://www.gutenberg.org/files/27013/27013-page-images/p0040.png
p20
aVhttp://www.gutenberg.org/files/27013/27013-page-images/p0041.png
p21
aVhttp://www.gutenberg.org/files/27013/27013-page-images/p0042.png
p22
aVhttp://www.gutenberg.org/files/27013/27013-page-images/p0043.png
p23
aVhttp://www.gutenberg.org/files/27013/27013-page-images/p0044.png
p24
aVhttp://www.gutenberg.org/files/27013/27013-page-images/p0045.png
p25
aVhttp://www.gutenberg.org/files/27013/27013-page-images/p0046.png
p26
aVhttp://www.gutenberg.org/files/27013/27013-page-images/p0047.png
p27
aVhttp://www.gutenberg.org/files/27013/27013-page-images/p0048.png
p28
aVhttp://www.gutenberg.org/files/27013/27013-page-images/p0049.png
p29
aVhttp://www.gutenberg.org/files/27013/27013-page-images/p0050.png
p30
aVhttp://www.gutenberg.org/files/27013/27013-page-images/p0051.png
p31
aVhttp://www.gutenberg.org/files/27013/27013-page-images/p0052.png
p32
aVhttp://www.gutenberg.org/files/27013/27013-page-images/p0053.png
p33
asS'language_code'
p34
Veng
p35
sS'images'
p36
(lp37
sS'id'
p38
I203
sS'category'
p39
VText
p40
sS'genres'
p41
(lp42
sS'copyright'
p43
VPublic domain in the USA.
p44
sS'title'
p45
VHellhounds of the Cosmos
p46
sS'wikipedia'
p47
(dp48
S'found'
p49
I00
ssS'average_rating'
p50
F3.26
sS'rating_count'
p51
I75
sS'content_available'
p52
I01
sS'goodreads'
p53
(dp54
S'url'
p55
Vhttps://www.goodreads.com/book/show/6357069-hellhounds-of-the-cosmos
p56
sg49
I01
sS'year'
p57
I1932
ssS'similar_books'
p58
(lp59
sS'description'
p60
VThe paper had gone to press, graphically describing the latest of the many horrible events which had been enacted upon the Earth in the last six months. The headlines screamed that Six Corners, a little hamlet in Pennsylvania, had been wiped out by the Horror. Another front-page story told of a Terror in the Amazon Valley which had sent the natives down the river in babbling fear. Other stories told of deaths here and there, all attributable to the "Black Horror," as it was called.
p61
sS'format'
p62
VPaperback
p63
sS'gutenberg'
p64
(dp65
g55
Vhttp://www.gutenberg.org/ebooks/27013
p66
sS'num'
p67
I27013
ssS'authors'
p68
(lp69
I56
asS'pages'
p70
I52
sS'isbn13'
p71
V9781604596687
p72
sS'language'
p73
VEnglish
p74
sS'country'
p75
I2
sS'release_date'
p76
S'2008-10-24T00:00:00'
p77
sS'author'
p78
I56
sS'content_cleaned'
p79
I01
sS'classes'
p80
(lp81
Vto-read
p82
aVcurrently-reading
p83
aVscience-fiction
p84
aVsci-fi
p85
aVshort-story
p86
aVkindle
p87
aVsf
p88
aVshort-stories
p89
aVaudiobook
p90
aVaudiobooks-to-read
p91
aVowned-ebooks-unread
p92
aVno-audiobook-available
p93
aVapple-not-read
p94
aVscience-fiction-fantasy
p95
aVfun-and-quick
p96
aVowned
p97
aVfiction
p98
aV1-cloud
p99
aVdigital-copy
p100
aVclassic-sci-fi
p101
aVsci-fi-classics
p102
aVaudiobooks
p103
aVowned-pending-kindle-free-ebook
p104
aVkindle-free-ebook
p105
aVtbr
p106
aVend-of-the-world
p107
aValternate-dimensions
p108
aV4th-dimension
p109
aVebook
p110
aVcalibre
p111
aV15
p112
aVliterature-20th-century
p113
aVaudio-obtained
p114
aVfantasy
p115
aVfeedbooks-com
p116
aVcailbre
p117
aVsci-fi-or-speculative
p118
aVsyfy
p119
aVscience-ficton
p120
aVscience-fiction-times
p121
aVqueued
p122
aVdonated
p123
aVtranshumanism
p124
aVsoft_sci-fi
p125
aVlovecraftian
p126
aVgrotesque
p127
aVsci-fic
p128
aValternate-worlds
p129
aVpat-free-books-owned
p130
aVowned-to-read
p131
aVsearching-for
p132
aVscifi
p133
aVspeculative-fiction
p134
aVnovelette
p135
aVtype-short-story
p136
aVaudio-obtained-ss
p137
aVneed-to-get-2
p138
aVto-read-owned
p139
asS'loc_class'
p140
VPS: Language and Literatures: American and Canadian literature
p141
sS'n_authors'
p142
I1
sb.