ccopy_reg
_reconstructor
p0
(cdataset.Book
Book
p1
c__builtin__
object
p2
Ntp3
Rp4
(dp5
S'content_name'
p6
V42987.txt.utf-8
p7
sS'isbn'
p8
NsS'year'
p9
I1953
sS'author_name'
p10
VMurray Leinster
p11
sS'images_urls'
p12
(lp13
Vhttp://www.gutenberg.org/files/42987/42987-h/images/cover.jpg
p14
aVhttp://www.gutenberg.org/files/42987/42987-h/images/illus1.jpg
p15
aVhttp://www.gutenberg.org/files/42987/42987-h/images/illus2.jpg
p16
aVhttp://www.gutenberg.org/files/42987/42987-h/images/illus3.jpg
p17
aVhttp://www.gutenberg.org/files/42987/42987-h/images/illus4.jpg
p18
aVhttp://www.gutenberg.org/files/42987/42987-h/images/illus5.jpg
p19
aVhttp://www.gutenberg.org/files/42987/42987-h/images/illus6.jpg
p20
aVhttp://www.gutenberg.org/files/42987/42987-h/images/illus7.jpg
p21
aVhttp://www.gutenberg.org/files/42987/42987-h/images/illus8.jpg
p22
aVhttp://www.gutenberg.org/files/42987/42987-h/images/illus9.jpg
p23
aVhttp://www.gutenberg.org/files/42987/42987-h/images/pic.jpg
p24
asS'language_code'
p25
NsS'id'
p26
I472
sS'category'
p27
VText
p28
sS'genres'
p29
(lp30
sS'copyright'
p31
VPublic domain in the USA.
p32
sS'title'
p33
VNightmare Planet
p34
sS'wikipedia'
p35
(dp36
S'found'
p37
I00
ssS'average_rating'
p38
F3.25
sS'rating_count'
p39
I15
sS'content_available'
p40
I01
sS'cover_art_url'
p41
S'http://www.gutenberg.org/cache/epub/42987/pg42987.cover.medium.jpg'
p42
sS'goodreads'
p43
(dp44
S'url'
p45
Vhttps://www.goodreads.com/book/show/22400807-nightmare-planet
p46
sS'found'
p47
I01
sS'year'
p48
I2013
ssS'similar_books'
p49
(lp50
sS'description'
p51
NsS'gutenberg'
p52
(dp53
g45
Vhttp://www.gutenberg.org/ebooks/42987
p54
sS'num'
p55
I42987
ssS'authors'
p56
(lp57
I61
asS'isbn13'
p58
NsS'language'
p59
VEnglish
p60
sS'countries'
p61
(lp62
I2
asS'release_date'
p63
S'2013-06-19T00:00:00'
p64
sS'author'
p65
I61
sS'cover'
p66
Vhttps://s.gr-assets.com/assets/nophoto/book/111x148-bcc042a9c91a29c1d680899eff700a03.png
p67
sS'content_cleaned'
p68
I01
sS'classes'
p69
(lp70
Vscience-fiction
p71
aVscifi
p72
aVfiction
p73
aVstand-alone-book
p74
aV3rd-person-narration
p75
aVto-read
p76
aVsci-fi
p77
aVlibrary
p78
aVnorthern-america
p79
aVspeculative-fiction
p80
aVlibrivox-org
p81
aVfantasy
p82
aVaudio
p83
aVguttenberg
p84
aVcurrently-reading
p85
asS'loc_class'
p86
VPS: Language and Literatures: American and Canadian literature
p87
sS'n_authors'
p88
I1
sb.