ccopy_reg
_reconstructor
p0
(cdataset.Book
Book
p1
c__builtin__
object
p2
Ntp3
Rp4
(dp5
S'content_name'
p6
V22524.txt.utf-8
p7
sS'isbn'
p8
V365521376X
p9
sS'year'
p10
I1953
sS'author_name'
p11
VJoseph Samachson
p12
sS'images_urls'
p13
(lp14
Vhttp://www.gutenberg.org/files/22524/22524-h/images/hunters.png
p15
aVhttp://www.gutenberg.org/files/22524/22524-page-images/p076.png
p16
aVhttp://www.gutenberg.org/files/22524/22524-page-images/p077.png
p17
aVhttp://www.gutenberg.org/files/22524/22524-page-images/p078.png
p18
aVhttp://www.gutenberg.org/files/22524/22524-page-images/p079.png
p19
aVhttp://www.gutenberg.org/files/22524/22524-page-images/p080.png
p20
aVhttp://www.gutenberg.org/files/22524/22524-page-images/p081.png
p21
aVhttp://www.gutenberg.org/files/22524/22524-page-images/p082.png
p22
aVhttp://www.gutenberg.org/files/22524/22524-page-images/p083.png
p23
aVhttp://www.gutenberg.org/files/22524/22524-page-images/p084.png
p24
aVhttp://www.gutenberg.org/files/22524/22524-page-images/p085.png
p25
aVhttp://www.gutenberg.org/files/22524/22524-page-images/p086.png
p26
aVhttp://www.gutenberg.org/files/22524/22524-page-images/p087.png
p27
aVhttp://www.gutenberg.org/files/22524/22524-page-images/p088.png
p28
aVhttp://www.gutenberg.org/files/22524/22524-page-images/p089.png
p29
aVhttp://www.gutenberg.org/files/22524/22524-page-images/p090.png
p30
asS'language_code'
p31
NsS'id'
p32
I816
sS'category'
p33
VText
p34
sS'genres'
p35
(lp36
sS'copyright'
p37
VPublic domain in the USA.
p38
sS'title'
p39
VThe Hunters
p40
sS'wikipedia'
p41
(dp42
S'found'
p43
I00
ssS'average_rating'
p44
F3.7
sS'rating_count'
p45
I1
sS'content_available'
p46
I01
sS'goodreads'
p47
(dp48
S'url'
p49
S'https://www.goodreads.com/book/show/12944522-the-hunters'
p50
sS'found'
p51
I01
ssS'similar_books'
p52
(lp53
sS'description'
p54
NsS'gutenberg'
p55
(dp56
S'url'
p57
Vhttp://www.gutenberg.org/ebooks/22524
p58
sS'num'
p59
I22524
ssS'authors'
p60
(lp61
I157
asS'isbn13'
p62
V9783655213766
p63
sS'language'
p64
VEnglish
p65
sS'countries'
p66
(lp67
I2
asS'release_date'
p68
S'2007-09-06T00:00:00'
p69
sS'author'
p70
I157
sS'cover'
p71
Vhttps://s.gr-assets.com/assets/nophoto/book/111x148-bcc042a9c91a29c1d680899eff700a03.png
p72
sS'content_cleaned'
p73
I01
sS'classes'
p74
(lp75
sS'loc_class'
p76
VPS: Language and Literatures: American and Canadian literature
p77
sS'n_authors'
p78
I1
sb.