ccopy_reg
_reconstructor
p0
(cdataset.Book
Book
p1
c__builtin__
object
p2
Ntp3
Rp4
(dp5
S'content_name'
p6
V8681.txt.utf-8
p7
sS'isbn'
p8
NsS'year'
p9
I1894
sS'author_name'
p10
VRobert Barr
p11
sS'images_urls'
p12
(lp13
sS'language_code'
p14
NsS'images'
p15
(lp16
sS'id'
p17
I229
sS'category'
p18
VText
p19
sS'genres'
p20
(lp21
sS'copyright'
p22
VPublic domain in the USA.
p23
sS'title'
p24
VThe Face and the Mask
p25
sS'wikipedia'
p26
(dp27
S'found'
p28
I00
ssS'average_rating'
p29
F4.43
sS'rating_count'
p30
I1
sS'content_available'
p31
I01
sS'goodreads'
p32
(dp33
S'url'
p34
S'https://www.goodreads.com/book/show/9066959-the-face-and-the-mask'
p35
sS'found'
p36
I01
ssS'similar_books'
p37
(lp38
sS'description'
p39
VNovel by the teacher, journalist, editor and novelist, born in Glasgow, Scotland and educated in Canada. In 1876 he became a member of the staff of the Detroit Free Press, in which his contributions appeared under the signature "Luke Sharp." In 1881 he removed to London, to establish the weekly English edition of the Free Press, and in 1892 he joined Jerome K. Jerome in founding the Idler magazine, from whose co-editorship he retired in 1895. He was a prolific author, producing many popular novels of the day.
p40
sS'gutenberg'
p41
(dp42
S'url'
p43
Vhttp://www.gutenberg.org/ebooks/8681
p44
sS'num'
p45
I8681
ssS'authors'
p46
(lp47
I75
asS'isbn13'
p48
NsS'language'
p49
VEnglish
p50
sS'countries'
p51
(lp52
I8
aI1
asS'release_date'
p53
S'2004-11-14T00:00:00'
p54
sS'author'
p55
I75
sS'cover'
p56
Vhttps://s.gr-assets.com/assets/nophoto/book/111x148-bcc042a9c91a29c1d680899eff700a03.png
p57
sS'content_cleaned'
p58
I00
sS'classes'
p59
(lp60
Vto-read
p61
aV21st-century-lit
p62
aVbooks-i-have
p63
aVshort-story-thurs
p64
asS'loc_class'
p65
VPR: Language and Literatures: English literature
p66
sS'n_authors'
p67
I1
sb.