ccopy_reg
_reconstructor
p0
(cdataset.Book
Book
p1
c__builtin__
object
p2
Ntp3
Rp4
(dp5
S'content_name'
p6
V41586.txt.utf-8
p7
sS'isbn'
p8
NsS'year'
p9
I1921
sS'author_name'
p10
VMurray Leinster
p11
sS'images_urls'
p12
(lp13
Vhttp://www.gutenberg.org/files/41586/41586-h/images/cover.jpg
p14
aVhttp://www.gutenberg.org/files/41586/41586-h/images/illus.jpg
p15
asS'language_code'
p16
Veng
p17
sS'id'
p18
I463
sS'category'
p19
VText
p20
sS'genres'
p21
(lp22
sS'copyright'
p23
VPublic domain in the USA.
p24
sS'title'
p25
VThe Red Dust
p26
sS'wikipedia'
p27
(dp28
S'found'
p29
I00
ssS'average_rating'
p30
F3.95
sS'rating_count'
p31
I9
sS'content_available'
p32
I01
sS'cover_art_url'
p33
S'http://www.gutenberg.org/cache/epub/41586/pg41586.cover.medium.jpg'
p34
sS'goodreads'
p35
(dp36
S'url'
p37
S'https://www.goodreads.com/book/show/16300427-the-red-dust'
p38
sS'found'
p39
I01
ssS'similar_books'
p40
(lp41
sS'description'
p42
V<img src="https://i.gr-assets.com/images/S/compressed.photo.goodreads.com/hostedimages/1380943504i/3440849.jpg" class="gr-hostedUserImg">
p43
sS'gutenberg'
p44
(dp45
S'url'
p46
Vhttp://www.gutenberg.org/ebooks/41586
p47
sS'num'
p48
I41586
ssS'authors'
p49
(lp50
I61
asS'isbn13'
p51
NsS'language'
p52
VEnglish
p53
sS'countries'
p54
(lp55
I2
asS'release_date'
p56
S'2012-12-09T00:00:00'
p57
sS'author'
p58
I61
sS'content_cleaned'
p59
I01
sS'classes'
p60
(lp61
Vto-read
p62
aVcurrently-reading
p63
aVscience-fiction
p64
aVaudiobook
p65
aV20th-century-lit
p66
aVsci-fi
p67
aVshelf-l-authors
p68
aVgenre-syfi-fan-horr
p69
aVaudiobooks
p70
aVlibrivox
p71
aVmaybe
p72
asS'loc_class'
p73
VPS: Language and Literatures: American and Canadian literature
p74
sS'n_authors'
p75
I1
sb.