ccopy_reg
_reconstructor
p0
(cdataset.Book
Book
p1
c__builtin__
object
p2
Ntp3
Rp4
(dp5
S'content_name'
p6
V32212.txt.utf-8
p7
sS'isbn'
p8
V044086643X
p9
sS'year'
p10
I1953
sS'author_name'
p11
VRoger D. Aycock
p12
sS'images_urls'
p13
(lp14
Vhttp://www.gutenberg.org/files/32212/32212-h/images/cover.jpg
p15
aVhttp://www.gutenberg.org/files/32212/32212-h/images/image_001.jpg
p16
aVhttp://www.gutenberg.org/files/32212/32212-h/images/image_a.jpg
p17
aVhttp://www.gutenberg.org/files/32212/32212-h/images/image_h.jpg
p18
aVhttp://www.gutenberg.org/files/32212/32212-h/images/image_l.jpg
p19
aVhttp://www.gutenberg.org/files/32212/32212-h/images/image_n1.jpg
p20
aVhttp://www.gutenberg.org/files/32212/32212-h/images/image_o.jpg
p21
aVhttp://www.gutenberg.org/files/32212/32212-h/images/image_t.jpg
p22
asS'language_code'
p23
NsS'id'
p24
I712
sS'category'
p25
VText
p26
sS'genres'
p27
(lp28
sS'copyright'
p29
VPublic domain in the USA.
p30
sS'title'
p31
VClean Break
p32
sS'wikipedia'
p33
(dp34
S'found'
p35
I00
ssS'average_rating'
p36
F3.61
sS'rating_count'
p37
I3546
sS'content_available'
p38
I01
sS'cover_art_url'
p39
S'http://www.gutenberg.org/cache/epub/32212/pg32212.cover.medium.jpg'
p40
sS'goodreads'
p41
(dp42
S'url'
p43
Vhttps://www.goodreads.com/book/show/511592.Clean_Break
p44
sS'found'
p45
I01
sS'year'
p46
I2005
ssS'similar_books'
p47
(lp48
VGinger Snaps
p49
aVThe Sleepover Club at Frankie's (The Sleepover Club, #1)
p50
aV32c That's Me
p51
aVHorrid Henry and the Mummy's Curse
p52
aVA Glittering Gallop (Magic Kitten, #8)
p53
aVFruit and Nutcase (Diary, #3)
p54
aVDates, Double Dates and Big, Big Trouble (Ally's World, #2)
p55
aVA Million Angels
p56
aVMermaid Magic
p57
aVSix Cousins At Mistletoe Farm
p58
aVTessa in Love
p59
aVCloud Busting
p60
asS'description'
p61
VEm adores her funny, glamorous dad - who cares if he's not her real father? He's wonderful to her, and to her little brother and sister. True to form at Christmas, Dad gives them fantastic presents, including a real emerald ring for his little Princess Em. Unfortunately he's got another surprise in store - he's leaving them. Will Dad's well-meaning but chaotic attempts to keep seeing Em and the other children help the family come to terms with this new crisis? Or would they be better off with a clean break - just like Em's arm?
p62
sS'format'
p63
VPaperback
p64
sS'gutenberg'
p65
(dp66
g43
Vhttp://www.gutenberg.org/ebooks/32212
p67
sS'num'
p68
I32212
ssS'authors'
p69
(lp70
I162
asS'pages'
p71
I320
sS'isbn13'
p72
V9780440866435
p73
sS'language'
p74
VEnglish
p75
sS'countries'
p76
(lp77
I2
asS'release_date'
p78
S'2010-05-02T00:00:00'
p79
sS'author'
p80
I162
sS'content_cleaned'
p81
I01
sS'classes'
p82
(lp83
Vto-read
p84
aVchildhood
p85
aVchildrens
p86
aVjacqueline-wilson
p87
aVchildhood-books
p88
aVcurrently-reading
p89
aVbooks-i-own
p90
aVchildren-s
p91
aVchildren
p92
aVfavorites
p93
aVchildhood-favourites
p94
aVyoung-adult
p95
aVjaqueline-wilson
p96
aVowned-books
p97
aVfiction
p98
aVmiddle-grade
p99
aVkids
p100
aVchildren-s-books
p101
aVmy-books
p102
aVowned
p103
aVchildrens-books
p104
aVteen
p105
aVchildhood-reads
p106
aVcontemporary
p107
aVfamily
p108
aVbooks
p109
aVbooks-i-read-as-a-child
p110
aVkids-books
p111
aVread-as-a-kid
p112
aVread-when-younger
p113
aVfavourites
p114
aVlibrary
p115
aVrealistic-fiction
p116
aVchildhood-faves
p117
aVread-as-a-child
p118
aVbooks-from-my-childhood
p119
aVcontemporary-fiction
p120
aVwhen-i-was-young
p121
aVchildrens-fiction
p122
aVya
p123
aVkey-stage-2
p124
aV2-stars
p125
aVold-books
p126
aVcoming-of-age
p127
aVall-books
p128
aV3-stars
p129
aVmy-childhood
p130
aVwhen-i-was-younger
p131
aVrealistic
p132
aVwish-list
p133
aVread-more-than-once
p134
aV21st-century
p135
aVstandalone
p136
aVchildhood-stories
p137
aVjunior-fiction
p138
aVfemale-author
p139
aVon-my-bookshelf
p140
aVchildren-s-lit
p141
aVbritish
p142
aVown-it
p143
aVread-in-primary-school
p144
aVfavourite-childhood-books
p145
aVjw
p146
aVchildren-s-fiction
p147
aVnostalgic
p148
aVauthor-female
p149
aVthree-stars
p150
aVbooks-read-as-a-child
p151
aVmy-bookshelf
p152
aVborrowed-books
p153
aVnot-finished
p154
aVebook
p155
aVharry-potter
p156
aVjacqueline-wilson-books
p157
aVkid-books
p158
aVstand-alone
p159
aVtween
p160
aVchildren-s-literature
p161
aVpre-teen
p162
aVread-in-past
p163
aVdrama
p164
aVread-when-i-was-younger
p165
aV2006
p166
aVnovels
p167
aVi-own-it
p168
aVchildren-s-book
p169
aVchild
p170
aVjacquline-wilson
p171
aVi-own
p172
aVcomedy
p173
aVgeek-culture
p174
aVfiction-read
p175
aVbooks-of-my-past
p176
aVenglish-childhood
p177
aVread-in-slovene
p178
aVfeel-good-reading
p179
aVteenage-reads
p180
aVtbr-books
p181
aVchildhood-ref
p182
aVread-2016
p183
asS'loc_class'
p184
VPS: Language and Literatures: American and Canadian literature
p185
sS'n_authors'
p186
I1
sb.