ccopy_reg
_reconstructor
p0
(cdataset.Book
Book
p1
c__builtin__
object
p2
Ntp3
Rp4
(dp5
S'similar_books'
p6
(lp7
sS'genres'
p8
(lp9
sS'author'
p10
I918
sS'countries'
p11
(lp12
I2
asS'year'
p13
I1969
sS'title'
p14
VIF Magazine February 1969
p15
sS'cover'
p16
Vhttps://ia601306.us.archive.org/BookReader/BookReaderImages.php?zip=/8/items/1969-02_IF/1969-02_IF_jp2.zip&file=1969-02_IF_jp2/1969-02_IF_0000.jp2&scale=0&rotate=0
p17
sS'cover_art'
p18
S'http://www.isfdb.org/wiki/images/8/8e/WOFIFFEB1969.jpg'
p19
sS'author_name'
p20
VIF Magazine
p21
sS'images_urls'
p22
(lp23
sS'authors'
p24
(lp25
I626
aI499
aI1179
aI1180
aI305
aI45
aI356
aI326
aI40
aI629
aI384
aI16
aI549
aI1181
aI918
asS'images'
p26
(lp27
sS'id'
p28
I1352
sS'contents'
p29
(lp30
(dp31
g10
I626
sg14
VBeside the Walking Mountain
p32
sa(dp33
g10
I499
sg14
VAt Bay with the Baycon
p34
sa(dp35
g10
I1179
sg14
VTrial
p36
sa(dp37
g10
I1180
sg14
VAuthorgraphs: An Interview with Harry Harrison
p38
sa(dp39
g10
I499
sg14
VSix Gates to Limbo (Part 2 of 2)
p40
sa(dp41
g10
I305
sg14
VGuest Editorial: The "Hoax" Story
p42
sa(dp43
g10
I45
sg14
VAt Bay with the Baycon
p44
sa(dp45
g10
I356
sg14
VIf ... And When (If, February 1969)
p46
sa(dp47
g10
I326
sg14
VSf Calendar (If, February 1969)
p48
sa(dp49
g10
I40
sg14
VHue and Cry (If, February 1969)
p50
sa(dp51
g10
I326
sg14
VAuthorgraphs: An Interview with Harry Harrison
p52
sa(dp53
g10
I629
sg14
VBeside the Walking Mountain
p54
sa(dp55
g10
I384
sg14
VSix Gates to Limbo (Part 2 of 2)
p56
sa(dp57
g10
I16
sg14
VPraiseworthy Saur
p58
sa(dp59
g10
I549
sg14
VThe Defendant Earth
p60
sa(dp61
g10
I1181
sg14
VThe Fire Egg
p62
sasb.