ccopy_reg
_reconstructor
p0
(cdataset.Book
Book
p1
c__builtin__
object
p2
Ntp3
Rp4
(dp5
S'similar_books'
p6
(lp7
sS'genres'
p8
(lp9
sS'author'
p10
I918
sS'countries'
p11
(lp12
I2
asS'year'
p13
I1954
sS'title'
p14
VIF Magazine November 1954
p15
sS'cover'
p16
Vhttps://ia800200.us.archive.org/BookReader/BookReaderImages.php?zip=/33/items/1954-11_IF/1954-11_IF_jp2.zip&file=1954-11_IF_jp2/1954-11_IF_0000.jp2&scale=0&rotate=0
p17
sS'cover_art'
p18
S'http://www.isfdb.org/wiki/images/2/22/WOFIFNOV1954.jpg'
p19
sS'author_name'
p20
VIF Magazine
p21
sS'images_urls'
p22
(lp23
sS'authors'
p24
(lp25
I326
aI956
aI363
aI988
aI995
aI497
aI412
aI948
aI315
aI992
aI996
aI8
aI997
aI998
aI359
aI935
aI918
asS'images'
p26
(lp27
sS'id'
p28
I1238
sS'contents'
p29
(lp30
(dp31
g10
I326
sg14
VApproaching Hermes
p32
sa(dp33
g10
I956
sg14
VFor Every Man a Reason
p34
sa(dp35
g10
I363
sg14
VCarry Me Home
p36
sa(dp37
g10
I988
sg14
VStalemate
p38
sa(dp39
g10
I995
sg14
VProgeny
p40
sa(dp41
g10
I497
sg14
VThe Honored Prophet
p42
sa(dp43
g10
I412
sg14
VThe Hitch Hikers
p44
sa(dp45
g10
I988
sg14
VVacation
p46
sa(dp47
g10
I363
sg14
VThe Very Secret Agent
p48
sa(dp49
g10
I948
sg14
VA Chat with the Editor (If, November 1954)
p50
sa(dp51
g10
I326
sg14
VThe Seven Winners in If's $2000 College Science Fiction Contest!
p52
sa(dp53
g10
I326
sg14
VWhat Is Your Science I. Q.? (If, November 1954)
p54
sa(dp55
g10
I326
sg14
VWorth Citing (If, November 1954)
p56
sa(dp57
g10
I326
sg14
VScience Briefs (If, November 1954)
p58
sa(dp59
g10
I315
sg14
VCarry Me Home
p60
sa(dp61
g10
I992
sg14
VFor Every Man a Reason
p62
sa(dp63
g10
I996
sg14
VStalemate
p64
sa(dp65
g10
I8
sg14
VProgeny
p66
sa(dp67
g10
I997
sg14
VThe Honored Prophet
p68
sa(dp69
g10
I998
sg14
VThe Hitch Hikers
p70
sa(dp71
g10
I359
sg14
VVacation
p72
sa(dp73
g10
I935
sg14
VThe Very Secret Agent
p74
sasb.