ccopy_reg
_reconstructor
p0
(cdataset.Book
Book
p1
c__builtin__
object
p2
Ntp3
Rp4
(dp5
S'similar_books'
p6
(lp7
sS'genres'
p8
(lp9
sS'author'
p10
I302
sS'countries'
p11
(lp12
I2
asS'year'
p13
I1977
sS'title'
p14
VGalaxy Magazine August 1977
p15
sS'cover'
p16
Vhttps://ia600207.us.archive.org/BookReader/BookReaderImages.php?zip=/7/items/Galaxy_v38n06_1977-08/Galaxy_v38n06_1977-08_jp2.zip&file=Galaxy_v38n06_1977-08_jp2/Galaxy_v38n06_1977-08_0000.jp2&scale=0&rotate=0
p17
sS'cover_art'
p18
S'http://www.isfdb.org/wiki/images/7/71/GALAUG77.jpg'
p19
sS'author_name'
p20
VGalaxy Magazine
p21
sS'images_urls'
p22
(lp23
sS'authors'
p24
(lp25
I826
aI742
aI326
aI827
aI764
aI40
aI734
aI767
aI770
aI822
aI748
aI63
aI817
aI828
aI302
asS'images'
p26
(lp27
sS'id'
p28
I1203
sS'contents'
p29
(lp30
(dp31
S'title'
p32
VShowcase (Galaxy, August 1977)
p33
sS'author'
p34
I826
sa(dp35
g32
V... And Earth so Far Away
p36
sg34
I742
sa(dp37
g32
V... And Earth so Far Away [2]
p38
sg34
I742
sa(dp39
g32
V... And Earth so Far Away [3]
p40
sg34
I742
sa(dp41
g32
VPerfectly Safe, Nothing to Worry About
p42
sg34
I326
sa(dp43
g32
VPerfectly Safe, Nothing to Worry About [2]
p44
sg34
I326
sa(dp45
g32
VThe Dosadi Experiment (Part 4 of 4)
p46
sg34
I827
sa(dp47
g32
VThe Dosadi Experiment (Part 4 of 4) [2]
p48
sg34
I827
sa(dp49
g32
VThe Dosadi Experiment (Part 4 of 4) [3]
p50
sg34
I827
sa(dp51
g32
VThe Pheromonal Fountain
p52
sg34
I326
sa(dp53
g32
VThe All-Soul Is Calling Quinlan
p54
sg34
I742
sa(dp55
g32
VThe All-Soul Is Calling Quinlan [2]
p56
sg34
I742
sa(dp57
g32
VS. F. Calendar (Galaxy, August 1977)
p58
sg34
I326
sa(dp59
g32
VGalaxy and the Galaxy
p60
sg34
I764
sa(dp61
g32
VPostscript to Gateway
p62
sg34
I40
sa(dp63
g32
VA Time for Decisions
p64
sg34
I734
sa(dp65
g32
VThe Alien Viewpoint (Galaxy, August 1977)
p66
sg34
I767
sa(dp67
g32
VGalaxy Bookshelf (Galaxy, August 1977)
p68
sg34
I770
sa(dp69
g32
VDirections (Galaxy, August 1977)
p70
sg34
I326
sa(dp71
g32
V... And Earth so Far Away
p72
sg34
I822
sa(dp73
g32
VThe Pheromonal Fountain
p74
sg34
I748
sa(dp75
g32
VThe Dosadi Experiment (Part 4 of 4)
p76
sg34
I63
sa(dp77
g32
VPerfectly Safe, Nothing to Worry About
p78
sg34
I817
sa(dp79
g32
VThe All-Soul Is Calling Quinlan
p80
sg34
I828
sasb.