ccopy_reg
_reconstructor
p0
(cdataset.Book
Book
p1
c__builtin__
object
p2
Ntp3
Rp4
(dp5
S'content_name'
p6
V23534.txt.utf-8
p7
sS'isbn'
p8
NsS'year'
p9
I2010
sS'author_name'
p10
VRandall Garrett
p11
sS'images_urls'
p12
(lp13
Vhttp://www.gutenberg.org/files/23534/23534-h/images/illus1.jpg
p14
aVhttp://www.gutenberg.org/files/23534/23534-h/images/illus2.jpg
p15
aVhttp://www.gutenberg.org/files/23534/23534-h/images/illus3.jpg
p16
aVhttp://www.gutenberg.org/files/23534/23534-page-images/p116-image.png
p17
aVhttp://www.gutenberg.org/files/23534/23534-page-images/p116.png
p18
aVhttp://www.gutenberg.org/files/23534/23534-page-images/p117.png
p19
aVhttp://www.gutenberg.org/files/23534/23534-page-images/p118.png
p20
aVhttp://www.gutenberg.org/files/23534/23534-page-images/p119.png
p21
aVhttp://www.gutenberg.org/files/23534/23534-page-images/p120.png
p22
aVhttp://www.gutenberg.org/files/23534/23534-page-images/p121.png
p23
aVhttp://www.gutenberg.org/files/23534/23534-page-images/p122-image.png
p24
aVhttp://www.gutenberg.org/files/23534/23534-page-images/p122.png
p25
aVhttp://www.gutenberg.org/files/23534/23534-page-images/p123.png
p26
aVhttp://www.gutenberg.org/files/23534/23534-page-images/p124.png
p27
aVhttp://www.gutenberg.org/files/23534/23534-page-images/p125.png
p28
aVhttp://www.gutenberg.org/files/23534/23534-page-images/p126.png
p29
aVhttp://www.gutenberg.org/files/23534/23534-page-images/p127.png
p30
aVhttp://www.gutenberg.org/files/23534/23534-page-images/p128.png
p31
aVhttp://www.gutenberg.org/files/23534/23534-page-images/p129-image.png
p32
aVhttp://www.gutenberg.org/files/23534/23534-page-images/p129.png
p33
aVhttp://www.gutenberg.org/files/23534/23534-page-images/p130.png
p34
aVhttp://www.gutenberg.org/files/23534/23534-page-images/p131.png
p35
aVhttp://www.gutenberg.org/files/23534/23534-page-images/p132.png
p36
aVhttp://www.gutenberg.org/files/23534/23534-page-images/p133.png
p37
aVhttp://www.gutenberg.org/files/23534/23534-page-images/p134.png
p38
aVhttp://www.gutenberg.org/files/23534/23534-page-images/p135.png
p39
asS'language_code'
p40
Veng
p41
sS'images'
p42
(lp43
sS'id'
p44
I562
sS'category'
p45
VText
p46
sS'genres'
p47
(lp48
sS'copyright'
p49
VPublic domain in the USA.
p50
sS'title'
p51
V...Or Your Money Back
p52
sS'wikipedia'
p53
(dp54
S'found'
p55
I00
ssS'average_rating'
p56
F3.56
sS'rating_count'
p57
I15
sS'content_available'
p58
I01
sS'goodreads'
p59
(dp60
S'url'
p61
Vhttps://www.goodreads.com/book/show/10780118-or-your-money-back
p62
sg55
I01
sS'year'
p63
I2010
ssS'similar_books'
p64
(lp65
sS'description'
p66
VThere are times when I don't know my own strength. Or, at least, the strength of my advice. And the case of Jason Howley was certainly an instance of one of those times.<br />When he came to my office with his gadget, I heard him out, trying to appear both interested and co-operative--which is good business. But I am forced to admit that neither Howley nor his gadget were very impressive. He was a lean, slope-shouldered individual, five-feet-eight or nine--which was shorter than he looked--with straight brown hair combed straight back and blue eyes which were shielded with steel-rimmed glasses. The thick, double-concave lenses indicated a degree of myopia that must have bordered on total blindness without glasses, and acute tunnel vision, even with them.
p67
sS'format'
p68
NsS'gutenberg'
p69
(dp70
g61
Vhttp://www.gutenberg.org/ebooks/23534
p71
sS'num'
p72
I23534
ssS'authors'
p73
(lp74
I49
asS'isbn13'
p75
NsS'language'
p76
VEnglish
p77
sS'release_date'
p78
S'2007-11-18T00:00:00'
p79
sS'author'
p80
I49
sS'content_cleaned'
p81
I01
sS'classes'
p82
(lp83
Vto-read
p84
aVscience-fiction
p85
aVfiction
p86
aVfree-from-amazon
p87
aVclassic
p88
aVscience
p89
asS'loc_class'
p90
VPS: Language and Literatures: American and Canadian literature
p91
sS'n_authors'
p92
I1
sb.