ccopy_reg
_reconstructor
p0
(cdataset.Book
Book
p1
c__builtin__
object
p2
Ntp3
Rp4
(dp5
S'content_name'
p6
V19000.txt.utf-8
p7
sS'isbn'
p8
V3655181248
p9
sS'year'
p10
I2006
sS'author_name'
p11
VCory Doctorow
p12
sS'images_urls'
p13
(lp14
sS'language_code'
p15
Veng
p16
sS'id'
p17
I623
sS'category'
p18
VText
p19
sS'genres'
p20
(lp21
sS'copyright'
p22
VCopyrighted. Read the copyright notice inside this book for details.
p23
sS'title'
p24
VPrintcrime
p25
sS'wikipedia'
p26
(dp27
S'found'
p28
I00
ssS'average_rating'
p29
F3.86
sS'rating_count'
p30
I146
sS'content_available'
p31
I01
sS'goodreads'
p32
(dp33
S'url'
p34
Vhttps://www.goodreads.com/book/show/12204952-printcrime
p35
sS'found'
p36
I01
sS'year'
p37
I2006
ssS'similar_books'
p38
(lp39
VThe Cold Pools
p40
aVAppeals Court
p41
aVThe Priests Of Psi
p42
aVShakespeare In an Hour
p43
aVTimeline
p44
aVThe Brick Moon
p45
aVThe Twenty-Sided Sorceress Series, Books 1-3: Justice Calling, Murder of Crows, Pack of Lies
p46
aVSnafu (Jane Yellowrock, #0.3)
p47
aVFutures Imperfect
p48
aVBlack on Black (Heyoka Blackeagle, #1)
p49
aVMed Ship (Med Service, #1-4)
p50
asS'description'
p51
NsS'gutenberg'
p52
(dp53
g34
Vhttp://www.gutenberg.org/ebooks/19000
p54
sS'num'
p55
I19000
ssS'authors'
p56
(lp57
I33
asS'pages'
p58
I50
sS'isbn13'
p59
V9783655181249
p60
sS'language'
p61
VEnglish
p62
sS'countries'
p63
(lp64
I8
aI1
asS'release_date'
p65
S'2006-04-24T00:00:00'
p66
sS'author'
p67
I33
sS'cover'
p68
Vhttps://images.gr-assets.com/books/1444854566l/12204952.jpg
p69
sS'content_cleaned'
p70
I00
sS'classes'
p71
(lp72
Vto-read
p73
aVscience-fiction
p74
aVshort-stories
p75
aVebook
p76
aVebooks
p77
aVsci-fi
p78
aVkindle
p79
aVshort-story
p80
aVbooks-i-own
p81
aVfiction
p82
aVscifi-cyberpunk
p83
aVwhat-short-stories
p84
aVsci-fi-horror-fantasy
p85
aVto-read-ya
p86
aVlibre
p87
aVebook-drm-free
p88
aVtbr-ebooks
p89
aVinterested
p90
aVshort-stories-or-novellas
p91
aVread-in-2011
p92
aVon-kindle
p93
aVon-deck
p94
aVowned-kindle
p95
aVread-2015
p96
aVdystopia
p97
aVaudio-obtained-lvss
p98
aVcyberpunk
p99
aVowned-to-read
p100
aVbuy-audiobook
p101
aVscifi-fantasy-read
p102
aVa-adobe-editions
p103
aV14
p104
aVdon-t-own
p105
aVfromcalibre
p106
aVscifi
p107
aVfeedbooks-com
p108
aVeb-other
p109
aVeb
p110
aVe-books-i-own
p111
aVtechnology
p112
aVwhere-grrr-mine
p113
aVwhat-sf
p114
aVshortsread
p115
aVowned-ebook
p116
aVreview-on-book-likes
p117
aVhighly-recommended
p118
aVnsp
p119
aVanticipation
p120
aVto-read-sci-fi
p121
aVbooks-i-own-on-kindle
p122
aVyoung-adult
p123
aVfree-online
p124
aVread-another-version
p125
aVother
p126
aVhard-sf
p127
aVdystopian
p128
aVfree-reads
p129
aVnook
p130
aVlibrary
p131
aVdystopian-future
p132
aVsf
p133
aVrandom-added
p134
aVe-book
p135
aV_owned
p136
aVsf-dystopias
p137
aV3d-printing
p138
aVmass-romance
p139
aVcalibre
p140
aVtype-short-story
p141
aVaudio-obtained-ss
p142
aVget-audiobook
p143
asS'loc_class'
p144
VPS: Language and Literatures: American and Canadian literature
p145
sS'n_authors'
p146
I1
sb.