ccopy_reg
_reconstructor
p0
(cdataset.Book
Book
p1
c__builtin__
object
p2
Ntp3
Rp4
(dp5
S'content_name'
p6
V30044.txt.utf-8
p7
sS'isbn'
p8
V0811866904
p9
sS'year'
p10
I2013
sS'author_name'
p11
VKatherine MacLean
p12
sS'images_urls'
p13
(lp14
Vhttp://www.gutenberg.org/files/30044/30044-h/images/001.png
p15
aVhttp://www.gutenberg.org/files/30044/30044-h/images/002-1.jpg
p16
aVhttp://www.gutenberg.org/files/30044/30044-h/images/002-2.jpg
p17
asS'language_code'
p18
Ven-US
p19
sS'images'
p20
(lp21
sS'id'
p22
I563
sS'category'
p23
VText
p24
sS'genres'
p25
(lp26
sS'copyright'
p27
VPublic domain in the USA.
p28
sS'title'
p29
VThe Carnivore
p30
sS'wikipedia'
p31
(dp32
S'found'
p33
I00
ssS'average_rating'
p34
F4.14
sS'rating_count'
p35
I1639
sS'content_available'
p36
I01
sS'goodreads'
p37
(dp38
S'url'
p39
Vhttps://www.goodreads.com/book/show/6672874-carnivores
p40
sg33
I01
sS'year'
p41
I2013
ssS'similar_books'
p42
(lp43
VCrankee Doodle
p44
aVBattle Bunny
p45
aVWarning: Do Not Open This Book!
p46
aVLittle Red Writing
p47
aVTea Party Rules
p48
aVSuper Hair-o and the Barber of Doom
p49
aVBrief Thief
p50
aVRibbit!
p51
aVCrankenstein
p52
aVXander's Panda Party
p53
aVUnicorn Thinks He's Pretty Great
p54
aVCount the Monkeys
p55
aVMother Bruce
p56
aVThat Is Not a Good Idea!
p57
aVMr. Tiger Goes Wild
p58
aVThe Invisible Boy
p59
aVThe Mighty Lalouche
p60
aVDoug Unplugged
p61
asS'description'
p62
V<i>The lion is king of the jungle!<br />The great white shark is sovereign of the seas!<br />The timber wolf is emperor of the forests!</i><br /><br />But...it's lonely at the top of the food chain. It's difficult to fit in when plant eaters can be so cruel--just because you ate a relative of theirs that one time! What's a carnivore to do? <br /><br />Aaron Reynolds's roaringly funny text is perfectly paired with Dan Santat's dynamic illustrations, creating a toothsome picture book that's sure to stand out from the herd.
p63
sS'format'
p64
VHardcover
p65
sS'gutenberg'
p66
(dp67
g39
Vhttp://www.gutenberg.org/ebooks/30044
p68
sS'num'
p69
I30044
ssS'authors'
p70
(lp71
I36
asS'pages'
p72
I36
sS'isbn13'
p73
V9780811866903
p74
sS'language'
p75
VEnglish
p76
sS'countries'
p77
(lp78
I2
asS'release_date'
p79
S'2009-09-20T00:00:00'
p80
sS'author'
p81
I36
sS'content_cleaned'
p82
I01
sS'classes'
p83
(lp84
Vto-read
p85
aVpicture-books
p86
aVpicture-book
p87
aVanimals
p88
aVhumor
p89
aVchildrens
p90
aVchildren-s
p91
aVfunny
p92
aVchildren-s-books
p93
aVchildren
p94
aVkids
p95
aVchildrens-books
p96
aVfavorites
p97
aVstorytime
p98
aVread-aloud
p99
aVpicturebooks
p100
aVexploring-children
p101
aVkids-books
p102
aVfood
p103
aVexploring-assignment
p104
aVpicture
p105
aVhumorous
p106
aVread-in-2013
p107
aVchildren-s-lit
p108
aVchildren-s-picture-books
p109
aVlibrary
p110
aVfiction
p111
aVscience
p112
aVjuvenile
p113
aVread-alouds
p114
aVcarnivores
p115
aVcurrently-reading
p116
aVpicture-books-read
p117
aVnature
p118
aVelementary
p119
aVfood-chain
p120
aVstory-time
p121
aVpreschool
p122
aVread-in-2014
p123
aVchildrens-picture-books
p124
aV2013-reads
p125
aVpb
p126
aVfavorite-picture-books
p127
aVfriendship
p128
aVkid-lit
p129
aVblack-eyed-susan
p130
aVread-in-2015
p131
aVbook-selection
p132
aVkiddos
p133
aVchildren-s-literature
p134
aVall-time-favorites
p135
aVeating
p136
aVschool-age
p137
aVbooks-for-children
p138
aVfeelings
p139
aVsilly
p140
aVwolves
p141
aVsharks
p142
aVlions
p143
aVself-esteem
p144
aVread-2013
p145
aVpurpose
p146
aVchildren-s-books-read
p147
aVpb-funny
p148
aVread-in-2016
p149
aVedrd-314
p150
aV1000-books
p151
aVchildren-s-picture-book
p152
aVfor-the-girls
p153
aVmy-choice
p154
aVchildrens-picture
p155
aVread-to-kids
p156
aVyouth
p157
aVfor-kids
p158
aVchildren-books
p159
aVkindergarten
p160
aVkid-s-books
p161
aVidentity
p162
aV1st-grade
p163
aVread-2014
p164
aVaaron-reynolds
p165
aVe-fiction
p166
aVlion
p167
aVbooks-read-in-2014
p168
aVsupport-groups
p169
aVappropriate-for-upper-elementary
p170
aVacceptance
p171
aVpicture_book
p172
aVyounger-readers
p173
aVpicture-books-for-children
p174
aVgreat-picture-books
p175
aVpreschoolers
p176
aVschool-age-read-alouds
p177
aVhumour
p178
aVpeggy-sharp-2014
p179
aVmiddle-grade
p180
aV2013-picture-books
p181
aVstorytime-books
p182
aVmock-caldecott-2014
p183
aV2013-book
p184
asS'loc_class'
p185
VPS: Language and Literatures: American and Canadian literature
p186
sS'n_authors'
p187
I1
sb.