ccopy_reg
_reconstructor
p0
(cdataset.Book
Book
p1
c__builtin__
object
p2
Ntp3
Rp4
(dp5
S'similar_books'
p6
(lp7
sS'genres'
p8
(lp9
sS'author'
p10
I302
sS'countries'
p11
(lp12
I2
asS'year'
p13
I1969
sS'title'
p14
VGalaxy Magazine September 1969
p15
sS'cover'
p16
Vhttps://ia600203.us.archive.org/BookReader/BookReaderImages.php?zip=/3/items/Galaxy_v29n01_1969-09/Galaxy_v29n01_1969-09_jp2.zip&file=Galaxy_v29n01_1969-09_jp2/Galaxy_v29n01_1969-09_0000.jp2&scale=0&rotate=0
p17
sS'cover_art'
p18
S'http://www.isfdb.org/wiki/images/c/ce/GALSEP69.jpg'
p19
sS'author_name'
p20
VGalaxy Magazine
p21
sS'images_urls'
p22
(lp23
sS'authors'
p24
(lp25
I499
aI570
aI326
aI657
aI40
aI597
aI91
aI339
aI356
aI658
aI659
aI63
aI660
aI661
aI662
aI302
asS'images'
p26
(lp27
sS'id'
p28
I1136
sS'contents'
p29
(lp30
(dp31
S'title'
p32
VHumans, Go Home!
p33
sS'author'
p34
I499
sa(dp35
g32
VHumans, Go Home! [2]
p36
sg34
I499
sa(dp37
g32
VHumans, Go Home! [3]
p38
sg34
I499
sa(dp39
g32
VHumans, Go Home! [4]
p40
sg34
I499
sa(dp41
g32
VHumans, Go Home! [5]
p42
sg34
I499
sa(dp43
g32
VHumans, Go Home! [6]
p44
sg34
I499
sa(dp45
g32
VOut of Phase
p46
sg34
I499
sa(dp47
g32
VOut of Phase [2]
p48
sg34
I499
sa(dp49
g32
VPasser
p50
sg34
I570
sa(dp51
g32
VCitadel
p52
sg34
I326
sa(dp53
g32
VRevival Meeting
p54
sg34
I657
sa(dp55
g32
VDune Messiah (Part 3 of 5)
p56
sg34
I326
sa(dp57
g32
VCredo: Willy Ley: The First Citizen of the Moon
p58
sg34
I499
sa(dp59
g32
VUnnatural Selection
p60
sg34
I40
sa(dp61
g32
VMartians and Venusians
p62
sg34
I597
sa(dp63
g32
VForecast (Galaxy, September 1969)
p64
sg34
I326
sa(dp65
g32
VGalaxy's Stars (Galaxy, September 1969)
p66
sg34
I326
sa(dp67
g32
VGalaxy Book Shelf (Galaxy, September 1969)
p68
sg34
I91
sa(dp69
g32
VFor Your Information (Galaxy, September 1969)
p70
sg34
I339
sa(dp71
g32
VCredo: Willy Ley: The First Citizen of the Moon (Obituary)
p72
sg34
I356
sa(dp73
g32
VHumans, Go Home!
p74
sg34
I658
sa(dp75
g32
VThe Martian Surface
p76
sg34
I659
sa(dp77
g32
VDune Messiah (Part 3 of 5)
p78
sg34
I63
sa(dp79
g32
VOut of Phase
p80
sg34
I660
sa(dp81
g32
VCitadel
p82
sg34
I661
sa(dp83
g32
VRevival Meeting
p84
sg34
I662
sasb.