ccopy_reg
_reconstructor
p0
(cdataset.Book
Book
p1
c__builtin__
object
p2
Ntp3
Rp4
(dp5
S'content_name'
p6
V24567.txt.utf-8
p7
sS'isbn'
p8
NsS'year'
p9
I2010
sS'author_name'
p10
VAllen Kim Lang
p11
sS'images_urls'
p12
(lp13
Vhttp://www.gutenberg.org/files/24567/24567-h/images/cover.jpg
p14
aVhttp://www.gutenberg.org/files/24567/24567-h/images/illus1.png
p15
aVhttp://www.gutenberg.org/files/24567/24567-h/images/illus2.png
p16
aVhttp://www.gutenberg.org/files/24567/24567-h/images/illus3.png
p17
aVhttp://www.gutenberg.org/files/24567/24567-h/images/illus4.png
p18
aVhttp://www.gutenberg.org/files/24567/24567-h/images/illus5.png
p19
aVhttp://www.gutenberg.org/files/24567/24567-page-images/f0001_image1.jpg
p20
aVhttp://www.gutenberg.org/files/24567/24567-page-images/f0002_image1.png
p21
aVhttp://www.gutenberg.org/files/24567/24567-page-images/p0007.png
p22
aVhttp://www.gutenberg.org/files/24567/24567-page-images/p0007_image1.png
p23
aVhttp://www.gutenberg.org/files/24567/24567-page-images/p0008.png
p24
aVhttp://www.gutenberg.org/files/24567/24567-page-images/p0009.png
p25
aVhttp://www.gutenberg.org/files/24567/24567-page-images/p0010.png
p26
aVhttp://www.gutenberg.org/files/24567/24567-page-images/p0011.png
p27
aVhttp://www.gutenberg.org/files/24567/24567-page-images/p0012.png
p28
aVhttp://www.gutenberg.org/files/24567/24567-page-images/p0013.png
p29
aVhttp://www.gutenberg.org/files/24567/24567-page-images/p0013_image1.png
p30
aVhttp://www.gutenberg.org/files/24567/24567-page-images/p0014.png
p31
aVhttp://www.gutenberg.org/files/24567/24567-page-images/p0015.png
p32
aVhttp://www.gutenberg.org/files/24567/24567-page-images/p0016.png
p33
aVhttp://www.gutenberg.org/files/24567/24567-page-images/p0017.png
p34
aVhttp://www.gutenberg.org/files/24567/24567-page-images/p0018.png
p35
aVhttp://www.gutenberg.org/files/24567/24567-page-images/p0019.png
p36
aVhttp://www.gutenberg.org/files/24567/24567-page-images/p0020.png
p37
aVhttp://www.gutenberg.org/files/24567/24567-page-images/p0020_image1.png
p38
aVhttp://www.gutenberg.org/files/24567/24567-page-images/p0021.png
p39
aVhttp://www.gutenberg.org/files/24567/24567-page-images/p0022.png
p40
aVhttp://www.gutenberg.org/files/24567/24567-page-images/p0023.png
p41
aVhttp://www.gutenberg.org/files/24567/24567-page-images/p0024.png
p42
aVhttp://www.gutenberg.org/files/24567/24567-page-images/p0025.png
p43
aVhttp://www.gutenberg.org/files/24567/24567-page-images/p0026.png
p44
aVhttp://www.gutenberg.org/files/24567/24567-page-images/p0027.png
p45
aVhttp://www.gutenberg.org/files/24567/24567-page-images/p0027_image1.png
p46
aVhttp://www.gutenberg.org/files/24567/24567-page-images/p0028.png
p47
aVhttp://www.gutenberg.org/files/24567/24567-page-images/p0029.png
p48
aVhttp://www.gutenberg.org/files/24567/24567-page-images/p0030.png
p49
aVhttp://www.gutenberg.org/files/24567/24567-page-images/p0031.png
p50
aVhttp://www.gutenberg.org/files/24567/24567-page-images/p0032.png
p51
aVhttp://www.gutenberg.org/files/24567/24567-page-images/p0033.png
p52
aVhttp://www.gutenberg.org/files/24567/24567-page-images/p0034.png
p53
asS'language_code'
p54
NsS'images'
p55
(lp56
sS'id'
p57
I721
sS'category'
p58
VText
p59
sS'genres'
p60
(lp61
sS'copyright'
p62
VPublic domain in the USA.
p63
sS'title'
p64
VBlind Man's Lantern
p65
sS'wikipedia'
p66
(dp67
S'found'
p68
I00
ssS'average_rating'
p69
F3.0
sS'rating_count'
p70
I6
sS'content_available'
p71
I01
sS'cover_art_url'
p72
S'http://www.gutenberg.org/cache/epub/24567/pg24567.cover.medium.jpg'
p73
sS'goodreads'
p74
(dp75
S'url'
p76
Vhttps://www.goodreads.com/book/show/5722783-blind-man-s-lantern
p77
sg68
I01
sS'year'
p78
I2010
ssS'similar_books'
p79
(lp80
sS'description'
p81
NsS'format'
p82
NsS'gutenberg'
p83
(dp84
g76
Vhttp://www.gutenberg.org/ebooks/24567
p85
sS'num'
p86
I24567
ssS'authors'
p87
(lp88
I179
asS'isbn13'
p89
NsS'language'
p90
VEnglish
p91
sS'release_date'
p92
S'2008-02-10T00:00:00'
p93
sS'author'
p94
I179
sS'content_cleaned'
p95
I01
sS'classes'
p96
(lp97
Vto-read
p98
aVcurrently-reading
p99
aVsci-fi
p100
aVscience-fiction
p101
aVjunk
p102
aV21st-century-lit
p103
aVebooks-owned
p104
aVbooks-owned
p105
aVshort-stories
p106
aVon-tablet
p107
aVon-calibre
p108
aVebook
p109
aVshould-try-to-read
p110
aV14
p111
aVe-book
p112
aVshort-story
p113
aVkindle
p114
aVsf
p115
asS'loc_class'
p116
VPS: Language and Literatures: American and Canadian literature
p117
sS'n_authors'
p118
I1
sb.