ccopy_reg
_reconstructor
p0
(cdataset.Book
Book
p1
c__builtin__
object
p2
Ntp3
Rp4
(dp5
S'similar_books'
p6
(lp7
sS'genres'
p8
(lp9
sS'author'
p10
I302
sS'countries'
p11
(lp12
I2
asS'year'
p13
I1970
sS'title'
p14
VGalaxy Magazine July 1970
p15
sS'cover'
p16
Vhttps://ia600204.us.archive.org/BookReader/BookReaderImages.php?zip=/9/items/Galaxy_v30n04_1970-07/Galaxy_v30n04_1970-07_jp2.zip&file=Galaxy_v30n04_1970-07_jp2/Galaxy_v30n04_1970-07_0000.jp2&scale=0&rotate=0
p17
sS'cover_art'
p18
S'http://www.isfdb.org/wiki/images/3/3f/GALJUL70.jpg'
p19
sS'author_name'
p20
VGalaxy Magazine
p21
sS'images_urls'
p22
(lp23
sS'authors'
p24
(lp25
I326
aI681
aI499
aI667
aI682
aI613
aI91
aI50
aI74
aI371
aI662
aI549
aI302
asS'images'
p26
(lp27
sS'id'
p28
I1143
sS'contents'
p29
(lp30
(dp31
S'title'
p32
VI Will Fear No Evil (Part 1 of 4)
p33
sS'author'
p34
I326
sa(dp35
g32
VThe Throwbacks
p36
sg34
I326
sa(dp37
g32
VThe Throwbacks [2]
p38
sg34
I326
sa(dp39
g32
VThe Throwbacks [3]
p40
sg34
I326
sa(dp41
g32
VGood
p42
sg34
I681
sa(dp43
g32
VThe All-at-Once Man
p44
sg34
I326
sa(dp45
g32
VThe Hookup
p46
sg34
I326
sa(dp47
g32
VAsk a Silly Question
p48
sg34
I326
sa(dp49
g32
VSittik
p50
sg34
I499
sa(dp51
g32
VI Will Fear No Evil (Part 1 of 4) [2]
p52
sg34
I326
sa(dp53
g32
VI Will Fear No Evil (Part 1 of 4) [3]
p54
sg34
I326
sa(dp55
g32
VI Will Fear No Evil (Part 1 of 4) [4]
p56
sg34
I326
sa(dp57
g32
VAsbestos, Too
p58
sg34
I667
sa(dp59
g32
VContainers for the Condition of Man
p60
sg34
I682
sa(dp61
g32
VGalaxy Stars (Galaxy, July 1970)
p62
sg34
I613
sa(dp63
g32
VGalaxy Bookshelf (Galaxy, July 1970)
p64
sg34
I91
sa(dp65
g32
VThe Throwbacks
p66
sg34
I50
sa(dp67
g32
VThe All-at-Once Man
p68
sg34
I74
sa(dp69
g32
VI Will Fear No Evil (Part 1 of 4)
p70
sg34
I371
sa(dp71
g32
VThe Hookup
p72
sg34
I662
sa(dp73
g32
VAsk a Silly Question
p74
sg34
I549
sa(dp75
g32
VSittik
p76
sg34
I613
sasb.