ccopy_reg
_reconstructor
p0
(cdataset.Book
Book
p1
c__builtin__
object
p2
Ntp3
Rp4
(dp5
S'content_name'
p6
V28767.txt.utf-8
p7
sS'isbn'
p8
V0385344228
p9
sS'year'
p10
I2012
sS'author_name'
p11
VPhilip K. Dick
p12
sS'images_urls'
p13
(lp14
Vhttp://www.gutenberg.org/files/28767/28767-h/images/001.png
p15
aVhttp://www.gutenberg.org/files/28767/28767-h/images/002.png
p16
aVhttp://www.gutenberg.org/files/28767/28767-h/images/003.png
p17
aVhttp://www.gutenberg.org/files/28767/28767-h/images/004-1.jpg
p18
aVhttp://www.gutenberg.org/files/28767/28767-h/images/004-2.jpg
p19
asS'language_code'
p20
Veng
p21
sS'images'
p22
(lp23
sS'id'
p24
I39
sS'category'
p25
VText
p26
sS'genres'
p27
(lp28
sS'copyright'
p29
VPublic domain in the USA.
p30
sS'title'
p31
VThe Defenders
p32
sS'wikipedia'
p33
(dp34
S'url'
p35
Vhttps://en.wikipedia.org/wiki/The_Book_of_Philip_K._Dick
p36
sS'found'
p37
I01
sS'year'
p38
I-1
ssS'published_in'
p39
NsS'average_rating'
p40
F3.97
sS'rating_count'
p41
I182354
sS'content_available'
p42
I01
sS'goodreads'
p43
(dp44
g35
Vhttps://www.goodreads.com/book/show/11367726-defending-jacob
p45
sg37
I01
sg38
I2012
ssS'similar_books'
p46
(lp47
VThe Good Father
p48
aVFaith
p49
aVBroken Harbour (Dublin Murder Squad, #4)
p50
aVOnce We Were Brothers
p51
aVLook Again
p52
aVNight Road
p53
aVOne Breath Away
p54
aVThe Homecoming of Samuel Lake
p55
aVGone Missing (Kate Burkholder, #4)
p56
aVA Grown-Up Kind of Pretty
p57
aVA Land More Kind Than Home
p58
aVNever Knowing
p59
aVTouch & Go (Tessa Leoni, #2)
p60
aVCrooked Letter, Crooked Letter
p61
aVThe Good House
p62
aVThe Other Woman (Jane Ryland, #1)
p63
aVStranger in the Room (Keye Street #2)
p64
aVThe Inquisitor
p65
asS'description'
p66
VAndy Barber has been an assistant district attorney for two decades. He is respected. Admired in the courtroom. Happy at home with the loves of his life, his wife, Laurie, and teenage son, Jacob.<br /><br />Then Andy\u2019s quiet suburb is stunned by a shocking crime: a young boy stabbed to death in a leafy park. And an even greater shock: The accused is Andy\u2019s own son\u2014shy, awkward, mysterious Jacob.<br /><br />Andy believes in Jacob\u2019s innocence. Any parent would. But the pressure mounts. Damning evidence. Doubt. A faltering marriage. The neighbors\u2019 contempt. A murder trial that threatens to obliterate Andy\u2019s family.<br /><br />It is the ultimate test for any parent: How far would you go to protect your child? It is a test of devotion. A test of how well a parent can know a child. For Andy Barber, a man with an iron will and a dark secret, it is a test of guilt and innocence in the deepest sense.<br /><br />How far would <i>you</i> go?<br />
p67
sS'format'
p68
VHardcover
p69
sS'gutenberg'
p70
(dp71
g35
Vhttp://www.gutenberg.org/ebooks/28767
p72
sS'num'
p73
I28767
ssS'authors'
p74
(lp75
I8
asS'pages'
p76
I421
sS'isbn13'
p77
V9780385344227
p78
sS'language'
p79
VEnglish
p80
sS'release_date'
p81
S'2009-05-12T00:00:00'
p82
sS'author'
p83
I8
sS'original_title'
p84
VThe Book of Philip K. Dick
p85
sS'summary'
p86
VThe Book of Philip K. Dick is a collection of science fiction stories by American writer Philip K. Dick. It was first published by DAW Books in 1973. The book was subsequently published in the United Kingdom by Coronet in 1977 under the title The Turning Wheel and Other Stories. The stories had originally appeared in the magazines Startling Stories, Science Fiction Stories, Galaxy Science Fiction, Orbit Science Fiction, Imaginative Tales and Amazing Stories.
p87
sS'content_cleaned'
p88
I01
sS'classes'
p89
(lp90
Vto-read
p91
aVcurrently-reading
p92
aVbook-club
p93
aVfiction
p94
aVmystery
p95
aVfavorites
p96
aVthriller
p97
aVcrime
p98
aVkindle
p99
aVsuspense
p100
aVmystery-thriller
p101
aVaudio
p102
aVaudiobook
p103
aVbookclub
p104
aVaudiobooks
p105
aVadult
p106
aVlibrary
p107
aVlegal-thriller
p108
aVbook-club-books
p109
aVadult-fiction
p110
aVread-in-2013
p111
aVread-in-2012
p112
aVmysteries
p113
aVmystery-suspense
p114
aVcourtroom-drama
p115
aVbooks-i-own
p116
aVcontemporary-fiction
p117
aVlegal
p118
aVdrama
p119
aVbook-club-reads
p120
aVcontemporary
p121
aVaudio-books
p122
aVfamily-relationships
p123
aVmurder
p124
aVebook
p125
aVfamily
p126
aVaudio-book
p127
aVthrillers
p128
aVread-2013
p129
aVaudible
p130
aVread-in-2014
p131
aVto-buy
p132
aVread-2012
p133
aVcrime-fiction
p134
aVread-in-2015
p135
aVbook-group
p136
aVbullying
p137
aVnook
p138
aVfinished
p139
aVebooks
p140
aVgeneral-fiction
p141
aVnovels
p142
aV2012-reads
p143
aVwilliam-landay
p144
aVmystery-crime
p145
aVe-book
p146
aV2013-reads
p147
aVlibrary-book
p148
aVbook-club-selections
p149
aVwish-list
p150
aVread-2014
p151
aVowned-books
p152
aVbook-club-read
p153
aVowned
p154
aVoverdrive
p155
aVrecommended
p156
aVlaw
p157
aVrealistic-fiction
p158
aVnovel
p159
aVread-in-2016
p160
aVlegal-fiction
p161
aV2013-books
p162
aVcrime-mystery
p163
aVthriller-suspense
p164
aVon-kindle
p165
aVfirst-reads
p166
aV2012-books
p167
aVdidn-t-finish
p168
aVlibrary-books
p169
aVcrime-thriller
p170
aVmassachusetts
p171
aVmurder-mystery
p172
aVabandoned
p173
aVe-books
p174
aVlistened-to
p175
aVdefault
p176
aVpsychological-thriller
p177
aVcourtroom
p178
aVfavorite-books
p179
aVkindle-books
p180
aVmystery-thriller-suspense
p181
aVthriller-mystery
p182
aVsuspense-thriller
p183
aVdid-not-finish
p184
aVshelfari-favorites
p185
aV2014-books
p186
aVlegal-thrillers
p187
aVread-2015
p188
aVbooks-read-in-2013
p189
aV2013-read
p190
asS'loc_class'
p191
VPS: Language and Literatures: American and Canadian literature
p192
sS'n_authors'
p193
I1
sb.