ccopy_reg
_reconstructor
p0
(cdataset.Book
Book
p1
c__builtin__
object
p2
Ntp3
Rp4
(dp5
S'content_name'
p6
V51256.txt.utf-8
p7
sS'isbn'
p8
V0345301374
p9
sS'year'
p10
I1981
sS'author_name'
p11
VAndrew Fetler
p12
sS'images_urls'
p13
(lp14
Vhttp://www.gutenberg.org/files/51256/51256-h/images/cover.jpg
p15
aVhttp://www.gutenberg.org/files/51256/51256-h/images/illus.jpg
p16
asS'language_code'
p17
NsS'images'
p18
(lp19
sS'id'
p20
I909
sS'category'
p21
VText
p22
sS'genres'
p23
(lp24
sS'copyright'
p25
VPublic domain in the USA.
p26
sS'title'
p27
VThe Cool War
p28
sS'wikipedia'
p29
(dp30
S'found'
p31
I00
ssS'average_rating'
p32
F3.28
sS'rating_count'
p33
I220
sS'content_available'
p34
I01
sS'cover_art_url'
p35
S'http://www.gutenberg.org/cache/epub/51256/pg51256.cover.medium.jpg'
p36
sS'goodreads'
p37
(dp38
S'url'
p39
Vhttps://www.goodreads.com/book/show/1991370.The_Cool_War
p40
sg31
I01
sS'year'
p41
I1981
ssS'similar_books'
p42
(lp43
VThe Veils of Azlaroc
p44
aVTo the Stars (Omnibus)
p45
aVThe Complete Works of William Shakespeare, Volume 1
p46
aVGlimpses of Truth
p47
aVGold Cord
p48
aVFreedom Road
p49
aVLove Is a Wild Assault
p50
aVCoils
p51
aVGray Matters
p52
aVThe Time Is Noon
p53
aVShe Did What She Could: Five Words of Jesus That Will Change Your Life
p54
aVThe Avatar
p55
aVThe Wrong End of Time
p56
aVJames Herriot's Yorkshire
p57
aVThe Two Faces of Tomorrow
p58
aVImpossible Places
p59
aVLlana of Gathol/John Carter of Mars (Barsoom, #10-11)
p60
aVThe Triumph of Time (Cities in Flight, #4)
p61
asS'description'
p62
VFred Pohl, multiple winner of science-fiction's top awards, presents a breathtaking romp through the energy-poor world of the 2020s - a gripping chase-intrigue novel with a highly unlikely stand-in for James Bond.<br />One day, the Reverend Hornswell Hake had nothing worse to contend with than the customary power shortages and his routine pastoral chores, such as counseling the vivacious Alys Brant - and her husbands and wife. At nearly forty, his life was placid, almost humdrum.<br />The very next day, Horny Hake was first enlisted as an unwilling agent of the Team - secret successor to the long-discredited CIA - and then courted by an anti-Team underground group. In practically no time at all, Horny and Alys were touring Europe on a mission about which he knew zip, except that it was a new move in the Cool War, the worldwide campaign of sabotage that had replaced actual combat.<br />For the team and its opponents, though, the Cool War could be as perilous as any hot one, as Horny Hake discovered when he came up against<br /><br />*Leota, lovely leader of the underground cabal, dedicated to destroying the Team;<br />*Yosper, the Bible-thumping, foul-mouthed nonogenarian killer;<br />*The Reddi twins, professional terrorists who turned up in the oddest places at the worst times and always managed to make Horny's life miserable;<br />*And Pegleg, master of such lethal toys as the Bulgarian Brolly and the Peruvian Pen.<br /><br />Picaresque and fast-moving, THE COOL WAR is also a deeply ironic, often hilarious, yet thought-provoking look at where we could be, some forty years from now.
p63
sS'format'
p64
VMass Market Paperback
p65
sS'gutenberg'
p66
(dp67
g39
Vhttp://www.gutenberg.org/ebooks/51256
p68
sS'num'
p69
I51256
ssS'authors'
p70
(lp71
I278
asS'pages'
p72
I288
sS'isbn13'
p73
V9780345301376
p74
sS'language'
p75
VEnglish
p76
sS'countries'
p77
(lp78
I3
asS'release_date'
p79
S'2016-02-21T00:00:00'
p80
sS'author'
p81
I278
sS'content_cleaned'
p82
I01
sS'classes'
p83
(lp84
Vto-read
p85
aVscience-fiction
p86
aVdefault
p87
aVowned
p88
aVsf
p89
aVfiction
p90
aVsci-fi
p91
aVscifi
p92
aVbooks
p93
aVspeculative-fiction
p94
aVmy-library
p95
aVcurrently-reading
p96
aVown-unread
p97
aVhardcover
p98
aVbooks-i-own
p99
aVnot-read
p100
aVmaybe
p101
aVdiscards
p102
aVreread-again
p103
aV1980-s
p104
aVto-read-sometime
p105
aVsatire
p106
aVdystopie
p107
aVsci-fi-to-read
p108
aVprisma-spectrum
p109
aVused-bookstore-favorites
p110
aVaudiobooks
p111
aVtaverna
p112
aVreread
p113
aVscience-fiction-novel
p114
aVnovels
p115
aVto-buy
p116
aVread-in-2016
p117
aVread-liked-too-long-ago-to-rate
p118
aVyear-1981
p119
aVp
p120
aVcoverx-transportation
p121
aVscience-fiction-fantasy-horror
p122
aValphabetical-by-title
p123
aVscience
p124
aVcould-read
p125
aVsci-fi-read-box-r1
p126
aVbin-015
p127
aVpohl
p128
aValexandria
p129
aVwant-to-read-but-do-not-own
p130
aVunited-states
p131
aVdnf-lost-interest
p132
aV1995
p133
aV_ita
p134
aVpinellas-library
p135
aVage-challenge
p136
aVin-attesa
p137
aVpaul
p138
aVbooks-i-own-but-haven-t-read-yet
p139
aVmy-collection
p140
aVthcpl
p141
aVextra-shelf-for-whatever
p142
aVtaggare
p143
aVnear-future
p144
aVfinished
p145
aVowned-not-read
p146
aVpaperback
p147
aVs
p148
aVssssssssss
p149
aVfiction-science-fiction
p150
aVenglish
p151
aVread-1
p152
aVromaani
p153
aVowned-but-unread
p154
aVscat_10
p155
aVlem_5
p156
aVcosmo_argento
p157
aVscott
p158
aVe-book
p159
aVautographed
p160
aVmy-personal-home-library
p161
aVi-own-it
p162
aVcompleted
p163
aVfantascienza
p164
aVmy-complete-bookshelf
p165
aVhb
p166
aVsf-fantasy-i-own
p167
aVaaron
p168
aVbook-collector
p169
aVhd
p170
aV2013-booklist
p171
aV_miscor2do
p172
aVb-c
p173
aVsf-fantasy
p174
aVhumor
p175
aVespionage
p176
aVfrederik-pohl
p177
aVto-find
p178
aVthrillers
p179
aVpolitics
p180
aVat-library
p181
aVold-school
p182
aVdavid-brins-greatest-science-fictio
p183
aVread-in-1986
p184
asS'loc_class'
p185
S''
p186
sS'n_authors'
p187
I1
sb.