ccopy_reg
_reconstructor
p0
(cdataset.Book
Book
p1
c__builtin__
object
p2
Ntp3
Rp4
(dp5
S'content_name'
p6
V29768.txt.utf-8
p7
sS'isbn'
p8
V1540360857
p9
sS'cover'
p10
Vhttps://images.gr-assets.com/books/1479731478l/32963764.jpg
p11
sS'year'
p12
I1930
sS'author_name'
p13
VVarious
p14
sS'images_urls'
p15
(lp16
Vhttp://www.gutenberg.org/files/29768/29768-h/images/cover.jpg
p17
aVhttp://www.gutenberg.org/files/29768/29768-h/images/image_001.jpg
p18
aVhttp://www.gutenberg.org/files/29768/29768-h/images/image_002.jpg
p19
aVhttp://www.gutenberg.org/files/29768/29768-h/images/image_003.jpg
p20
aVhttp://www.gutenberg.org/files/29768/29768-h/images/image_004.jpg
p21
aVhttp://www.gutenberg.org/files/29768/29768-h/images/image_005.jpg
p22
aVhttp://www.gutenberg.org/files/29768/29768-h/images/image_006.jpg
p23
aVhttp://www.gutenberg.org/files/29768/29768-h/images/image_007.jpg
p24
aVhttp://www.gutenberg.org/files/29768/29768-h/images/image_008.jpg
p25
aVhttp://www.gutenberg.org/files/29768/29768-h/images/image_009.jpg
p26
aVhttp://www.gutenberg.org/files/29768/29768-h/images/image_010.jpg
p27
aVhttp://www.gutenberg.org/files/29768/29768-h/images/image_011.jpg
p28
aVhttp://www.gutenberg.org/files/29768/29768-h/images/image_012.jpg
p29
aVhttp://www.gutenberg.org/files/29768/29768-h/images/image_013.jpg
p30
aVhttp://www.gutenberg.org/files/29768/29768-h/images/image_014.jpg
p31
aVhttp://www.gutenberg.org/files/29768/29768-h/images/image_015.jpg
p32
aVhttp://www.gutenberg.org/files/29768/29768-h/images/image_016.jpg
p33
aVhttp://www.gutenberg.org/files/29768/29768-h/images/image_017.jpg
p34
aVhttp://www.gutenberg.org/files/29768/29768-h/images/image_a.jpg
p35
aVhttp://www.gutenberg.org/files/29768/29768-h/images/image_a1.jpg
p36
aVhttp://www.gutenberg.org/files/29768/29768-h/images/image_b.jpg
p37
aVhttp://www.gutenberg.org/files/29768/29768-h/images/image_b1.jpg
p38
aVhttp://www.gutenberg.org/files/29768/29768-h/images/image_c.jpg
p39
aVhttp://www.gutenberg.org/files/29768/29768-h/images/image_e.jpg
p40
aVhttp://www.gutenberg.org/files/29768/29768-h/images/image_e1.jpg
p41
aVhttp://www.gutenberg.org/files/29768/29768-h/images/image_f.jpg
p42
aVhttp://www.gutenberg.org/files/29768/29768-h/images/image_g.jpg
p43
aVhttp://www.gutenberg.org/files/29768/29768-h/images/image_g1.jpg
p44
aVhttp://www.gutenberg.org/files/29768/29768-h/images/image_h.jpg
p45
aVhttp://www.gutenberg.org/files/29768/29768-h/images/image_i.jpg
p46
aVhttp://www.gutenberg.org/files/29768/29768-h/images/image_i1.jpg
p47
aVhttp://www.gutenberg.org/files/29768/29768-h/images/image_j.jpg
p48
aVhttp://www.gutenberg.org/files/29768/29768-h/images/image_k.jpg
p49
aVhttp://www.gutenberg.org/files/29768/29768-h/images/image_l.jpg
p50
aVhttp://www.gutenberg.org/files/29768/29768-h/images/image_m.jpg
p51
aVhttp://www.gutenberg.org/files/29768/29768-h/images/image_n.jpg
p52
aVhttp://www.gutenberg.org/files/29768/29768-h/images/image_n1.jpg
p53
aVhttp://www.gutenberg.org/files/29768/29768-h/images/image_o.jpg
p54
aVhttp://www.gutenberg.org/files/29768/29768-h/images/image_o1.jpg
p55
aVhttp://www.gutenberg.org/files/29768/29768-h/images/image_p.jpg
p56
aVhttp://www.gutenberg.org/files/29768/29768-h/images/image_r.jpg
p57
aVhttp://www.gutenberg.org/files/29768/29768-h/images/image_s.jpg
p58
aVhttp://www.gutenberg.org/files/29768/29768-h/images/image_s1.jpg
p59
aVhttp://www.gutenberg.org/files/29768/29768-h/images/image_t.jpg
p60
aVhttp://www.gutenberg.org/files/29768/29768-h/images/image_t1.jpg
p61
aVhttp://www.gutenberg.org/files/29768/29768-h/images/image_w.jpg
p62
aVhttp://www.gutenberg.org/files/29768/29768-h/images/image_w1.jpg
p63
aVhttp://www.gutenberg.org/files/29768/29768-h/images/image_y1.jpg
p64
asS'language_code'
p65
NsS'images'
p66
(lp67
sS'id'
p68
I71
sS'category'
p69
VText
p70
sS'genres'
p71
(lp72
sS'copyright'
p73
VPublic domain in the USA.
p74
sS'title'
p75
VAstounding Stories of Super-Science, August 1930
p76
sS'wikipedia'
p77
(dp78
S'url'
p79
Vhttps://en.wikipedia.org/wiki/Science_Fiction_of_the_Thirties
p80
sS'found'
p81
I01
sS'year'
p82
I-1
ssS'published_in'
p83
NsS'average_rating'
p84
F4.0
sS'rating_count'
p85
I1
sS'content_available'
p86
I01
sS'cover_art_url'
p87
S'http://www.gutenberg.org/cache/epub/29768/pg29768.cover.medium.jpg'
p88
sS'goodreads'
p89
(dp90
g79
Vhttps://www.goodreads.com/book/show/32963764-astounding-stories-of-super-science-august-1930
p91
sg81
I01
sg82
I-1
ssS'similar_books'
p92
(lp93
sS'description'
p94
VThe Planet of Dread by R. F. Starzl -- The Lord of Space by Victor Rousseau -- The Second Satellite by Edmond Hamilton -- Silver Dome by Harl Vincent -- Earth, The Marauder by Arthur J. Burks -- Murder Madness by Murray Leinster -- The Flying City by H. Thompson Rich Show Excerpt THE PLANET OF DREAD by R. F. STARZL A Stupid Blunder--and Mark Forepaugh Faces a Lifetime of Castaway Loneliness in the Savage Welter of the Planet Inra's Monster-ridden Jungles. THE LORD OF SPACE by VICTOR ROUSSEAU A Black Caesar Had Arisen on Eros--and All Earth Trembled at His Distant Menace. THE SECOND SATELLITE by EDMOND HAMILTON Earth-men War on Frog-vampires for the Emancipation of the Human Cows of Earth's Second Satellite. (A Novelet.) SILVER DOME by HARL VINCENT In Her Deep-buried Kingdom of Theros, Phaestra Reveals the Amazing Secret of the Silver Dome. EARTH, THE MARAUDER by ARTHUR J. BURKS Deep in the Gnome-infested Tunnels of the Moon, Sarka and Jaska Are Brought to Luar the Radiant Goddess Against Whose Minions the Marauding Earth Had Struck in Vain. (Part Two of a Three-Part Novel.) MURDER MADNESS by MURRAY LEINSTER Bell Has Fought through Tremendous Obstacles to Find and Kill The Master, Whose Diabolical Poison Makes Murder-mad Snakes of the Hands; and, as He Faces the Monster at Last--His Own Hands Start to Writhe! (Conclusion.) THE FLYING CITY by H. THOMPSON RICH From Space Came Cor's Disc-city of Vada--Its Mighty, Age-old Engines Weakening--Its Horde of Dwarfs Hungry for the Earth!
p95
sS'gutenberg'
p96
(dp97
g79
Vhttp://www.gutenberg.org/ebooks/29768
p98
sS'num'
p99
I29768
ssS'authors'
p100
(lp101
I17
asS'isbn13'
p102
V9781540360854
p103
sS'language'
p104
VEnglish
p105
sS'countries'
p106
(lp107
I3
asS'release_date'
p108
S'2009-08-23T00:00:00'
p109
sS'author'
p110
I17
sS'original_title'
p111
VScience Fiction of the Thirties
p112
sS'summary'
p113
VScience Fiction of the Thirties is an anthology of science fiction short stories edited by Damon Knight. It was first published in hardcover by Bobbs-Merrill in January 1976; a book club edition was issued simultaneously by the same publisher together with the Science Fiction Book Club, and a trade paperback edition by Avon Books in March 1977.\u000aThe book collects eighteen tales by various authors originally published in the 1930s and exemplifying American magazine science fiction of that decade, together with a foreword and three essays on the period by the editor, and a bibliography. The stories were originally published in Astounding Stories and Amazing Stories, the premier science fiction magazines of the time. The book reproduces period illustrations that accompanied the stories' original appearances by H. W. Wesso, Leo Morey, Paul Orban, Howard V. Brown, Elliott Dold, Jr., Thompson, and Charles Schneeman.
p114
sS'content_cleaned'
p115
I01
sS'classes'
p116
(lp117
Vshort-stories
p118
aVsci-fi
p119
asS'loc_class'
p120
VPN: Language and Literatures: Literature: General, Criticism, Collections
p121
sS'n_authors'
p122
I1
sb.