ccopy_reg
_reconstructor
p0
(cdataset.Book
Book
p1
c__builtin__
object
p2
Ntp3
Rp4
(dp5
S'similar_books'
p6
(lp7
sS'genres'
p8
(lp9
sS'author'
p10
I918
sS'countries'
p11
(lp12
I2
asS'year'
p13
I1974
sS'title'
p14
VIF Magazine January 1974
p15
sS'cover'
p16
Vhttps://ia600204.us.archive.org/BookReader/BookReaderImages.php?zip=/24/items/1974-02_IF/1974-02_IF_jp2.zip&file=1974-02_IF_jp2/1974-02_IF_0000.jp2&scale=0&rotate=0
p17
sS'cover_art'
p18
S'http://www.isfdb.org/wiki/images/2/25/WOFIFJANFEB1974.jpg'
p19
sS'author_name'
p20
VIF Magazine
p21
sS'images_urls'
p22
(lp23
sS'authors'
p24
(lp25
I499
aI356
aI70
aI1232
aI1233
aI595
aI725
aI696
aI918
asS'images'
p26
(lp27
sS'id'
p28
I1387
sS'contents'
p29
(lp30
(dp31
g10
I499
sg14
VThe Ginger Star (Part 1 of 2)
p32
sa(dp33
g10
I499
sg14
VMistaken for Granted
p34
sa(dp35
g10
I499
sg14
VIf Ever I Should Leave You
p36
sa(dp37
g10
I499
sg14
VEye of the Storm
p38
sa(dp39
g10
I499
sg14
VTransplant
p40
sa(dp41
g10
I499
sg14
VContinuous Performance
p42
sa(dp43
g10
I356
sg14
VReading Room (If, January-February 1974)
p44
sa(dp45
g10
I70
sg14
VMistaken for Granted
p46
sa(dp47
g10
I1232
sg14
VThe Ginger Star (Part 1 of 2)
p48
sa(dp49
g10
I1233
sg14
VIf Ever I Should Leave You
p50
sa(dp51
g10
I595
sg14
VEye of the Storm
p52
sa(dp53
g10
I725
sg14
VTransplant
p54
sa(dp55
g10
I696
sg14
VContinuous Performance
p56
sasb.