ccopy_reg
_reconstructor
p0
(cdataset.Book
Book
p1
c__builtin__
object
p2
Ntp3
Rp4
(dp5
S'similar_books'
p6
(lp7
sS'genres'
p8
(lp9
sS'author'
p10
I302
sS'countries'
p11
(lp12
I2
asS'year'
p13
I1976
sS'title'
p14
VGalaxy Magazine March 1976
p15
sS'cover'
p16
Vhttps://ia600204.us.archive.org/BookReader/BookReaderImages.php?zip=/34/items/Galaxy_v37n03_1976-03_modified/Galaxy_v37n03_1976-03_modified_jp2.zip&file=Galaxy_v37n03_1976-03_modified_jp2/Galaxy_v37n03_1976-03_modified_0000.jp2&scale=0&rotate=0
p17
sS'cover_art'
p18
S'http://www.isfdb.org/wiki/images/2/2a/GALMAR1976.jpg'
p19
sS'author_name'
p20
VGalaxy Magazine
p21
sS'images_urls'
p22
(lp23
sS'authors'
p24
(lp25
I742
aI744
aI801
aI793
aI764
aI734
aI767
aI770
aI326
aI794
aI748
aI561
aI802
aI302
asS'images'
p26
(lp27
sS'id'
p28
I1191
sS'contents'
p29
(lp30
(dp31
g10
I742
sg14
VPlutonium
p32
sa(dp33
g10
I742
sg14
VPlutonium [2]
p34
sa(dp35
g10
I742
sg14
VPlutonium [3]
p36
sa(dp37
g10
I744
sg14
VThe Second Soul
p38
sa(dp39
g10
I744
sg14
VBirthdays
p40
sa(dp41
g10
I744
sg14
VBirthdays [2]
p42
sa(dp43
g10
I744
sg14
VBirthdays [3]
p44
sa(dp45
g10
I801
sg14
VShowcase: Space: 1492
p46
sa(dp47
g10
I793
sg14
VHunger On the Homestretch
p48
sa(dp49
g10
I793
sg14
VHunger On the Homestretch [2]
p50
sa(dp51
g10
I793
sg14
VHunger On the Homestretch [3]
p52
sa(dp53
g10
I764
sg14
VOur Under-Achieving Universe
p54
sa(dp55
g10
I734
sg14
VSurvival with Style
p56
sa(dp57
g10
I767
sg14
VThe Alien Viewpoint (Galaxy, March 1976)
p58
sa(dp59
g10
I770
sg14
VBookshelf (Galaxy, March 1976)
p60
sa(dp61
g10
I326
sg14
VDirections (Galaxy, March 1976)
p62
sa(dp63
g10
I794
sg14
VHunger On the Homestretch
p64
sa(dp65
g10
I748
sg14
VPlutonium
p66
sa(dp67
g10
I561
sg14
VBirthdays
p68
sa(dp69
g10
I802
sg14
VThe Second Soul
p70
sasb.