ccopy_reg
_reconstructor
p0
(cdataset.Book
Book
p1
c__builtin__
object
p2
Ntp3
Rp4
(dp5
S'content_name'
p6
V51240.txt.utf-8
p7
sS'isbn'
p8
NsS'year'
p9
I2013
sS'author_name'
p10
VJoseph Samachson
p11
sS'images_urls'
p12
(lp13
Vhttp://www.gutenberg.org/files/51240/51240-h/images/cover.jpg
p14
aVhttp://www.gutenberg.org/files/51240/51240-h/images/illus1.jpg
p15
aVhttp://www.gutenberg.org/files/51240/51240-h/images/illus2.jpg
p16
asS'language_code'
p17
Veng
p18
sS'images'
p19
(lp20
sS'id'
p21
I601
sS'category'
p22
VText
p23
sS'genres'
p24
(lp25
sS'copyright'
p26
VPublic domain in the USA.
p27
sS'title'
p28
VThe Addicts
p29
sS'wikipedia'
p30
(dp31
S'found'
p32
I00
ssS'average_rating'
p33
F3.9
sS'rating_count'
p34
I12781
sS'content_available'
p35
I01
sS'cover_art_url'
p36
S'http://www.gutenberg.org/cache/epub/51240/pg51240.cover.medium.jpg'
p37
sS'goodreads'
p38
(dp39
S'url'
p40
Vhttps://www.goodreads.com/book/show/22296542-addicted-to-you
p41
sg32
I01
sS'year'
p42
I2013
ssS'similar_books'
p43
(lp44
VNight Owl (Night Owl, #1)
p45
aVPresent Perfect (Perfect, #1)
p46
aVShooting Scars (The Artists Trilogy, #2)
p47
aVGood (Too Good, #1)
p48
aVDon't Make Me Beautiful
p49
aVA Girl by Any Other Name
p50
aVTragic (Rook and Ronin, #1)
p51
aVDarkness Before Dawn (Darkness, #2)
p52
aVArouse (Spiral of Bliss, #1)
p53
aVPush (Push, #1)
p54
aVReclaiming the Sand (Reclaiming the Sand, #1)
p55
aVWelcome to Sugartown (Sugartown, #1)
p56
aVInfraction (Breach, #2)
p57
aVA Little Too Far (A Little Too Far, #1)
p58
aVWounded
p59
aVKeeping Never (Tasting Never, #3)
p60
aVMore Than Her (More Than, #2)
p61
aVLily of the Springs
p62
asS'description'
p63
V<b>She\u2019s addicted to sex. He\u2019s addicted to booze\u2026the only way out is rock bottom.</b><br /><br />No one would suspect shy Lily Calloway\u2019s biggest secret. While everyone is dancing at college bars, Lily stays in the bathroom. To get laid. Her compulsion leads her to one-night stands, steamy hookups and events she shamefully regrets. The only person who knows her secret happens to have one of his own.<br /><br />Loren Hale\u2019s best friend is his bottle of bourbon. Lily comes at a close second. For three years, they\u2019ve pretended to be in a real relationship, hiding their addictions from their families. They\u2019ve mastered the art of concealing flasks and random guys that filter in and out of their apartment.<br /><br />But as they sink beneath the weight of their addictions, they cling harder to their destructive relationship and wonder if a life together, for real, is better than a lie. Strangers and family begin to infiltrate their guarded lives, and with new challenges, they realize they may not just be addicted to alcohol and sex.<br /><br />Their real vice may be each other. <br /><br /><b>New Adult Romance recommended for readers 18+ for mature content</b>
p64
sS'format'
p65
Vebook
p66
sS'gutenberg'
p67
(dp68
g40
Vhttp://www.gutenberg.org/ebooks/51240
p69
sS'num'
p70
I51240
ssS'authors'
p71
(lp72
I157
asS'pages'
p73
I324
sS'isbn13'
p74
NsS'language'
p75
VEnglish
p76
sS'release_date'
p77
S'2016-02-17T00:00:00'
p78
sS'author'
p79
I157
sS'content_cleaned'
p80
I01
sS'classes'
p81
(lp82
Vto-read
p83
aVnew-adult
p84
aVcurrently-reading
p85
aVfavorites
p86
aVromance
p87
aVcontemporary
p88
aVseries
p89
aVkindle
p90
aVcontemporary-romance
p91
aVcollege
p92
aVdnf
p93
aVfriends-to-lovers
p94
aVebook
p95
aVna
p96
aVebooks
p97
aVdark
p98
aVadult
p99
aVaddiction
p100
aVread-in-2015
p101
aVnetgalley
p102
aVerotica
p103
aVbooks-i-own
p104
aVabuse
p105
aVfavourites
p106
aVread-in-2016
p107
aVcollege-romance
p108
aV2015-reads
p109
aV4-stars
p110
aVangst
p111
aVdid-not-finish
p112
aVread-in-english
p113
aVread-in-2014
p114
aVfiction
p115
aVmaybe
p116
aVowned
p117
aVarc
p118
aVe-book
p119
aVkindle-books
p120
aVread-2015
p121
aV5-stars
p122
aVon-my-kindle
p123
aVfavorite-series
p124
aVon-kindle
p125
aVe-books
p126
aVreviewed
p127
aVcliffhanger
p128
aVaudiobook
p129
aVread-2014
p130
aVdrama
p131
aVfirst-in-series
p132
aVemotional
p133
aVfreebie
p134
aVfree
p135
aVall-time-favorites
p136
aVfavorite
p137
aVrealistic-fiction
p138
aV3-stars
p139
aVto-buy
p140
aVangsty
p141
aVmental-illness
p142
aVread-in-2013
p143
aVya
p144
aVfreebies
p145
aV2014-reads
p146
aVchick-lit
p147
aVmade-me-cry
p148
aVtbr
p149
aVtop-tbr
p150
aVbook-boyfriends
p151
aVfaves
p152
aVmust-read
p153
aVnew-adult-romance
p154
aVsteamy
p155
aVaudio
p156
aVkrista-ritchie
p157
aVyoung-adult
p158
aVpart-of-a-series
p159
aVaudible
p160
aVlove
p161
aVbad-boy
p162
aVbad-boys
p163
aVread-2013
p164
aV2013-release
p165
aVread-2016
p166
aVown-ebook
p167
aVpurchased
p168
aVloved
p169
aVbook-boyfriend
p170
aVaddictions
p171
aVown-it
p172
aVreread
p173
aVerotic
p174
aVwish-list
p175
aVaddicted
p176
aVnext
p177
aV2016-reads
p178
aVaddicted-series
p179
aVkobo
p180
aVmeh
p181
aVowned-books
p182
asS'loc_class'
p183
S''
p184
sS'n_authors'
p185
I1
sb.