ccopy_reg
_reconstructor
p0
(cdataset.Book
Book
p1
c__builtin__
object
p2
Ntp3
Rp4
(dp5
S'similar_books'
p6
(lp7
sS'genres'
p8
(lp9
sS'author'
p10
I302
sS'countries'
p11
(lp12
I2
asS'year'
p13
I1955
sS'title'
p14
VGalaxy Magazine April 1955
p15
sS'cover'
p16
Vhttps://ia601304.us.archive.org/BookReader/BookReaderImages.php?zip=/19/items/Galaxy_v10n01_1955-04/Galaxy_v10n01_1955-04_jp2.zip&file=Galaxy_v10n01_1955-04_jp2/Galaxy_v10n01_1955-04_0000.jp2&scale=0&rotate=0
p17
sS'cover_art'
p18
S'http://www.isfdb.org/wiki/images/d/d1/MLO4378.jpg'
p19
sS'author_name'
p20
VGalaxy Magazine
p21
sS'images_urls'
p22
(lp23
sS'authors'
p24
(lp25
I363
aI402
aI433
aI419
aI336
aI427
aI305
aI339
aI326
aI98
aI341
aI193
aI23
aI40
aI401
aI172
aI302
asS'images'
p26
(lp27
sS'id'
p28
I1027
sS'contents'
p29
(lp30
(dp31
S'title'
p32
VThe Servant Problem
p33
sS'author'
p34
I363
sa(dp35
g32
VThe Servant Problem [2]
p36
sg34
I363
sa(dp37
g32
VThe Servant Problem [3]
p38
sg34
I363
sa(dp39
g32
VDon't Shoot
p40
sg34
I402
sa(dp41
g32
VThe Lifeboat Mutiny
p42
sg34
I433
sa(dp43
g32
VTarget One
p44
sg34
I419
sa(dp45
g32
VOrigins of Galactic Advice to the Lovelorn
p46
sg34
I336
sa(dp47
g32
VOrigins of Galactic Advice to the Lovelorn [2]
p48
sg34
I336
sa(dp49
g32
VOrigins of Galactic Advice to the Lovelorn [3]
p50
sg34
I336
sa(dp51
g32
VOrigins of Galactic Advice to the Lovelorn [4]
p52
sg34
I336
sa(dp53
g32
VOrigins of Galactic Advice to the Lovelorn [5]
p54
sg34
I336
sa(dp55
g32
VOrigins of Galactic Advice to the Lovelorn [6]
p56
sg34
I336
sa(dp57
g32
VOrigins of Galactic Advice to the Lovelorn [7]
p58
sg34
I336
sa(dp59
g32
VMan's Best Friend
p60
sg34
I427
sa(dp61
g32
VHurricane Trio
p62
sg34
I402
sa(dp63
g32
VHurricane Trio [2]
p64
sg34
I402
sa(dp65
g32
VHurricane Trio [3]
p66
sg34
I402
sa(dp67
g32
VSpeaking of Trends
p68
sg34
I305
sa(dp69
g32
VFor Your Information: Death of the Sun (Ii)
p70
sg34
I339
sa(dp71
g32
VForecast (Galaxy, April 1955)
p72
sg34
I326
sa(dp73
g32
VThe Servant Problem
p74
sg34
I98
sa(dp75
g32
VHurricane Trio
p76
sg34
I341
sa(dp77
g32
VDon't Shoot
p78
sg34
I193
sa(dp79
g32
VThe Lifeboat Mutiny
p80
sg34
I23
sa(dp81
g32
VTarget One
p82
sg34
I40
sa(dp83
g32
VOrigins of Galactic Advice to the Lovelorn
p84
sg34
I401
sa(dp85
g32
VMan's Best Friend
p86
sg34
I172
sasb.