ccopy_reg
_reconstructor
p0
(cdataset.Book
Book
p1
c__builtin__
object
p2
Ntp3
Rp4
(dp5
S'isbn'
p6
NsS'year'
p7
I1961
sS'author_name'
p8
VMack Reynolds
p9
sS'images_urls'
p10
(lp11
Vhttp://www.gutenberg.org/files/30339/30339-h/images/p12.png
p12
aVhttp://www.gutenberg.org/files/30339/30339-h/images/p30.png
p13
aVhttp://www.gutenberg.org/files/30339/30339-h/images/p42.png
p14
aVhttp://www.gutenberg.org/files/30339/30339-h/images/p49.png
p15
aVhttp://www.gutenberg.org/files/30339/30339-tei/images/p12.png
p16
aVhttp://www.gutenberg.org/files/30339/30339-tei/images/p30.png
p17
aVhttp://www.gutenberg.org/files/30339/30339-tei/images/p42.png
p18
aVhttp://www.gutenberg.org/files/30339/30339-tei/images/p49.png
p19
asS'language_code'
p20
NsS'id'
p21
I477
sS'category'
p22
VText
p23
sS'genres'
p24
(lp25
sS'copyright'
p26
VPublic domain in the USA.
p27
sS'title'
p28
VStatus Quo
p29
sS'wikipedia'
p30
(dp31
S'found'
p32
I00
ssS'average_rating'
p33
F4.5
sS'rating_count'
p34
I4
sS'content_available'
p35
I00
sS'goodreads'
p36
(dp37
S'url'
p38
S'https://www.goodreads.com/book/show/11560700-status-quo'
p39
sS'found'
p40
I01
ssS'similar_books'
p41
(lp42
sS'description'
p43
VThe things a man believes in are practical things -- objective, useful-to-him things, really. So he will, of course, when forced to it sacrifice all his beliefs for the "things" he believes in!<br /><br />The Boss's reception secretary looked up when Lawrence Woolford entered the anteroom where she presided. "Hello, Larry," she said. "Hear they called your vacation short. Darn shame."<br /><br />The boss apologized, too. "I am sorry to cut short your vacation, Lawrence. I considered giving Walter Foster the assignment, but I think you're the better choice."<br /><br />Larry decided the faint praise routine was the best tactic, said earnestly about his closest rival. "Walt's a good man, sir." And then, "What's the crisis?"
p44
sS'gutenberg'
p45
(dp46
S'url'
p47
Vhttp://www.gutenberg.org/ebooks/30339
p48
sS'num'
p49
I30339
ssS'authors'
p50
(lp51
I69
asS'isbn13'
p52
NsS'language'
p53
VEnglish
p54
sS'countries'
p55
(lp56
I2
asS'release_date'
p57
S'2009-10-26T00:00:00'
p58
sS'author'
p59
I69
sS'cover'
p60
Vhttps://s.gr-assets.com/assets/nophoto/book/111x148-bcc042a9c91a29c1d680899eff700a03.png
p61
sS'classes'
p62
(lp63
Vto-read
p64
aV21st-century-lit
p65
aVpg
p66
aV_current_queue
p67
aVunknown-genre
p68
aVei-suom
p69
aVto-read-2e-sf-d
p70
aVenglish
p71
aVto-read-2-en-sf
p72
aVc2-f-en
p73
aVh-sf
p74
aVto-read-2e-sf
p75
aVto-read-2-en
p76
asS'loc_class'
p77
VPS: Language and Literatures: American and Canadian literature
p78
sS'n_authors'
p79
I1
sb.