ccopy_reg
_reconstructor
p0
(cdataset.Book
Book
p1
c__builtin__
object
p2
Ntp3
Rp4
(dp5
S'content_name'
p6
V51407.txt.utf-8
p7
sS'isbn'
p8
V1594931585
p9
sS'year'
p10
I2009
sS'author_name'
p11
VFrank Quattrocchi
p12
sS'images_urls'
p13
(lp14
Vhttp://www.gutenberg.org/files/51407/51407-h/images/cover.jpg
p15
aVhttp://www.gutenberg.org/files/51407/51407-h/images/illus1.jpg
p16
aVhttp://www.gutenberg.org/files/51407/51407-h/images/illus2.jpg
p17
aVhttp://www.gutenberg.org/files/51407/51407-h/images/illus3.jpg
p18
asS'language_code'
p19
NsS'images'
p20
(lp21
sS'id'
p22
I781
sS'category'
p23
VText
p24
sS'plot'
p25
VIn a near-future earth, the West and the East have been at war for more than a decade, and resources are running thin. The West is stealing oil from the East with specialized nuclear submarines ("subtugs") that sneak into the underwater oil fields of the East to secretly pump out the oil and bring it back. Each manned by a crew of four, these submarines undertake the most hazardous, stressful mission conceivable, and of late, the missions have been failing, with the last twenty submarines simply disappearing.\u000aThe East has been very successful in planting sleepers in the West's military and command structures, and the suspicion is that sleepers are sabotaging the subs or revealing their positions once at sea. John Ramsey, a young psychologist from the Bureau of Psychology (BuPsych), is trained as an electronics operator and sent on the next mission, replacing the previous officer who went insane. His secret mission is to find the sleeper, or figure out why the crews are going insane.
p26
sS'genres'
p27
(lp28
sS'copyright'
p29
VPublic domain in the USA.
p30
sS'title'
p31
VSea Legs
p32
sS'wikipedia'
p33
(dp34
S'url'
p35
Vhttps://en.wikipedia.org/wiki/The_Dragon_in_the_Sea
p36
sS'found'
p37
I01
sS'year'
p38
I-1
ssS'published_in'
p39
NsS'average_rating'
p40
F3.7
sS'rating_count'
p41
I179
sS'content_available'
p42
I01
sS'cover_art_url'
p43
S'http://www.gutenberg.org/cache/epub/51407/pg51407.cover.medium.jpg'
p44
sS'goodreads'
p45
(dp46
g35
Vhttps://www.goodreads.com/book/show/6519458-sea-legs
p47
sg37
I01
sg38
I2009
ssS'similar_books'
p48
(lp49
VStranded
p50
aVSnowbound
p51
aVMending Defects
p52
aVForce of Nature
p53
aVAll the Wrong Places
p54
aVMiles to Go: A Rennie Vogel Intrigue
p55
aVDevil's Rock
p56
aVThe Seduction of Moxie
p57
aVGun Shy (Gun, #1)
p58
aVDust
p59
aVFresh Tracks
p60
aVStrange Bedfellows (Strange Bedfellows, #1)
p61
aVSafe Harbor (Provincetown Tales, #1)
p62
aVThe Best Defense
p63
aVInfinite Loop
p64
asS'description'
p65
VKendall Ridenour couldn't be happier. She's leaving the bitter Rochester winter behind and going with new friends on a fabulous vacation. Even better, her cabin mate is Natalie Chatham, the lovely lady of Kendall's recent daydreams.
p66
sS'format'
p67
VPaperback
p68
sS'gutenberg'
p69
(dp70
g35
Vhttp://www.gutenberg.org/ebooks/51407
p71
sS'num'
p72
I51407
ssS'authors'
p73
(lp74
I249
asS'pages'
p75
I203
sS'isbn13'
p76
V9781594931581
p77
sS'language'
p78
VEnglish
p79
sS'country'
p80
I2
sS'release_date'
p81
S'2016-03-09T00:00:00'
p82
sS'author'
p83
I249
sS'original_title'
p84
VThe Dragon in the Sea
p85
sS'summary'
p86
VThe Dragon in the Sea (1956), also known as Under Pressure from its serialization, is a novel by Frank Herbert. It was first serialized in Astounding magazine from 1955 to 1956, then reworked and published as a book in 1956. (A 1961 2nd printing of the Avon paperback, catalog # G-1092, was titled 21st Century Sub with the original title in parentheses.) It is usually classified as a psychological novel.
p87
sS'content_cleaned'
p88
I01
sS'classes'
p89
(lp90
Vto-read
p91
aVlesbian
p92
aVlesbian-romance
p93
aVlgbt
p94
aVff
p95
aVlesbian-fiction
p96
aVromance
p97
aVfiction
p98
aVon-board
p99
aVbutch-femme
p100
aVvanilla-romance
p101
aVdefault
p102
aVfavorites
p103
aVl-books
p104
aVcurrently-reading
p105
aVya-coming-out
p106
aVbella-books
p107
aVkg-macgregor
p108
aVvacation-romance
p109
aVread-in-2016
p110
aVcontemporary
p111
aVbella
p112
aVlez-be-honest
p113
aVthere-is-an-ex
p114
aVoutdoors-location
p115
aVbar-restaurant-resort-retreat-hotel
p116
aVwant-to-read-wlw
p117
aVf-f-to-read-list
p118
aVlgbt-fic
p119
aVlgbtq-1
p120
aVromance-ff
p121
aV4-stars
p122
aVf-f
p123
aVe-books
p124
aVto-read-ff-romance
p125
aVnon-fiction
p126
aVseafaring
p127
aVbar-restaurant-hotel-resort
p128
aVmaybe-read
p129
aVlesbian-romances
p130
aVff-romance
p131
aVi-own-this-book
p132
aVf-f-adult
p133
aVglbt-fiction
p134
aVbooks-i-own
p135
aVtravel
p136
aVkindle-lendable
p137
aVangst
p138
aVbutch-protagonist
p139
aVhave
p140
aVlesbian-fiction-romance
p141
aVmonth-03
p142
aVnot-to-read
p143
aVlesbian-themed-fiction
p144
aVnew-year-s-resolution
p145
aVlendle-wait-list
p146
aVoutboulder-book-drive
p147
aV2011-read-and-re-read
p148
aVglbqt
p149
aVebooks
p150
aVfor-the-girls
p151
aVebook
p152
aVnookbooks
p153
aVqueer
p154
aVjens-wishlist
p155
aVxx
p156
aVbutch-is-beautiful
p157
aVjens-wishlist-order
p158
asS'loc_class'
p159
S''
p160
sS'n_authors'
p161
I1
sb.