ccopy_reg
_reconstructor
p0
(cdataset.Book
Book
p1
c__builtin__
object
p2
Ntp3
Rp4
(dp5
S'content_name'
p6
V24397.txt.utf-8
p7
sS'isbn'
p8
V1423121309
p9
sS'year'
p10
I2010
sS'author_name'
p11
VLaurence M. Janifer
p12
sS'images_urls'
p13
(lp14
Vhttp://www.gutenberg.org/files/24397/24397-h/images/illus1.png
p15
aVhttp://www.gutenberg.org/files/24397/24397-h/images/illus2.png
p16
aVhttp://www.gutenberg.org/files/24397/24397-h/images/illus3.png
p17
asS'language_code'
p18
Veng
p19
sS'images'
p20
(lp21
sS'id'
p22
I838
sS'category'
p23
VText
p24
sS'genres'
p25
(lp26
sS'copyright'
p27
VPublic domain in the USA.
p28
sS'title'
p29
VHex
p30
sS'wikipedia'
p31
(dp32
S'url'
p33
Vhttps://en.wikipedia.org/wiki/Jonah_Hex
p34
sS'found'
p35
I01
sS'year'
p36
I-1
ssS'published_in'
p37
NsS'average_rating'
p38
F3.96
sS'rating_count'
p39
I109985
sS'content_available'
p40
I01
sS'goodreads'
p41
(dp42
g33
Vhttps://www.goodreads.com/book/show/5287473-hex-hall
p43
sg35
I01
sg36
I2010
ssS'similar_books'
p44
(lp45
VThe Ghost and the Goth (The Ghost and the Goth, #1)
p46
aVTaken at Dusk (Shadow Falls, #3)
p47
aVParanormalcy (Paranormalcy, #1)
p48
aVOnce a Witch (Witch, #1)
p49
aVForgiven (The Demon Trappers, #3)
p50
aVPossess
p51
aVThe Body Finder (The Body Finder, #1)
p52
aVAlmost Final Curtain (Vampire Princess of St. Paul, #2)
p53
aVIntrinsical (The Yara Silva Trilogy, #1)
p54
aVShadowspell (Faeriewalker, #2)
p55
aVFirespell (Dark Elite, #1)
p56
aVTry Me (Demon Underground, #2)
p57
aVMy Soul to Keep (Soul Screamers, #3)
p58
aVBetrayals (Strange Angels, #2)
p59
aVFalling Under (Falling Under, #1)
p60
aVReign Check (Demon Princess #2)
p61
aVNeed (Need, #1)
p62
aVShift (Shade, #2)
p63
asS'description'
p64
VThree years ago, Sophie Mercer discovered that she was a witch. It's gotten her into a few scrapes. Her non-gifted mother has been as supportive as possible, consulting Sophie's estranged father\u2014an elusive European warlock\u2014only when necessary. But when Sophie attracts too much human attention for a prom-night spell gone horribly wrong, it's her dad who decides her punishment: exile to Hex Hall, an isolated reform school for wayward Prodigium, a.k.a. witches, faeries, and shapeshifters. <p>By the end of her first day among fellow freak-teens, Sophie has quite a scorecard: three powerful enemies who look like supermodels, a futile crush on a gorgeous warlock, a creepy tag-along ghost, and a new roommate who happens to be the most hated person and only vampire student on campus. Worse, Sophie soon learns that a mysterious predator has been attacking students, and her only friend is the number-one suspect. </p><p>As a series of blood-curdling mysteries starts to converge, Sophie prepares for the biggest threat of all: an ancient secret society determined to destroy all Prodigium, especially her.</p>
p65
sS'format'
p66
VHardcover
p67
sS'gutenberg'
p68
(dp69
g33
Vhttp://www.gutenberg.org/ebooks/24397
p70
sS'num'
p71
I24397
ssS'authors'
p72
(lp73
I64
asS'pages'
p74
I323
sS'isbn13'
p75
V9781423121305
p76
sS'language'
p77
VEnglish
p78
sS'country'
p79
I3
sS'release_date'
p80
S'2008-01-22T00:00:00'
p81
sS'author'
p82
I64
sS'original_title'
p83
VJonah Hex
p84
sS'summary'
p85
VJonah Woodson Hex is a fictional character, a western comic book antihero appearing in comic books published by DC Comics. The character was created by writer John Albano and artist Tony DeZuniga. Hex is a surly and cynical bounty hunter whose face is horribly scarred on the right side. Despite his poor reputation and personality, Hex is bound by a personal code of honor to protect and avenge the innocent. The character is portrayed by Josh Brolin in the 2010 film adaptation of the same name. Thomas Jane provided his voice in a DC Animated short film. He is portrayed by Johnathon Schaech in DC's Legends of Tomorrow.
p86
sS'content_cleaned'
p87
I01
sS'classes'
p88
(lp89
Vto-read
p90
aVyoung-adult
p91
aVfantasy
p92
aVfavorites
p93
aVparanormal
p94
aVya
p95
aVcurrently-reading
p96
aVmagic
p97
aVvampires
p98
aVseries
p99
aVwitches
p100
aVromance
p101
aVsupernatural
p102
aVbooks-i-own
p103
aVdemons
p104
aVurban-fantasy
p105
aVfiction
p106
aVwerewolves
p107
aVowned
p108
aVparanormal-romance
p109
aVto-buy
p110
aVghosts
p111
aVlibrary
p112
aVhex-hall
p113
aVboarding-school
p114
aVmystery
p115
aVread-in-2011
p116
aVteen
p117
aVvampire
p118
aVfavourites
p119
aVkindle
p120
aVya-fantasy
p121
aVebook
p122
aVwish-list
p123
aVread-in-2012
p124
aVebooks
p125
aVya-paranormal
p126
aVread-in-2013
p127
aVfairies
p128
aVshapeshifters
p129
aVfaeries
p130
aVowned-books
p131
aVread-in-2010
p132
aVaudiobook
p133
aVi-own
p134
aVread-in-2014
p135
aVya-fiction
p136
aVwitch
p137
aVhigh-school
p138
aVmaybe
p139
aVfirst-in-series
p140
aVrachel-hawkins
p141
aVfunny
p142
aV4-stars
p143
aVread-in-2015
p144
aVfae
p145
aVreviewed
p146
aVcontemporary
p147
aVe-book
p148
aVwitches-wizards
p149
aVangels-demons
p150
aVhumor
p151
aVshifters
p152
aVdnf
p153
aVfavorite
p154
aVfantasy-paranormal
p155
aVfavorite-books
p156
aVyoung-adult-fiction
p157
aVschool
p158
aV5-stars
p159
aVangels-and-demons
p160
aVadventure
p161
aVread-2012
p162
aVmy-books
p163
aVangels
p164
aVwant-to-read
p165
aVfinished-series
p166
aVya-books
p167
aVaudiobooks
p168
aVlibrary-books
p169
aVwitches-and-wizards
p170
aVcompleted-series
p171
aVe-books
p172
aVread-in-english
p173
aVparanormal-fantasy
p174
aVfavorite-series
p175
aVre-read
p176
aVmust-read
p177
aVparanormal-supernatural
p178
aVteen-fiction
p179
aVborrowed
p180
aV3-stars
p181
aVya-lit
p182
aVlove-triangle
p183
aV2012-reads
p184
aVhave
p185
aVhex-hall-series
p186
aVpart-of-a-series
p187
aVread-2013
p188
aVread-2011
p189
asS'loc_class'
p190
VPS: Language and Literatures: American and Canadian literature
p191
sS'n_authors'
p192
I1
sb.