ccopy_reg
_reconstructor
p0
(cdataset.Book
Book
p1
c__builtin__
object
p2
Ntp3
Rp4
(dp5
S'similar_books'
p6
(lp7
sS'genres'
p8
(lp9
sS'author'
p10
I302
sS'countries'
p11
(lp12
I2
asS'year'
p13
I1955
sS'title'
p14
VGalaxy Magazine May 1955
p15
sS'cover'
p16
Vhttps://ia600205.us.archive.org/BookReader/BookReaderImages.php?zip=/25/items/Galaxy_v10n02_1955-05/Galaxy_v10n02_1955-05_jp2.zip&file=Galaxy_v10n02_1955-05_jp2/Galaxy_v10n02_1955-05_0000.jp2&scale=0&rotate=0
p17
sS'cover_art'
p18
S'http://www.isfdb.org/wiki/images/e/e1/MLO4379.jpg'
p19
sS'author_name'
p20
VGalaxy Magazine
p21
sS'images_urls'
p22
(lp23
sS'authors'
p24
(lp25
I427
aI471
aI472
aI336
aI363
aI305
aI326
aI339
aI340
aI473
aI61
aI236
aI169
aI40
aI421
aI302
asS'images'
p26
(lp27
sS'id'
p28
I1028
sS'contents'
p29
(lp30
(dp31
S'title'
p32
VThe Dreaming Wall
p33
sS'author'
p34
I427
sa(dp35
g32
VThe Dreaming Wall [2]
p36
sg34
I427
sa(dp37
g32
VThe Dreaming Wall [3]
p38
sg34
I427
sa(dp39
g32
VThe Aggravation of Elmer
p40
sg34
I471
sa(dp41
g32
VThe Middle of Nowhere
p42
sg34
I472
sa(dp43
g32
VThe Middle of Nowhere [2]
p44
sg34
I472
sa(dp45
g32
VThe Middle of Nowhere [3]
p46
sg34
I472
sa(dp47
g32
VSam, This Is You
p48
sg34
I427
sa(dp49
g32
VSam, This Is You [2]
p50
sg34
I427
sa(dp51
g32
VSam, This Is You [3]
p52
sg34
I427
sa(dp53
g32
VCompetition
p54
sg34
I336
sa(dp55
g32
VA Woman's Place
p56
sg34
I363
sa(dp57
g32
VA Woman's Place [2]
p58
sg34
I363
sa(dp59
g32
VA Woman's Place [3]
p60
sg34
I363
sa(dp61
g32
VThat's Two Votes
p62
sg34
I305
sa(dp63
g32
VForecast (Galaxy, May 1955)
p64
sg34
I326
sa(dp65
g32
VFor Your Information: "Midnight Marvels"
p66
sg34
I339
sa(dp67
g32
VGalaxy's 5 Star Shelf (Galaxy, May 1955)
p68
sg34
I340
sa(dp69
g32
VThe Dreaming Wall
p70
sg34
I473
sa(dp71
g32
VSam, This Is You
p72
sg34
I61
sa(dp73
g32
VA Woman's Place
p74
sg34
I236
sa(dp75
g32
VThe Aggravation of Elmer
p76
sg34
I169
sa(dp77
g32
VThe Middle of Nowhere
p78
sg34
I40
sa(dp79
g32
VCompetition
p80
sg34
I421
sasb.