ccopy_reg
_reconstructor
p0
(cdataset.Book
Book
p1
c__builtin__
object
p2
Ntp3
Rp4
(dp5
S'similar_books'
p6
(lp7
sS'genres'
p8
(lp9
sS'author'
p10
I302
sS'countries'
p11
(lp12
I2
asS'year'
p13
I1959
sS'title'
p14
VGalaxy Magazine April 1959
p15
sS'cover'
p16
Vhttps://ia600208.us.archive.org/BookReader/BookReaderImages.php?zip=/30/items/Galaxy_v17n04_1959-04/Galaxy_v17n04_1959-04_jp2.zip&file=Galaxy_v17n04_1959-04_jp2/Galaxy_v17n04_1959-04_0000.jp2&scale=0&rotate=0
p17
sS'cover_art'
p18
S'http://www.isfdb.org/wiki/images/5/56/GALAPR1959.jpg'
p19
sS'author_name'
p20
VGalaxy Magazine
p21
sS'images_urls'
p22
(lp23
sS'authors'
p24
(lp25
I506
aI519
aI525
aI523
aI543
aI544
aI305
aI326
aI339
aI483
aI384
aI315
aI220
aI530
aI40
aI514
aI23
aI479
aI302
asS'images'
p26
(lp27
sS'id'
p28
I1072
sS'contents'
p29
(lp30
(dp31
S'title'
p32
VThe City of Force
p33
sS'author'
p34
I506
sa(dp35
g32
VThe City of Force [2]
p36
sg34
I506
sa(dp37
g32
VThe City of Force [3]
p38
sg34
I506
sa(dp39
g32
VSecurity Plan
p40
sg34
I519
sa(dp41
g32
VThe Bitterest Pill
p42
sg34
I525
sa(dp43
g32
VKingslayer
p44
sg34
I519
sa(dp45
g32
VKingslayer [2]
p46
sg34
I519
sa(dp47
g32
VKingslayer [3]
p48
sg34
I519
sa(dp49
g32
VLove Called This Thing
p50
sg34
I523
sa(dp51
g32
VThe Sweeper of Loray
p52
sg34
I543
sa(dp53
g32
VWhen the People Fell
p54
sg34
I544
sa(dp55
g32
VThe Man in the Mailbag
p56
sg34
I519
sa(dp57
g32
VThe Man in the Mailbag [2]
p58
sg34
I519
sa(dp59
g32
VThe Man in the Mailbag [3]
p60
sg34
I519
sa(dp61
g32
VSo Far
p62
sg34
I305
sa(dp63
g32
VForecast (Galaxy, April 1959)
p64
sg34
I326
sa(dp65
g32
VFor Your Information: The Atlantic Missile Range
p66
sg34
I339
sa(dp67
g32
VGalaxy's 5 Star Bookshelf (Galaxy, April 1959)
p68
sg34
I483
sa(dp69
g32
VKingslayer
p70
sg34
I384
sa(dp71
g32
VThe Man in the Mailbag
p72
sg34
I315
sa(dp73
g32
VThe City of Force
p74
sg34
I220
sa(dp75
g32
VSecurity Plan
p76
sg34
I530
sa(dp77
g32
VThe Bitterest Pill
p78
sg34
I40
sa(dp79
g32
VLove Called This Thing
p80
sg34
I514
sa(dp81
g32
VThe Sweeper of Loray
p82
sg34
I23
sa(dp83
g32
VWhen the People Fell
p84
sg34
I479
sasb.