ccopy_reg
_reconstructor
p0
(cdataset.Book
Book
p1
c__builtin__
object
p2
Ntp3
Rp4
(dp5
S'content_name'
p6
V28550.txt.utf-8
p7
sS'isbn'
p8
NsS'year'
p9
I1940
sS'author_name'
p10
VC. L. Moore
p11
sS'images_urls'
p12
(lp13
sS'language_code'
p14
Veng
p15
sS'images'
p16
(lp17
sS'id'
p18
I448
sS'category'
p19
VText
p20
sS'genres'
p21
(lp22
sS'copyright'
p23
VPublic domain in the USA.
p24
sS'title'
p25
VSong in a Minor Key
p26
sS'wikipedia'
p27
(dp28
S'found'
p29
I00
ssS'average_rating'
p30
F3.33
sS'rating_count'
p31
I17
sS'content_available'
p32
I01
sS'goodreads'
p33
(dp34
S'url'
p35
Vhttps://www.goodreads.com/book/show/12231989-song-in-a-minor-key
p36
sg29
I01
sS'year'
p37
I1940
ssS'similar_books'
p38
(lp39
sS'description'
p40
VFirst published in the fanzine Scienti-Snap, February 1940.<br /><br />This book was converted from its physical edition to the digital format by a community of volunteers. You may find it for free on the web. Purchase of the Kindle edition includes wireless delivery.
p41
sS'format'
p42
NsS'gutenberg'
p43
(dp44
g35
Vhttp://www.gutenberg.org/ebooks/28550
p45
sS'num'
p46
I28550
ssS'authors'
p47
(lp48
I151
asS'pages'
p49
I3
sS'isbn13'
p50
NsS'language'
p51
VEnglish
p52
sS'country'
p53
I2
sS'release_date'
p54
S'2009-04-10T00:00:00'
p55
sS'author'
p56
I151
sS'content_cleaned'
p57
I01
sS'classes'
p58
(lp59
Vto-read
p60
aVsci-fi
p61
aVshort-stories
p62
aVfor-the-sony
p63
aVcurrently-reading
p64
aVfiction
p65
aVnovellas-short-stories
p66
aV1930s-50s-sf-f-golden-age
p67
aVz_fiction
p68
aVx_shortstory
p69
aVw_us_federal
p70
aVtragedy
p71
aVwomen-s-and-queer-fiction
p72
aVspeculative-fiction-women
p73
aVgutenberg
p74
aVebooks
p75
aVbooks
p76
aVshort-story
p77
aVscience-fiction
p78
aV_author-sex-female
p79
aVe-book
p80
aV15
p81
aVmass-romance
p82
aVcalibre
p83
asS'loc_class'
p84
VPS: Language and Literatures: American and Canadian literature
p85
sS'n_authors'
p86
I1
sb.