ccopy_reg
_reconstructor
p0
(cdataset.Book
Book
p1
c__builtin__
object
p2
Ntp3
Rp4
(dp5
S'similar_books'
p6
(lp7
sS'genres'
p8
(lp9
sS'author'
p10
I918
sS'countries'
p11
(lp12
I2
asS'year'
p13
I1960
sS'title'
p14
VIF Magazine January 1960
p15
sS'cover'
p16
Vhttps://ia601306.us.archive.org/BookReader/BookReaderImages.php?zip=/25/items/1960-01_IF/1960-01_IF_jp2.zip&file=1960-01_IF_jp2/1960-01_IF_0000.jp2&scale=0&rotate=0
p17
sS'cover_art'
p18
S'http://www.isfdb.org/wiki/images/5/56/WOFIFJAN1960.jpg'
p19
sS'author_name'
p20
VIF Magazine
p21
sS'images_urls'
p22
(lp23
sS'authors'
p24
(lp25
I519
aI326
aI40
aI211
aI507
aI69
aI665
aI391
aI220
aI205
aI423
aI918
asS'images'
p26
(lp27
sS'id'
p28
I1271
sS'contents'
p29
(lp30
(dp31
g10
I519
sg14
VThe Good Seed
p32
sa(dp33
g10
I519
sg14
VThe Divers
p34
sa(dp35
g10
I326
sg14
VThe Little Red Bag
p36
sa(dp37
g10
I519
sg14
VThe Last Leap
p38
sa(dp39
g10
I326
sg14
VCultural Exchange
p40
sa(dp41
g10
I40
sg14
VWorlds of If (If, January 1960)
p42
sa(dp43
g10
I211
sg14
VThe Divers
p44
sa(dp45
g10
I507
sg14
VCultural Exchange
p46
sa(dp47
g10
I69
sg14
VThe Good Seed
p48
sa(dp49
g10
I665
sg14
VDissolute Diplomat
p50
sa(dp51
g10
I391
sg14
VThe Little Red Bag
p52
sa(dp53
g10
I220
sg14
VThe Last Leap
p54
sa(dp55
g10
I205
sg14
VTo Each His Own
p56
sa(dp57
g10
I423
sg14
VThe Autumn After Next
p58
sasb.