ccopy_reg
_reconstructor
p0
(cdataset.Book
Book
p1
c__builtin__
object
p2
Ntp3
Rp4
(dp5
S'content_name'
p6
V30493.txt.utf-8
p7
sS'isbn'
p8
NsS'year'
p9
I2009
sS'author_name'
p10
VJames H. Schmitz
p11
sS'images_urls'
p12
(lp13
Vhttp://www.gutenberg.org/files/30493/30493-h/images/image_001.jpg
p14
aVhttp://www.gutenberg.org/files/30493/30493-h/images/image_002.jpg
p15
aVhttp://www.gutenberg.org/files/30493/30493-h/images/image_003_01.jpg
p16
aVhttp://www.gutenberg.org/files/30493/30493-h/images/image_003_02.jpg
p17
aVhttp://www.gutenberg.org/files/30493/30493-h/images/image_004.jpg
p18
aVhttp://www.gutenberg.org/files/30493/30493-h/images/image_005.jpg
p19
aVhttp://www.gutenberg.org/files/30493/30493-h/images/image_006.jpg
p20
aVhttp://www.gutenberg.org/files/30493/30493-h/images/image_007_01.jpg
p21
aVhttp://www.gutenberg.org/files/30493/30493-h/images/image_007_02.jpg
p22
aVhttp://www.gutenberg.org/files/30493/30493-h/images/image_f.jpg
p23
asS'language_code'
p24
NsS'images'
p25
(lp26
sS'id'
p27
I704
sS'category'
p28
VText
p29
sS'genres'
p30
(lp31
sS'copyright'
p32
VPublic domain in the USA.
p33
sS'title'
p34
VLion Loose
p35
sS'wikipedia'
p36
(dp37
S'found'
p38
I00
ssS'average_rating'
p39
F4.42
sS'rating_count'
p40
I9
sS'content_available'
p41
I01
sS'goodreads'
p42
(dp43
S'url'
p44
Vhttps://www.goodreads.com/book/show/8363240-lion-loose
p45
sg38
I01
sS'year'
p46
I2009
ssS'similar_books'
p47
(lp48
sS'description'
p49
NsS'format'
p50
NsS'gutenberg'
p51
(dp52
g44
Vhttp://www.gutenberg.org/ebooks/30493
p53
sS'num'
p54
I30493
ssS'authors'
p55
(lp56
I136
asS'isbn13'
p57
NsS'language'
p58
VEnglish
p59
sS'countries'
p60
(lp61
I2
asS'release_date'
p62
S'2009-11-17T00:00:00'
p63
sS'author'
p64
I136
sS'content_cleaned'
p65
I01
sS'classes'
p66
(lp67
Vto-read
p68
aV21st-century-lit
p69
aVshelf-s-authors
p70
aVgenre-syfi-fan-horr
p71
aVei-suom
p72
aVhugo-novella
p73
aVto-read-2e-sf-d
p74
aVenglish
p75
aVto-read-2-en-sf
p76
aVc2-f-en
p77
aVh-sf
p78
aVe-reader
p79
aVhugo-short-fiction
p80
aVto-read-2e-sf
p81
aVto-read-2-en
p82
asS'loc_class'
p83
VPS: Language and Literatures: American and Canadian literature
p84
sS'n_authors'
p85
I1
sb.