ccopy_reg
_reconstructor
p0
(cdataset.Book
Book
p1
c__builtin__
object
p2
Ntp3
Rp4
(dp5
S'similar_books'
p6
(lp7
sS'genres'
p8
(lp9
sS'author'
p10
I302
sS'countries'
p11
(lp12
I2
asS'year'
p13
I1953
sS'title'
p14
VGalaxy Magazine August 1953
p15
sS'cover'
p16
Vhttps://ia601300.us.archive.org/BookReader/BookReaderImages.php?zip=/30/items/Galaxy_v06n05_1953-08/Galaxy_v06n05_1953-08_jp2.zip&file=Galaxy_v06n05_1953-08_jp2/Galaxy_v06n05_1953-08_0000.jp2&scale=0&rotate=0
p17
sS'cover_art'
p18
S'http://www.isfdb.org/wiki/images/2/28/MLO4314.jpg'
p19
sS'author_name'
p20
VGalaxy Magazine
p21
sS'images_urls'
p22
(lp23
sS'authors'
p24
(lp25
I431
aI430
aI402
aI363
aI433
aI305
aI339
aI340
aI326
aI23
aI148
aI384
aI236
aI247
aI434
aI302
asS'images'
p26
(lp27
sS'id'
p28
I1007
sS'contents'
p29
(lp30
(dp31
S'title'
p32
VMind Alone
p33
sS'author'
p34
I431
sa(dp35
g32
VMind Alone [2]
p36
sg34
I431
sa(dp37
g32
VMind Alone [3]
p38
sg34
I431
sa(dp39
g32
VWe're Civilized!
p40
sg34
I430
sa(dp41
g32
VDiplomatic Immunity
p42
sg34
I402
sa(dp43
g32
VDiplomatic Immunity [2]
p44
sg34
I402
sa(dp45
g32
VDiplomatic Immunity [3]
p46
sg34
I402
sa(dp47
g32
VThe Trap
p48
sg34
I363
sa(dp49
g32
VMinimum Sentence
p50
sg34
I363
sa(dp51
g32
VStamped Caution
p52
sg34
I433
sa(dp53
g32
VStamped Caution [2]
p54
sg34
I433
sa(dp55
g32
VStamped Caution [3]
p56
sg34
I433
sa(dp57
g32
VChance &Amp; Maps
p58
sg34
I305
sa(dp59
g32
VFor Your Information: Scientific Journey
p60
sg34
I339
sa(dp61
g32
VGalaxy's 5 Star Shelf (Galaxy, August 1953)
p62
sg34
I340
sa(dp63
g32
VForecast (Galaxy, August 1953)
p64
sg34
I326
sa(dp65
g32
VDiplomatic Immunity
p66
sg34
I23
sa(dp67
g32
VStamped Caution
p68
sg34
I148
sa(dp69
g32
VMind Alone
p70
sg34
I384
sa(dp71
g32
VWe're Civilized!
p72
sg34
I236
sa(dp73
g32
VThe Trap
p74
sg34
I247
sa(dp75
g32
VMinimum Sentence
p76
sg34
I434
sasb.