ccopy_reg
_reconstructor
p0
(cdataset.Book
Book
p1
c__builtin__
object
p2
Ntp3
Rp4
(dp5
S'content_name'
p6
V51101.txt.utf-8
p7
sS'isbn'
p8
V1523984287
p9
sS'year'
p10
I1951
sS'author_name'
p11
VFritz Leiber
p12
sS'images_urls'
p13
(lp14
Vhttp://www.gutenberg.org/files/51101/51101-h/images/cover.jpg
p15
aVhttp://www.gutenberg.org/files/51101/51101-h/images/illus1.jpg
p16
aVhttp://www.gutenberg.org/files/51101/51101-h/images/illus2.jpg
p17
aVhttp://www.gutenberg.org/files/51101/51101-h/images/illus3.jpg
p18
asS'language_code'
p19
NsS'images'
p20
(lp21
sS'id'
p22
I262
sS'category'
p23
VText
p24
sS'genres'
p25
(lp26
sS'copyright'
p27
VPublic domain in the USA.
p28
sS'title'
p29
VNice Girl With 5 Husbands
p30
sS'wikipedia'
p31
(dp32
S'found'
p33
I00
ssS'average_rating'
p34
F2.75
sS'rating_count'
p35
I4
sS'content_available'
p36
I01
sS'cover_art_url'
p37
S'http://www.gutenberg.org/cache/epub/51101/pg51101.cover.medium.jpg'
p38
sS'goodreads'
p39
(dp40
S'url'
p41
Vhttps://www.goodreads.com/book/show/29206720-nice-girl-with-5-husbands
p42
sg33
I01
sS'year'
p43
I-1
ssS'similar_books'
p44
(lp45
sS'description'
p46
VThis collection of literature attempts to compile many of the classic works that have stood the test of time and offer them at a reduced, affordable price, in an attractive volume so that everyone can enjoy them.
p47
sS'gutenberg'
p48
(dp49
g41
Vhttp://www.gutenberg.org/ebooks/51101
p50
sS'num'
p51
I51101
ssS'authors'
p52
(lp53
I32
asS'pages'
p54
I32
sS'isbn13'
p55
V9781523984282
p56
sS'language'
p57
VEnglish
p58
sS'countries'
p59
(lp60
I2
asS'release_date'
p61
S'2016-02-01T00:00:00'
p62
sS'author'
p63
I32
sS'content_cleaned'
p64
I01
sS'classes'
p65
(lp66
Vscience-fiction
p67
aVshort-stories
p68
aVsci-fi
p69
asS'loc_class'
p70
S''
p71
sS'n_authors'
p72
I1
sb.