ccopy_reg
_reconstructor
p0
(cdataset.Book
Book
p1
c__builtin__
object
p2
Ntp3
Rp4
(dp5
S'content_name'
p6
V26536.txt.utf-8
p7
sS'isbn'
p8
NsS'year'
p9
I2015
sS'author_name'
p10
VEdgar Pangborn
p11
sS'images_urls'
p12
(lp13
Vhttp://www.gutenberg.org/files/26536/26536-h/images/illus-76.jpg
p14
aVhttp://www.gutenberg.org/files/26536/26536-page-images/p0074.png
p15
aVhttp://www.gutenberg.org/files/26536/26536-page-images/p0075.png
p16
aVhttp://www.gutenberg.org/files/26536/26536-page-images/p0076-image1.png
p17
aVhttp://www.gutenberg.org/files/26536/26536-page-images/p0077.png
p18
aVhttp://www.gutenberg.org/files/26536/26536-page-images/p0078.png
p19
aVhttp://www.gutenberg.org/files/26536/26536-page-images/p0079.png
p20
aVhttp://www.gutenberg.org/files/26536/26536-page-images/p0080.png
p21
asS'language_code'
p22
Veng
p23
sS'images'
p24
(lp25
sS'id'
p26
I760
sS'category'
p27
VText
p28
sS'genres'
p29
(lp30
sS'copyright'
p31
VPublic domain in the USA.
p32
sS'title'
p33
VThe Good Neighbors
p34
sS'wikipedia'
p35
(dp36
S'found'
p37
I00
ssS'average_rating'
p38
F3.33
sS'rating_count'
p39
I37645
sS'content_available'
p40
I01
sS'goodreads'
p41
(dp42
S'url'
p43
Vhttps://www.goodreads.com/book/show/25837341-the-good-neighbor
p44
sg37
I01
sS'year'
p45
I2015
ssS'similar_books'
p46
(lp47
VCrooked Little Lies
p48
aVA Dark Lure
p49
aVEverything Burns
p50
aVYounger
p51
aVOrchids and Stone
p52
aVThe Burned Bridges of Ward, Nebraska
p53
aVImplicated
p54
aVLife and Other Near-Death Experiences
p55
aVThe Prettiest One
p56
aVMemoirs of a Bad Dog
p57
aVIt Isn't Cheating if He's Dead
p58
aVIt Had to Be Him (It Had to Be #1)
p59
aVCold Black Earth
p60
aVTerms of Use
p61
aVLong Knives
p62
aVIntrusion
p63
aVWreckage
p64
aVBeneath The Surface
p65
asS'description'
p66
V<b>From a phenomenal new voice in suspense fiction comes a book that will forever change the way you look at the people closest to you\u2026</b><br /><br />Shadow Cove, Washington, is the kind of town everyone dreams about\u2014quaint streets, lush forests, good neighbors. That\u2019s what Sarah thinks as she settles into life with her new husband, Dr. Johnny McDonald. But all too soon she discovers an undercurrent of deception. And one October evening when Johnny is away, sudden tragedy destroys Sarah\u2019s happiness.<br /><br />Dazed and stricken with grief, she and Johnny begin to rebuild their shattered lives. As she picks up the pieces of her broken home, Sarah discovers a shocking secret that forces her to doubt everything she thought was true\u2014about her neighbors, her friends, and even her marriage. With each stunning revelation, Sarah must ask herself, <i>Can we ever really know the ones we love?</i>
p67
sS'format'
p68
NsS'gutenberg'
p69
(dp70
g43
Vhttp://www.gutenberg.org/ebooks/26536
p71
sS'num'
p72
I26536
ssS'authors'
p73
(lp74
I132
asS'isbn13'
p75
NsS'language'
p76
VEnglish
p77
sS'countries'
p78
(lp79
I2
asS'release_date'
p80
S'2008-09-05T00:00:00'
p81
sS'author'
p82
I132
sS'content_cleaned'
p83
I01
sS'classes'
p84
(lp85
Vcurrently-reading
p86
aVto-read
p87
aVkindle
p88
aVfiction
p89
aVmystery
p90
aVkindle-first
p91
aVthriller
p92
aVread-in-2015
p93
aVsuspense
p94
aVmystery-thriller
p95
aVkindle-unlimited
p96
aVbook-club
p97
aVread-2015
p98
aVkindle-books
p99
aVread-in-2016
p100
aVcrime
p101
aVowned
p102
aVread-2016
p103
aVbooks-i-own
p104
aV2015-reads
p105
aV2015-books
p106
aVon-kindle
p107
aVnetgalley
p108
aVpsychological-thriller
p109
aVdrama
p110
aVe-books
p111
aVcontemporary
p112
aVsuspense-thriller
p113
aV2016-books
p114
aVmysteries
p115
aV2015-read
p116
aVon-my-kindle
p117
aVmystery-suspense
p118
aVadult
p119
aVaudiobook
p120
aVthriller-suspense
p121
aVe-book
p122
aVown-kindle
p123
aV2016-read
p124
aVaudible
p125
aVto-buy
p126
aV2016-reads
p127
aVromance
p128
aVfavorites
p129
aVthrillers
p130
aV2016-reading-challenge
p131
aVfinished
p132
aVa-j-banner
p133
aVamazon
p134
aV2015-books-read
p135
aVstand-alone
p136
aVdnf
p137
aVbooks-read-in-2015
p138
aVowned-books
p139
aVfirst-reads
p140
aVread-in-2017
p141
aVread-2017
p142
aVborrowed
p143
aVabandoned
p144
aVmurder
p145
aVnovels
p146
aV2015-reading-challenge
p147
aVmystery-thriller-suspense
p148
aVpsychological-thrillers
p149
aVmystery-suspense-thriller
p150
aVebook
p151
aVmurder-mystery
p152
aVkindle-library
p153
aVarc
p154
aVcontemporary-fiction
p155
aVthriller-mystery
p156
aVmeh
p157
aVadult-fiction
p158
aVcrime-mystery
p159
aVown-on-kindle
p160
aVmaybe
p161
aVkindle-first-books
p162
aVkindle-owned
p163
aVwish-list
p164
aVebooks
p165
aVdefault
p166
aV2016-books-read
p167
aV2016-challenge
p168
aVbookclub
p169
aVlibrary
p170
aVdid-not-finish
p171
aVmystery-crime
p172
aVbook-club-books
p173
aV2015-challenge
p174
aVfreebies
p175
aVmarriage
p176
aVcrime-thriller
p177
aVown-to-read
p178
aVto-read-kindle
p179
aVmy-books
p180
aVkindle-free
p181
aVbooks-i-have
p182
aVamazon-first
p183
aVkindle-ebooks
p184
aVfree
p185
asS'loc_class'
p186
VPS: Language and Literatures: American and Canadian literature
p187
sS'n_authors'
p188
I1
sb.