ccopy_reg
_reconstructor
p0
(cdataset.Book
Book
p1
c__builtin__
object
p2
Ntp3
Rp4
(dp5
S'content_name'
p6
V29809.txt.utf-8
p7
sS'isbn'
p8
V154488124X
p9
sS'year'
p10
I1930
sS'author_name'
p11
VVarious
p12
sS'images_urls'
p13
(lp14
Vhttp://www.gutenberg.org/files/29809/29809-h/images/cover.jpg
p15
aVhttp://www.gutenberg.org/files/29809/29809-h/images/image_001.jpg
p16
aVhttp://www.gutenberg.org/files/29809/29809-h/images/image_002.jpg
p17
aVhttp://www.gutenberg.org/files/29809/29809-h/images/image_003.jpg
p18
aVhttp://www.gutenberg.org/files/29809/29809-h/images/image_004.jpg
p19
aVhttp://www.gutenberg.org/files/29809/29809-h/images/image_005.jpg
p20
aVhttp://www.gutenberg.org/files/29809/29809-h/images/image_006.jpg
p21
aVhttp://www.gutenberg.org/files/29809/29809-h/images/image_007.jpg
p22
aVhttp://www.gutenberg.org/files/29809/29809-h/images/image_008.jpg
p23
aVhttp://www.gutenberg.org/files/29809/29809-h/images/image_009.jpg
p24
aVhttp://www.gutenberg.org/files/29809/29809-h/images/image_010.jpg
p25
aVhttp://www.gutenberg.org/files/29809/29809-h/images/image_011.jpg
p26
aVhttp://www.gutenberg.org/files/29809/29809-h/images/image_012.jpg
p27
aVhttp://www.gutenberg.org/files/29809/29809-h/images/image_013.jpg
p28
aVhttp://www.gutenberg.org/files/29809/29809-h/images/image_a.jpg
p29
aVhttp://www.gutenberg.org/files/29809/29809-h/images/image_b.jpg
p30
aVhttp://www.gutenberg.org/files/29809/29809-h/images/image_b1.jpg
p31
aVhttp://www.gutenberg.org/files/29809/29809-h/images/image_c.jpg
p32
aVhttp://www.gutenberg.org/files/29809/29809-h/images/image_d.jpg
p33
aVhttp://www.gutenberg.org/files/29809/29809-h/images/image_d1.jpg
p34
aVhttp://www.gutenberg.org/files/29809/29809-h/images/image_e.jpg
p35
aVhttp://www.gutenberg.org/files/29809/29809-h/images/image_f.jpg
p36
aVhttp://www.gutenberg.org/files/29809/29809-h/images/image_g1.jpg
p37
aVhttp://www.gutenberg.org/files/29809/29809-h/images/image_h.jpg
p38
aVhttp://www.gutenberg.org/files/29809/29809-h/images/image_h1.jpg
p39
aVhttp://www.gutenberg.org/files/29809/29809-h/images/image_i.jpg
p40
aVhttp://www.gutenberg.org/files/29809/29809-h/images/image_i1.jpg
p41
aVhttp://www.gutenberg.org/files/29809/29809-h/images/image_j.jpg
p42
aVhttp://www.gutenberg.org/files/29809/29809-h/images/image_l1.jpg
p43
aVhttp://www.gutenberg.org/files/29809/29809-h/images/image_m.jpg
p44
aVhttp://www.gutenberg.org/files/29809/29809-h/images/image_n.jpg
p45
aVhttp://www.gutenberg.org/files/29809/29809-h/images/image_n1.jpg
p46
aVhttp://www.gutenberg.org/files/29809/29809-h/images/image_o.jpg
p47
aVhttp://www.gutenberg.org/files/29809/29809-h/images/image_o1.jpg
p48
aVhttp://www.gutenberg.org/files/29809/29809-h/images/image_p.jpg
p49
aVhttp://www.gutenberg.org/files/29809/29809-h/images/image_r.jpg
p50
aVhttp://www.gutenberg.org/files/29809/29809-h/images/image_s.jpg
p51
aVhttp://www.gutenberg.org/files/29809/29809-h/images/image_s1.jpg
p52
aVhttp://www.gutenberg.org/files/29809/29809-h/images/image_t.jpg
p53
aVhttp://www.gutenberg.org/files/29809/29809-h/images/image_t1.jpg
p54
aVhttp://www.gutenberg.org/files/29809/29809-h/images/image_u.jpg
p55
aVhttp://www.gutenberg.org/files/29809/29809-h/images/image_w.jpg
p56
aVhttp://www.gutenberg.org/files/29809/29809-h/images/image_w1.jpg
p57
aVhttp://www.gutenberg.org/files/29809/29809-h/images/image_y1.jpg
p58
asS'language_code'
p59
NsS'images'
p60
(lp61
sS'id'
p62
I100
sS'category'
p63
VText
p64
sS'genres'
p65
(lp66
sS'copyright'
p67
VPublic domain in the USA.
p68
sS'title'
p69
VAstounding Stories of Super-Science, May, 1930
p70
sS'wikipedia'
p71
(dp72
S'url'
p73
Vhttps://en.wikipedia.org/wiki/Science_Fiction_of_the_Thirties
p74
sS'found'
p75
I01
sS'year'
p76
I-1
ssS'published_in'
p77
NsS'average_rating'
p78
F0.0
sS'rating_count'
p79
I0
sS'content_available'
p80
I01
sS'cover_art_url'
p81
S'http://www.gutenberg.org/cache/epub/29809/pg29809.cover.medium.jpg'
p82
sS'goodreads'
p83
(dp84
g73
Vhttps://www.goodreads.com/book/show/34978264-astounding-stories-of-super-science-may-1930
p85
sg75
I01
sg76
I-1
ssS'similar_books'
p86
(lp87
sS'description'
p88
VAstounding Stories of Super-Science, May, 1930 by Various
p89
sS'format'
p90
VPaperback
p91
sS'gutenberg'
p92
(dp93
g73
Vhttp://www.gutenberg.org/ebooks/29809
p94
sS'num'
p95
I29809
ssS'authors'
p96
(lp97
I17
asS'isbn13'
p98
V9781544881249
p99
sS'language'
p100
VEnglish
p101
sS'countries'
p102
(lp103
I3
asS'release_date'
p104
S'2009-08-26T00:00:00'
p105
sS'author'
p106
I17
sS'original_title'
p107
VScience Fiction of the Thirties
p108
sS'summary'
p109
VScience Fiction of the Thirties is an anthology of science fiction short stories edited by Damon Knight. It was first published in hardcover by Bobbs-Merrill in January 1976; a book club edition was issued simultaneously by the same publisher together with the Science Fiction Book Club, and a trade paperback edition by Avon Books in March 1977.\u000aThe book collects eighteen tales by various authors originally published in the 1930s and exemplifying American magazine science fiction of that decade, together with a foreword and three essays on the period by the editor, and a bibliography. The stories were originally published in Astounding Stories and Amazing Stories, the premier science fiction magazines of the time. The book reproduces period illustrations that accompanied the stories' original appearances by H. W. Wesso, Leo Morey, Paul Orban, Howard V. Brown, Elliott Dold, Jr., Thompson, and Charles Schneeman.
p110
sS'content_cleaned'
p111
I01
sS'classes'
p112
(lp113
sS'loc_class'
p114
VPN: Language and Literatures: Literature: General, Criticism, Collections
p115
sS'n_authors'
p116
I1
sb.