ccopy_reg
_reconstructor
p0
(cdataset.Book
Book
p1
c__builtin__
object
p2
Ntp3
Rp4
(dp5
S'similar_books'
p6
(lp7
sS'genres'
p8
(lp9
sS'author'
p10
I302
sS'countries'
p11
(lp12
I2
asS'year'
p13
I1955
sS'title'
p14
VGalaxy Magazine July 1955
p15
sS'cover'
p16
Vhttps://ia600200.us.archive.org/BookReader/BookReaderImages.php?zip=/32/items/Galaxy_v10n04_1955-07/Galaxy_v10n04_1955-07_jp2.zip&file=Galaxy_v10n04_1955-07_jp2/Galaxy_v10n04_1955-07_0000.jp2&scale=0&rotate=0
p17
sS'cover_art'
p18
S'http://www.isfdb.org/wiki/images/7/7d/MLO4381.jpg'
p19
sS'author_name'
p20
VGalaxy Magazine
p21
sS'images_urls'
p22
(lp23
sS'authors'
p24
(lp25
I402
aI363
aI427
aI419
aI474
aI433
aI305
aI326
aI339
aI340
aI40
aI345
aI387
aI23
aI475
aI302
asS'images'
p26
(lp27
sS'id'
p28
I1030
sS'contents'
p29
(lp30
(dp31
g10
I402
sg14
VThe Mapmakers
p32
sa(dp33
g10
I402
sg14
VThe Mapmakers [2]
p34
sa(dp35
g10
I402
sg14
VThe Mapmakers [3]
p36
sa(dp37
g10
I363
sg14
VSpoken For
p38
sa(dp39
g10
I427
sg14
VProperty of Venus
p40
sa(dp41
g10
I427
sg14
VProperty of Venus [2]
p42
sa(dp43
g10
I427
sg14
VProperty of Venus [3]
p44
sa(dp45
g10
I419
sg14
VDeadhead
p46
sa(dp47
g10
I474
sg14
VThe Amateurs
p48
sa(dp49
g10
I433
sg14
VPreferred Risk (Part 2 of 4)
p50
sa(dp51
g10
I433
sg14
VPreferred Risk (Part 2 of 4) [2]
p52
sa(dp53
g10
I433
sg14
VPreferred Risk (Part 2 of 4) [3]
p54
sa(dp55
g10
I433
sg14
VPreferred Risk (Part 2 of 4) [4]
p56
sa(dp57
g10
I305
sg14
VAnd He Sez
p58
sa(dp59
g10
I326
sg14
VForecast (Galaxy, July 1955)
p60
sa(dp61
g10
I339
sg14
VFor Your Information: The Orbital (Unmanned) Satellite Vehicle
p62
sa(dp63
g10
I340
sg14
VGalaxy's 5 Star Shelf (Galaxy, July 1955)
p64
sa(dp65
g10
I40
sg14
VThe Mapmakers
p66
sa(dp67
g10
I345
sg14
VProperty of Venus
p68
sa(dp69
g10
I40
sg14
VPreferred Risk (Part 2 of 4)
p70
sa(dp71
g10
I387
sg14
VSpoken For
p72
sa(dp73
g10
I23
sg14
VDeadhead
p74
sa(dp75
g10
I475
sg14
VThe Amateurs
p76
sasb.