ccopy_reg
_reconstructor
p0
(cdataset.Book
Book
p1
c__builtin__
object
p2
Ntp3
Rp4
(dp5
S'content_name'
p6
V18861.txt.utf-8
p7
sS'isbn'
p8
V1428049061
p9
sS'year'
p10
I1957
sS'author_name'
p11
VH. Beam Piper
p12
sS'images_urls'
p13
(lp14
Vhttp://www.gutenberg.org/files/18861/18861-h/images/image_01.jpg
p15
aVhttp://www.gutenberg.org/files/18861/18861-h/images/image_02.jpg
p16
aVhttp://www.gutenberg.org/files/18861/18861-h/images/image_03.jpg
p17
aVhttp://www.gutenberg.org/files/18861/18861-h/images/image_04.jpg
p18
aVhttp://www.gutenberg.org/files/18861/18861-h/images/image_05.jpg
p19
aVhttp://www.gutenberg.org/files/18861/18861-h/images/image_06.jpg
p20
aVhttp://www.gutenberg.org/files/18861/18861-h/images/image_07.jpg
p21
asS'language_code'
p22
NsS'images'
p23
(lp24
sS'id'
p25
I467
sS'category'
p26
VText
p27
sS'genres'
p28
(lp29
sS'copyright'
p30
VPublic domain in the USA.
p31
sS'title'
p32
VTemple Trouble
p33
sS'wikipedia'
p34
(dp35
S'url'
p36
Vhttps://en.wikipedia.org/wiki/Isaac_Asimov_Presents_The_Great_SF_Stories_1_(1939)
p37
sS'found'
p38
I01
sS'year'
p39
I-1
ssS'published_in'
p40
NsS'average_rating'
p41
F3.55
sS'rating_count'
p42
I72
sS'content_available'
p43
I01
sS'goodreads'
p44
(dp45
g36
Vhttps://www.goodreads.com/book/show/1440164.Temple_Trouble
p46
sg38
I01
sg39
I1957
ssS'similar_books'
p47
(lp48
sS'description'
p49
V[...]hereditary nobility on his breast, and carried a sigma-ray needler in a belt holster. "Were you waiting long, gentlemen?" Stranor Sleth asked. "I was holding Sunset Sacrifice up in the temple." "No, we just got here," Brannad Klav said. "This is Verkan Vall, Mavrad of Nerros, special assistant to Chief Tortha of the Paratime Police, Stranor Sleth, our resident agent here."[...].
p50
sS'format'
p51
NsS'gutenberg'
p52
(dp53
g36
Vhttp://www.gutenberg.org/ebooks/18861
p54
sS'num'
p55
I18861
ssS'authors'
p56
(lp57
I19
asS'isbn13'
p58
V9781428049062
p59
sS'language'
p60
VEnglish
p61
sS'countries'
p62
(lp63
I2
asS'release_date'
p64
S'2006-07-18T00:00:00'
p65
sS'author'
p66
I19
sS'original_title'
p67
VIsaac Asimov Presents The Great SF Stories 1 (1939)
p68
sS'summary'
p69
VIsaac Asimov Presents The Great SF Stories 1 (1939) is an American collection of short stories, edited by Isaac Asimov and Martin H. Greenberg. It attempts to list the great science fiction stories from the Golden Age of Science Fiction. They date the Golden Age as beginning in 1939 and lasting until 1963. The book was later reprinted as the first half of Isaac Asimov Presents The Golden Years of Science Fiction: 36 Stories and Novellas with the second half being Isaac Asimov Presents The Great SF Stories 2 (1940).\u000aThis volume was originally published by DAW books in March 1979.
p70
sS'content_cleaned'
p71
I01
sS'classes'
p72
(lp73
Vto-read
p74
aVscience-fiction
p75
aVsci-fi
p76
aVkindle
p77
aVcurrently-reading
p78
aVsf
p79
aVfiction
p80
aVshort-stories
p81
aVsi-fi
p82
aVscifi
p83
aValternate-history
p84
aVtime-travel
p85
aVh-beam-piper
p86
aVshort-story
p87
aVgalaktyka-gutenberga
p88
aVaudio
p89
aVaudiobooks
p90
aVowned-pending-kindle-free-ebook
p91
aVown-audiobook
p92
aVto-check-out
p93
aV15
p94
aVshort_stories
p95
aVthe-real-stuff
p96
aVon-disk
p97
aV2014-short-stories
p98
aVsf-challenge
p99
aVscience-fiction-alt-history
p100
aVto-buy
p101
aVe-books
p102
aVacquired
p103
aVin-anthology
p104
aVfavorite-authors
p105
aVebook
p106
aVmy-library
p107
aVsci-fi-or-speculative
p108
aVnovella
p109
aVpulp
p110
aVpolice
p111
aVparatime
p112
aVgenre-
p113
aVedition
p114
aVonline
p115
aVfree
p116
aVliterary
p117
aVmodern
p118
aV-
p119
aVstories
p120
aVshort
p121
aVgeneral
p122
aVclassic-lit
p123
aVcollected-classics
p124
aVbooks-on-kindle
p125
aVownebook
p126
aVpdfs
p127
asS'loc_class'
p128
VPS: Language and Literatures: American and Canadian literature
p129
sS'n_authors'
p130
I1
sb.