ccopy_reg
_reconstructor
p0
(cdataset.Book
Book
p1
c__builtin__
object
p2
Ntp3
Rp4
(dp5
S'content_name'
p6
V22524.txt.utf-8
p7
sS'isbn'
p8
V0446563080
p9
sS'year'
p10
I1953
sS'author_name'
p11
VJoseph Samachson
p12
sS'images_urls'
p13
(lp14
Vhttp://www.gutenberg.org/files/22524/22524-h/images/hunters.png
p15
aVhttp://www.gutenberg.org/files/22524/22524-page-images/p076.png
p16
aVhttp://www.gutenberg.org/files/22524/22524-page-images/p077.png
p17
aVhttp://www.gutenberg.org/files/22524/22524-page-images/p078.png
p18
aVhttp://www.gutenberg.org/files/22524/22524-page-images/p079.png
p19
aVhttp://www.gutenberg.org/files/22524/22524-page-images/p080.png
p20
aVhttp://www.gutenberg.org/files/22524/22524-page-images/p081.png
p21
aVhttp://www.gutenberg.org/files/22524/22524-page-images/p082.png
p22
aVhttp://www.gutenberg.org/files/22524/22524-page-images/p083.png
p23
aVhttp://www.gutenberg.org/files/22524/22524-page-images/p084.png
p24
aVhttp://www.gutenberg.org/files/22524/22524-page-images/p085.png
p25
aVhttp://www.gutenberg.org/files/22524/22524-page-images/p086.png
p26
aVhttp://www.gutenberg.org/files/22524/22524-page-images/p087.png
p27
aVhttp://www.gutenberg.org/files/22524/22524-page-images/p088.png
p28
aVhttp://www.gutenberg.org/files/22524/22524-page-images/p089.png
p29
aVhttp://www.gutenberg.org/files/22524/22524-page-images/p090.png
p30
asS'language_code'
p31
Ven-US
p32
sS'id'
p33
I816
sS'category'
p34
VText
p35
sS'genres'
p36
(lp37
sS'copyright'
p38
VPublic domain in the USA.
p39
sS'title'
p40
VThe Hunters
p41
sS'wikipedia'
p42
(dp43
S'found'
p44
I00
ssS'average_rating'
p45
F3.7
sS'rating_count'
p46
I106409
sS'content_available'
p47
I01
sS'goodreads'
p48
(dp49
S'url'
p50
Vhttps://www.goodreads.com/book/show/7108001-abraham-lincoln
p51
sS'found'
p52
I01
sS'year'
p53
I2010
ssS'similar_books'
p54
(lp55
VAndroid Karenina
p56
aVQueen Victoria: Demon Hunter
p57
aVJane Slayre: The Literary Classic with a Blood-Sucking Twist
p58
aVLittle Women and Werewolves
p59
aVDawn of the Dreadfuls (Pride and Prejudice and Zombies, #0.5)
p60
aVJane Bites Back (Jane Fairfax, #1)
p61
aVShakespeare Undead (Shakespeare Undead, #1)
p62
aVThe President's Vampire (Nathaniel Cade, #2)
p63
aVAnno Dracula (Anno Dracula, #1)
p64
aVThe Greyfriar (Vampire Empire, #1)
p65
aVVampire Zero (Laura Caxton, #3)
p66
aVRomeo & Juliet & Vampires
p67
aVEmma and the Vampires
p68
aVEmma and the Werewolves: Jane Austen's Classic Novel with Blood-Curdling Lycanthropy
p69
aVMansfield Park and Mummies: Monster Mayhem, Matrimony, Ancient Curses, True Love, and Other Dire Delights
p70
aVDracula in Love
p71
aVAdventures of Huckleberry Finn and Zombie Jim
p72
aVNight of the Living Trekkies
p73
asS'description'
p74
V<em>Indiana, 1818.</em> Moonlight falls through the dense woods that surround a one-room cabin, where a nine-year-old Abraham Lincoln kneels at his suffering mother's bedside. She's been stricken with something the old-timers call "Milk Sickness."<br /><br />"My baby boy..." she whispers before dying.<br /><br />Only later will the grieving Abe learn that his mother's fatal affliction was actually the work of a vampire.<br /><br />When the truth becomes known to young Lincoln, he writes in his journal, "<i>henceforth my life shall be one of rigorous study and devotion. I shall become a master of mind and body. And this mastery shall have but one purpose</i>..." Gifted with his legendary height, strength, and skill with an ax, Abe sets out on a path of vengeance that will lead him all the way to the White House.<br /><br />While Abraham Lincoln is widely lauded for saving a Union and freeing millions of slaves, his valiant fight against the forces of the undead has remained in the shadows for hundreds of years. That is, until Seth Grahame-Smith stumbled upon <i>The Secret Journal of Abraham Lincoln</i>, and became the first living person to lay eyes on it in more than 140 years.<br /><br />Using the journal as his guide and writing in the grand biographical style of Doris Kearns Goodwin and David McCullough, Seth has reconstructed the <i>true</i> life story of our greatest president for the first time-all while revealing the hidden history behind the Civil War and uncovering the role vampires played in the birth, growth, and near-death of our nation.
p75
sS'format'
p76
NsS'gutenberg'
p77
(dp78
g50
Vhttp://www.gutenberg.org/ebooks/22524
p79
sS'num'
p80
I22524
ssS'authors'
p81
(lp82
I157
asS'pages'
p83
I336
sS'isbn13'
p84
V9780446563086
p85
sS'language'
p86
VEnglish
p87
sS'countries'
p88
(lp89
I2
asS'release_date'
p90
S'2007-09-06T00:00:00'
p91
sS'author'
p92
I157
sS'content_cleaned'
p93
I01
sS'classes'
p94
(lp95
Vto-read
p96
aVfiction
p97
aVhistorical-fiction
p98
aVfantasy
p99
aVhorror
p100
aVvampires
p101
aVfavorites
p102
aVparanormal
p103
aVhistorical
p104
aVowned
p105
aVbooks-i-own
p106
aVvampire
p107
aVsupernatural
p108
aVkindle
p109
aVbook-club
p110
aValternate-history
p111
aVread-in-2012
p112
aVaudiobook
p113
aVhumor
p114
aVhistory
p115
aVdefault
p116
aVadult
p117
aVlibrary
p118
aVaudiobooks
p119
aVebook
p120
aVowned-books
p121
aVaudio
p122
aVsci-fi-fantasy
p123
aVebooks
p124
aVabandoned
p125
aVmy-books
p126
aVsci-fi
p127
aVadult-fiction
p128
aVabraham-lincoln
p129
aVaudio-book
p130
aVread-2012
p131
aVadventure
p132
aVthriller
p133
aVdid-not-finish
p134
aVmy-library
p135
aVaudible
p136
aVurban-fantasy
p137
aVaudio-books
p138
aVnovels
p139
aVi-own
p140
aVto-buy
p141
aVscience-fiction
p142
aVlincoln
p143
aVyoung-adult
p144
aVcivil-war
p145
aVbiography
p146
aVcouldn-t-finish
p147
aVdidn-t-finish
p148
aVnook
p149
aVfantasy-sci-fi
p150
aVwish-list
p151
aVborrowed
p152
aVown-it
p153
aVread-in-2010
p154
aVe-books
p155
aVamerican
p156
aVe-book
p157
aVunfinished
p158
aVread-in-2013
p159
aVlibrary-books
p160
aVvamps
p161
aVkindle-books
p162
aV2012-reads
p163
aVread-in-2011
p164
aVmystery
p165
aVbookclub
p166
aVscifi-fantasy
p167
aVhave
p168
aVgave-up-on
p169
aVcomedy
p170
aVhistorical-fantasy
p171
aV2012-books
p172
aValternative-history
p173
aVgeneral-fiction
p174
aVbooks
p175
aVwar
p176
aVmovies
p177
aVaction
p178
aVnovel
p179
aVhumour
p180
aVlistened-to
p181
aVnever-finished
p182
aVscience-fiction-fantasy
p183
aVamerican-history
p184
aVdnf
p185
aVabraham
p186
aVreviewed
p187
aVfun
p188
aVsuspense
p189
aVstand-alone
p190
aVmovie
p191
aVpaperback
p192
aValt-history
p193
aVread-in-2014
p194
aVon-hold
p195
asS'loc_class'
p196
VPS: Language and Literatures: American and Canadian literature
p197
sS'n_authors'
p198
I1
sb.