ccopy_reg
_reconstructor
p0
(cdataset.Book
Book
p1
c__builtin__
object
p2
Ntp3
Rp4
(dp5
S'content_name'
p6
V21782.txt.utf-8
p7
sS'isbn'
p8
V160459652X
p9
sS'year'
p10
I1962
sS'author_name'
p11
VKeith Laumer
p12
sS'images_urls'
p13
(lp14
Vhttp://www.gutenberg.org/files/21782/21782-h/images/illus_016.png
p15
aVhttp://www.gutenberg.org/files/21782/21782-page-images/p008.png
p16
aVhttp://www.gutenberg.org/files/21782/21782-page-images/p009a.png
p17
aVhttp://www.gutenberg.org/files/21782/21782-page-images/p009b.png
p18
aVhttp://www.gutenberg.org/files/21782/21782-page-images/p010a.png
p19
aVhttp://www.gutenberg.org/files/21782/21782-page-images/p010b.png
p20
aVhttp://www.gutenberg.org/files/21782/21782-page-images/p011a.png
p21
aVhttp://www.gutenberg.org/files/21782/21782-page-images/p011b.png
p22
aVhttp://www.gutenberg.org/files/21782/21782-page-images/p012a.png
p23
aVhttp://www.gutenberg.org/files/21782/21782-page-images/p012b.png
p24
aVhttp://www.gutenberg.org/files/21782/21782-page-images/p013a.png
p25
aVhttp://www.gutenberg.org/files/21782/21782-page-images/p013b.png
p26
aVhttp://www.gutenberg.org/files/21782/21782-page-images/p014a.png
p27
aVhttp://www.gutenberg.org/files/21782/21782-page-images/p014b.png
p28
aVhttp://www.gutenberg.org/files/21782/21782-page-images/p015a.png
p29
aVhttp://www.gutenberg.org/files/21782/21782-page-images/p015b.png
p30
aVhttp://www.gutenberg.org/files/21782/21782-page-images/p016.jpg
p31
aVhttp://www.gutenberg.org/files/21782/21782-page-images/p017a.png
p32
aVhttp://www.gutenberg.org/files/21782/21782-page-images/p017b.png
p33
aVhttp://www.gutenberg.org/files/21782/21782-page-images/p018a.png
p34
aVhttp://www.gutenberg.org/files/21782/21782-page-images/p018b.png
p35
aVhttp://www.gutenberg.org/files/21782/21782-page-images/p019a.png
p36
aVhttp://www.gutenberg.org/files/21782/21782-page-images/p019b.png
p37
aVhttp://www.gutenberg.org/files/21782/21782-page-images/p020a.png
p38
aVhttp://www.gutenberg.org/files/21782/21782-page-images/p020b.png
p39
aVhttp://www.gutenberg.org/files/21782/21782-page-images/p021a.png
p40
aVhttp://www.gutenberg.org/files/21782/21782-page-images/p021b.png
p41
aVhttp://www.gutenberg.org/files/21782/21782-page-images/p022.png
p42
asS'language_code'
p43
NsS'images'
p44
(lp45
sS'id'
p46
I461
sS'category'
p47
VText
p48
sS'genres'
p49
(lp50
sS'copyright'
p51
VPublic domain in the USA.
p52
sS'title'
p53
VThe Yillian Way
p54
sS'wikipedia'
p55
(dp56
S'found'
p57
I00
ssS'average_rating'
p58
F3.98
sS'rating_count'
p59
I31
sS'content_available'
p60
I01
sS'goodreads'
p61
(dp62
S'url'
p63
Vhttps://www.goodreads.com/book/show/6255861-retief
p64
sg57
I01
sS'year'
p65
I1962
ssS'similar_books'
p66
(lp67
sS'description'
p68
VThe ceremonious protocol of the Yills was impressive, colorful-and, in the long run, deadly! It was up to Jame Retief to figure out how to respond to the Yill's overtures in the correct manner; all the while keeping his superiors from making a deadly mistake. Only one man could think quickly enough to get the job done!
p69
sS'format'
p70
VPaperback
p71
sS'gutenberg'
p72
(dp73
g63
Vhttp://www.gutenberg.org/ebooks/21782
p74
sS'num'
p75
I21782
ssS'authors'
p76
(lp77
I67
asS'pages'
p78
I48
sS'isbn13'
p79
V9781604596526
p80
sS'language'
p81
VEnglish
p82
sS'release_date'
p83
S'2007-06-09T00:00:00'
p84
sS'author'
p85
I67
sS'content_cleaned'
p86
I01
sS'classes'
p87
(lp88
Vto-read
p89
aVscience-fiction
p90
aVsci-fi
p91
aVdnf
p92
aVaudiobooks
p93
aVstories
p94
aVfunny
p95
aVebooks
p96
aVtraveller-rpg
p97
aVowned-amazon
p98
aVamazon
p99
aVfantasy
p100
aVlaumer
p101
aVfiction-sf
p102
aVnot-owned--to-buy
p103
aVaudio-books
p104
asS'loc_class'
p105
VPS: Language and Literatures: American and Canadian literature
p106
sS'n_authors'
p107
I1
sb.