ccopy_reg
_reconstructor
p0
(cdataset.Book
Book
p1
c__builtin__
object
p2
Ntp3
Rp4
(dp5
S'similar_books'
p6
(lp7
sS'genres'
p8
(lp9
sS'author'
p10
I302
sS'countries'
p11
(lp12
I2
asS'year'
p13
I1957
sS'title'
p14
VGalaxy Magazine October 1957
p15
sS'cover'
p16
Vhttps://ia600202.us.archive.org/BookReader/BookReaderImages.php?zip=/25/items/Galaxy_v14n06_1957-10/Galaxy_v14n06_1957-10_jp2.zip&file=Galaxy_v14n06_1957-10_jp2/Galaxy_v14n06_1957-10_0000.jp2&scale=0&rotate=0
p17
sS'cover_art'
p18
S'http://www.isfdb.org/wiki/images/9/9d/MLO4442.jpg'
p19
sS'author_name'
p20
VGalaxy Magazine
p21
sS'images_urls'
p22
(lp23
sS'authors'
p24
(lp25
I519
aI506
aI419
aI305
aI326
aI339
aI483
aI521
aI522
aI23
aI3
aI40
aI220
aI315
aI302
asS'images'
p26
(lp27
sS'id'
p28
I1056
sS'contents'
p29
(lp30
(dp31
S'title'
p32
VWolfbane (Part 1 of 2)
p33
sS'author'
p34
I519
sa(dp35
g32
VWolfbane (Part 1 of 2) [2]
p36
sg34
I519
sa(dp37
g32
VWolfbane (Part 1 of 2) [3]
p38
sg34
I519
sa(dp39
g32
VShare Alike
p40
sg34
I506
sa(dp41
g32
VDouble Indemnity
p42
sg34
I506
sa(dp43
g32
VDouble Indemnity [2]
p44
sg34
I506
sa(dp45
g32
VDouble Indemnity [3]
p46
sg34
I506
sa(dp47
g32
VRobots Are Nice?
p48
sg34
I419
sa(dp49
g32
VIdeas Die Hard
p50
sg34
I419
sa(dp51
g32
VIdeas Die Hard [2]
p52
sg34
I419
sa(dp53
g32
VThe Richest Planet
p54
sg34
I305
sa(dp55
g32
VForecast (Galaxy, October 1957)
p56
sg34
I326
sa(dp57
g32
VFor Your Information: Hunting Down the Dodo
p58
sg34
I339
sa(dp59
g32
VGalaxy's 5 Star Shelf (Galaxy, October 1957)
p60
sg34
I483
sa(dp61
g32
VReview of the Nonfiction Work "the Underwater World"
p62
sg34
I521
sa(dp63
g32
VReview of the Nonfiction Work "the Pocket Guide to the Underwater World"
p64
sg34
I522
sa(dp65
g32
VReview of the Nonfiction Work "the Galathea Deep Sea Expedition"
p66
sg34
I483
sa(dp67
g32
VDouble Indemnity
p68
sg34
I23
sa(dp69
g32
VIdeas Die Hard
p70
sg34
I3
sa(dp71
g32
VWolfbane (Part 1 of 2)
p72
sg34
I40
sa(dp73
g32
VShare Alike
p74
sg34
I220
sa(dp75
g32
VRobots Are Nice?
p76
sg34
I315
sasb.