ccopy_reg
_reconstructor
p0
(cdataset.Book
Book
p1
c__builtin__
object
p2
Ntp3
Rp4
(dp5
S'similar_books'
p6
(lp7
sS'genres'
p8
(lp9
sS'author'
p10
I302
sS'countries'
p11
(lp12
I2
asS'year'
p13
I1959
sS'title'
p14
VGalaxy Magazine June 1959
p15
sS'cover'
p16
Vhttps://ia600208.us.archive.org/BookReader/BookReaderImages.php?zip=/6/items/Galaxy_v17n05_1959-06/Galaxy_v17n05_1959-06_jp2.zip&file=Galaxy_v17n05_1959-06_jp2/Galaxy_v17n05_1959-06_0000.jp2&scale=0&rotate=0
p17
sS'cover_art'
p18
S'http://www.isfdb.org/wiki/images/5/55/GALJUN1959.jpg'
p19
sS'author_name'
p20
VGalaxy Magazine
p21
sS'images_urls'
p22
(lp23
sS'authors'
p24
(lp25
I519
aI506
aI504
aI419
aI305
aI326
aI339
aI483
aI514
aI384
aI40
aI217
aI64
aI220
aI302
asS'images'
p26
(lp27
sS'id'
p28
I1073
sS'contents'
p29
(lp30
(dp31
g10
I519
sg14
VWhatever Counts
p32
sa(dp33
g10
I519
sg14
VWhatever Counts [2]
p34
sa(dp35
g10
I519
sg14
VWhatever Counts [3]
p36
sa(dp37
g10
I519
sg14
VWhatever Counts [4]
p38
sa(dp39
g10
I506
sg14
VTake Wooden Indians
p40
sa(dp41
g10
I506
sg14
VTake Wooden Indians [2]
p42
sa(dp43
g10
I506
sg14
VTake Wooden Indians [3]
p44
sa(dp45
g10
I506
sg14
VTraveling Companion Wanted
p46
sa(dp47
g10
I506
sg14
VTraveling Companion Wanted [2]
p48
sa(dp49
g10
I506
sg14
VTraveling Companion Wanted [3]
p50
sa(dp51
g10
I504
sg14
VExtracts From the Galactik Almanack: Music Around the Universe
p52
sa(dp53
g10
I504
sg14
VExtracts From the Galactik Almanack: Music Around the Universe [2]
p54
sa(dp55
g10
I504
sg14
VExtracts From the Galactik Almanack: Music Around the Universe [3]
p56
sa(dp57
g10
I504
sg14
VExtracts From the Galactik Almanack: Music Around the Universe [4]
p58
sa(dp59
g10
I504
sg14
VExtracts From the Galactik Almanack: Music Around the Universe [5]
p60
sa(dp61
g10
I504
sg14
VExtracts From the Galactik Almanack: Music Around the Universe [6]
p62
sa(dp63
g10
I504
sg14
VExtracts From the Galactik Almanack: Music Around the Universe [7]
p64
sa(dp65
g10
I419
sg14
VSoft Touch
p66
sa(dp67
g10
I419
sg14
VSoft Touch [2]
p68
sa(dp69
g10
I419
sg14
VSoft Touch [3]
p70
sa(dp71
g10
I419
sg14
VNo Place for Crime
p72
sa(dp73
g10
I419
sg14
VNo Place for Crime [2]
p74
sa(dp75
g10
I419
sg14
VNo Place for Crime [3]
p76
sa(dp77
g10
I305
sg14
VSpecial Delivery
p78
sa(dp79
g10
I326
sg14
VForecast (Galaxy, June 1959)
p80
sa(dp81
g10
I339
sg14
VFor Your Information: Any Questions?
p82
sa(dp83
g10
I483
sg14
VGalaxy's 5 Star Shelf (Galaxy, June 1959)
p84
sa(dp85
g10
I483
sg14
VReview of the Encyclopedia Americana
p86
sa(dp87
g10
I514
sg14
VTake Wooden Indians
p88
sa(dp89
g10
I384
sg14
VNo Place for Crime
p90
sa(dp91
g10
I40
sg14
VWhatever Counts
p92
sa(dp93
g10
I217
sg14
VTraveling Companion Wanted
p94
sa(dp95
g10
I64
sg14
VExtracts From the Galactik Almanack: Music Around the Universe
p96
sa(dp97
g10
I220
sg14
VSoft Touch
p98
sasb.