ccopy_reg
_reconstructor
p0
(cdataset.Book
Book
p1
c__builtin__
object
p2
Ntp3
Rp4
(dp5
S'content_name'
p6
V29138.txt.utf-8
p7
sS'isbn'
p8
V0765385503
p9
sS'year'
p10
I1955
sS'author_name'
p11
VEvelyn E. Smith
p12
sS'images_urls'
p13
(lp14
sS'language_code'
p15
Veng
p16
sS'images'
p17
(lp18
sS'id'
p19
I770
sS'category'
p20
VText
p21
sS'plot'
p22
VConundrum follows a boat of gnomes, named the Indestructable, to sail around the world of Krynn. However, when they reach the doorway to the bottom of Krynn, things change.
p23
sS'genres'
p24
(lp25
sS'copyright'
p26
VPublic domain in the USA.
p27
sS'title'
p28
VThe Doorway
p29
sS'wikipedia'
p30
(dp31
S'url'
p32
Vhttps://en.wikipedia.org/wiki/Conundrum_(Dragonlance_novel)
p33
sS'found'
p34
I01
sS'year'
p35
I-1
ssS'published_in'
p36
NsS'average_rating'
p37
F3.87
sS'rating_count'
p38
I14528
sS'content_available'
p39
I01
sS'goodreads'
p40
(dp41
g32
Vhttps://www.goodreads.com/book/show/25526296-every-heart-a-doorway
p42
sg34
I01
sg35
I2016
ssS'similar_books'
p43
(lp44
VSpeak Easy
p45
aVThe Raven and the Reindeer
p46
aVBorderline (The Arcadia Project, #1)
p47
aVThe Terracotta Bride
p48
aVGhost Talkers
p49
aVThe Drowning Eyes
p50
aVOf Sorrow and Such
p51
aVThe Jewel and Her Lapidary
p52
aVRed as Blood and White as Bone
p53
aVWake of Vultures (The Shadow, #1)
p54
aVPenric's Demon (Penric and Desdemona, #1)
p55
aVIn the Labyrinth of Drakes (The Memoirs of Lady Trent #4)
p56
aVAriah (Ariah, #1)
p57
aVWylding Hall
p58
aVHeroine Complex (Heroine Complex, #1)
p59
aVThe Turn of the Story
p60
aVThe Sorcerer of the Wildeeps (The Sorcerer of the Wildeeps, #1)
p61
aVLustlocked (Sin du Jour, #2)
p62
asS'description'
p63
V<b>Eleanor West\u2019s Home for Wayward Children</b><br />No Solicitations<br />No Visitors<br />No Quests<br /><br />Children have always disappeared under the right conditions; slipping through the shadows under a bed or at the back of a wardrobe, tumbling down rabbit holes and into old wells, and emerging somewhere... else.<br /><br />But magical lands have little need for used-up miracle children.<br /><br />Nancy tumbled once, but now she\u2019s back. The things she\u2019s experienced... they change a person. The children under Miss West\u2019s care understand all too well. And each of them is seeking a way back to their own fantasy world.<br /><br />But Nancy\u2019s arrival marks a change at the Home. There\u2019s a darkness just around each corner, and when tragedy strikes, it\u2019s up to Nancy and her new-found schoolmates to get to the heart of the matter.<br /><br />No matter the cost.
p64
sS'format'
p65
VHardcover
p66
sS'gutenberg'
p67
(dp68
g32
Vhttp://www.gutenberg.org/ebooks/29138
p69
sS'num'
p70
I29138
ssS'authors'
p71
(lp72
I172
asS'pages'
p73
I169
sS'isbn13'
p74
V9780765385505
p75
sS'language'
p76
VEnglish
p77
sS'countries'
p78
(lp79
I2
asS'release_date'
p80
S'2009-06-17T00:00:00'
p81
sS'author'
p82
I172
sS'original_title'
p83
VConundrum (Dragonlance novel)
p84
sS'summary'
p85
VConundrum is a fantasy novel by Jeff Crook, published in 2001. The story takes place in the Dragonlance setting, based on the Dungeons & Dragons fantasy role-playing game.
p86
sS'content_cleaned'
p87
I01
sS'classes'
p88
(lp89
Vto-read
p90
aVfantasy
p91
aVyoung-adult
p92
aVfavorites
p93
aVurban-fantasy
p94
aVlgbt
p95
aVcurrently-reading
p96
aVnovella
p97
aVseries
p98
aVread-in-2017
p99
aVlgbtq
p100
aVlgbtqia
p101
aVread-in-2016
p102
aVto-buy
p103
aVlibrary
p104
aVebook
p105
aV2016-releases
p106
aVparanormal
p107
aVadult
p108
aVhorror
p109
aVkindle
p110
aVya
p111
aVmagical-realism
p112
aVfiction
p113
aVbooks-i-own
p114
aVread-2016
p115
aVwish-list
p116
aVowned
p117
aVaudiobooks
p118
aVmagic
p119
aVsci-fi-fantasy
p120
aV2017-reads
p121
aVebooks
p122
aV2016-reads
p123
aVqueer
p124
aVnovellas
p125
aVfavourites
p126
aVya-fantasy
p127
aVfairy-tales
p128
aVmaybe
p129
aV2016-release
p130
aVadult-fiction
p131
aVfantasy-sci-fi
p132
aVcontemporary
p133
aVsff
p134
aVaudio
p135
aVaudiobook
p136
aVmystery
p137
aVread-2017
p138
aVe-books
p139
aVe-book
p140
aVfairy-tale
p141
aVdark
p142
aVdiverse-reads
p143
aVshort-stories
p144
aVscience-fiction
p145
aVmystery-thriller
p146
aVgenre-fantasy
p147
aVspeculative-fiction
p148
aVto-read-fantasy
p149
aVdnf
p150
aVdiverse
p151
aVscifi-fantasy
p152
aVbooks-to-buy
p153
aVnetgalley
p154
aVbook-club
p155
aVboarding-school
p156
aVfemale-author
p157
aVneed-to-buy
p158
aV2016-books
p159
aVcover-love
p160
aV2016-read
p161
aVlgbtqa
p162
aVlibrary-books
p163
aVsupernatural
p164
aVenglish
p165
aVdiversity
p166
aVreviewed
p167
aVarc
p168
aVglbt
p169
aVadventure
p170
aVtbr
p171
aVcoming-of-age
p172
aVread-in-english
p173
aVaudio-books
p174
aV4-stars
p175
aVowned-books
p176
aVborrowed
p177
aVwant-to-buy
p178
aVace
p179
aV2017-read
p180
aVfirst-in-series
p181
aVdark-fantasy
p182
aVmust-read
p183
aVdiverse-books
p184
aVsci-fi
p185
aVlibrary-book
p186
aV2016-reading-challenge
p187
aV5-stars
p188
aVfantasy-scifi
p189
asS'loc_class'
p190
VPS: Language and Literatures: American and Canadian literature
p191
sS'n_authors'
p192
I1
sb.