ccopy_reg
_reconstructor
p0
(cdataset.Book
Book
p1
c__builtin__
object
p2
Ntp3
Rp4
(dp5
S'content_name'
p6
V50719.txt.utf-8
p7
sS'isbn'
p8
NsS'year'
p9
I1919
sS'author_name'
p10
VMurray Leinster
p11
sS'images_urls'
p12
(lp13
Vhttp://www.gutenberg.org/files/50719/50719-h/images/cover.jpg
p14
aVhttp://www.gutenberg.org/files/50719/50719-h/images/illus.jpg
p15
asS'language_code'
p16
Veng
p17
sS'images'
p18
(lp19
sS'id'
p20
I590
sS'category'
p21
VText
p22
sS'genres'
p23
(lp24
sS'copyright'
p25
VPublic domain in the USA.
p26
sS'title'
p27
VJuju
p28
sS'wikipedia'
p29
(dp30
S'found'
p31
I00
ssS'average_rating'
p32
F4.12
sS'rating_count'
p33
I5
sS'content_available'
p34
I01
sS'cover_art_url'
p35
S'http://www.gutenberg.org/cache/epub/50719/pg50719.cover.medium.jpg'
p36
sS'goodreads'
p37
(dp38
S'url'
p39
S'https://www.goodreads.com/book/show/28269465-juju'
p40
sS'found'
p41
I01
ssS'similar_books'
p42
(lp43
sS'description'
p44
NsS'gutenberg'
p45
(dp46
S'url'
p47
Vhttp://www.gutenberg.org/ebooks/50719
p48
sS'num'
p49
I50719
ssS'authors'
p50
(lp51
I61
asS'pages'
p52
I90
sS'isbn13'
p53
NsS'language'
p54
VEnglish
p55
sS'countries'
p56
(lp57
I2
asS'release_date'
p58
S'2015-12-19T00:00:00'
p59
sS'author'
p60
I61
sS'cover'
p61
Vhttps://images.gr-assets.com/books/1450827809l/28269465.jpg
p62
sS'content_cleaned'
p63
I01
sS'classes'
p64
(lp65
Vaudiobook
p66
aVrmfao
p67
aVclassics
p68
aVadventure
p69
aVto-read
p70
asS'loc_class'
p71
VPS: Language and Literatures: American and Canadian literature
p72
sS'n_authors'
p73
I1
sb.