ccopy_reg
_reconstructor
p0
(cdataset.Book
Book
p1
c__builtin__
object
p2
Ntp3
Rp4
(dp5
S'content_name'
p6
V29139.txt.utf-8
p7
sS'isbn'
p8
V3655277083
p9
sS'year'
p10
I1957
sS'author_name'
p11
VM. A. Cummings
p12
sS'images_urls'
p13
(lp14
Vhttp://www.gutenberg.org/files/29139/29139-h/images/001-1.jpg
p15
aVhttp://www.gutenberg.org/files/29139/29139-h/images/001-2.jpg
p16
asS'language_code'
p17
NsS'id'
p18
I799
sS'category'
p19
VText
p20
sS'genres'
p21
(lp22
sS'copyright'
p23
VPublic domain in the USA.
p24
sS'title'
p25
VNo Pets Allowed
p26
sS'wikipedia'
p27
(dp28
S'found'
p29
I00
ssS'average_rating'
p30
F2.9
sS'rating_count'
p31
I16
sS'content_available'
p32
I01
sS'goodreads'
p33
(dp34
S'url'
p35
Vhttps://www.goodreads.com/book/show/12671844-no-pets-allowed
p36
sS'found'
p37
I01
sS'year'
p38
I2010
ssS'similar_books'
p39
(lp40
sS'description'
p41
NsS'format'
p42
NsS'gutenberg'
p43
(dp44
g35
Vhttp://www.gutenberg.org/ebooks/29139
p45
sS'num'
p46
I29139
ssS'authors'
p47
(lp48
I253
asS'isbn13'
p49
V9783655277089
p50
sS'language'
p51
VEnglish
p52
sS'countries'
p53
(lp54
I2
asS'release_date'
p55
S'2009-06-17T00:00:00'
p56
sS'author'
p57
I253
sS'content_cleaned'
p58
I01
sS'classes'
p59
(lp60
Vto-read
p61
aVfiction
p62
aVshort-story
p63
aVscience-fiction
p64
aVsci-fi
p65
aVvintage-sf
p66
aVaudiobooks
p67
aVsfbywomen
p68
aVsf
p69
aVunder-100-readers
p70
aVshort-stories
p71
aVtype-short-story
p72
aVspiiiiiicccccce
p73
asS'loc_class'
p74
VPS: Language and Literatures: American and Canadian literature
p75
sS'n_authors'
p76
I1
sb.