ccopy_reg
_reconstructor
p0
(cdataset.Book
Book
p1
c__builtin__
object
p2
Ntp3
Rp4
(dp5
S'content_name'
p6
V18460.txt.utf-8
p7
sS'isbn'
p8
V1557426643
p9
sS'year'
p10
I2006
sS'author_name'
p11
VH. Beam Piper
p12
sS'images_urls'
p13
(lp14
Vhttp://www.gutenberg.org/files/18460/18460-h/images/ill1.png
p15
aVhttp://www.gutenberg.org/files/18460/18460-h/images/ill2.png
p16
asS'language_code'
p17
NsS'images'
p18
(lp19
sS'id'
p20
I292
sS'category'
p21
VText
p22
sS'genres'
p23
(lp24
sS'copyright'
p25
VPublic domain in the USA.
p26
sS'title'
p27
VFlight From Tomorrow
p28
sS'wikipedia'
p29
(dp30
S'found'
p31
I00
ssS'average_rating'
p32
F3.6
sS'rating_count'
p33
I36
sS'content_available'
p34
I01
sS'goodreads'
p35
(dp36
S'url'
p37
Vhttps://www.goodreads.com/book/show/676226.Flight_from_Tomorrow
p38
sg31
I01
sS'year'
p39
I2006
ssS'similar_books'
p40
(lp41
sS'description'
p42
VFive of H. Beam Piper's classic science fiction stories are collected here, including "Graveyard of Dreams," "Genesis," "Operation R.S.V.P.," "The Answer," and "Flight from Tomorrow."
p43
sS'format'
p44
VPaperback
p45
sS'gutenberg'
p46
(dp47
g37
Vhttp://www.gutenberg.org/ebooks/18460
p48
sS'num'
p49
I18460
ssS'authors'
p50
(lp51
I19
asS'pages'
p52
I112
sS'isbn13'
p53
V9781557426642
p54
sS'language'
p55
VEnglish
p56
sS'release_date'
p57
S'2006-05-27T00:00:00'
p58
sS'author'
p59
I19
sS'content_cleaned'
p60
I01
sS'classes'
p61
(lp62
Vto-read
p63
aVsci-fi
p64
aVscience-fiction
p65
aVshort-stories
p66
aVkindle
p67
aVebooks
p68
aVfiction
p69
aVsf
p70
aVjuly-2017
p71
aVto-read-sci-fic-fantasy
p72
aVz2011
p73
aVtime-travelling
p74
aVe-reader
p75
aVcollected-classics
p76
aVclassic-lit
p77
aVown-audiobook
p78
aVmy-books
p79
aVthe-real-stuff
p80
aVon-disk
p81
aVscifi-fantasy
p82
aVsci-fi-or-speculative
p83
aVhugo-nebula-reading-list
p84
aVto-read-interloan-sd
p85
aVscience
p86
aVpdfs
p87
asS'loc_class'
p88
VPS: Language and Literatures: American and Canadian literature
p89
sS'n_authors'
p90
I1
sb.