ccopy_reg
_reconstructor
p0
(cdataset.Book
Book
p1
c__builtin__
object
p2
Ntp3
Rp4
(dp5
S'similar_books'
p6
(lp7
sS'genres'
p8
(lp9
sS'author'
p10
I918
sS'countries'
p11
(lp12
I2
asS'year'
p13
I1955
sS'title'
p14
VIF Magazine May 1955
p15
sS'cover'
p16
Vhttps://ia600208.us.archive.org/BookReader/BookReaderImages.php?zip=/25/items/1955-05_IF_modified/1955-05_IF_modified_jp2.zip&file=1955-05_IF_modified_jp2/1955-05_IF_modified_0000.jp2&scale=0&rotate=0
p17
sS'cover_art'
p18
S'http://www.isfdb.org/wiki/images/9/9d/WOFIFMAY1955.jpg'
p19
sS'author_name'
p20
VIF Magazine
p21
sS'images_urls'
p22
(lp23
sS'authors'
p24
(lp25
I412
aI956
aI363
aI948
aI326
aI631
aI982
aI55
aI1011
aI1012
aI234
aI609
aI1013
aI918
asS'images'
p26
(lp27
sS'id'
p28
I1244
sS'contents'
p29
(lp30
(dp31
g10
I412
sg14
VThe Strangers
p32
sa(dp33
g10
I412
sg14
VSnowball
p34
sa(dp35
g10
I412
sg14
VWatershed
p36
sa(dp37
g10
I956
sg14
VEasy Does It
p38
sa(dp39
g10
I956
sg14
VThey Were Different
p40
sa(dp41
g10
I363
sg14
VThe Laboratorians
p42
sa(dp43
g10
I363
sg14
VThe Outer Quiet
p44
sa(dp45
g10
I412
sg14
VWitness
p46
sa(dp47
g10
I948
sg14
VA Chat with the Editor (If, May 1955)
p48
sa(dp49
g10
I326
sg14
VWorth Citing (If, May 1955)
p50
sa(dp51
g10
I326
sg14
VWhat Is Your Science I. Q.? (If, May 1955)
p52
sa(dp53
g10
I326
sg14
VScience Briefs (If, May 1955)
p54
sa(dp55
g10
I631
sg14
VEasy Does It
p56
sa(dp57
g10
I982
sg14
VThe Pacifists
p58
sa(dp59
g10
I55
sg14
VWatershed
p60
sa(dp61
g10
I1011
sg14
VThey Were Different
p62
sa(dp63
g10
I1012
sg14
VThe Laboratorians
p64
sa(dp65
g10
I234
sg14
VThe Outer Quiet
p66
sa(dp67
g10
I609
sg14
VWitness
p68
sa(dp69
g10
I1013
sg14
VFirth's World
p70
sasb.