ccopy_reg
_reconstructor
p0
(cdataset.Book
Book
p1
c__builtin__
object
p2
Ntp3
Rp4
(dp5
S'similar_books'
p6
(lp7
sS'genres'
p8
(lp9
sS'author'
p10
I302
sS'countries'
p11
(lp12
I2
asS'year'
p13
I1972
sS'title'
p14
VGalaxy Magazine July 1972
p15
sS'cover'
p16
Vhttps://ia600201.us.archive.org/BookReader/BookReaderImages.php?zip=/17/items/Galaxy_v33n01_1972-07/Galaxy_v33n01_1972-07_jp2.zip&file=Galaxy_v33n01_1972-07_jp2/Galaxy_v33n01_1972-07_0000.jp2&scale=0&rotate=0
p17
sS'cover_art'
p18
S'http://www.isfdb.org/wiki/images/0/05/GALJULAUG72.jpg'
p19
sS'author_name'
p20
VGalaxy Magazine
p21
sS'images_urls'
p22
(lp23
sS'authors'
p24
(lp25
I499
aI326
aI667
aI341
aI668
aI588
aI50
aI709
aI505
aI302
asS'images'
p26
(lp27
sS'id'
p28
I1158
sS'contents'
p29
(lp30
(dp31
g10
I499
sg14
VDying Inside (Part 1 of 2)
p32
sa(dp33
g10
I326
sg14
VFarewell to the Artifacts
p34
sa(dp35
g10
I499
sg14
VSeventy Years of Decpop
p36
sa(dp37
g10
I326
sg14
VWoman's Rib
p38
sa(dp39
g10
I326
sg14
VFor G.O.D.'S Sake
p40
sa(dp41
g10
I667
sg14
VEditor's Page (Galaxy, July-August 1972)
p42
sa(dp43
g10
I326
sg14
VGalaxy Stars (Galaxy, July-August 1972)
p44
sa(dp45
g10
I341
sg14
VGalaxy Bookshelf (Galaxy, July-August 1972)
p46
sa(dp47
g10
I326
sg14
VDirections (Galaxy, July-August 1972)
p48
sa(dp49
g10
I668
sg14
VFor G.O.D.'S Sake
p50
sa(dp51
g10
I588
sg14
VSeventy Years of Decpop
p52
sa(dp53
g10
I50
sg14
VDying Inside (Part 1 of 2)
p54
sa(dp55
g10
I709
sg14
VFarewell to the Artifacts
p56
sa(dp57
g10
I505
sg14
VWoman's Rib
p58
sasb.