ccopy_reg
_reconstructor
p0
(cdataset.Book
Book
p1
c__builtin__
object
p2
Ntp3
Rp4
(dp5
S'similar_books'
p6
(lp7
sS'genres'
p8
(lp9
sS'author'
p10
I302
sS'countries'
p11
(lp12
I2
asS'year'
p13
I1956
sS'title'
p14
VGalaxy Magazine December 1956
p15
sS'cover'
p16
Vhttps://ia600203.us.archive.org/BookReader/BookReaderImages.php?zip=/30/items/Galaxy_v13n02_1956-12/Galaxy_v13n02_1956-12_jp2.zip&file=Galaxy_v13n02_1956-12_jp2/Galaxy_v13n02_1956-12_0000.jp2&scale=0&rotate=0
p17
sS'cover_art'
p18
S'http://www.isfdb.org/wiki/images/d/d7/MLO4432.jpg'
p19
sS'author_name'
p20
VGalaxy Magazine
p21
sS'images_urls'
p22
(lp23
sS'authors'
p24
(lp25
I497
aI499
aI363
aI305
aI339
aI483
aI326
aI23
aI502
aI385
aI98
aI493
aI302
asS'images'
p26
(lp27
sS'id'
p28
I1046
sS'contents'
p29
(lp30
(dp31
S'title'
p32
VThe Native Problem
p33
sS'author'
p34
I497
sa(dp35
g32
VThe Native Problem [2]
p36
sg34
I497
sa(dp37
g32
VThe Native Problem [3]
p38
sg34
I497
sa(dp39
g32
VOf All Possible Worlds
p40
sg34
I499
sa(dp41
g32
VRattle Ok
p42
sg34
I497
sa(dp43
g32
VRattle Ok [2]
p44
sg34
I497
sa(dp45
g32
VRattle Ok [3]
p46
sg34
I497
sa(dp47
g32
VYou Go
p48
sg34
I499
sa(dp49
g32
VThe Stars My Destination (Part 3 of 4)
p50
sg34
I363
sa(dp51
g32
VThe Stars My Destination (Part 3 of 4) [2]
p52
sg34
I363
sa(dp53
g32
VThe Stars My Destination (Part 3 of 4) [3]
p54
sg34
I363
sa(dp55
g32
VThe Stars My Destination (Part 3 of 4) [4]
p56
sg34
I363
sa(dp57
g32
VWax &Amp; Wane
p58
sg34
I305
sa(dp59
g32
VFor Your Information: Tracking Down the "Sea Serpent" - Part I
p60
sg34
I339
sa(dp61
g32
VGalaxy's 5 Star Shelf (Galaxy, December 1956)
p62
sg34
I483
sa(dp63
g32
VForecast (Galaxy, December 1956)
p64
sg34
I326
sa(dp65
g32
VThe Native Problem
p66
sg34
I23
sa(dp67
g32
VRattle Ok
p68
sg34
I502
sa(dp69
g32
VThe Stars My Destination (Part 3 of 4)
p70
sg34
I385
sa(dp71
g32
VOf All Possible Worlds
p72
sg34
I98
sa(dp73
g32
VYou Go
p74
sg34
I493
sasb.