ccopy_reg
_reconstructor
p0
(cdataset.Book
Book
p1
c__builtin__
object
p2
Ntp3
Rp4
(dp5
S'content_name'
p6
V32351.txt.utf-8
p7
sS'isbn'
p8
V0810928868
p9
sS'year'
p10
I-1
sS'author_name'
p11
VStephen Marlowe
p12
sS'images_urls'
p13
(lp14
Vhttp://www.gutenberg.org/files/32351/32351-h/images/cover.jpg
p15
aVhttp://www.gutenberg.org/files/32351/32351-h/images/image_001.jpg
p16
aVhttp://www.gutenberg.org/files/32351/32351-h/images/image_002.jpg
p17
aVhttp://www.gutenberg.org/files/32351/32351-h/images/image_003.jpg
p18
aVhttp://www.gutenberg.org/files/32351/32351-h/images/image_a.jpg
p19
aVhttp://www.gutenberg.org/files/32351/32351-h/images/image_d1.jpg
p20
aVhttp://www.gutenberg.org/files/32351/32351-h/images/image_e.jpg
p21
aVhttp://www.gutenberg.org/files/32351/32351-h/images/image_g1.jpg
p22
aVhttp://www.gutenberg.org/files/32351/32351-h/images/image_h.jpg
p23
aVhttp://www.gutenberg.org/files/32351/32351-h/images/image_h1.jpg
p24
aVhttp://www.gutenberg.org/files/32351/32351-h/images/image_i.jpg
p25
aVhttp://www.gutenberg.org/files/32351/32351-h/images/image_i1.jpg
p26
aVhttp://www.gutenberg.org/files/32351/32351-h/images/image_j.jpg
p27
aVhttp://www.gutenberg.org/files/32351/32351-h/images/image_k1.jpg
p28
aVhttp://www.gutenberg.org/files/32351/32351-h/images/image_m1.jpg
p29
aVhttp://www.gutenberg.org/files/32351/32351-h/images/image_n.jpg
p30
aVhttp://www.gutenberg.org/files/32351/32351-h/images/image_p1.jpg
p31
aVhttp://www.gutenberg.org/files/32351/32351-h/images/image_s.jpg
p32
aVhttp://www.gutenberg.org/files/32351/32351-h/images/image_s1.jpg
p33
aVhttp://www.gutenberg.org/files/32351/32351-h/images/image_t.jpg
p34
aVhttp://www.gutenberg.org/files/32351/32351-h/images/image_w.jpg
p35
aVhttp://www.gutenberg.org/files/32351/32351-h/images/image_w1.jpg
p36
aVhttp://www.gutenberg.org/files/32351/32351-h/images/image_y1.jpg
p37
asS'language_code'
p38
Veng
p39
sS'images'
p40
(lp41
sS'id'
p42
I881
sS'category'
p43
VText
p44
sS'genres'
p45
(lp46
sS'copyright'
p47
VPublic domain in the USA.
p48
sS'title'
p49
VVoyage To Eternity
p50
sS'wikipedia'
p51
(dp52
S'found'
p53
I00
ssS'average_rating'
p54
F3.81
sS'rating_count'
p55
I16
sS'content_available'
p56
I01
sS'cover_art_url'
p57
S'http://www.gutenberg.org/cache/epub/32351/pg32351.cover.medium.jpg'
p58
sS'goodreads'
p59
(dp60
S'url'
p61
Vhttps://www.goodreads.com/book/show/1726988.Mummies
p62
sg53
I01
sS'year'
p63
I-1
ssS'similar_books'
p64
(lp65
sS'description'
p66
VWell-written, loaded with information, and with a rich assortment of illustrations, each Discoveries "RM" volume is a look at one facet of art, archaeology, music, history, philosophy, popular culture, science, or nature. These innovatively designed, affordably priced, compact paperbacks bring ideas to life and amplify our understanding of civilization in a new way.
p67
sS'format'
p68
VPaperback
p69
sS'gutenberg'
p70
(dp71
g61
Vhttp://www.gutenberg.org/ebooks/32351
p72
sS'num'
p73
I32351
ssS'authors'
p74
(lp75
I79
asS'pages'
p76
I127
sS'isbn13'
p77
V9780810928862
p78
sS'language'
p79
VEnglish
p80
sS'country'
p81
I2
sS'release_date'
p82
S'2010-05-12T00:00:00'
p83
sS'author'
p84
I79
sS'content_cleaned'
p85
I01
sS'classes'
p86
(lp87
Vto-read
p88
aVhistory
p89
aVabrams-discoveries
p90
aVancient-egypt
p91
aVnon-fiction
p92
aVown-it
p93
aVwant-to-own
p94
aVnonfict
p95
aVblue-tote-8-mix
p96
aVdecouvertes-gallimard-owned
p97
aVowned
p98
aV\u0411\u0438\u0431\u043b\u0438\u043e\u0442\u0435\u043a\u0430
p99
aVegyptian
p100
aVseries-discoveries
p101
aVscience
p102
aVabrams-discoveries-series
p103
aVex-libris
p104
aVscience-archaeology
p105
aVbooks-i-own
p106
aVhome-library
p107
aVnonfiction
p108
aVegyptology
p109
aVancient-egypt-mummies
p110
aVmummy
p111
aVegypt
p112
aVafrica
p113
aVread-in-2010
p114
aVarchaeology
p115
aVart
p116
aVegyptology--
p117
asS'loc_class'
p118
VPS: Language and Literatures: American and Canadian literature
p119
sS'n_authors'
p120
I1
sb.