ccopy_reg
_reconstructor
p0
(cdataset.Book
Book
p1
c__builtin__
object
p2
Ntp3
Rp4
(dp5
S'content_name'
p6
V19076.txt.utf-8
p7
sS'isbn'
p8
NsS'year'
p9
I1962
sS'author_name'
p10
VH. Beam Piper
p11
sS'images_urls'
p12
(lp13
Vhttp://www.gutenberg.org/files/19076/19076-h/images/image01.png
p14
aVhttp://www.gutenberg.org/files/19076/19076-h/images/image02.jpg
p15
aVhttp://www.gutenberg.org/files/19076/19076-h/images/image09.jpg
p16
aVhttp://www.gutenberg.org/files/19076/19076-h/images/image16.jpg
p17
aVhttp://www.gutenberg.org/files/19076/19076-h/images/image23.png
p18
aVhttp://www.gutenberg.org/files/19076/19076-h/images/image31.jpg
p19
asS'language_code'
p20
NsS'images'
p21
(lp22
sS'id'
p23
I769
sS'category'
p24
VText
p25
sS'genres'
p26
(lp27
sS'copyright'
p28
VPublic domain in the USA.
p29
sS'title'
p30
VNaudsonce
p31
sS'wikipedia'
p32
(dp33
S'found'
p34
I00
ssS'average_rating'
p35
F3.64
sS'rating_count'
p36
I52
sS'content_available'
p37
I01
sS'goodreads'
p38
(dp39
S'url'
p40
Vhttps://www.goodreads.com/book/show/9199290-naudsonce
p41
sg34
I01
sS'year'
p42
I1962
ssS'similar_books'
p43
(lp44
sS'description'
p45
VShort Story originally published in Analog (Jan 1962): <br /><br />The ever expanding Terro-Human Federation which makes first contact with the indigenous peoples of a new world, but for some reason the standard contact methods don't seem to be working.
p46
sS'gutenberg'
p47
(dp48
g40
Vhttp://www.gutenberg.org/ebooks/19076
p49
sS'num'
p50
I19076
ssS'authors'
p51
(lp52
I19
asS'isbn13'
p53
NsS'language'
p54
VEnglish
p55
sS'countries'
p56
(lp57
I2
asS'release_date'
p58
S'2006-08-18T00:00:00'
p59
sS'author'
p60
I19
sS'content_cleaned'
p61
I01
sS'classes'
p62
(lp63
Vto-read
p64
aVscience-fiction
p65
aVcurrently-reading
p66
aVsci-fi
p67
aVsi-fi
p68
aVscifi
p69
aVh-beam-piper
p70
aVshort-stories
p71
aVkindle
p72
aVshort-story
p73
aVgrp-favorites
p74
aVaudio
p75
aVaudiobooks
p76
aVshelfari-e-book
p77
aVfeatured
p78
aV15
p79
aVereader
p80
aVreviewed
p81
aV2015-completed
p82
aVhealth-food-cooking
p83
aVowned
p84
aVebook_only
p85
aVebook
p86
aV2014-reading-list
p87
aVon-disk
p88
aVfiction
p89
aVpodcast
p90
aVlibrivox
p91
aVtero-human-future-history
p92
aVacquired
p93
aVmy-library
p94
aVe-book
p95
aV2015-reading-list
p96
aV2013-reads
p97
asS'loc_class'
p98
VPS: Language and Literatures: American and Canadian literature
p99
sS'n_authors'
p100
I1
sb.