ccopy_reg
_reconstructor
p0
(cdataset.Book
Book
p1
c__builtin__
object
p2
Ntp3
Rp4
(dp5
S'content_name'
p6
V30796.txt.utf-8
p7
sS'isbn'
p8
V0425064662
p9
sS'year'
p10
I1963
sS'author_name'
p11
VBen Bova
p12
sS'images_urls'
p13
(lp14
Vhttp://www.gutenberg.org/files/30796/30796-h/images/image_001.jpg
p15
aVhttp://www.gutenberg.org/files/30796/30796-h/images/image_002.jpg
p16
aVhttp://www.gutenberg.org/files/30796/30796-h/images/image_003.jpg
p17
aVhttp://www.gutenberg.org/files/30796/30796-h/images/image_004.jpg
p18
aVhttp://www.gutenberg.org/files/30796/30796-h/images/image_005.jpg
p19
aVhttp://www.gutenberg.org/files/30796/30796-h/images/image_006.jpg
p20
aVhttp://www.gutenberg.org/files/30796/30796-h/images/image_007.jpg
p21
aVhttp://www.gutenberg.org/files/30796/30796-h/images/image_008.jpg
p22
aVhttp://www.gutenberg.org/files/30796/30796-h/images/image_009.jpg
p23
asS'language_code'
p24
Veng
p25
sS'images'
p26
(lp27
sS'id'
p28
I148
sS'category'
p29
VText
p30
sS'genres'
p31
(lp32
sS'copyright'
p33
VPublic domain in the USA.
p34
sS'title'
p35
VThe Dueling Machine
p36
sS'wikipedia'
p37
(dp38
S'found'
p39
I00
ssS'average_rating'
p40
F3.54
sS'rating_count'
p41
I262
sS'content_available'
p42
I01
sS'goodreads'
p43
(dp44
S'url'
p45
Vhttps://www.goodreads.com/book/show/397658.The_Dueling_Machine
p46
sg39
I01
sS'year'
p47
I1963
ssS'similar_books'
p48
(lp49
VBadge of Infamy
p50
aVLegacy
p51
aVThe Green Odyssey
p52
aVThis Crowded Earth
p53
aVStarman's Quest
p54
aVSpacehounds of IPC
p55
aVPlanet of the Damned
p56
aVOperation: Outer Space
p57
aVCode of the Lifemaker (Code of the Lifemaker, #1)
p58
aVIceworld
p59
aVFall of the White Ship Avatar (Alacrity FitzHugh & Hobart Floyt, #3)
p60
aVThe Status Civilization
p61
aVInvaders from the Infinite
p62
aVThe Preserving Machine
p63
aVEon / Eternity ( The Way, #1,2)
p64
aVBefore the Golden Age: A Science Fiction Anthology of the 1930s
p65
aVA Different Light
p66
aVChildren of the Thunder
p67
asS'description'
p68
NsS'format'
p69
VPaperback
p70
sS'gutenberg'
p71
(dp72
g45
Vhttp://www.gutenberg.org/ebooks/30796
p73
sS'num'
p74
I30796
ssS'authors'
p75
(lp76
I47
aI53
asS'pages'
p77
I256
sS'isbn13'
p78
V9780425064665
p79
sS'language'
p80
VEnglish
p81
sS'country'
p82
I3
sS'release_date'
p83
S'2009-12-29T00:00:00'
p84
sS'author'
p85
I47
sS'content_cleaned'
p86
I01
sS'classes'
p87
(lp88
Vto-read
p89
aVscience-fiction
p90
aVsci-fi
p91
aVowned
p92
aVfiction
p93
aVscifi
p94
aVdefault
p95
aVsf
p96
aVcurrently-reading
p97
aVfavorites
p98
aVaudiobooks
p99
aVfantascienza
p100
aVben-bova
p101
aVscifi-new-wave-1960-1979
p102
aVurania
p103
aVshort-fiction
p104
aVbooks-i-own
p105
aVkindle
p106
aVebook
p107
aVhd
p108
aVshort-stories
p109
aVpublic-domain-science-fiction
p110
aVpublic-domain
p111
aVclassics
p112
aVlibrivox
p113
aVscience
p114
aVhd-to-read
p115
aVon-calibre-to-read
p116
aVowned-to-read
p117
aVmilitary-sf
p118
aVfantasy-scifi
p119
aVzoe
p120
aVphysical
p121
aVbulk-scan
p122
aV20th-century-lit
p123
aVshelf-b-authors
p124
aVgenre-syfi-fan-horr
p125
aVread-in-english
p126
aVaudio-cd
p127
aVurania-s
p128
aVvr-and-ar-in-science-fiction
p129
aVborrowed
p130
aVpulp-fiction
p131
aVold-skool
p132
aVsoft-sci-fi
p133
aVnovella
p134
aVposseduti
p135
aVown-audiobook
p136
aVratbaggy
p137
aVs-f
p138
aVtub-007
p139
aVsf-fantasy
p140
aV20th-century
p141
aVhave
p142
aVaudio-books
p143
aVread-science-fiction
p144
aVto-read-unrated
p145
aVhugo-award-winners
p146
aVapocalyptically-inclined
p147
aV1-100-great-sci-books
p148
aVshort
p149
aVlibrary
p150
aVtaggare
p151
aValready-own-to-read
p152
aVgood-fiction
p153
aVfun-reads
p154
aVhave-audio
p155
aVto-read-ebooks
p156
aVcollection
p157
aVmy-favorites
p158
aVaudiobook
p159
aVmy-collection
p160
aVebooks
p161
aVbest-stories
p162
aVto-buy
p163
aVpaul
p164
aVscience-fiction-and-fantasy
p165
aVhaven-t-read
p166
aVsci-fi-fantasy
p167
aVfill-in-the-gaps-project-100
p168
aVadventure
p169
aVseries
p170
aVscience-fiction-times
p171
aVsci-fi-and-fantasy
p172
aVpaperback
p173
aVebook-kindle-own
p174
aV2013-to-read
p175
aVset-aside
p176
aVowned-by-me
p177
aVlistened-to-cd
p178
aVhave-ebook
p179
aVmisc
p180
aVlocation-sff
p181
aV1
p182
aVbova-ben
p183
aVdo-not-own
p184
aVfamilyroom
p185
aVscience-ficton
p186
aVread70s
p187
aVscifi-fantasy
p188
asS'loc_class'
p189
VPS: Language and Literatures: American and Canadian literature
p190
sS'n_authors'
p191
I2
sb.