ccopy_reg
_reconstructor
p0
(cdataset.Book
Book
p1
c__builtin__
object
p2
Ntp3
Rp4
(dp5
S'similar_books'
p6
(lp7
sS'genres'
p8
(lp9
sS'author'
p10
I302
sS'countries'
p11
(lp12
I2
asS'year'
p13
I1970
sS'title'
p14
VGalaxy Magazine April 1970
p15
sS'cover'
p16
Vhttps://ia600206.us.archive.org/BookReader/BookReaderImages.php?zip=/32/items/Galaxy_v30n01_1970-04/Galaxy_v30n01_1970-04_jp2.zip&file=Galaxy_v30n01_1970-04_jp2/Galaxy_v30n01_1970-04_0000.jp2&scale=0&rotate=0
p17
sS'cover_art'
p18
S'http://www.isfdb.org/wiki/images/4/4a/GALAPR70.jpg'
p19
sS'author_name'
p20
VGalaxy Magazine
p21
sS'images_urls'
p22
(lp23
sS'authors'
p24
(lp25
I499
aI326
aI615
aI667
aI91
aI478
aI675
aI630
aI18
aI50
aI676
aI161
aI302
asS'images'
p26
(lp27
sS'id'
p28
I1140
sS'contents'
p29
(lp30
(dp31
S'title'
p32
VAllison, Carmichael and Tattersall
p33
sS'author'
p34
I499
sa(dp35
g32
VAllison, Carmichael and Tattersall [2]
p36
sg34
I499
sa(dp37
g32
VAllison, Carmichael and Tattersall [3]
p38
sg34
I499
sa(dp39
g32
VDiscover a Latent Moses
p40
sg34
I499
sa(dp41
g32
VDiscover a Latent Moses [2]
p42
sg34
I499
sa(dp43
g32
VThe Tower of Glass (Part 1 of 3)
p44
sg34
I499
sa(dp45
g32
VThe Tower of Glass (Part 1 of 3) [2]
p46
sg34
I499
sa(dp47
g32
VDarwin, in the Fields
p48
sg34
I326
sa(dp49
g32
VThe Rub
p50
sg34
I499
sa(dp51
g32
VSunpot (Part 3 of 4)
p52
sg34
I615
sa(dp53
g32
VNo Planet Like Home
p54
sg34
I499
sa(dp55
g32
VKindergarten
p56
sg34
I499
sa(dp57
g32
VKindergarten [2]
p58
sg34
I499
sa(dp59
g32
VOn Genetics and Consensus
p60
sg34
I667
sa(dp61
g32
VGalaxy Bookshelf (Galaxy, April 1970)
p62
sg34
I91
sa(dp63
g32
VAllison, Carmichael and Tattersall
p64
sg34
I478
sa(dp65
g32
VDiscover a Latent Moses
p66
sg34
I675
sa(dp67
g32
VThe Rub
p68
sg34
I630
sa(dp69
g32
VDarwin, the Curious
p70
sg34
I18
sa(dp71
g32
VDarwin, in the Fields
p72
sg34
I18
sa(dp73
g32
VDarwin, Wandering Home at Dawn
p74
sg34
I18
sa(dp75
g32
VThe Tower of Glass (Part 1 of 3)
p76
sg34
I50
sa(dp77
g32
VNo Planet Like Home
p78
sg34
I676
sa(dp79
g32
VKindergarten
p80
sg34
I161
sasb.