ccopy_reg
_reconstructor
p0
(cdataset.Book
Book
p1
c__builtin__
object
p2
Ntp3
Rp4
(dp5
S'content_name'
p6
V26292.txt.utf-8
p7
sS'isbn'
p8
NsS'year'
p9
I2008
sS'author_name'
p10
VJames H. Schmitz
p11
sS'images_urls'
p12
(lp13
Vhttp://www.gutenberg.org/files/26292/26292-h/images/001.png
p14
aVhttp://www.gutenberg.org/files/26292/26292-h/images/002.png
p15
aVhttp://www.gutenberg.org/files/26292/26292-page-images/p048-insert.png
p16
aVhttp://www.gutenberg.org/files/26292/26292-page-images/p048.png
p17
aVhttp://www.gutenberg.org/files/26292/26292-page-images/p050.png
p18
aVhttp://www.gutenberg.org/files/26292/26292-page-images/p051.png
p19
aVhttp://www.gutenberg.org/files/26292/26292-page-images/p052.png
p20
aVhttp://www.gutenberg.org/files/26292/26292-page-images/p053.png
p21
aVhttp://www.gutenberg.org/files/26292/26292-page-images/p054.png
p22
aVhttp://www.gutenberg.org/files/26292/26292-page-images/p055.png
p23
aVhttp://www.gutenberg.org/files/26292/26292-page-images/p056.png
p24
aVhttp://www.gutenberg.org/files/26292/26292-page-images/p057.png
p25
aVhttp://www.gutenberg.org/files/26292/26292-page-images/p058.png
p26
aVhttp://www.gutenberg.org/files/26292/26292-page-images/p059.png
p27
aVhttp://www.gutenberg.org/files/26292/26292-page-images/p060.png
p28
aVhttp://www.gutenberg.org/files/26292/26292-page-images/p061.png
p29
aVhttp://www.gutenberg.org/files/26292/26292-page-images/p062.png
p30
aVhttp://www.gutenberg.org/files/26292/26292-page-images/p063.png
p31
aVhttp://www.gutenberg.org/files/26292/26292-page-images/p064-insert.png
p32
aVhttp://www.gutenberg.org/files/26292/26292-page-images/p064.png
p33
aVhttp://www.gutenberg.org/files/26292/26292-page-images/p065.png
p34
aVhttp://www.gutenberg.org/files/26292/26292-page-images/p066.png
p35
aVhttp://www.gutenberg.org/files/26292/26292-page-images/p067.png
p36
aVhttp://www.gutenberg.org/files/26292/26292-page-images/p068.png
p37
aVhttp://www.gutenberg.org/files/26292/26292-page-images/p069.png
p38
aVhttp://www.gutenberg.org/files/26292/26292-page-images/p070.png
p39
aVhttp://www.gutenberg.org/files/26292/26292-page-images/p071.png
p40
aVhttp://www.gutenberg.org/files/26292/26292-page-images/p072.png
p41
aVhttp://www.gutenberg.org/files/26292/26292-page-images/p073.png
p42
aVhttp://www.gutenberg.org/files/26292/26292-page-images/p074.png
p43
aVhttp://www.gutenberg.org/files/26292/26292-page-images/p075.png
p44
aVhttp://www.gutenberg.org/files/26292/26292-page-images/p076.png
p45
aVhttp://www.gutenberg.org/files/26292/26292-page-images/p077.png
p46
aVhttp://www.gutenberg.org/files/26292/26292-page-images/p078.png
p47
aVhttp://www.gutenberg.org/files/26292/26292-page-images/p079.png
p48
aVhttp://www.gutenberg.org/files/26292/26292-page-images/p080.png
p49
aVhttp://www.gutenberg.org/files/26292/26292-page-images/p081.png
p50
aVhttp://www.gutenberg.org/files/26292/26292-page-images/p082.png
p51
aVhttp://www.gutenberg.org/files/26292/26292-page-images/p083.png
p52
aVhttp://www.gutenberg.org/files/26292/26292-page-images/p084.png
p53
aVhttp://www.gutenberg.org/files/26292/26292-page-images/p085.png
p54
aVhttp://www.gutenberg.org/files/26292/26292-page-images/p086.png
p55
aVhttp://www.gutenberg.org/files/26292/26292-page-images/p087.png
p56
aVhttp://www.gutenberg.org/files/26292/26292-page-images/p088.png
p57
asS'language_code'
p58
NsS'images'
p59
(lp60
sS'id'
p61
I650
sS'category'
p62
VText
p63
sS'genres'
p64
(lp65
sS'copyright'
p66
VPublic domain in the USA.
p67
sS'title'
p68
VThe Star Hyacinths
p69
sS'wikipedia'
p70
(dp71
S'found'
p72
I00
ssS'average_rating'
p73
F4.19
sS'rating_count'
p74
I15
sS'content_available'
p75
I01
sS'goodreads'
p76
(dp77
S'url'
p78
Vhttps://www.goodreads.com/book/show/6329000-the-star-hyacinths
p79
sg72
I01
sS'year'
p80
I2008
ssS'similar_books'
p81
(lp82
sS'description'
p83
NsS'format'
p84
NsS'gutenberg'
p85
(dp86
g78
Vhttp://www.gutenberg.org/ebooks/26292
p87
sS'num'
p88
I26292
ssS'authors'
p89
(lp90
I136
asS'isbn13'
p91
NsS'language'
p92
VEnglish
p93
sS'release_date'
p94
S'2008-08-12T00:00:00'
p95
sS'author'
p96
I136
sS'content_cleaned'
p97
I01
sS'classes'
p98
(lp99
Vto-read
p100
aVscience-fiction
p101
aVcurrently-reading
p102
aVsci-fi
p103
aVfree-from-amazon
p104
aVclassic
p105
aV21st-century-lit
p106
aVspace-opera
p107
aVshort-stories
p108
aVfiction
p109
aVfavorite-sci-fi
p110
aVhd
p111
aVsf-f
p112
asS'loc_class'
p113
VPS: Language and Literatures: American and Canadian literature
p114
sS'n_authors'
p115
I1
sb.