ccopy_reg
_reconstructor
p0
(cdataset.Book
Book
p1
c__builtin__
object
p2
Ntp3
Rp4
(dp5
S'content_name'
p6
V50863.txt.utf-8
p7
sS'isbn'
p8
V1940812658
p9
sS'year'
p10
I2005
sS'author_name'
p11
VE. Everett Evans
p12
sS'images_urls'
p13
(lp14
Vhttp://www.gutenberg.org/files/50863/50863-h/images/cover.jpg
p15
asS'language_code'
p16
Veng
p17
sS'images'
p18
(lp19
sS'id'
p20
I502
sS'category'
p21
VText
p22
sS'genres'
p23
(lp24
sS'copyright'
p25
VPublic domain in the USA.
p26
sS'title'
p27
VAlien Minds
p28
sS'wikipedia'
p29
(dp30
S'url'
p31
Vhttps://en.wikipedia.org/wiki/Alien_Minds
p32
sS'found'
p33
I01
sS'year'
p34
I-1
ssS'published_in'
p35
NsS'average_rating'
p36
F4.53
sS'rating_count'
p37
I5
sS'content_available'
p38
I01
sS'cover_art_url'
p39
S'http://www.gutenberg.org/cache/epub/50863/pg50863.cover.medium.jpg'
p40
sS'goodreads'
p41
(dp42
g31
Vhttps://www.goodreads.com/book/show/23350290-the-alien-mind
p43
sg33
I01
sg34
I2005
ssS'similar_books'
p44
(lp45
sS'description'
p46
VWhen a group of aliens called the <b>Aruk</b> abduct Young <b>Rivinaig </b>and several other children, they are thrown into the <i>adventure of a lifetime</i>. The <b>Aunantet</b>, a benevolent race of aliens, rescue the children and adopt them into their culture and raised them as if they belong. <br /><br />The children's new families teach them how to harness the full capacity of their minds, <i>enabling them to defy the laws of physics and develop special mental abilities</i>.<br /><br />The past returns to haunt them as the <b>Aruk</b> plot revenge and regain control of their former captives. <i>The fate of the entire galaxy depends on whether the children can maintain their freedom.</i>
p47
sS'format'
p48
VPaperback
p49
sS'gutenberg'
p50
(dp51
g31
Vhttp://www.gutenberg.org/ebooks/50863
p52
sS'num'
p53
I50863
ssS'authors'
p54
(lp55
I38
asS'pages'
p56
I192
sS'isbn13'
p57
V9781940812656
p58
sS'language'
p59
VEnglish
p60
sS'country'
p61
I2
sS'release_date'
p62
S'2016-01-07T00:00:00'
p63
sS'author'
p64
I38
sS'original_title'
p65
VAlien Minds
p66
sS'summary'
p67
VAlien Minds is a science fiction novel by author E. Everett Evans. It was first published in 1955 by Fantasy Press in an edition of 1,417 copies. The book is a sequel to Man of Many Minds
p68
sS'content_cleaned'
p69
I01
sS'classes'
p70
(lp71
Vto-read
p72
aVscience-fiction
p73
aVsci-fi
p74
aVgiveaway
p75
aV6th-grade-fiction
p76
aVmiddle-grade
p77
aVsummer-reading-2016
p78
aVfavorite-books
p79
aVspeculative-fiction
p80
aVscience-fiction-for-teens
p81
aVmiddle-grade-science-fiction
p82
aVnot-interested
p83
aVyoung-adult
p84
aVsuspense
p85
aVscifi-fantasy
p86
aVrelationships
p87
aVparanormal
p88
aVhorror
p89
aVcoming-of-age
p90
aVya
p91
aVwomen-authors
p92
aVkindle
p93
aVto-read-may-be-at-some-time
p94
aVsf_space
p95
aVsf
p96
aVdaddy-dark-s-baby-warrior-list
p97
aV4-5
p98
aVlisa
p99
aVcurrently-reading
p100
aVtop-shelf
p101
asS'loc_class'
p102
S''
p103
sS'n_authors'
p104
I1
sb.