ccopy_reg
_reconstructor
p0
(cdataset.Book
Book
p1
c__builtin__
object
p2
Ntp3
Rp4
(dp5
S'content_name'
p6
V30828.txt.utf-8
p7
sS'isbn'
p8
V0140283358
p9
sS'year'
p10
I1980
sS'author_name'
p11
VAlgis Budrys
p12
sS'images_urls'
p13
(lp14
Vhttp://www.gutenberg.org/files/30828/30828-h/images/001.png
p15
aVhttp://www.gutenberg.org/files/30828/30828-h/images/002-1.jpg
p16
aVhttp://www.gutenberg.org/files/30828/30828-h/images/002-2.jpg
p17
asS'language_code'
p18
Veng
p19
sS'images'
p20
(lp21
sS'id'
p22
I279
sS'category'
p23
VText
p24
sS'genres'
p25
(lp26
sS'copyright'
p27
VPublic domain in the USA.
p28
sS'title'
p29
VThe Barbarians
p30
sS'wikipedia'
p31
(dp32
S'found'
p33
I00
ssS'average_rating'
p34
F3.94
sS'rating_count'
p35
I14857
sS'content_available'
p36
I01
sS'goodreads'
p37
(dp38
S'url'
p39
Vhttps://www.goodreads.com/book/show/6194.Waiting_for_the_Barbarians
p40
sg33
I01
sS'year'
p41
I1980
ssS'similar_books'
p42
(lp43
VJuly's People
p44
aVThe Bottle Factory Outing
p45
aVA Bend in the River
p46
aVThe Grass is Singing
p47
aVDeath and the King's Horseman: A Play
p48
aVSybil, or the Two Nations
p49
aVThe Black Sheep
p50
aVOn Another Man's Wound
p51
aVThe Good Doctor
p52
aVThe Heart of Redness
p53
aVOmeros
p54
aVUSA: The 42nd Parallel / 1919 / The Big Money
p55
aVGod's Bits of Wood
p56
aVNervous Conditions
p57
aVMrs. Palfrey at the Claremont
p58
aVA Dry White Season
p59
aVNightmare Abbey
p60
aVLanark
p61
asS'description'
p62
VFor decades the Magistrate has run the affairs of a tiny frontier settlement, ignoring the impending war between the barbarians and the Empire, whose servant he is. But when the interrogation experts arrive, he is jolted into sympathy for the victims, and into a quixotic act of rebellion which lands him in prison.
p63
sS'format'
p64
VPaperback
p65
sS'gutenberg'
p66
(dp67
g39
Vhttp://www.gutenberg.org/ebooks/30828
p68
sS'num'
p69
I30828
ssS'authors'
p70
(lp71
I91
asS'pages'
p72
I152
sS'isbn13'
p73
V9780140283358
p74
sS'language'
p75
VEnglish
p76
sS'release_date'
p77
S'2010-01-02T00:00:00'
p78
sS'author'
p79
I91
sS'content_cleaned'
p80
I01
sS'classes'
p81
(lp82
Vto-read
p83
aVfiction
p84
aVfavorites
p85
aVafrica
p86
aV1001-books
p87
aVliterature
p88
aVnovels
p89
aVsouth-africa
p90
aVowned
p91
aV1001
p92
aVhistorical-fiction
p93
aVbooks-i-own
p94
aVcurrently-reading
p95
aVafrican-literature
p96
aVafrican
p97
aV1001-books-to-read-before-you-die
p98
aVcontemporary
p99
aVnobel-prize
p100
aVnovel
p101
aVschool
p102
aVnobel
p103
aVclassics
p104
aV1001-import
p105
aVnobel-laureates
p106
aVto-buy
p107
aVsouth-african
p108
aV20th-century
p109
aVcontemporary-fiction
p110
aVlibrary
p111
aVwish-list
p112
aV\u0631\u0648\u0627\u064a\u0627\u062a
p113
aVwar
p114
aV1001-books-to-read
p115
aVbook-club
p116
aVsouth-african-literature
p117
aVliterary-fiction
p118
aVcolonialism
p119
aVcoetzee
p120
aVenglish
p121
aVafrican-lit
p122
aV1980s
p123
aVliterary
p124
aVdefault
p125
aVgeneral-fiction
p126
aVpostcolonial
p127
aVfavourites
p128
aVowned-books
p129
aVclassic
p130
aVto-read-fiction
p131
aV1001-books-you-must-read-before-you
p132
aVdystopia
p133
aVadult-fiction
p134
aV1001-to-read
p135
aVhistory
p136
aVnobel-prize-winners
p137
aVebook
p138
aVpost-colonial
p139
aVread-for-school
p140
aVj-m-coetzee
p141
aVhistorical
p142
aVfor-school
p143
aVnobel-laureate
p144
aVdystopian
p145
aVmy-library
p146
aVmodern-fiction
p147
aVebooks
p148
aVuni
p149
aVcollege
p150
aVadult
p151
aVread-in-2014
p152
aVread-in-2013
p153
aVenglish-literature
p154
aVworld-literature
p155
aVhome-library
p156
aVuniversity
p157
aVread-in-2015
p158
aVshort
p159
aVpdf
p160
aVe-book
p161
aVbookclub
p162
aV1980
p163
aVguardian-1000
p164
aVbooks
p165
aV1900s
p166
aVto-re-read
p167
aVgrad-school
p168
aVliteratuur
p169
aVnarrativa
p170
aVracism
p171
aVunread
p172
aVre-read
p173
aVmodern
p174
aVunfinished
p175
aVabandoned
p176
aVworld-lit
p177
aVdrama
p178
aVroman
p179
aVto-get
p180
aVpostcolonial-lit
p181
aVcultural
p182
asS'loc_class'
p183
VPS: Language and Literatures: American and Canadian literature
p184
sS'n_authors'
p185
I1
sb.