ccopy_reg
_reconstructor
p0
(cdataset.Book
Book
p1
c__builtin__
object
p2
Ntp3
Rp4
(dp5
S'content_name'
p6
V23148.txt.utf-8
p7
sS'isbn'
p8
NsS'year'
p9
I1962
sS'author_name'
p10
VFrank Banta
p11
sS'images_urls'
p12
(lp13
Vhttp://www.gutenberg.org/files/23148/23148-h/images/gd62001.png
p14
aVhttp://www.gutenberg.org/files/23148/23148-h/images/gd62070i.png
p15
aVhttp://www.gutenberg.org/files/23148/23148-h/images/gd62071i.png
p16
aVhttp://www.gutenberg.org/files/23148/23148-page-images/c001.jpg
p17
aVhttp://www.gutenberg.org/files/23148/23148-page-images/p070.png
p18
aVhttp://www.gutenberg.org/files/23148/23148-page-images/p071.png
p19
aVhttp://www.gutenberg.org/files/23148/23148-page-images/p072.png
p20
aVhttp://www.gutenberg.org/files/23148/23148-page-images/p073.png
p21
aVhttp://www.gutenberg.org/files/23148/23148-page-images/p074.png
p22
aVhttp://www.gutenberg.org/files/23148/23148-page-images/p075.png
p23
aVhttp://www.gutenberg.org/files/23148/23148-page-images/p076.png
p24
aVhttp://www.gutenberg.org/files/23148/23148-page-images/p077.png
p25
asS'language_code'
p26
Veng
p27
sS'images'
p28
(lp29
sS'id'
p30
I739
sS'category'
p31
VText
p32
sS'genres'
p33
(lp34
sS'copyright'
p35
VPublic domain in the USA.
p36
sS'title'
p37
VDroozle
p38
sS'wikipedia'
p39
(dp40
S'found'
p41
I00
ssS'average_rating'
p42
F3.24
sS'rating_count'
p43
I18
sS'content_available'
p44
I01
sS'goodreads'
p45
(dp46
S'url'
p47
Vhttps://www.goodreads.com/book/show/16120850-droozle
p48
sg41
I01
sS'year'
p49
I2009
ssS'similar_books'
p50
(lp51
sS'description'
p52
VDroozle was probably the greatest writer in the world - any world!
p53
sS'gutenberg'
p54
(dp55
g47
Vhttp://www.gutenberg.org/ebooks/23148
p56
sS'num'
p57
I23148
ssS'authors'
p58
(lp59
I229
asS'isbn13'
p60
NsS'language'
p61
VEnglish
p62
sS'countries'
p63
(lp64
I3
asS'release_date'
p65
S'2007-10-22T00:00:00'
p66
sS'author'
p67
I229
sS'content_cleaned'
p68
I01
sS'classes'
p69
(lp70
Vto-read
p71
aVscience-fiction
p72
aVshort-stories
p73
aVsci-fi
p74
aVbooks
p75
aVshort-story
p76
aV15
p77
aVowned
p78
aV1960s
p79
aVkindle
p80
aVgutenberg
p81
aVcurrently-reading
p82
aVtype-short-story
p83
asS'loc_class'
p84
VPS: Language and Literatures: American and Canadian literature
p85
sS'n_authors'
p86
I1
sb.