ccopy_reg
_reconstructor
p0
(cdataset.Book
Book
p1
c__builtin__
object
p2
Ntp3
Rp4
(dp5
S'content_name'
p6
V5703.txt.utf-8
p7
sS'isbn'
p8
NsS'year'
p9
I1919
sS'author_name'
p10
VHomer Eon Flint
p11
sS'images_urls'
p12
(lp13
sS'language_code'
p14
NsS'images'
p15
(lp16
sS'id'
p17
I852
sS'category'
p18
VText
p19
sS'genres'
p20
(lp21
sS'copyright'
p22
VPublic domain in the USA.
p23
sS'title'
p24
VThe Lord of Death and the Queen of Life
p25
sS'wikipedia'
p26
(dp27
S'found'
p28
I00
ssS'average_rating'
p29
F3.71
sS'rating_count'
p30
I12
sS'content_available'
p31
I01
sS'goodreads'
p32
(dp33
S'url'
p34
Vhttps://www.goodreads.com/book/show/6328774-the-lord-of-death-and-the-queen-of-life
p35
sg28
I01
sS'year'
p36
I1919
ssS'similar_books'
p37
(lp38
sS'description'
p39
VWere Adam and Eve extra-terrestrials?<br /><br />First published in 1919 and read by over four million readers, The Lord of Death/The Queen of Life showcases speculative fiction author Homer Eon Flint\u2019s interest in the Darwinian rule, Survival of the Fittest. <br /><br />In The Lord of Death, four scientists, aided by reverse-magnetism, travel to a dead planet where they discover that one human\u2019s lust for power destroyed all life there\u2014except for him. In suspended animation, he awaits the newcomers.<br /><br />In The Queen of Life, (considered a feminist tale) the scientists (one has revealed herself as a woman) travel to a planet encased in a glass sphere to protect the overpopulated planet from the sun\u2019s radiation. Conflict leads to a riot.
p40
sS'format'
p41
Vebook
p42
sS'gutenberg'
p43
(dp44
g34
Vhttp://www.gutenberg.org/ebooks/5703
p45
sS'num'
p46
I5703
ssS'authors'
p47
(lp48
I190
asS'isbn13'
p49
V9781619372474
p50
sS'language'
p51
VEnglish
p52
sS'country'
p53
I2
sS'release_date'
p54
S'2004-05-01T00:00:00'
p55
sS'author'
p56
I190
sS'content_cleaned'
p57
I00
sS'classes'
p58
(lp59
Vto-read
p60
aVcurrently-reading
p61
aVscience-fiction
p62
aVsf
p63
aVhomer-eon-flint
p64
aVsomeday
p65
aV_fun-stuff
p66
aVe-books
p67
aVscifi
p68
aVclassics
p69
aVadventure
p70
aV1900-1950
p71
aVsci-fi
p72
aVowned
p73
aVfantasy-science-fiction
p74
aVlibrary
p75
aVgeneral-fiction
p76
asS'loc_class'
p77
VPS: Language and Literatures: American and Canadian literature
p78
sS'n_authors'
p79
I1
sb.