ccopy_reg
_reconstructor
p0
(cdataset.Book
Book
p1
c__builtin__
object
p2
Ntp3
Rp4
(dp5
S'content_name'
p6
V30267.txt.utf-8
p7
sS'isbn'
p8
NsS'year'
p9
I1961
sS'author_name'
p10
VT. R. Fehrenbach
p11
sS'images_urls'
p12
(lp13
Vhttp://www.gutenberg.org/files/30267/30267-h/images/image_001_01.jpg
p14
aVhttp://www.gutenberg.org/files/30267/30267-h/images/image_001_02.jpg
p15
aVhttp://www.gutenberg.org/files/30267/30267-h/images/image_o.jpg
p16
aVhttp://www.gutenberg.org/files/30267/30267-h/images/image_s.jpg
p17
aVhttp://www.gutenberg.org/files/30267/30267-h/images/image_t.jpg
p18
asS'language_code'
p19
Veng
p20
sS'images'
p21
(lp22
sS'id'
p23
I617
sS'category'
p24
VText
p25
sS'genres'
p26
(lp27
sS'copyright'
p28
VPublic domain in the USA.
p29
sS'title'
p30
VRemember the Alamo!
p31
sS'wikipedia'
p32
(dp33
S'found'
p34
I00
ssS'average_rating'
p35
F4.26
sS'rating_count'
p36
I8
sS'content_available'
p37
I01
sS'goodreads'
p38
(dp39
S'url'
p40
S'https://www.goodreads.com/book/show/17910824-remember-the-alamo'
p41
sS'found'
p42
I01
ssS'similar_books'
p43
(lp44
sS'description'
p45
V<b> THIS IS, I THINK, ONE OF THE MOST POWERFUL COMMENTS ON THE MODERN SOCIAL PHILOSOPHY I HAVE SEEN\u2014A REALLY BLOOD-CHILLING LITTLE TALE.... </b><br /><br /><i>Science Fiction </i>(Alternate Timeline)<br /><br />Play Duration: 00:32:42 <br />Public Domain stories from Project Gutenberg, that are read by volunteers. <br />First published in <i>\u201dAnalog Science Fact &amp; Fiction\u201d</i> <br /><br /><b>Free download from LibriVox.org</b> <br />(click on the url in the details below)
p46
sS'gutenberg'
p47
(dp48
S'url'
p49
Vhttp://www.gutenberg.org/ebooks/30267
p50
sS'num'
p51
I30267
ssS'authors'
p52
(lp53
I207
asS'isbn13'
p54
NsS'language'
p55
VEnglish
p56
sS'countries'
p57
(lp58
I2
asS'release_date'
p59
S'2009-10-16T00:00:00'
p60
sS'author'
p61
I207
sS'cover'
p62
Vhttps://s.gr-assets.com/assets/nophoto/book/111x148-bcc042a9c91a29c1d680899eff700a03.png
p63
sS'content_cleaned'
p64
I01
sS'classes'
p65
(lp66
Vto-read
p67
aVebook
p68
aVhistory-to-read
p69
aVscience-fiction
p70
aVshort-story
p71
aVaudio-obtained-lvss
p72
aVread-in-2015
p73
aVon-calibre
p74
aVsci-fi
p75
aVread-in-2016
p76
aVtype-short-story
p77
aVaudio-obtained-ss
p78
asS'loc_class'
p79
VPS: Language and Literatures: American and Canadian literature
p80
sS'n_authors'
p81
I1
sb.