ccopy_reg
_reconstructor
p0
(cdataset.Book
Book
p1
c__builtin__
object
p2
Ntp3
Rp4
(dp5
S'similar_books'
p6
(lp7
sS'genres'
p8
(lp9
sS'author'
p10
I302
sS'countries'
p11
(lp12
I2
asS'year'
p13
I1957
sS'title'
p14
VGalaxy Magazine September 1957
p15
sS'cover'
p16
Vhttps://ia600207.us.archive.org/BookReader/BookReaderImages.php?zip=/17/items/Galaxy_v14n05_1957-09/Galaxy_v14n05_1957-09_jp2.zip&file=Galaxy_v14n05_1957-09_jp2/Galaxy_v14n05_1957-09_0000.jp2&scale=0&rotate=0
p17
sS'cover_art'
p18
S'http://www.isfdb.org/wiki/images/8/84/MLO4441.jpg'
p19
sS'author_name'
p20
VGalaxy Magazine
p21
sS'images_urls'
p22
(lp23
sS'authors'
p24
(lp25
I519
aI515
aI504
aI506
aI305
aI339
aI483
aI341
aI387
aI56
aI520
aI98
aI302
asS'images'
p26
(lp27
sS'id'
p28
I1055
sS'contents'
p29
(lp30
(dp31
S'title'
p32
VThe Pod in the Barrier
p33
sS'author'
p34
I519
sa(dp35
g32
VThe Pod in the Barrier [2]
p36
sg34
I519
sa(dp37
g32
VThe Pod in the Barrier [3]
p38
sg34
I519
sa(dp39
g32
VDoat Age
p40
sg34
I515
sa(dp41
g32
VThe Sly Bungerhop
p42
sg34
I504
sa(dp43
g32
VThe Sly Bungerhop [2]
p44
sg34
I504
sa(dp45
g32
VThe Sly Bungerhop [3]
p46
sg34
I504
sa(dp47
g32
VThe Dark Star
p48
sg34
I506
sa(dp49
g32
VShadow World
p50
sg34
I506
sa(dp51
g32
VShadow World [2]
p52
sg34
I506
sa(dp53
g32
VShadow World [3]
p54
sg34
I506
sa(dp55
g32
VMea Culpa
p56
sg34
I305
sa(dp57
g32
VFor Your Information: The Earliest Robot
p58
sg34
I339
sa(dp59
g32
VGalaxy's 5 Star Shelf (Galaxy, September 1957)
p60
sg34
I483
sa(dp61
g32
VThe Pod in the Barrier
p62
sg34
I341
sa(dp63
g32
VThe Sly Bungerhop
p64
sg34
I387
sa(dp65
g32
VShadow World
p66
sg34
I56
sa(dp67
g32
VDoat Age
p68
sg34
I520
sa(dp69
g32
VThe Dark Star
p70
sg34
I98
sasb.