ccopy_reg
_reconstructor
p0
(cdataset.Book
Book
p1
c__builtin__
object
p2
Ntp3
Rp4
(dp5
S'content_name'
p6
V24035.txt.utf-8
p7
sS'isbn'
p8
NsS'year'
p9
I1959
sS'author_name'
p10
VMurray Leinster
p11
sS'images_urls'
p12
(lp13
Vhttp://www.gutenberg.org/files/24035/24035-h/images/cover.jpg
p14
aVhttp://www.gutenberg.org/files/24035/24035-h/images/image-4.png
p15
aVhttp://www.gutenberg.org/files/24035/24035-h/images/image-5.png
p16
aVhttp://www.gutenberg.org/files/24035/24035-h/images/image-6.png
p17
aVhttp://www.gutenberg.org/files/24035/24035-h/images/image-7.png
p18
aVhttp://www.gutenberg.org/files/24035/24035-h/images/image-8.png
p19
aVhttp://www.gutenberg.org/files/24035/24035-h/images/image-9.png
p20
aVhttp://www.gutenberg.org/files/24035/24035-h/images/image-10.png
p21
aVhttp://www.gutenberg.org/files/24035/24035-h/images/image-11.png
p22
aVhttp://www.gutenberg.org/files/24035/24035-h/images/image-12.png
p23
aVhttp://www.gutenberg.org/files/24035/24035-h/images/image-13.png
p24
aVhttp://www.gutenberg.org/files/24035/24035-h/images/image-14.png
p25
aVhttp://www.gutenberg.org/files/24035/24035-h/images/image-15.png
p26
aVhttp://www.gutenberg.org/files/24035/24035-h/images/title.png
p27
asS'language_code'
p28
Veng
p29
sS'images'
p30
(lp31
sS'id'
p32
I179
sS'category'
p33
VText
p34
sS'genres'
p35
(lp36
sS'copyright'
p37
VPublic domain in the USA.
p38
sS'title'
p39
VThe Pirates of Ersatz
p40
sS'wikipedia'
p41
(dp42
S'url'
p43
Vhttps://en.wikipedia.org/wiki/The_Pirates_of_Zan
p44
sS'found'
p45
I01
sS'year'
p46
I-1
ssS'published_in'
p47
NsS'average_rating'
p48
F3.63
sS'rating_count'
p49
I84
sS'content_available'
p50
I01
sS'cover_art_url'
p51
S'http://www.gutenberg.org/cache/epub/24035/pg24035.cover.medium.jpg'
p52
sS'goodreads'
p53
(dp54
g43
Vhttps://www.goodreads.com/book/show/358766.The_Pirates_of_Ersatz
p55
sg45
I01
sg46
I1959
ssS'similar_books'
p56
(lp57
VThe Whole Man
p58
aVThe Enemy Stars
p59
aVThe Planet Buyer
p60
aVBrain Twister
p61
aVDay of the Minotaur
p62
aVWho?
p63
aVDavy
p64
aVThe Butterfly Kid
p65
aVDark Universe
p66
aVImmortality, Inc.
p67
aVStar Light
p68
aVPlanet of the Damned
p69
aVThorns
p70
aVThe Ragged Astronauts (Land and Overland Series, #1)
p71
aVTime Is the Simplest Thing
p72
aVPast Master
p73
aVVenus Plus X
p74
aVCourtship Rite
p75
asS'description'
p76
VBron is the offspring of infamous space pirates but instead of following in the family footsteps he decides to become an electronic engineer. Unfortunately, every time he tries to get out, something pulls him back in. This is a tongue-in-cheek space adventure along the lines of the Stainless Steel Rat by Harry Harrison. It was originally published in the FEB-APR issues of Astounding Science Fiction in 1959. <br />(Read by Elliott Miller)<br /><br />Approx. 6.25 hours
p77
sS'format'
p78
VAudiobook
p79
sS'gutenberg'
p80
(dp81
g43
Vhttp://www.gutenberg.org/ebooks/24035
p82
sS'num'
p83
I24035
ssS'authors'
p84
(lp85
I61
asS'isbn13'
p86
NsS'language'
p87
VEnglish
p88
sS'release_date'
p89
S'2007-12-26T00:00:00'
p90
sS'author'
p91
I61
sS'original_title'
p92
VThe Pirates of Zan
p93
sS'summary'
p94
VThe Pirates of Zan is a science fiction novel by Murray Leinster, originally serialized in Astounding Science Fiction in 1959 as "The Pirates of Ersatz". It was nominated for the 1960 Hugo Award for Best Novel. It first appeared in book form in 1959 as one component of an Ace Double, bound with Leinster's The Mutant Weapon; this edition was reissued in 1971. A German translation was issued in hardcover in 1962, an Italian translation appeared in 1968, and a Dutch translation was published in 1972. Bart Books published a stand-alone American paperback edition in 1989. and Baen Books included Pirates in a Leinster omnibus, A Logic Named Joe, in 2005.
p95
sS'content_cleaned'
p96
I01
sS'classes'
p97
(lp98
Vto-read
p99
aVscience-fiction
p100
aVsci-fi
p101
aVsf
p102
aVfiction
p103
aVscifi
p104
aVadventure
p105
aVpirates
p106
aVowned
p107
aVhugo-nominees
p108
aVhugo-award
p109
aVcurrently-reading
p110
aVto-read-sf
p111
aVaudiobooks
p112
aVhugo-award-nominees
p113
aVscience-fiction-fantasy
p114
aVfavorites
p115
aVlibrary
p116
aVfantasy-sf
p117
aVhugo-nominee
p118
aVnot-read
p119
aVhugo-award-nominee
p120
aVabandoned
p121
aV00-to-read-01
p122
aVridderhof-sf
p123
aVfantasy-scifi
p124
aV20th-century-lit
p125
aVshelf-l-authors
p126
aVgenre-syfi-fan-horr
p127
aVmurray-leinster-science-fiction-au
p128
aVebooks
p129
aVsff-to-read
p130
aVkindle-bookshelf
p131
aVspec-fic-sci-fi-space-opera
p132
aVspec-fic-sci-fi-planetary-romance
p133
aVhugo-nebula-plus-nominations
p134
aVto-read-sci-fi
p135
aVhumor
p136
aV02sftr
p137
aVdone
p138
aVhugo-nebula-nominees
p139
aVargonauta
p140
aVpg
p141
aVaward-winning-or-nominated
p142
aVmight-read
p143
aVhugo-nominee-1960
p144
aVrecommended-reading
p145
aVfeatured
p146
aVscience-fiction-space-opera
p147
aVto-be-verified
p148
aVnovella-novelette
p149
aVhumor-and-comedy
p150
aVnovels
p151
aVbooks-i-own
p152
aVhugo-nominated
p153
aVpapernl
p154
aVhugo-queue
p155
aVhugo
p156
aVactual-sci-fi
p157
aVto-read-on-kindle
p158
aVsf-nominees
p159
aVfrom-tbr
p160
aV100-200
p161
aVreviewed
p162
aVcollected-work
p163
aVclassics
p164
aVhugo-nebula
p165
aVspec-fic-sci-fi
p166
aVspec-fic-awd-hugo-nom
p167
aVspec-fic
p168
aVscience-fic-fantasy
p169
aVclassic
p170
aVawait-ebook-edition
p171
aVto-mull-over
p172
aVhugo-novel-finalist
p173
aVei-suom
p174
aVto-read-2e-sf-d
p175
aVenglish
p176
aVto-read-2-en-sf
p177
aVhugo-winners
p178
aVh
p179
aVc2-f-en
p180
aVyear-1959
p181
aVunread
p182
aVthree-stars
p183
aVrecommended
p184
aVread-in-2010
p185
aVread-as-an-adult
p186
aVpre-1982-read
p187
aVhugo_finalist
p188
aVhugo-winners-nominees
p189
aVaudio
p190
aV_-have-in-mag
p191
aV2011-past-sff-awards
p192
aVz-hugo-nominee
p193
aVpublic-domain-science-fiction
p194
aVgolden-age-science-fiction
p195
aVhugo-awards
p196
aV2013-completed
p197
aVsave-for-later
p198
asS'loc_class'
p199
VPS: Language and Literatures: American and Canadian literature
p200
sS'n_authors'
p201
I1
sb.