ccopy_reg
_reconstructor
p0
(cdataset.Book
Book
p1
c__builtin__
object
p2
Ntp3
Rp4
(dp5
S'content_name'
p6
V51407.txt.utf-8
p7
sS'isbn'
p8
V1594931585
p9
sS'year'
p10
I1951
sS'author_name'
p11
VFrank Quattrocchi
p12
sS'images_urls'
p13
(lp14
Vhttp://www.gutenberg.org/files/51407/51407-h/images/cover.jpg
p15
aVhttp://www.gutenberg.org/files/51407/51407-h/images/illus1.jpg
p16
aVhttp://www.gutenberg.org/files/51407/51407-h/images/illus2.jpg
p17
aVhttp://www.gutenberg.org/files/51407/51407-h/images/illus3.jpg
p18
asS'language_code'
p19
NsS'id'
p20
I781
sS'category'
p21
VText
p22
sS'genres'
p23
(lp24
sS'copyright'
p25
VPublic domain in the USA.
p26
sS'title'
p27
VSea Legs
p28
sS'wikipedia'
p29
(dp30
S'found'
p31
I00
ssS'average_rating'
p32
F3.7
sS'rating_count'
p33
I179
sS'content_available'
p34
I01
sS'cover_art_url'
p35
S'http://www.gutenberg.org/cache/epub/51407/pg51407.cover.medium.jpg'
p36
sS'goodreads'
p37
(dp38
S'url'
p39
Vhttps://www.goodreads.com/book/show/6519458-sea-legs
p40
sS'found'
p41
I01
sS'year'
p42
I2009
ssS'similar_books'
p43
(lp44
VStranded
p45
aVSnowbound
p46
aVMending Defects
p47
aVForce of Nature
p48
aVAll the Wrong Places
p49
aVMiles to Go: A Rennie Vogel Intrigue
p50
aVDevil's Rock
p51
aVThe Seduction of Moxie
p52
aVGun Shy (Gun, #1)
p53
aVDust
p54
aVFresh Tracks
p55
aVStrange Bedfellows (Strange Bedfellows, #1)
p56
aVSafe Harbor (Provincetown Tales, #1)
p57
aVThe Best Defense
p58
aVInfinite Loop
p59
asS'description'
p60
VKendall Ridenour couldn't be happier. She's leaving the bitter Rochester winter behind and going with new friends on a fabulous vacation. Even better, her cabin mate is Natalie Chatham, the lovely lady of Kendall's recent daydreams.
p61
sS'format'
p62
VPaperback
p63
sS'gutenberg'
p64
(dp65
g39
Vhttp://www.gutenberg.org/ebooks/51407
p66
sS'num'
p67
I51407
ssS'authors'
p68
(lp69
I249
asS'pages'
p70
I203
sS'isbn13'
p71
V9781594931581
p72
sS'language'
p73
VEnglish
p74
sS'countries'
p75
(lp76
I3
asS'release_date'
p77
S'2016-03-09T00:00:00'
p78
sS'author'
p79
I249
sS'content_cleaned'
p80
I01
sS'classes'
p81
(lp82
Vto-read
p83
aVlesbian
p84
aVlesbian-romance
p85
aVlgbt
p86
aVff
p87
aVlesbian-fiction
p88
aVromance
p89
aVfiction
p90
aVon-board
p91
aVbutch-femme
p92
aVvanilla-romance
p93
aVdefault
p94
aVfavorites
p95
aVl-books
p96
aVcurrently-reading
p97
aVya-coming-out
p98
aVbella-books
p99
aVkg-macgregor
p100
aVvacation-romance
p101
aVread-in-2016
p102
aVcontemporary
p103
aVbella
p104
aVlez-be-honest
p105
aVthere-is-an-ex
p106
aVoutdoors-location
p107
aVbar-restaurant-resort-retreat-hotel
p108
aVwant-to-read-wlw
p109
aVf-f-to-read-list
p110
aVlgbt-fic
p111
aVlgbtq-1
p112
aVromance-ff
p113
aV4-stars
p114
aVf-f
p115
aVe-books
p116
aVto-read-ff-romance
p117
aVnon-fiction
p118
aVseafaring
p119
aVbar-restaurant-hotel-resort
p120
aVmaybe-read
p121
aVlesbian-romances
p122
aVff-romance
p123
aVi-own-this-book
p124
aVf-f-adult
p125
aVglbt-fiction
p126
aVbooks-i-own
p127
aVtravel
p128
aVkindle-lendable
p129
aVangst
p130
aVbutch-protagonist
p131
aVhave
p132
aVlesbian-fiction-romance
p133
aVmonth-03
p134
aVnot-to-read
p135
aVlesbian-themed-fiction
p136
aVnew-year-s-resolution
p137
aVlendle-wait-list
p138
aVoutboulder-book-drive
p139
aV2011-read-and-re-read
p140
aVglbqt
p141
aVebooks
p142
aVfor-the-girls
p143
aVebook
p144
aVnookbooks
p145
aVqueer
p146
aVjens-wishlist
p147
aVxx
p148
aVbutch-is-beautiful
p149
aVjens-wishlist-order
p150
asS'loc_class'
p151
S''
p152
sS'n_authors'
p153
I1
sb.