ccopy_reg
_reconstructor
p0
(cdataset.Book
Book
p1
c__builtin__
object
p2
Ntp3
Rp4
(dp5
S'content_name'
p6
V51475.txt.utf-8
p7
sS'isbn'
p8
V1558181814
p9
sS'year'
p10
I1612
sS'author_name'
p11
VDavid E. Fisher
p12
sS'images_urls'
p13
(lp14
Vhttp://www.gutenberg.org/files/51475/51475-h/images/cover.jpg
p15
aVhttp://www.gutenberg.org/files/51475/51475-h/images/illus.jpg
p16
asS'language_code'
p17
NsS'images'
p18
(lp19
sS'id'
p20
I894
sS'category'
p21
VText
p22
sS'genres'
p23
(lp24
sS'copyright'
p25
VPublic domain in the USA.
p26
sS'title'
p27
VEast In The Morning
p28
sS'wikipedia'
p29
(dp30
S'url'
p31
Vhttps://en.wikipedia.org/wiki/The_Narrow_Road_to_the_Deep_North_(novel)
p32
sS'found'
p33
I01
sS'year'
p34
I-1
ssS'published_in'
p35
NsS'average_rating'
p36
F4.29
sS'rating_count'
p37
I1
sS'content_available'
p38
I01
sS'cover_art_url'
p39
S'http://www.gutenberg.org/cache/epub/51475/pg51475.cover.medium.jpg'
p40
sS'goodreads'
p41
(dp42
g31
Vhttps://www.goodreads.com/book/show/1945302.Aurora
p43
sg33
I01
sg34
I1612
ssS'similar_books'
p44
(lp45
sS'description'
p46
NsS'format'
p47
NsS'gutenberg'
p48
(dp49
g31
Vhttp://www.gutenberg.org/ebooks/51475
p50
sS'num'
p51
I51475
ssS'authors'
p52
(lp53
I206
asS'isbn13'
p54
V9781558181816
p55
sS'language'
p56
VEnglish
p57
sS'country'
p58
I18
sS'release_date'
p59
S'2016-03-16T00:00:00'
p60
sS'author'
p61
I206
sS'original_title'
p62
VThe Narrow Road to the Deep North (novel)
p63
sS'summary'
p64
VThe Narrow Road to the Deep North is the sixth novel by Richard Flanagan. It received critical acclaim on its release, and won the 2014 Man Booker Prize.
p65
sS'content_cleaned'
p66
I01
sS'classes'
p67
(lp68
Vto-read
p69
aVcurrently-reading
p70
aVphilosophy
p71
aVreligion
p72
aVmysticism
p73
aVby-it-i-see-everything
p74
aVdust-shelf
p75
aVgermany
p76
aVto-buy
p77
aValt-next
p78
aVhistory
p79
aVnext-acquire
p80
aVend-of-2016-acquire
p81
aVreligion-theology-spirituality
p82
aVmagic-occult
p83
aVreligion-christianity
p84
aVkindle
p85
aVspirituality
p86
aVnon-fictie-religie
p87
aVoccult
p88
aVgerman-ic
p89
aVchristian
p90
aVgerman-danish-philosophers
p91
aVspirituality-mysticism
p92
aVchristianity
p93
asS'loc_class'
p94
S''
p95
sS'n_authors'
p96
I1
sb.