ccopy_reg
_reconstructor
p0
(cdataset.Book
Book
p1
c__builtin__
object
p2
Ntp3
Rp4
(dp5
S'content_name'
p6
V29448.txt.utf-8
p7
sS'isbn'
p8
NsS'year'
p9
I1961
sS'author_name'
p10
VMurray Leinster
p11
sS'images_urls'
p12
(lp13
Vhttp://www.gutenberg.org/files/29448/29448-h/images/i006.jpg
p14
aVhttp://www.gutenberg.org/files/29448/29448-h/images/i007.jpg
p15
aVhttp://www.gutenberg.org/files/29448/29448-h/images/i041.jpg
p16
aVhttp://www.gutenberg.org/files/29448/29448-h/images/i070.jpg
p17
aVhttp://www.gutenberg.org/files/29448/29448-h/images/icover.jpg
p18
asS'language_code'
p19
Veng
p20
sS'images'
p21
(lp22
sS'id'
p23
I394
sS'category'
p24
VText
p25
sS'genres'
p26
(lp27
sS'copyright'
p28
VPublic domain in the USA.
p29
sS'title'
p30
VPariah Planet
p31
sS'wikipedia'
p32
(dp33
S'found'
p34
I00
ssS'average_rating'
p35
F4.0
sS'rating_count'
p36
I4
sS'content_available'
p37
I01
sS'cover_art_url'
p38
S'http://www.gutenberg.org/cache/epub/29448/pg29448.cover.medium.jpg'
p39
sS'goodreads'
p40
(dp41
S'url'
p42
Vhttps://www.goodreads.com/book/show/29507170-pariah-planet
p43
sg34
I01
sS'year'
p44
I1961
ssS'similar_books'
p45
(lp46
sS'description'
p47
VWhen the blue plague appeared on the planet of Dara, fear struck nearby worlds. The fear led to a hate that threatened the lives of millions and endangered the Galactic peace. But the Med Service ship Aesculapius 20 with Calhoun and Murgatroyd the Tormal aboard are on the job and have stumbled into the horrible mess caused by unreasoning hatred, quarantine, mass starvation and worse. Calhoun must use all his medical knowledge and significant skills to even understand the situation here in neglected Sector 12. Can he and Murgatroyd untangle this Gordian's knot and live to tell the tale? Maybe and maybe not. Listen and find out. (Summary by Phil Chenevert )
p48
sS'format'
p49
VAudiobook
p50
sS'gutenberg'
p51
(dp52
g42
Vhttp://www.gutenberg.org/ebooks/29448
p53
sS'num'
p54
I29448
ssS'authors'
p55
(lp56
I61
asS'isbn13'
p57
NsS'language'
p58
VEnglish
p59
sS'release_date'
p60
S'2009-07-18T00:00:00'
p61
sS'author'
p62
I61
sS'content_cleaned'
p63
I01
sS'classes'
p64
(lp65
Vto-read
p66
aVunknown-publication-dates
p67
aVbest-free-reads
p68
aVaudiobooks
p69
asS'loc_class'
p70
VPS: Language and Literatures: American and Canadian literature
p71
sS'n_authors'
p72
I1
sb.