ccopy_reg
_reconstructor
p0
(cdataset.Book
Book
p1
c__builtin__
object
p2
Ntp3
Rp4
(dp5
S'similar_books'
p6
(lp7
sS'genres'
p8
(lp9
sS'author'
p10
I302
sS'countries'
p11
(lp12
I2
asS'year'
p13
I1957
sS'title'
p14
VGalaxy Magazine July 1957
p15
sS'cover'
p16
Vhttps://ia601308.us.archive.org/BookReader/BookReaderImages.php?zip=/18/items/Galaxy_v14n03_1957-07/Galaxy_v14n03_1957-07_jp2.zip&file=Galaxy_v14n03_1957-07_jp2/Galaxy_v14n03_1957-07_0000.jp2&scale=0&rotate=0
p17
sS'cover_art'
p18
S'http://www.isfdb.org/wiki/images/2/26/MLO4439.jpg'
p19
sS'author_name'
p20
VGalaxy Magazine
p21
sS'images_urls'
p22
(lp23
sS'authors'
p24
(lp25
I513
aI504
aI419
aI305
aI326
aI339
aI483
aI30
aI514
aI23
aI121
aI302
asS'images'
p26
(lp27
sS'id'
p28
I1053
sS'contents'
p29
(lp30
(dp31
S'title'
p32
VA World Called Maanerek
p33
sS'author'
p34
I513
sa(dp35
g32
VA World Called Maanerek [2]
p36
sg34
I513
sa(dp37
g32
VA Wind Is Rising
p38
sg34
I513
sa(dp39
g32
VHelp! I Am Dr. Morris Goldpepper
p40
sg34
I504
sa(dp41
g32
VHelp! I Am Dr. Morris Goldpepper [2]
p42
sg34
I504
sa(dp43
g32
VHelp! I Am Dr. Morris Goldpepper [3]
p44
sg34
I504
sa(dp45
g32
VGrowing Up On Big Muddy
p46
sg34
I513
sa(dp47
g32
VThe Deaths of Ben Baxter
p48
sg34
I419
sa(dp49
g32
VThe Deaths of Ben Baxter [2]
p50
sg34
I419
sa(dp51
g32
VThe Deaths of Ben Baxter [3]
p52
sg34
I419
sa(dp53
g32
VYou Were Saying?
p54
sg34
I305
sa(dp55
g32
VForecast (Galaxy, July 1957)
p56
sg34
I326
sa(dp57
g32
VFor Your Information: The Moon Contract
p58
sg34
I339
sa(dp59
g32
VGalaxy's 5 Star Shelf (Galaxy, July 1957)
p60
sg34
I483
sa(dp61
g32
VA World Called Maanerek
p62
sg34
I30
sa(dp63
g32
VHelp! I Am Dr. Morris Goldpepper
p64
sg34
I514
sa(dp65
g32
VThe Deaths of Ben Baxter
p66
sg34
I23
sa(dp67
g32
VA Wind Is Rising
p68
sg34
I23
sa(dp69
g32
VGrowing Up On Big Muddy
p70
sg34
I121
sasb.