ccopy_reg
_reconstructor
p0
(cdataset.Book
Book
p1
c__builtin__
object
p2
Ntp3
Rp4
(dp5
S'content_name'
p6
V21582.txt.utf-8
p7
sS'isbn'
p8
NsS'year'
p9
I1961
sS'author_name'
p10
VPatrick Fahy
p11
sS'images_urls'
p12
(lp13
Vhttp://www.gutenberg.org/files/21582/21582-page-images/p100.png
p14
aVhttp://www.gutenberg.org/files/21582/21582-page-images/p101a.png
p15
aVhttp://www.gutenberg.org/files/21582/21582-page-images/p101b.png
p16
aVhttp://www.gutenberg.org/files/21582/21582-page-images/p102a.png
p17
aVhttp://www.gutenberg.org/files/21582/21582-page-images/p102b.png
p18
aVhttp://www.gutenberg.org/files/21582/21582-page-images/p103a.png
p19
aVhttp://www.gutenberg.org/files/21582/21582-page-images/p103b.png
p20
aVhttp://www.gutenberg.org/files/21582/21582-page-images/p104a.png
p21
aVhttp://www.gutenberg.org/files/21582/21582-page-images/p104b.png
p22
asS'language_code'
p23
NsS'images'
p24
(lp25
sS'id'
p26
I822
sS'category'
p27
VText
p28
sS'genres'
p29
(lp30
sS'copyright'
p31
VPublic domain in the USA.
p32
sS'title'
p33
VThe Mightiest Man
p34
sS'wikipedia'
p35
(dp36
S'found'
p37
I00
ssS'average_rating'
p38
F2.56
sS'rating_count'
p39
I6
sS'content_available'
p40
I01
sS'goodreads'
p41
(dp42
S'url'
p43
Vhttps://www.goodreads.com/book/show/11419541-the-mightiest-man
p44
sg37
I01
sS'year'
p45
I2010
ssS'similar_books'
p46
(lp47
sS'description'
p48
NsS'gutenberg'
p49
(dp50
g43
Vhttp://www.gutenberg.org/ebooks/21582
p51
sS'num'
p52
I21582
ssS'authors'
p53
(lp54
I260
asS'isbn13'
p55
V2940011956881
p56
sS'language'
p57
VEnglish
p58
sS'countries'
p59
(lp60
I3
asS'release_date'
p61
S'2007-05-23T00:00:00'
p62
sS'author'
p63
I260
sS'cover'
p64
Vhttps://s.gr-assets.com/assets/nophoto/book/111x148-bcc042a9c91a29c1d680899eff700a03.png
p65
sS'content_cleaned'
p66
I01
sS'classes'
p67
(lp68
Vshort-story
p69
aVscience-fiction
p70
aVsci-fi
p71
aVtype-short-story
p72
aVto-read
p73
aVaudio-books
p74
asS'loc_class'
p75
VPS: Language and Literatures: American and Canadian literature
p76
sS'n_authors'
p77
I1
sb.