ccopy_reg
_reconstructor
p0
(cdataset.Book
Book
p1
c__builtin__
object
p2
Ntp3
Rp4
(dp5
S'similar_books'
p6
(lp7
sS'genres'
p8
(lp9
sS'author'
p10
I918
sS'countries'
p11
(lp12
I2
asS'year'
p13
I1952
sS'title'
p14
VIF Magazine November 1952
p15
sS'cover'
p16
Vhttps://ia800208.us.archive.org/BookReader/BookReaderImages.php?zip=/6/items/1952-11_IF/1952-11_IF_jp2.zip&file=1952-11_IF_jp2/1952-11_IF_0000.jp2&scale=0&rotate=0
p17
sS'cover_art'
p18
S'http://www.isfdb.org/wiki/images/8/85/WOFIFNOV1952.jpg'
p19
sS'author_name'
p20
VIF Magazine
p21
sS'images_urls'
p22
(lp23
sS'authors'
p24
(lp25
I326
aI944
aI931
aI424
aI221
aI605
aI945
aI122
aI575
aI946
aI94
aI947
aI918
asS'images'
p26
(lp27
sS'id'
p28
I1222
sS'contents'
p29
(lp30
(dp31
g10
I326
sg14
VRocket-Launching Satellite
p32
sa(dp33
g10
I944
sg14
VThe Image and the Likeness
p34
sa(dp35
g10
I931
sg14
VThe Running Hounds
p36
sa(dp37
g10
I424
sg14
VYou Too Can Be a Millionaire
p38
sa(dp39
g10
I931
sg14
VLet There Be Light
p40
sa(dp41
g10
I931
sg14
VGenerals Help Themselves
p42
sa(dp43
g10
I326
sg14
VLunar Ship
p44
sa(dp45
g10
I221
sg14
VA Chat with the Editor (If, November 1952)
p46
sa(dp47
g10
I221
sg14
VPersonalities in Science: Leonardo Da Vinci
p48
sa(dp49
g10
I605
sg14
VScience Briefs (If, November 1952)
p50
sa(dp51
g10
I326
sg14
VThe Postman Cometh ... (If, November 1952)
p52
sa(dp53
g10
I945
sg14
VThe Image and the Likeness
p54
sa(dp55
g10
I122
sg14
VBrother to the Machine
p56
sa(dp57
g10
I575
sg14
VThe Running Hounds
p58
sa(dp59
g10
I946
sg14
VYou Too Can Be a Millionaire
p60
sa(dp61
g10
I94
sg14
VLet There Be Light
p62
sa(dp63
g10
I947
sg14
VGenerals Help Themselves
p64
sasb.