ccopy_reg
_reconstructor
p0
(cdataset.Book
Book
p1
c__builtin__
object
p2
Ntp3
Rp4
(dp5
S'content_name'
p6
V32150.txt.utf-8
p7
sS'isbn'
p8
NsS'year'
p9
I1956
sS'author_name'
p10
VStephen Marlowe
p11
sS'images_urls'
p12
(lp13
Vhttp://www.gutenberg.org/files/32150/32150-h/images/cover.jpg
p14
aVhttp://www.gutenberg.org/files/32150/32150-h/images/image_001.jpg
p15
aVhttp://www.gutenberg.org/files/32150/32150-h/images/image_a.jpg
p16
aVhttp://www.gutenberg.org/files/32150/32150-h/images/image_i.jpg
p17
aVhttp://www.gutenberg.org/files/32150/32150-h/images/image_s.jpg
p18
aVhttp://www.gutenberg.org/files/32150/32150-h/images/image_t.jpg
p19
asS'language_code'
p20
NsS'images'
p21
(lp22
sS'id'
p23
I496
sS'category'
p24
VText
p25
sS'genres'
p26
(lp27
sS'copyright'
p28
VPublic domain in the USA.
p29
sS'title'
p30
VPrison of a Billion Years
p31
sS'wikipedia'
p32
(dp33
S'found'
p34
I00
ssS'average_rating'
p35
F3.15
sS'rating_count'
p36
I3
sS'content_available'
p37
I01
sS'cover_art_url'
p38
S'http://www.gutenberg.org/cache/epub/32150/pg32150.cover.medium.jpg'
p39
sS'goodreads'
p40
(dp41
S'url'
p42
S'https://www.goodreads.com/book/show/20442379-prison-of-a-billion-years'
p43
sS'found'
p44
I01
ssS'similar_books'
p45
(lp46
sS'description'
p47
NsS'gutenberg'
p48
(dp49
S'url'
p50
Vhttp://www.gutenberg.org/ebooks/32150
p51
sS'num'
p52
I32150
ssS'authors'
p53
(lp54
I79
asS'isbn13'
p55
NsS'language'
p56
VEnglish
p57
sS'countries'
p58
(lp59
I2
asS'release_date'
p60
S'2010-04-27T00:00:00'
p61
sS'author'
p62
I79
sS'cover'
p63
Vhttps://s.gr-assets.com/assets/nophoto/book/111x148-bcc042a9c91a29c1d680899eff700a03.png
p64
sS'content_cleaned'
p65
I01
sS'classes'
p66
(lp67
Vto-read
p68
aVscience-fiction
p69
aVfree-from-amazon
p70
aVclassic
p71
aVe-shelf
p72
asS'loc_class'
p73
VPS: Language and Literatures: American and Canadian literature
p74
sS'n_authors'
p75
I1
sb.