ccopy_reg
_reconstructor
p0
(cdataset.Book
Book
p1
c__builtin__
object
p2
Ntp3
Rp4
(dp5
S'similar_books'
p6
(lp7
sS'genres'
p8
(lp9
sS'author'
p10
I302
sS'countries'
p11
(lp12
I2
asS'year'
p13
I1959
sS'title'
p14
VGalaxy Magazine August 1959
p15
sS'cover'
p16
Vhttps://ia600202.us.archive.org/BookReader/BookReaderImages.php?zip=/35/items/Galaxy_v17n06_1959-08/Galaxy_v17n06_1959-08_jp2.zip&file=Galaxy_v17n06_1959-08_jp2/Galaxy_v17n06_1959-08_0000.jp2&scale=0&rotate=0
p17
sS'cover_art'
p18
S'http://www.isfdb.org/wiki/images/8/85/GALAUG1959.jpg'
p19
sS'author_name'
p20
VGalaxy Magazine
p21
sS'images_urls'
p22
(lp23
sS'authors'
p24
(lp25
I519
aI419
aI504
aI506
aI305
aI339
aI483
aI326
aI50
aI98
aI40
aI56
aI243
aI142
aI299
aI219
aI302
asS'images'
p26
(lp27
sS'id'
p28
I1074
sS'contents'
p29
(lp30
(dp31
g10
I519
sg14
VNo Life of Their Own
p32
sa(dp33
g10
I519
sg14
VNo Life of Their Own [2]
p34
sa(dp35
g10
I519
sg14
VNo Life of Their Own [3]
p36
sa(dp37
g10
I419
sg14
VCitizen Jell
p38
sa(dp39
g10
I419
sg14
VThe Spicy Sound of Success
p40
sa(dp41
g10
I504
sg14
VMugwump Four
p42
sa(dp43
g10
I504
sg14
VMugwump Four [2]
p44
sa(dp45
g10
I504
sg14
VMugwump Four [3]
p46
sa(dp47
g10
I519
sg14
VLicense to Steal
p48
sa(dp49
g10
I519
sg14
VLex
p50
sa(dp51
g10
I519
sg14
VLex [2]
p52
sa(dp53
g10
I506
sg14
VThe Malted Milk Monster
p54
sa(dp55
g10
I506
sg14
VThe Malted Milk Monster [2]
p56
sa(dp57
g10
I506
sg14
VThe Malted Milk Monster [3]
p58
sa(dp59
g10
I519
sg14
VThe Waging of the Peace
p60
sa(dp61
g10
I519
sg14
VThe Waging of the Peace [2]
p62
sa(dp63
g10
I519
sg14
VThe Waging of the Peace [3]
p64
sa(dp65
g10
I305
sg14
VThought for Food
p66
sa(dp67
g10
I339
sg14
VFor Your Information: Orbit Around the Sun
p68
sa(dp69
g10
I483
sg14
VGalaxy's 5 Star Shelf (Galaxy, August 1959)
p70
sa(dp71
g10
I326
sg14
VForecast (Galaxy, August 1959)
p72
sa(dp73
g10
I50
sg14
VMugwump Four
p74
sa(dp75
g10
I98
sg14
VThe Malted Milk Monster
p76
sa(dp77
g10
I40
sg14
VThe Waging of the Peace
p78
sa(dp79
g10
I56
sg14
VNo Life of Their Own
p80
sa(dp81
g10
I243
sg14
VCitizen Jell
p82
sa(dp83
g10
I142
sg14
VThe Spicy Sound of Success
p84
sa(dp85
g10
I299
sg14
VLicense to Steal
p86
sa(dp87
g10
I219
sg14
VLex
p88
sasb.