ccopy_reg
_reconstructor
p0
(cdataset.Book
Book
p1
c__builtin__
object
p2
Ntp3
Rp4
(dp5
S'content_name'
p6
V28705.txt.utf-8
p7
sS'isbn'
p8
NsS'year'
p9
I2011
sS'author_name'
p10
VSewell Peaslee Wright
p11
sS'images_urls'
p12
(lp13
Vhttp://www.gutenberg.org/files/28705/28705-h/images/001.jpg
p14
asS'language_code'
p15
Veng
p16
sS'images'
p17
(lp18
sS'id'
p19
I527
sS'category'
p20
VText
p21
sS'genres'
p22
(lp23
sS'copyright'
p24
VPublic domain in the USA.
p25
sS'title'
p26
VThe God in the Box
p27
sS'wikipedia'
p28
(dp29
S'found'
p30
I00
ssS'average_rating'
p31
F3.65
sS'rating_count'
p32
I72
sS'content_available'
p33
I01
sS'goodreads'
p34
(dp35
S'url'
p36
Vhttps://www.goodreads.com/book/show/13456947-vampires-ghosts-and-god
p37
sg30
I01
sS'year'
p38
I2011
ssS'similar_books'
p39
(lp40
VLove is in the Air (A McCray Romance Collection)
p41
aVThe Dawning of Power (World of Godsland #1-3) (The Dawning of Power #1-3)
p42
aVGhosts: The Complete Series
p43
aVSisters of Spirit #1-4, Boxed Set Courage Dares (Sisters of Spirit 1 - 4)
p44
aVWild Men of Alaska (Wild Men of Alaska #1-4)
p45
aVThe Seasons Series (The Graistan Chronicles, #1-5)
p46
aVLooking for Love
p47
aVScott Nicholson Library, Vol. 3
p48
aVThe Savage Series, Books 1-3: The Pearl Savage, The Savage Blood and The Savage Principle
p49
aVLicense to Love: Holiday Box Set
p50
aVPast Forward-A Serial Novel: Volume I (Past Forward, #1-5)
p51
aVThe Fifth Avenue Series Boxed Set
p52
aVGhost Stories
p53
aVSlaves of Valhalla (The Prometheus Wars, #2)
p54
aVBad Spirits
p55
aVLove Can Be Murder
p56
aVEyes Like Blue Fire
p57
aVThe Marenon Chronicles Collection (The Marenon Chronicles, #1-3)
p58
asS'description'
p59
VFive novels by bestselling author, Aiden James<br /><br />The Vampires\u2019 Last Lover:<br /><br />Txema Ybarra is the most unenviable nineteen-year-old girl alive. Born with an unusual \u2018twin teardrop\u2019 birthmark on her neck, Txema is caught in the middle of a vampire war after all the other bearers of the birthmark are murdered. The race is on to save her blood, and her very life, for the survival of Les Amantes de Vampire. Otherwise, Txema will be the last one\u2026the vampires\u2019 last lover. <br /><br />Cades Cove:<br /><br />Buried deep in a Smoky Mountain ravine lies a terrible secret. David Hobbs, vacationing with his wife Miriam, inadvertently stumbles upon a small cloth \u2018keepsake\u2019 bag and a broken human tooth. David ignores her pleas to hand the items over to a park ranger, which opens a doorway closed for nearly a hundred years and unleashes hell on earth\u2026..or at least hell in David and Miriam's world.<br /><br />Plague of Coins:<br /><br />William Barrow carries a dark secret. A very dark secret. An archivist for the Smithsonian Institute and also a part-time operative for the CIA, no one would ever suspect the handsome \u2018thirty-ish\u2019 William is in fact the most reviled human being to ever walk the earth. His infectious warmth and sense of humor make such an assertion especially hard to believe. But long ago, William Barrow had another name\u2026one that is synonymous with shame and betrayal: Judas Iscariot.<br /><br />The Forgotten Eden:<br /><br />Hidden within rural Alabama lies an unseen world feared for centuries by the residents of Carlsdale. Jack Kenney is the only person to ever survive a visit to this place long enough to tell about it. Held captive by the FBI in connection to a murder, Jack leads Agent Peter McNamee on an extraordinary roller-coaster ride involving a mystical and deadly realm within America's Deep South.<br /><br />Deadly Night:<br /><br />When Country singer Candi Starr is found dead in Nashville's esteemed West End, it proves to be just the beginning of a murder spree involving anyone close to the music superstar. Candi\u2019s friend, ghost hunter and psychic Fiona Alea, and her handsome rock n' roll husband, Jimmy, soon find themselves on a roller-coaster thrill ride to learn the chilling truth behind Nashville\u2019s darkest secret.
p60
sS'format'
p61
VKindle Edition
p62
sS'gutenberg'
p63
(dp64
g36
Vhttp://www.gutenberg.org/ebooks/28705
p65
sS'num'
p66
I28705
ssS'authors'
p67
(lp68
I44
asS'pages'
p69
I867
sS'isbn13'
p70
NsS'language'
p71
VEnglish
p72
sS'release_date'
p73
S'2009-05-06T00:00:00'
p74
sS'author'
p75
I44
sS'content_cleaned'
p76
I01
sS'classes'
p77
(lp78
Vto-read
p79
aVkindle
p80
aVvampires
p81
aVparanormal
p82
aVkindle-books
p83
aVfantasy
p84
aVcurrently-reading
p85
aVkindle-freebie
p86
aVon-kindle
p87
aVebooks
p88
aVromance
p89
aVbooks-i-own
p90
aVkindle-lendable
p91
aVfree
p92
aVbundled
p93
aVown-kindle-bk
p94
aVmaybes
p95
aVhorror
p96
aVto-read-i-own
p97
aVkindle-owned
p98
aVfiction
p99
aV3-i-have-not-read
p100
aVowned-not-read-yet
p101
aVamazon
p102
aVkindle-mess-unread
p103
aVromance-paranormal
p104
aVtbr-kindle-freebies
p105
aVunread-boxed-sets
p106
aVown-sf
p107
aVamazon-free-books
p108
aVto-read-kindle
p109
aVto-read-paranormal
p110
aVkindle-unread
p111
aVkindle-to-be-read
p112
aVowned-kindle
p113
aVseries-complete
p114
aVbox-sets
p115
aVover-500-pages
p116
aVown-but-unread-a-k
p117
aVparanormal-or-supernatural
p118
aVkindle-i-own-to-read
p119
aVamazon-freebies
p120
aVhave-but-need-to-read
p121
aVon-kindle-not-read
p122
aVmaybe-someday
p123
aVseries-4
p124
aVseries-3
p125
aVseries-2
p126
aVseries-1
p127
aVdebs-kindle-lending-shelf
p128
aVcollection
p129
aV800
p130
aVi-own-on-kindle
p131
aVbox-sets-anthologies
p132
aVgeneral-library
p133
aVebook
p134
aVbooks-on-kindle
p135
aVmy-dropbox
p136
aVi-own
p137
aVsherre-s-challenge
p138
aVmy-kindle-archives
p139
aVon-kindle-to-read
p140
aVe-books
p141
aVe-books-downloaded
p142
aVlendable-ebooks
p143
aVdnf
p144
aVadventure
p145
aVaction
p146
aVon-my-kindle
p147
aVkindle-loan
p148
aVe-book
p149
aVbought
p150
aVa-to-read-bought
p151
aVghosts
p152
aVkindle-to-read
p153
aVaftbr
p154
aVindie-own
p155
aVkindle-tbr
p156
aVown-kindle-edition
p157
aVkindle-ebooks
p158
aVa-free-ebook
p159
aVon-kindle-haven-t-read
p160
aVkindle-freebies
p161
aVsupernatural
p162
aVmystery
p163
aVmultiple-book-collection
p164
aVlendable
p165
aVfreebie
p166
aVkindle-freebies-to-read
p167
aVamazon-free
p168
aVto-read-own
p169
aVkindle-a-k-to-read
p170
asS'loc_class'
p171
VPS: Language and Literatures: American and Canadian literature
p172
sS'n_authors'
p173
I1
sb.