ccopy_reg
_reconstructor
p0
(cdataset.Book
Book
p1
c__builtin__
object
p2
Ntp3
Rp4
(dp5
S'similar_books'
p6
(lp7
sS'genres'
p8
(lp9
sS'author'
p10
I302
sS'countries'
p11
(lp12
I2
asS'year'
p13
I1971
sS'title'
p14
VGalaxy Magazine July 1971
p15
sS'cover'
p16
Vhttps://ia600200.us.archive.org/BookReader/BookReaderImages.php?zip=/34/items/Galaxy_v32n01_1971-07/Galaxy_v32n01_1971-07_jp2.zip&file=Galaxy_v32n01_1971-07_jp2/Galaxy_v32n01_1971-07_0000.jp2&scale=0&rotate=0
p17
sS'cover_art'
p18
S'http://www.isfdb.org/wiki/images/f/f0/GALJULAUG71.jpg'
p19
sS'author_name'
p20
VGalaxy Magazine
p21
sS'images_urls'
p22
(lp23
sS'authors'
p24
(lp25
I499
aI667
aI326
aI91
aI50
aI684
aI86
aI74
aI687
aI697
aI651
aI302
asS'images'
p26
(lp27
sS'id'
p28
I1152
sS'contents'
p29
(lp30
(dp31
S'title'
p32
VA Congregation of Vapors
p33
sS'author'
p34
I499
sa(dp35
g32
VThe Moon Children (Part 1 of 3)
p36
sg34
I499
sa(dp37
g32
VThe Moon Children (Part 1 of 3) [2]
p38
sg34
I499
sa(dp39
g32
VAll but the Words
p40
sg34
I499
sa(dp41
g32
VThe Phylogenetic Factor
p42
sg34
I499
sa(dp43
g32
VThe S.B. Notations
p44
sg34
I499
sa(dp45
g32
VAll the Way Up, All the Way Down
p46
sg34
I499
sa(dp47
g32
VDuckworth and the Sound Probe
p48
sg34
I499
sa(dp49
g32
VUnless We Fear Some Evil
p50
sg34
I667
sa(dp51
g32
VGalaxy Stars (Galaxy, July-August 1971)
p52
sg34
I326
sa(dp53
g32
VGalaxy Bookshelf (Galaxy, July-August 1971)
p54
sg34
I91
sa(dp55
g32
VAll the Way Up, All the Way Down
p56
sg34
I50
sa(dp57
g32
VA Congregation of Vapors
p58
sg34
I684
sa(dp59
g32
VThe Moon Children (Part 1 of 3)
p60
sg34
I86
sa(dp61
g32
VAll but the Words
p62
sg34
I74
sa(dp63
g32
VThe Phylogenetic Factor
p64
sg34
I687
sa(dp65
g32
VThe S.B. Notations
p66
sg34
I697
sa(dp67
g32
VDuckworth and the Sound Probe
p68
sg34
I651
sasb.