ccopy_reg
_reconstructor
p0
(cdataset.Book
Book
p1
c__builtin__
object
p2
Ntp3
Rp4
(dp5
S'content_name'
p6
V30770.txt.utf-8
p7
sS'isbn'
p8
V1634762177
p9
sS'year'
p10
I1963
sS'author_name'
p11
VJohn Berryman
p12
sS'images_urls'
p13
(lp14
Vhttp://www.gutenberg.org/files/30770/30770-h/images/image_001.jpg
p15
aVhttp://www.gutenberg.org/files/30770/30770-h/images/image_002.jpg
p16
aVhttp://www.gutenberg.org/files/30770/30770-h/images/image_003.jpg
p17
aVhttp://www.gutenberg.org/files/30770/30770-h/images/image_004.jpg
p18
asS'language_code'
p19
Veng
p20
sS'images'
p21
(lp22
sS'id'
p23
I406
sS'category'
p24
VText
p25
sS'genres'
p26
(lp27
sS'copyright'
p28
VPublic domain in the USA.
p29
sS'title'
p30
VThe Right Time
p31
sS'wikipedia'
p32
(dp33
S'found'
p34
I00
ssS'average_rating'
p35
F4.01
sS'rating_count'
p36
I609
sS'content_available'
p37
I01
sS'goodreads'
p38
(dp39
S'url'
p40
Vhttps://www.goodreads.com/book/show/25311219-the-right-time
p41
sg34
I01
sS'year'
p42
I2015
ssS'similar_books'
p43
(lp44
VPersonal Changes (Personal, #2)
p45
aVHeaven Can't Wait
p46
aVKnight of Ocean Avenue (Love in Laguna, #1)
p47
aVKage (Kage Trilogy, #1)
p48
aVLonely Hearts (Love Lessons, #3)
p49
aVRise & Fall (THIRDS, #4)
p50
aVSummer Son
p51
aVI Can See For Miles
p52
aVBonds of Denial (Wicked Play, #5)
p53
aVCriminal Pleasures
p54
aVPower Play (Scoring Chances, #3)
p55
aVCrashing the Net (Crashing, #1)
p56
aVStrong Enough (Family, #2)
p57
aVOffside Chance (Southern Scrimmage #3)
p58
aVNothing Ventured
p59
aVClarity of Lines (Thomas Elkin, #2)
p60
aVFoolish Me (The Light in Your Eye #2)
p61
asS'description'
p62
VWorkaholic Nate Erickson is a successful real estate developer who thrives on long hours and stress. When a Los Angeles project prompts him to relocate to Santa Monica, he welcomes the change of scenery. Nate has always considered romantic entanglements trouble, but his sexy next-door neighbor isn\u2019t easy to ignore. Which makes no sense, because Nate is straight\u2026 or so he\u2019s always thought.<br /><br />Alex Reyes is a retired professional soccer player turned West Hollywood business owner with an insatiable lust for life. He loves his family, friends, and work. But there\u2019s one life challenge left to accomplish: coming out publicly. Respect for traditional Latino values has kept him in the closet, but Alex begins to think he and his new neighbor might help one another combat their fears. As Alex and Nate forge a strong friendship, they soon realize facing their personal demons will take more courage than either man bargained. The reward is immeasurable\u2026 if the timing is right.
p63
sS'format'
p64
Vebook
p65
sS'gutenberg'
p66
(dp67
g40
Vhttp://www.gutenberg.org/ebooks/30770
p68
sS'num'
p69
I30770
ssS'authors'
p70
(lp71
I78
asS'pages'
p72
I220
sS'isbn13'
p73
V9781634762175
p74
sS'language'
p75
VEnglish
p76
sS'countries'
p77
(lp78
I2
asS'release_date'
p79
S'2009-12-27T00:00:00'
p80
sS'author'
p81
I78
sS'content_cleaned'
p82
I01
sS'classes'
p83
(lp84
Vto-read
p85
aVm-m
p86
aVmm
p87
aVseries
p88
aVcontemporary
p89
aVm-m-romance
p90
aVromance
p91
aVcurrently-reading
p92
aVmm-romance
p93
aVsports
p94
aVfriends-to-lovers
p95
aVpart-of-a-series
p96
aVcoming-out
p97
aVfavorites
p98
aVathletes
p99
aVcontemporary-romance
p100
aVaudiobook
p101
aVgay-for-you
p102
aVlane-hayes
p103
aVkindle
p104
aVgfy-ofy
p105
aVin-the-closet
p106
aVlgbt
p107
aVhurt-comfort
p108
aVaudible
p109
aVaudio
p110
aVaudiobooks
p111
aVgay
p112
aVkindle-lendable
p113
aVg-contemporary
p114
aVmm-contemporary-romance
p115
aVsteamy
p116
aVsexy-athletes
p117
aVebook
p118
aVmm-contemporary
p119
aVm-m-tbr
p120
aVm-m-read
p121
aVcover-lust
p122
aVdreamspinner-press
p123
aVe-book
p124
aVm-m-to-read
p125
aVcalibre
p126
aV2016-books
p127
aVread-m-m
p128
aVread-kindle
p129
aVread-adult
p130
aVgrief
p131
aVbi-sexual
p132
aVmale-male-romance
p133
aVromance-contemporary
p134
aVbisexual-gay-for-you
p135
aVwhite-collar
p136
aVfiction
p137
aVavailable-at-library
p138
aVromance-mm
p139
aVsport
p140
aVrecommended
p141
aVfamily
p142
aVwant-to-read
p143
aVmm-series
p144
aVebooks
p145
aVread-2015
p146
aVmm-sports
p147
aVlgbtq
p148
aVm-m-coming-out
p149
aVseries-to-continue
p150
aVgenre-romance
p151
aVofy
p152
aVinterracial
p153
aVangst
p154
aVsexy
p155
aVdirty-talk
p156
aV4-stars
p157
aVangsty
p158
aVgfy
p159
aV2015-reads
p160
aVloved
p161
aVjune-2015
p162
aVscribd
p163
aVtr-mm
p164
aVglbt
p165
aVmm-read
p166
aVto-read-mm-romance
p167
aVcannot-wait-salivating-2-read
p168
aVfeel-good
p169
aVto-buy
p170
aVm-m-books
p171
aVdnf-will-finish-later
p172
aV2017-read
p173
aVlibrary
p174
aV001-library
p175
aVmm-mmm
p176
aVbooks-i-want
p177
aVreview-copy
p178
aVchallenge-to-be-read
p179
aVboarding-lounge
p180
aVyear-2011-to-2015
p181
aV_sh-to-read-shelf
p182
aVread-in-english
p183
aVnew-adult-and-adult
p184
asS'loc_class'
p185
VPS: Language and Literatures: American and Canadian literature
p186
sS'n_authors'
p187
I1
sb.