ccopy_reg
_reconstructor
p0
(cdataset.Book
Book
p1
c__builtin__
object
p2
Ntp3
Rp4
(dp5
S'content_name'
p6
V51603.txt.utf-8
p7
sS'isbn'
p8
V1582430543
p9
sS'year'
p10
I1961
sS'author_name'
p11
VR. A. Lafferty
p12
sS'images_urls'
p13
(lp14
Vhttp://www.gutenberg.org/files/51603/51603-h/images/cover.jpg
p15
aVhttp://www.gutenberg.org/files/51603/51603-h/images/illus.jpg
p16
asS'language_code'
p17
Veng
p18
sS'id'
p19
I433
sS'category'
p20
VText
p21
sS'genres'
p22
(lp23
sS'copyright'
p24
VPublic domain in the USA.
p25
sS'title'
p26
VAll The People
p27
sS'wikipedia'
p28
(dp29
S'found'
p30
I00
ssS'average_rating'
p31
F3.61
sS'rating_count'
p32
I1401
sS'content_available'
p33
I01
sS'cover_art_url'
p34
S'http://www.gutenberg.org/cache/epub/51603/pg51603.cover.medium.jpg'
p35
sS'goodreads'
p36
(dp37
S'url'
p38
Vhttps://www.goodreads.com/book/show/12537.All_New_People
p39
sS'found'
p40
I01
sS'year'
p41
I1989
ssS'similar_books'
p42
(lp43
VThe Rise of Life on Earth
p44
aVFather Melancholy's Daughter
p45
aVHeart, You Bully, You Punk
p46
aVThe All of It
p47
aVAwakenings / A Leg to Stand On / The Man Who Mistook his Wife for a Hat / Seeing Voices
p48
aVMatrimony
p49
aVThe Horizontal World: Growing Up Wild in the Middle of Nowhere: a Memoir
p50
aVPro-Life Answers to Pro-Choice Arguments Expanded & Updated
p51
aVCreating a Class: College Admissions and the Education of Elites
p52
aVThe Handyman
p53
aVA Dangerous Woman
p54
aVThe Hour of the Time
p55
aVEternal Echoes: Celtic Reflections on Our Yearning to Belong
p56
aVAppetite for Detention
p57
aVContemplative Youth Ministry: Practicing the Presence of Jesus
p58
aVBy the Shore
p59
aVJamesland
p60
aVAt Weddings and Wakes
p61
asS'description'
p62
VWith generosity, humor, and pathos, Anne Lamott takes on the barrage of dislocating changes that shook the Sixties. Leading us through the wake of these changes is Nanny Goodman, one small girl living in Marin County, California. A half-adult child among often childish adults, Nanny grows up with two spectacularly odd parents: a writer father and a mother who is a constant source of material. As Nanny moves into her adolescence, so, it seems, does America. While grappling with her own coming-of-age, Nanny witnesses an entire culture's descent into drugs, the mass exodus of fathers from her town, and rapid real-estate and technological development that foreshadow a drastically different future. In All New People, Anne Lamott works a special magic, transforming failure into forgiveness and illuminating the power of love to redeem us.
p63
sS'format'
p64
NsS'gutenberg'
p65
(dp66
g38
Vhttp://www.gutenberg.org/ebooks/51603
p67
sS'num'
p68
I51603
ssS'authors'
p69
(lp70
I74
asS'isbn13'
p71
V9781582430546
p72
sS'language'
p73
VEnglish
p74
sS'countries'
p75
(lp76
I2
asS'release_date'
p77
S'2016-03-30T00:00:00'
p78
sS'author'
p79
I74
sS'content_cleaned'
p80
I01
sS'classes'
p81
(lp82
Vto-read
p83
aVfiction
p84
aVcurrently-reading
p85
aVcontemporary-fiction
p86
aVgeneral-fiction
p87
aVnovel
p88
aVown-it
p89
aVanne-lamott
p90
aVcalifornia
p91
aVnovels
p92
aVlamott
p93
aVliterary-fiction
p94
aVwish-list
p95
aVowned
p96
aVcontemporary
p97
aVmeh
p98
aVlibrary
p99
aVgrowth
p100
aVbooks-i-own
p101
aVfavorites
p102
aVwomen
p103
aVadult-fiction
p104
aVabandoned
p105
aVhere
p106
aVwell-read-heads
p107
aVown-to-read
p108
aVread-in-2017
p109
aVdefault
p110
aVown-but-have-not-read
p111
aVmy-library-books
p112
aV2017-summer-reads-vogue-list
p113
aVrecommended-by-linda-hoff
p114
aVnot-interested
p115
aVpartly-read
p116
aVspirituality
p117
aVamerican
p118
aVmy-library
p119
aVebook
p120
aVphysical-books
p121
aVto-read-in-2017
p122
aVscrewed-up-families
p123
aVfamily
p124
aVdrama
p125
aVcoming-of-age
p126
aV5-star-books
p127
aVrensing-center
p128
aVbook-book
p129
aVgood-news-book-club
p130
aVsurfeit
p131
aVwomen-s-fiction
p132
aVwant-to-re-read
p133
aVadult-non-juv
p134
aVsixties
p135
aVshelfari-favorites
p136
aVshelfari-wishlist
p137
aVmemoir
p138
aVdeep
p139
aVre-reads
p140
aVread-in-my-angsty-20s
p141
aVmemoirs
p142
aVamber
p143
aVread-in-2001
p144
aVto-read-novels
p145
aVstorage-bin
p146
aVall-stuff
p147
aVno-thank-you
p148
aVmy-personal-library
p149
aVfiction-to-read
p150
aVdevelopment
p151
aVbook-club-suggestions
p152
aVthe-best
p153
aVjen-to-read
p154
aVfavorite-reccomendations
p155
aVinterest
p156
aVread-some-but-didn-t-finish
p157
aVon-my-bookshelf
p158
aVnon-library
p159
aVown-but-havent-read
p160
aVin-both-delco-montco-libraries
p161
aVauthors-of-whom-i-ve-read-other-wri
p162
aVowned-paper
p163
aVc5
p164
aVbelcher-library
p165
aVto-re-read
p166
aVread-2014
p167
aVdeadtree
p168
aVnon-fiction-to-read
p169
aVwithdrawn
p170
aV2001-reads
p171
aVown-a-copy
p172
aVread-long-ago
p173
aVbest-of-1960s
p174
aVlibrary-books
p175
aVliterary-and-classics
p176
aVfestival-2014
p177
aVown-literature
p178
aVpleasure
p179
aVbox-in-attic
p180
aVfaith-in-general
p181
aVon-my-shelf
p182
asS'loc_class'
p183
S''
p184
sS'n_authors'
p185
I1
sb.