ccopy_reg
_reconstructor
p0
(cdataset.Book
Book
p1
c__builtin__
object
p2
Ntp3
Rp4
(dp5
S'content_name'
p6
V12750.txt.utf-8
p7
sS'isbn'
p8
V1594160201
p9
sS'year'
p10
I1896
sS'author_name'
p11
VH. G. Wells
p12
sS'images_urls'
p13
(lp14
sS'language_code'
p15
NsS'images'
p16
(lp17
sS'id'
p18
I201
sS'category'
p19
VText
p20
sS'genres'
p21
(lp22
sS'copyright'
p23
VPublic domain in the USA.
p24
sS'title'
p25
VThe Stolen Bacillus and Other Incidents
p26
sS'wikipedia'
p27
(dp28
S'url'
p29
Vhttps://en.wikipedia.org/wiki/The_Stolen_Bacillus_and_Other_Incidents
p30
sS'found'
p31
I01
sS'year'
p32
I-1
ssS'published_in'
p33
NsS'average_rating'
p34
F3.69
sS'rating_count'
p35
I91
sS'content_available'
p36
I01
sS'goodreads'
p37
(dp38
g29
Vhttps://www.goodreads.com/book/show/1125499.The_Stolen_Bacillus_and_Other_Incidents
p39
sg31
I01
sg32
I1896
ssS'similar_books'
p40
(lp41
VFantasy Writer's Assistant and Other Stories
p42
aVThe Gods of Pegana
p43
aVDowntiming the Night Side
p44
aVHera (Elei's Chronicles, #0.5)
p45
aVThe Best of the Realms: The Stories of Elaine Cunningham (Forgotten Realms: The Best of the Realms, #3)
p46
aVThe Silver Ring
p47
aVA Plunder by Pilgrims (Garrison Gage, #0.5)
p48
aVPrincess
p49
aVThe Purchase of the North Pole
p50
aVFragile
p51
aVThe Son of Man
p52
aVHyperborea
p53
aVThe Nightwatchman's Occurrence Book: And Other Comic Inventions
p54
aVThe Donor
p55
aVThe Invisible Man (Great Illustrated Classics)
p56
aVCreatures That Once Were Men
p57
aVThe Mad King
p58
asS'description'
p59
VIncluded in this volume are "The Stolen Bacillus," "The Flowering of the Strange Orchid," "In the Avu Observatory," "The Triumphs of a Taxidermist," "A Deal in Ostriches," "Through a Window," "The Temptation of Harringay," "The Flying Man," "The Diamond Maker," "Aepyornis Island," "The Remarkable Case of Davidson's Eyes," "The Lord of the Dynamos," "The Hammerpond Park Burglary," "A Moth -- Genus Novo," and "The Treasure in the Forest."
p60
sS'format'
p61
VPaperback
p62
sS'gutenberg'
p63
(dp64
g29
Vhttp://www.gutenberg.org/ebooks/12750
p65
sS'num'
p66
I12750
ssS'authors'
p67
(lp68
I1
asS'pages'
p69
I224
sS'isbn13'
p70
V9781594160202
p71
sS'language'
p72
VEnglish
p73
sS'country'
p74
I1
sS'release_date'
p75
S'2004-06-26T00:00:00'
p76
sS'author'
p77
I1
sS'original_title'
p78
VThe Stolen Bacillus and Other Incidents
p79
sS'summary'
p80
VThe Stolen Bacillus and Other Incidents is a collection of fifteen fantasy and science fiction short stories written by the English author H. G. Wells between 1893 and 1895. It was first published by Methuen & Co. in 1895 and was Wells's first book of short stories. All of the stories had first been published in various weekly and monthly periodicals.
p81
sS'content_cleaned'
p82
I01
sS'classes'
p83
(lp84
Vscience-fiction
p85
aVfiction
p86
aVcurrently-reading
p87
aVshort-stories
p88
aVsci-fi
p89
aVclassics
p90
aVkindle
p91
aVh-g-wells
p92
aVto-read
p93
aVshort-story
p94
aVenglish-literature
p95
aV19th-century
p96
aVkindle-books
p97
aVpublic-domain
p98
aVsf
p99
aVbooks-i-own
p100
aVebook
p101
aVjunk
p102
aVclassic-literature
p103
aVmacher-library
p104
aVmacher-e-books
p105
aVuniversity
p106
aVown-e-copy
p107
aVclassics-modern-classics-etc
p108
aVbooks-i-own-kindle
p109
aV19th-century-lit
p110
aVwells-h-g
p111
aVown-to-be-read
p112
aVebook-kindle
p113
aVbookshout-library
p114
aVdropbox
p115
aV19th-century-fiction
p116
aVgutenberg
p117
aVdigital
p118
aVcollections
p119
aVbritish-literature
p120
aVedwardian
p121
aVkindle-bookshelf
p122
aVunowned-to-read
p123
aVto-read-maybe
p124
aVthe-final-frontier
p125
aVstarted-may-finish-some-day
p126
aVsf-classics
p127
aVread-from-20-to-25
p128
aVpurchased
p129
aVk2read
p130
aVf-sf-h
p131
aVebooks
p132
aVclassic-tbr
p133
aVclasscal-library
p134
aVanth-ss
p135
aV1-shorts-short-stories
p136
aV0-kindle
p137
aVclassic
p138
aVquick-read-mystery-adventure
p139
aVown-kindle
p140
aVauthors-male
p141
aV1800-1899
p142
aVschool
p143
aVcountry-uk
p144
aVkindle-shelf
p145
aV1-fiction
p146
aV0-all2
p147
aVe-books
p148
aVnext-ix
p149
aVmystery
p150
aVi-own-this
p151
aVliterature-world
p152
aVpriority-3
p153
aVnot-read
p154
aV_ita
p155
aVsteam
p156
aVscientific-romance
p157
aVebook-own
p158
aVweird-fiction
p159
aV1-classics
p160
aVlight-reading
p161
aVowned-books
p162
aVshort-story-collection
p163
aV1890s
p164
aVphysical-disability
p165
aVfirst-read-in-2013
p166
aVon-kindle
p167
aVto-reread
p168
aVit-wikipedia
p169
aVon-hold
p170
aVclassics-i-want-to-read
p171
aVspeculative-fiction
p172
aVproduct-of-its-time
p173
aVon-my-kindle
p174
aVown-ebook
p175
aVe-book
p176
aVanthologies
p177
aVfantasy-fiction
p178
aVshort-story-collections
p179
aVcollected-classics
p180
aVshort-stories-and-novellas
p181
aVownebook
p182
aVclassic-lit
p183
aVreviewed
p184
asS'loc_class'
p185
VPR: Language and Literatures: English literature
p186
sS'n_authors'
p187
I1
sb.