ccopy_reg
_reconstructor
p0
(cdataset.Book
Book
p1
c__builtin__
object
p2
Ntp3
Rp4
(dp5
S'content_name'
p6
V29202.txt.utf-8
p7
sS'isbn'
p8
V1423160924
p9
sS'year'
p10
I2016
sS'author_name'
p11
VCharles Willard Diffin
p12
sS'images_urls'
p13
(lp14
Vhttp://www.gutenberg.org/files/29202/29202-h/images/image_001_01.jpg
p15
aVhttp://www.gutenberg.org/files/29202/29202-h/images/image_001_02.jpg
p16
asS'language_code'
p17
Veng
p18
sS'images'
p19
(lp20
sS'id'
p21
I381
sS'category'
p22
VText
p23
sS'genres'
p24
(lp25
sS'copyright'
p26
VPublic domain in the USA.
p27
sS'title'
p28
VThe Hammer of Thor
p29
sS'wikipedia'
p30
(dp31
S'found'
p32
I00
ssS'average_rating'
p33
F4.37
sS'rating_count'
p34
I22939
sS'content_available'
p35
I01
sS'goodreads'
p36
(dp37
S'url'
p38
Vhttps://www.goodreads.com/book/show/27904311-the-hammer-of-thor
p39
sg32
I01
sS'year'
p40
I2016
ssS'similar_books'
p41
(lp42
VRenegades (Renegades, #1)
p43
aVThe Bronze Key (Magisterium,  #3)
p44
aVUntitled (Stolen Crowns, #1)
p45
aVLegion (Talon, #4)
p46
aVStarChaser (TodHunter Moon, #3)
p47
aVUnearthed (Unearthed, #1)
p48
aVThe Swan Riders (Prisoners of Peace, #2)
p49
aVThe Muse of Nightmares (Strange the Dreamer, #2)
p50
aVSeeker (Riders #2)
p51
aVWonder Woman: Warbringer (DC Icons, #1)
p52
aVUntitled (The Witchlands, #4)
p53
aVBefore the Devil Breaks You (The Diviners, #3)
p54
aVThe Midnight Star (The Young Elites, #3)
p55
aVChain of Gold (The Last Hours, #1)
p56
aVThe Invisible Life of Addie La Rue
p57
aVDragonwatch (Fablehaven Adventure #1)
p58
aVThe Creeping Shadow (Lockwood & Co., #4)
p59
aVUntitled Circle (Tris) Book
p60
asS'description'
p61
VThe B&amp;N Exclusive Edition includes a special "Welcome to Hotel Valhalla" message from Magnus Chase in the back of each book. Meet his favorite hallmates from Floor 19, including a mysterious new character \u2026<br /><br />Thor's hammer is missing again. The thunder god has a disturbing habit of misplacing his weapon--the mightiest force in the Nine Worlds. But this time the hammer isn't just lost, it has fallen into enemy hands. If Magnus Chase and his friends can't retrieve the hammer quickly, the mortal worlds will be defenseless against an onslaught of giants. Ragnarok will begin. The Nine Worlds will burn. Unfortunately, the only person who can broker a deal for the hammer's return is the gods' worst enemy, Loki--and the price he wants is very high.
p62
sS'format'
p63
VHardcover
p64
sS'gutenberg'
p65
(dp66
g38
Vhttp://www.gutenberg.org/ebooks/29202
p67
sS'num'
p68
I29202
ssS'authors'
p69
(lp70
I124
asS'pages'
p71
I471
sS'isbn13'
p72
V9781423160922
p73
sS'language'
p74
VEnglish
p75
sS'release_date'
p76
S'2009-06-22T00:00:00'
p77
sS'author'
p78
I124
sS'content_cleaned'
p79
I01
sS'classes'
p80
(lp81
Vto-read
p82
aVcurrently-reading
p83
aVfantasy
p84
aVfavorites
p85
aVmythology
p86
aVyoung-adult
p87
aVrick-riordan
p88
aVbooks-i-own
p89
aVya
p90
aVowned
p91
aVmiddle-grade
p92
aVseries
p93
aVadventure
p94
aVfiction
p95
aVto-buy
p96
aV2016-releases
p97
aVread-in-2016
p98
aVread-in-2017
p99
aVowned-books
p100
aVlgbt
p101
aVmagic
p102
aVchildrens
p103
aVurban-fantasy
p104
aVfavourites
p105
aVaudiobook
p106
aVmagnus-chase
p107
aVlgbtq
p108
aVread-2016
p109
aVchildren
p110
aV2017-reads
p111
aV2016-reads
p112
aVmy-books
p113
aVread-2017
p114
aVya-fantasy
p115
aVnorse-mythology
p116
aVaudiobooks
p117
aVteen
p118
aVlgbtqia
p119
aVhumor
p120
aVtbr
p121
aVi-own
p122
aVfunny
p123
aVwish-list
p124
aV5-stars
p125
aVaudio
p126
aVlibrary
p127
aVchildren-s
p128
aVaction
p129
aVriordan
p130
aVpercy-jackson
p131
aVaction-adventure
p132
aVebooks
p133
aVneed-to-buy
p134
aV2016-release
p135
aVfriendship
p136
aVmagnus-chase-and-the-gods-of-asgard
p137
aVkindle
p138
aVebook
p139
aV2017-reading-challenge
p140
aVgods
p141
aVdefault
p142
aVsci-fi-fantasy
p143
aV2016-books
p144
aVread-in-english
p145
aVwant-to-own
p146
aVnorse
p147
aVon-my-shelf
p148
aVdiversity
p149
aV2017-tbr
p150
aVowned-tbr
p151
aVkids
p152
aVbooks
p153
aVseries-to-finish
p154
aVfantasy-sci-fi
p155
aV2017-books
p156
aV4-stars
p157
aVaudio-books
p158
aVsupernatural
p159
aVnovels
p160
aVmy-library
p161
aVfavorite
p162
aVtween
p163
aVretellings
p164
aVneed
p165
aVhardcover
p166
aVenglish
p167
aVsequels
p168
aVdemigods
p169
aVfavorite-books
p170
aVmodern-fantasy
p171
aVaudio-book
p172
aVown-it
p173
aVqueer
p174
aVfavorite-authors
p175
aVmale-pov
p176
aVnot-out-yet
p177
aVmaybe
p178
aV2017-read
p179
aVbooks-to-buy
p180
aVcontemporary
p181
asS'loc_class'
p182
VPS: Language and Literatures: American and Canadian literature
p183
sS'n_authors'
p184
I1
sb.