ccopy_reg
_reconstructor
p0
(cdataset.Book
Book
p1
c__builtin__
object
p2
Ntp3
Rp4
(dp5
S'content_name'
p6
V32150.txt.utf-8
p7
sS'isbn'
p8
NsS'year'
p9
I1956
sS'author_name'
p10
VStephen Marlowe
p11
sS'images_urls'
p12
(lp13
Vhttp://www.gutenberg.org/files/32150/32150-h/images/cover.jpg
p14
aVhttp://www.gutenberg.org/files/32150/32150-h/images/image_001.jpg
p15
aVhttp://www.gutenberg.org/files/32150/32150-h/images/image_a.jpg
p16
aVhttp://www.gutenberg.org/files/32150/32150-h/images/image_i.jpg
p17
aVhttp://www.gutenberg.org/files/32150/32150-h/images/image_s.jpg
p18
aVhttp://www.gutenberg.org/files/32150/32150-h/images/image_t.jpg
p19
asS'language_code'
p20
NsS'images'
p21
(lp22
sS'id'
p23
I496
sS'category'
p24
VText
p25
sS'genres'
p26
(lp27
sS'copyright'
p28
VPublic domain in the USA.
p29
sS'title'
p30
VPrison of a Billion Years
p31
sS'wikipedia'
p32
(dp33
S'found'
p34
I00
ssS'average_rating'
p35
F3.15
sS'rating_count'
p36
I6
sS'content_available'
p37
I01
sS'cover_art_url'
p38
S'http://www.gutenberg.org/cache/epub/32150/pg32150.cover.medium.jpg'
p39
sS'goodreads'
p40
(dp41
S'url'
p42
Vhttps://www.goodreads.com/book/show/8157627-prison-of-a-billion-years
p43
sg34
I01
sS'year'
p44
I1956
ssS'similar_books'
p45
(lp46
sS'description'
p47
NsS'format'
p48
NsS'gutenberg'
p49
(dp50
g42
Vhttp://www.gutenberg.org/ebooks/32150
p51
sS'num'
p52
I32150
ssS'authors'
p53
(lp54
I79
asS'isbn13'
p55
NsS'language'
p56
VEnglish
p57
sS'countries'
p58
(lp59
I2
asS'release_date'
p60
S'2010-04-27T00:00:00'
p61
sS'author'
p62
I79
sS'content_cleaned'
p63
I01
sS'classes'
p64
(lp65
Vscience-fiction
p66
aVaudiobooks
p67
aVsci-fi
p68
aVshort-works-and-collections
p69
aVshort-story
p70
aVto-read
p71
aVaudio-obtained-lvss
p72
aVfeedbooks-com
p73
aV13
p74
aVtype-short-story
p75
aVaudio-obtained-ss
p76
asS'loc_class'
p77
VPS: Language and Literatures: American and Canadian literature
p78
sS'n_authors'
p79
I1
sb.