ccopy_reg
_reconstructor
p0
(cdataset.Book
Book
p1
c__builtin__
object
p2
Ntp3
Rp4
(dp5
S'similar_books'
p6
(lp7
sS'genres'
p8
(lp9
sS'author'
p10
I302
sS'countries'
p11
(lp12
I2
asS'year'
p13
I1963
sS'title'
p14
VGalaxy Magazine June 1963
p15
sS'cover'
p16
Vhttps://ia601300.us.archive.org/BookReader/BookReaderImages.php?zip=/2/items/Galaxy_v21n05_1963-06/Galaxy_v21n05_1963-06_jp2.zip&file=Galaxy_v21n05_1963-06_jp2/Galaxy_v21n05_1963-06_0000.jp2&scale=0&rotate=0
p17
sS'cover_art'
p18
S'http://www.isfdb.org/wiki/images/2/2c/GALJUN1963.jpg'
p19
sS'author_name'
p20
VGalaxy Magazine
p21
sS'images_urls'
p22
(lp23
sS'authors'
p24
(lp25
I519
aI581
aI568
aI497
aI582
aI40
aI339
aI483
aI326
aI67
aI575
aI56
aI278
aI315
aI302
asS'images'
p26
(lp27
sS'id'
p28
I1095
sS'contents'
p29
(lp30
(dp31
g10
I519
sg14
VHere Gather the Stars (Part 1 of 2)
p32
sa(dp33
g10
I519
sg14
VHere Gather the Stars (Part 1 of 2) [2]
p34
sa(dp35
g10
I519
sg14
VHere Gather the Stars (Part 1 of 2) [3]
p36
sa(dp37
g10
I519
sg14
VHere Gather the Stars (Part 1 of 2) [4]
p38
sa(dp39
g10
I519
sg14
VHere Gather the Stars (Part 1 of 2) [5]
p40
sa(dp41
g10
I581
sg14
VThe Cool War
p42
sa(dp43
g10
I568
sg14
VEnd As a Hero
p44
sa(dp45
g10
I568
sg14
VEnd As a Hero [2]
p46
sa(dp47
g10
I497
sg14
VThe Faithful Wilf
p48
sa(dp49
g10
I497
sg14
VThe Faithful Wilf [2]
p50
sa(dp51
g10
I497
sg14
VThe Faithful Wilf [3]
p52
sa(dp53
g10
I497
sg14
VThe Faithful Wilf [4]
p54
sa(dp55
g10
I497
sg14
VThe Faithful Wilf [5]
p56
sa(dp57
g10
I497
sg14
VThe Faithful Wilf [6]
p58
sa(dp59
g10
I582
sg14
VThe Sellers of the Dream
p60
sa(dp61
g10
I582
sg14
VThe Sellers of the Dream [2]
p62
sa(dp63
g10
I40
sg14
VOf Worms and Men
p64
sa(dp65
g10
I339
sg14
VFor Your Information: Sounding Rockets and Geoprobes
p66
sa(dp67
g10
I483
sg14
VGalaxy's 5 Star Shelf (Galaxy, June 1963)
p68
sa(dp69
g10
I326
sg14
VForecast (Galaxy, June 1963)
p70
sa(dp71
g10
I67
sg14
VEnd As a Hero
p72
sa(dp73
g10
I575
sg14
VThe Sellers of the Dream
p74
sa(dp75
g10
I56
sg14
VHere Gather the Stars (Part 1 of 2)
p76
sa(dp77
g10
I278
sg14
VThe Cool War
p78
sa(dp79
g10
I315
sg14
VThe Faithful Wilf
p80
sasb.