ccopy_reg
_reconstructor
p0
(cdataset.Book
Book
p1
c__builtin__
object
p2
Ntp3
Rp4
(dp5
S'content_name'
p6
V51832.txt.utf-8
p7
sS'isbn'
p8
NsS'year'
p9
I1962
sS'author_name'
p10
VJim Harmon
p11
sS'images_urls'
p12
(lp13
Vhttp://www.gutenberg.org/files/51832/51832-h/images/cover.jpg
p14
aVhttp://www.gutenberg.org/files/51832/51832-h/images/illus1.jpg
p15
aVhttp://www.gutenberg.org/files/51832/51832-h/images/illus2.jpg
p16
aVhttp://www.gutenberg.org/files/51832/51832-h/images/illus3.jpg
p17
asS'language_code'
p18
NsS'images'
p19
(lp20
sS'id'
p21
I427
sS'category'
p22
VText
p23
sS'genres'
p24
(lp25
sS'copyright'
p26
VPublic domain in the USA.
p27
sS'title'
p28
VThe Place Where Chicago Was
p29
sS'wikipedia'
p30
(dp31
S'found'
p32
I00
ssS'average_rating'
p33
F0.0
sS'rating_count'
p34
I0
sS'content_available'
p35
I01
sS'cover_art_url'
p36
S'http://www.gutenberg.org/cache/epub/51832/pg51832.cover.medium.jpg'
p37
sS'goodreads'
p38
(dp39
S'url'
p40
Vhttps://www.goodreads.com/book/show/31292604-the-place-where-chicago-was
p41
sg32
I01
sS'year'
p42
I-1
ssS'similar_books'
p43
(lp44
sS'description'
p45
NsS'format'
p46
NsS'gutenberg'
p47
(dp48
g40
Vhttp://www.gutenberg.org/ebooks/51832
p49
sS'num'
p50
I51832
ssS'authors'
p51
(lp52
I142
asS'isbn13'
p53
NsS'language'
p54
VEnglish
p55
sS'countries'
p56
(lp57
I2
asS'release_date'
p58
S'2016-04-22T00:00:00'
p59
sS'author'
p60
I142
sS'content_cleaned'
p61
I01
sS'classes'
p62
(lp63
Vto-read
p64
aVunknown-publication-dates
p65
asS'loc_class'
p66
S''
p67
sS'n_authors'
p68
I1
sb.