ccopy_reg
_reconstructor
p0
(cdataset.Book
Book
p1
c__builtin__
object
p2
Ntp3
Rp4
(dp5
S'content_name'
p6
V32237.txt.utf-8
p7
sS'isbn'
p8
V1545378045
p9
sS'year'
p10
I1958
sS'author_name'
p11
VJesse F. Bone
p12
sS'images_urls'
p13
(lp14
Vhttp://www.gutenberg.org/files/32237/32237-h/images/cover.jpg
p15
aVhttp://www.gutenberg.org/files/32237/32237-h/images/image_001.jpg
p16
aVhttp://www.gutenberg.org/files/32237/32237-h/images/image_f.jpg
p17
aVhttp://www.gutenberg.org/files/32237/32237-h/images/image_h.jpg
p18
aVhttp://www.gutenberg.org/files/32237/32237-h/images/image_i.jpg
p19
aVhttp://www.gutenberg.org/files/32237/32237-h/images/image_m.jpg
p20
aVhttp://www.gutenberg.org/files/32237/32237-h/images/image_t.jpg
p21
asS'language_code'
p22
NsS'images'
p23
(lp24
sS'id'
p25
I213
sS'category'
p26
VText
p27
sS'genres'
p28
(lp29
sS'copyright'
p30
VPublic domain in the USA.
p31
sS'title'
p32
VAssassin
p33
sS'wikipedia'
p34
(dp35
S'found'
p36
I00
ssS'average_rating'
p37
F3.95
sS'rating_count'
p38
I0
sS'content_available'
p39
I01
sS'cover_art_url'
p40
S'http://www.gutenberg.org/cache/epub/32237/pg32237.cover.medium.jpg'
p41
sS'goodreads'
p42
(dp43
S'url'
p44
S'https://www.goodreads.com/book/show/34960071-assassin'
p45
sS'found'
p46
I01
ssS'similar_books'
p47
(lp48
sS'description'
p49
NsS'gutenberg'
p50
(dp51
S'url'
p52
Vhttp://www.gutenberg.org/ebooks/32237
p53
sS'num'
p54
I32237
ssS'authors'
p55
(lp56
I68
asS'isbn13'
p57
V9781545378045
p58
sS'language'
p59
VEnglish
p60
sS'countries'
p61
(lp62
I2
asS'release_date'
p63
S'2010-05-03T00:00:00'
p64
sS'author'
p65
I68
sS'content_cleaned'
p66
I01
sS'classes'
p67
(lp68
sS'loc_class'
p69
VPS: Language and Literatures: American and Canadian literature
p70
sS'n_authors'
p71
I1
sb.