ccopy_reg
_reconstructor
p0
(cdataset.Book
Book
p1
c__builtin__
object
p2
Ntp3
Rp4
(dp5
S'content_name'
p6
V51295.txt.utf-8
p7
sS'isbn'
p8
V0375713492
p9
sS'year'
p10
I1954
sS'author_name'
p11
VF. L. Wallace
p12
sS'images_urls'
p13
(lp14
Vhttp://www.gutenberg.org/files/51295/51295-h/images/cover.jpg
p15
aVhttp://www.gutenberg.org/files/51295/51295-h/images/illus1.jpg
p16
aVhttp://www.gutenberg.org/files/51295/51295-h/images/illus2.jpg
p17
aVhttp://www.gutenberg.org/files/51295/51295-h/images/illus3.jpg
p18
asS'language_code'
p19
NsS'id'
p20
I831
sS'category'
p21
VText
p22
sS'genres'
p23
(lp24
sS'copyright'
p25
VPublic domain in the USA.
p26
sS'title'
p27
VThe Man Who Was Six
p28
sS'wikipedia'
p29
(dp30
S'found'
p31
I00
ssS'average_rating'
p32
F3.66
sS'rating_count'
p33
I706
sS'content_available'
p34
I01
sS'cover_art_url'
p35
S'http://www.gutenberg.org/cache/epub/51295/pg51295.cover.medium.jpg'
p36
sS'goodreads'
p37
(dp38
S'url'
p39
Vhttps://www.goodreads.com/book/show/484529.Fletch_and_the_Man_Who
p40
sS'found'
p41
I01
sS'year'
p42
I1983
ssS'similar_books'
p43
(lp44
VThe Eight of Swords (Dr. Gideon Fell, #3)
p45
aVChinaman's Chance (Arthur Case Wu, #1)
p46
aVOne Police Plaza
p47
aVPoison (87th Precinct, #39)
p48
aVRed Zone
p49
aVSick Puppy / Skin Tight
p50
aVThe Black Lizard Anthology of Crime Fiction
p51
aVReturn to the Same City: A Hector Belascoaran Shayne Detective Novel
p52
aVPrizzi's Honor
p53
aVPipsqueak
p54
aVRaymond Chandler's Philip Marlowe: A Centennial Celebration
p55
aVUnknown Man #89 (Jack Ryan, #2)
p56
aVThe Girl in the Plain Brown Wrapper (Travis McGee #10)
p57
aVThe Warsaw Document
p58
aVDaredevil Noir
p59
aVPowers: Bureau, Vol. 1: Undercover
p60
aVThe Burglar in the Rye (Bernie Rhodenbarr, #9)
p61
aVMoney to Burn (Casey Jones Mysteries #3)
p62
asS'description'
p63
V\u201cA girl jumped off the motel\u2019s roof. Five minutes ago.\u201d<br /><br />"Give it to me straight. Does the girl have anything to do with us? I mean, with the campaign? The presidential candidate?"<br /><br />"It's your job, Fletch, to make damned sure she didn't."<br /><br /><br /><b>FLETCH and the Man Who</b><br />When Fletch arrives as the new press representative for Governor Caxton Wheeler\u2019s presidential campaign, he isn\u2019t sure which mystery to solve first: what his new job actually is or why the campaign has been leaving dead women in its tracks.<br /><br /><b>FLETCH and the Man Who</b><br />He finds himself on the other side of the press, a human shield deflecting the questions he is asking himself. Are the murders just coincidence, or is a cold-hearted killer looking for a job in the White House?<br /><br /><b>FLETCH and the Man Who</b><br />When the campaign shifts into high gear, Fletch\u2019s skills are working overtime in a desperate bid of his own to find the killer and to make sure the governor doesn\u2019t lose any more votes.
p64
sS'format'
p65
VPaperback
p66
sS'gutenberg'
p67
(dp68
g39
Vhttp://www.gutenberg.org/ebooks/51295
p69
sS'num'
p70
I51295
ssS'authors'
p71
(lp72
I138
asS'pages'
p73
I224
sS'isbn13'
p74
V9780375713491
p75
sS'language'
p76
VEnglish
p77
sS'countries'
p78
(lp79
I2
asS'release_date'
p80
S'2016-02-24T00:00:00'
p81
sS'author'
p82
I138
sS'content_cleaned'
p83
I01
sS'classes'
p84
(lp85
Vto-read
p86
aVmystery
p87
aVfiction
p88
aVcrime
p89
aVnovels
p90
aVhumor
p91
aVowned
p92
aVdetective
p93
aVfletch
p94
aVdefault
p95
aVseries
p96
aVmysteries
p97
aVcurrently-reading
p98
aVcomedy
p99
aVe-book
p100
aVthriller
p101
aVhave
p102
aVhumour
p103
aVmystery-thriller
p104
aVpre-goodreads
p105
aVfiction-to-buy
p106
aVkindle
p107
aVcalibre
p108
aVnoir-and-crime-fiction
p109
aVs-fletch
p110
aVfull-list
p111
aVcrime-fiction
p112
aVread-in-2017
p113
aVcrimes
p114
aV01-words-sa
p115
aVgeof-s-books
p116
aVsuspense
p117
aVtote-8
p118
aVacquired
p119
aV01-words-s
p120
aVfiction-read
p121
aVwant-to-own
p122
aVto-read-owned-ebooks
p123
aVtom-s-fiction
p124
aVpart-of-a-series
p125
aV2016-reads
p126
aVamerican
p127
aVto-read-owned
p128
aVfiction-adult
p129
aVmystery-crime
p130
aVtbr-2011
p131
aVpub-vintage
p132
aVpc-200-299
p133
aVmystery-thrillers
p134
aVf
p135
aVc-black
p136
aVauthor-m
p137
aVkindle-books
p138
aVshelved-living-room
p139
aVavailable
p140
aVtr
p141
aVunknown-date
p142
aVowned-shelfari
p143
aVown-in-kindle
p144
aVthriller-mystery
p145
aVread-in-2015
p146
aVrory-gilmore-reading-challenge
p147
aVin-my-drawers
p148
aVamerican-thrillers
p149
aVon-hand
p150
aVfavourite-20th-century-authors
p151
aVread-mystery
p152
aVowned-mystery
p153
aVgregory-macdonald
p154
aVthomasmcdonaldspenser
p155
aVmoorehiassen
p156
aVa1
p157
aVowned-books-public
p158
aVowned-books
p159
aVwaiting-on-the-shelf
p160
aVunread
p161
aVon-disk
p162
aVread-as-an-adult
p163
aVmystery-and-thriller
p164
aVto-read-own
p165
aVrory-gilmore-reading-list
p166
aVdon-t-have-might-read-someday
p167
aVread2010
p168
aVfiction-novel
p169
aVphysical-library
p170
aVlibrary
p171
aVgeneral-fiction
p172
aVpaperback
p173
aVmystery-and-crime
p174
aVunowned
p175
aVbut
p176
aVrory-s-booklist
p177
aVinlibpaper
p178
aVpaperback-fiction-i-own
p179
aVbooks-i-once-owned
p180
aVhome-library-germany
p181
aVfix-cover
p182
aVunknown
p183
aV_mystery
p184
aVhard-copy
p185
asS'loc_class'
p186
S''
p187
sS'n_authors'
p188
I1
sb.