ccopy_reg
_reconstructor
p0
(cdataset.Book
Book
p1
c__builtin__
object
p2
Ntp3
Rp4
(dp5
S'content_name'
p6
V23102.txt.utf-8
p7
sS'isbn'
p8
V1463897081
p9
sS'year'
p10
I1951
sS'author_name'
p11
VH. B. Fyfe
p12
sS'images_urls'
p13
(lp14
Vhttp://www.gutenberg.org/files/23102/23102-h/images/001.png
p15
aVhttp://www.gutenberg.org/files/23102/23102-h/images/002.png
p16
aVhttp://www.gutenberg.org/files/23102/23102-h/images/003.png
p17
aVhttp://www.gutenberg.org/files/23102/23102-h/images/004.png
p18
aVhttp://www.gutenberg.org/files/23102/23102-page-images/p022.png
p19
aVhttp://www.gutenberg.org/files/23102/23102-page-images/p023.png
p20
aVhttp://www.gutenberg.org/files/23102/23102-page-images/p024.png
p21
aVhttp://www.gutenberg.org/files/23102/23102-page-images/p025.png
p22
aVhttp://www.gutenberg.org/files/23102/23102-page-images/p026-image.png
p23
aVhttp://www.gutenberg.org/files/23102/23102-page-images/p026.png
p24
aVhttp://www.gutenberg.org/files/23102/23102-page-images/p027.png
p25
aVhttp://www.gutenberg.org/files/23102/23102-page-images/p028.png
p26
aVhttp://www.gutenberg.org/files/23102/23102-page-images/p029-image.png
p27
aVhttp://www.gutenberg.org/files/23102/23102-page-images/p029.png
p28
aVhttp://www.gutenberg.org/files/23102/23102-page-images/p030.png
p29
aVhttp://www.gutenberg.org/files/23102/23102-page-images/p031.png
p30
aVhttp://www.gutenberg.org/files/23102/23102-page-images/p032.png
p31
aVhttp://www.gutenberg.org/files/23102/23102-page-images/p033-image.png
p32
aVhttp://www.gutenberg.org/files/23102/23102-page-images/p033.png
p33
aVhttp://www.gutenberg.org/files/23102/23102-page-images/p034.png
p34
aVhttp://www.gutenberg.org/files/23102/23102-page-images/p035.png
p35
aVhttp://www.gutenberg.org/files/23102/23102-page-images/p036.png
p36
aVhttp://www.gutenberg.org/files/23102/23102-page-images/p037.png
p37
asS'language_code'
p38
NsS'id'
p39
I677
sS'category'
p40
VText
p41
sS'genres'
p42
(lp43
sS'copyright'
p44
VPublic domain in the USA.
p45
sS'title'
p46
VThis World Must Die!
p47
sS'wikipedia'
p48
(dp49
S'found'
p50
I00
ssS'average_rating'
p51
F2.82
sS'rating_count'
p52
I10
sS'content_available'
p53
I01
sS'goodreads'
p54
(dp55
S'url'
p56
Vhttps://www.goodreads.com/book/show/11923386-this-world-must-die
p57
sS'found'
p58
I01
sS'year'
p59
I2009
ssS'similar_books'
p60
(lp61
sS'description'
p62
V"You have been chosen for this mission of murder because you are the only people in our culture who are capable of this type of violence. You have broken our laws, and this is your punishment!"<br /><br />THIS WORLD MUST DIE!<br /><br />Social living requires the elimination, or at very best, the modification of many elements necessary to survival in "nature." And when an emergency arises, very often it is the person who would be considered a "criminal," in other situations, who alone is able to cope with the necessities. If we manage to eliminate "violence" from human affairs, what will we find when a need for "violence" arises -- a need outside of man's artificial control of his environment?
p63
sS'gutenberg'
p64
(dp65
g56
Vhttp://www.gutenberg.org/ebooks/23102
p66
sS'num'
p67
I23102
ssS'authors'
p68
(lp69
I94
asS'pages'
p70
I34
sS'isbn13'
p71
V9781463897086
p72
sS'language'
p73
VEnglish
p74
sS'countries'
p75
(lp76
I2
asS'release_date'
p77
S'2007-10-20T00:00:00'
p78
sS'author'
p79
I94
sS'content_cleaned'
p80
I01
sS'classes'
p81
(lp82
Vto-read
p83
aVscience-fiction
p84
aVfree-from-amazon
p85
aVclassic
p86
aVshort-stories
p87
aVto-read-on-nook
p88
aVto-read-ebook
p89
asS'loc_class'
p90
VPS: Language and Literatures: American and Canadian literature
p91
sS'n_authors'
p92
I1
sb.