ccopy_reg
_reconstructor
p0
(cdataset.Book
Book
p1
c__builtin__
object
p2
Ntp3
Rp4
(dp5
S'content_name'
p6
V25438.txt.utf-8
p7
sS'isbn'
p8
NsS'year'
p9
I2001
sS'author_name'
p10
VPhilip Francis Nowlan
p11
sS'images_urls'
p12
(lp13
Vhttp://www.gutenberg.org/files/25438/25438-h/images/001.png
p14
aVhttp://www.gutenberg.org/files/25438/25438-page-images/p0062.png
p15
aVhttp://www.gutenberg.org/files/25438/25438-page-images/p0063-image1.png
p16
aVhttp://www.gutenberg.org/files/25438/25438-page-images/p0063.png
p17
aVhttp://www.gutenberg.org/files/25438/25438-page-images/p0064.png
p18
aVhttp://www.gutenberg.org/files/25438/25438-page-images/p0065.png
p19
aVhttp://www.gutenberg.org/files/25438/25438-page-images/p0066.png
p20
aVhttp://www.gutenberg.org/files/25438/25438-page-images/p0067.png
p21
aVhttp://www.gutenberg.org/files/25438/25438-page-images/p0068.png
p22
aVhttp://www.gutenberg.org/files/25438/25438-page-images/p0069.png
p23
aVhttp://www.gutenberg.org/files/25438/25438-page-images/p0070.png
p24
aVhttp://www.gutenberg.org/files/25438/25438-page-images/p0071.png
p25
aVhttp://www.gutenberg.org/files/25438/25438-page-images/p0072.png
p26
aVhttp://www.gutenberg.org/files/25438/25438-page-images/p0073.png
p27
aVhttp://www.gutenberg.org/files/25438/25438-page-images/p0074.png
p28
aVhttp://www.gutenberg.org/files/25438/25438-page-images/p0075.png
p29
aVhttp://www.gutenberg.org/files/25438/25438-page-images/p0076.png
p30
aVhttp://www.gutenberg.org/files/25438/25438-page-images/p0077.png
p31
aVhttp://www.gutenberg.org/files/25438/25438-page-images/p0078.png
p32
aVhttp://www.gutenberg.org/files/25438/25438-page-images/p0079.png
p33
aVhttp://www.gutenberg.org/files/25438/25438-page-images/p0080.png
p34
aVhttp://www.gutenberg.org/files/25438/25438-page-images/p0081.png
p35
aVhttp://www.gutenberg.org/files/25438/25438-page-images/p0082.png
p36
aVhttp://www.gutenberg.org/files/25438/25438-page-images/p0083.png
p37
aVhttp://www.gutenberg.org/files/25438/25438-page-images/p0084.png
p38
aVhttp://www.gutenberg.org/files/25438/25438-page-images/p0085.png
p39
aVhttp://www.gutenberg.org/files/25438/25438-page-images/p0086.png
p40
aVhttp://www.gutenberg.org/files/25438/25438-page-images/p0087.png
p41
aVhttp://www.gutenberg.org/files/25438/25438-page-images/p0088.png
p42
aVhttp://www.gutenberg.org/files/25438/25438-page-images/p0089.png
p43
aVhttp://www.gutenberg.org/files/25438/25438-page-images/p0090.png
p44
aVhttp://www.gutenberg.org/files/25438/25438-page-images/p0091.png
p45
aVhttp://www.gutenberg.org/files/25438/25438-page-images/p0092.png
p46
aVhttp://www.gutenberg.org/files/25438/25438-page-images/p0093.png
p47
aVhttp://www.gutenberg.org/files/25438/25438-page-images/p0094.png
p48
aVhttp://www.gutenberg.org/files/25438/25438-page-images/p0095.png
p49
aVhttp://www.gutenberg.org/files/25438/25438-page-images/p0096.png
p50
aVhttp://www.gutenberg.org/files/25438/25438-page-images/p0097.png
p51
aVhttp://www.gutenberg.org/files/25438/25438-page-images/p0098.png
p52
aVhttp://www.gutenberg.org/files/25438/25438-page-images/p0099.png
p53
aVhttp://www.gutenberg.org/files/25438/25438-page-images/p0100.png
p54
aVhttp://www.gutenberg.org/files/25438/25438-page-images/p0101.png
p55
aVhttp://www.gutenberg.org/files/25438/25438-page-images/p0102.png
p56
aVhttp://www.gutenberg.org/files/25438/25438-page-images/p0103.png
p57
aVhttp://www.gutenberg.org/files/25438/25438-page-images/p0104.png
p58
aVhttp://www.gutenberg.org/files/25438/25438-page-images/p0105.png
p59
aVhttp://www.gutenberg.org/files/25438/25438-page-images/p0106.png
p60
aVhttp://www.gutenberg.org/files/25438/25438-page-images/p0107.png
p61
aVhttp://www.gutenberg.org/files/25438/25438-page-images/p0108.png
p62
aVhttp://www.gutenberg.org/files/25438/25438-page-images/p0109.png
p63
aVhttp://www.gutenberg.org/files/25438/25438-page-images/p0110.png
p64
aVhttp://www.gutenberg.org/files/25438/25438-page-images/p0111.png
p65
aVhttp://www.gutenberg.org/files/25438/25438-page-images/p0112.png
p66
aVhttp://www.gutenberg.org/files/25438/25438-page-images/p0113.png
p67
aVhttp://www.gutenberg.org/files/25438/25438-page-images/p0114.png
p68
aVhttp://www.gutenberg.org/files/25438/25438-page-images/p0115.png
p69
aVhttp://www.gutenberg.org/files/25438/25438-page-images/p0116.png
p70
aVhttp://www.gutenberg.org/files/25438/25438-page-images/p0117.png
p71
aVhttp://www.gutenberg.org/files/25438/25438-page-images/p0118.png
p72
aVhttp://www.gutenberg.org/files/25438/25438-page-images/p0119.png
p73
aVhttp://www.gutenberg.org/files/25438/25438-page-images/p0120.png
p74
aVhttp://www.gutenberg.org/files/25438/25438-page-images/p0121.png
p75
aVhttp://www.gutenberg.org/files/25438/25438-page-images/p0122.png
p76
aVhttp://www.gutenberg.org/files/25438/25438-page-images/p0123.png
p77
aVhttp://www.gutenberg.org/files/25438/25438-page-images/p0124.png
p78
aVhttp://www.gutenberg.org/files/25438/25438-page-images/p0125.png
p79
aVhttp://www.gutenberg.org/files/25438/25438-page-images/p0126.png
p80
aVhttp://www.gutenberg.org/files/25438/25438-page-images/p0127.png
p81
aVhttp://www.gutenberg.org/files/25438/25438-page-images/p0128.png
p82
aVhttp://www.gutenberg.org/files/25438/25438-page-images/p0129.png
p83
aVhttp://www.gutenberg.org/files/25438/25438-page-images/p0130.png
p84
aVhttp://www.gutenberg.org/files/25438/25438-page-images/p0131.png
p85
aVhttp://www.gutenberg.org/files/25438/25438-page-images/p0132.png
p86
aVhttp://www.gutenberg.org/files/25438/25438-page-images/p0133.png
p87
aVhttp://www.gutenberg.org/files/25438/25438-page-images/p0134.png
p88
aVhttp://www.gutenberg.org/files/25438/25438-page-images/p0135.png
p89
aVhttp://www.gutenberg.org/files/25438/25438-page-images/p0136.png
p90
asS'language_code'
p91
Ven-GB
p92
sS'images'
p93
(lp94
sS'id'
p95
I160
sS'category'
p96
VText
p97
sS'genres'
p98
(lp99
sS'copyright'
p100
VPublic domain in the USA.
p101
sS'title'
p102
VThe Airlords of Han
p103
sS'wikipedia'
p104
(dp105
S'found'
p106
I00
ssS'average_rating'
p107
F3.09
sS'rating_count'
p108
I60
sS'content_available'
p109
I01
sS'goodreads'
p110
(dp111
S'url'
p112
Vhttps://www.goodreads.com/book/show/6328975-the-airlords-of-han
p113
sg106
I01
sS'year'
p114
I2001
ssS'similar_books'
p115
(lp116
sS'description'
p117
NsS'format'
p118
NsS'gutenberg'
p119
(dp120
g112
Vhttp://www.gutenberg.org/ebooks/25438
p121
sS'num'
p122
I25438
ssS'authors'
p123
(lp124
I20
asS'isbn13'
p125
NsS'language'
p126
VEnglish
p127
sS'release_date'
p128
S'2008-05-11T00:00:00'
p129
sS'author'
p130
I20
sS'content_cleaned'
p131
I01
sS'classes'
p132
(lp133
Vto-read
p134
aVscience-fiction
p135
aVcurrently-reading
p136
aVbuck-rogers
p137
aVpdm-ereader
p138
aVnook
p139
aVfiction
p140
aVsf
p141
aVfeedbooks
p142
aVwant-to-own
p143
aV21st-century-lit
p144
aVbooks-to-mine-for-writing-ideas
p145
aVnovels
p146
aVtechno-magic
p147
aVgun-play
p148
aVfascist-fiction
p149
aVfantasy-war
p150
aVcivilization-in-decline
p151
aVaudiobooks
p152
aVowned-pending-kindle-free-ebook
p153
aVkindle-free-ebook
p154
aVfreebie
p155
aVz_fiction
p156
aVx_novel
p157
aVwo_scifi
p158
aVsci-fi
p159
aVadventure
p160
aVw_us_late
p161
aVadventure-pulp
p162
aVend-of-the-world
p163
aVfeedbooks-com
p164
aVkindle-owned
p165
aV1-science-fiction-studies
p166
aVtbr-ebook
p167
aVread-in-2014
p168
aVebook
p169
aVi-own-a-copy
p170
aVorphans
p171
aVaudible-book
p172
aVscifi
p173
aVpulp
p174
aVsf-fantasy
p175
aVsuper-awesome-scifi-catchup
p176
aV2013_read
p177
aVe-reader
p178
aVclassic-scifi
p179
aVread-2012
p180
aVowned
p181
aVfantasy-science-fiction
p182
aVdefault
p183
aVepubs
p184
aVfree-ebook
p185
aVsci-fi-or-speculative
p186
aVkindle
p187
aVfantasy
p188
asS'loc_class'
p189
VPS: Language and Literatures: American and Canadian literature
p190
sS'n_authors'
p191
I1
sb.