ccopy_reg
_reconstructor
p0
(cdataset.Book
Book
p1
c__builtin__
object
p2
Ntp3
Rp4
(dp5
S'similar_books'
p6
(lp7
sS'genres'
p8
(lp9
sS'author'
p10
I302
sS'countries'
p11
(lp12
I2
asS'year'
p13
I1958
sS'title'
p14
VGalaxy Magazine February 1958
p15
sS'cover'
p16
Vhttps://ia600207.us.archive.org/BookReader/BookReaderImages.php?zip=/21/items/Galaxy_v15n04_1958-02/Galaxy_v15n04_1958-02_jp2.zip&file=Galaxy_v15n04_1958-02_jp2/Galaxy_v15n04_1958-02_0000.jp2&scale=0&rotate=0
p17
sS'cover_art'
p18
S'http://www.isfdb.org/wiki/images/1/1b/MLO4446.jpg'
p19
sS'author_name'
p20
VGalaxy Magazine
p21
sS'images_urls'
p22
(lp23
sS'authors'
p24
(lp25
I519
aI525
aI529
aI419
aI504
aI506
aI305
aI339
aI483
aI498
aI19
aI509
aI16
aI32
aI172
aI400
aI302
asS'images'
p26
(lp27
sS'id'
p28
I1060
sS'contents'
p29
(lp30
(dp31
S'title'
p32
VThe Rule of the Door
p33
sS'author'
p34
I519
sa(dp35
g32
VThe Rule of the Door [2]
p36
sg34
I519
sa(dp37
g32
VThe Rule of the Door [3]
p38
sg34
I519
sa(dp39
g32
VThe Big Bounce
p40
sg34
I525
sa(dp41
g32
VThe Repairman
p42
sg34
I529
sa(dp43
g32
VBread Overhead
p44
sg34
I519
sa(dp45
g32
VBread Overhead [2]
p46
sg34
I519
sa(dp47
g32
VBread Overhead [3]
p48
sg34
I519
sa(dp49
g32
VThe Blue Tower
p50
sg34
I419
sa(dp51
g32
VTraders Risk
p52
sg34
I504
sa(dp53
g32
VGraveyard of Dreams
p54
sg34
I506
sa(dp55
g32
VGraveyard of Dreams [2]
p56
sg34
I506
sa(dp57
g32
VGraveyard of Dreams [3]
p58
sg34
I506
sa(dp59
g32
VRepeat Performance
p60
sg34
I305
sa(dp61
g32
VFor Your Information: A Century of New Animals
p62
sg34
I339
sa(dp63
g32
VGalaxy's 5 Star Shelf (Galaxy, February 1958)
p64
sg34
I483
sa(dp65
g32
VThe Rule of the Door
p66
sg34
I498
sa(dp67
g32
VGraveyard of Dreams
p68
sg34
I19
sa(dp69
g32
VThe Big Bounce
p70
sg34
I509
sa(dp71
g32
VThe Repairman
p72
sg34
I16
sa(dp73
g32
VBread Overhead
p74
sg34
I32
sa(dp75
g32
VThe Blue Tower
p76
sg34
I172
sa(dp77
g32
VTraders Risk
p78
sg34
I400
sasb.