ccopy_reg
_reconstructor
p0
(cdataset.Book
Book
p1
c__builtin__
object
p2
Ntp3
Rp4
(dp5
S'content_name'
p6
V2509.txt.utf-8
p7
sS'isbn'
p8
V1419168665
p9
sS'year'
p10
I1962
sS'author_name'
p11
VJesse F. Bone
p12
sS'images_urls'
p13
(lp14
sS'language_code'
p15
NsS'images'
p16
(lp17
sS'id'
p18
I530
sS'category'
p19
VText
p20
sS'genres'
p21
(lp22
sS'copyright'
p23
VPublic domain in the USA.
p24
sS'title'
p25
VThe Lani People
p26
sS'wikipedia'
p27
(dp28
S'found'
p29
I00
ssS'average_rating'
p30
F3.54
sS'rating_count'
p31
I39
sS'content_available'
p32
I01
sS'goodreads'
p33
(dp34
S'url'
p35
Vhttps://www.goodreads.com/book/show/272093.The_Lani_People
p36
sg29
I01
sS'year'
p37
I1962
ssS'similar_books'
p38
(lp39
sS'description'
p40
VThey exported the Lani to every planet in the galaxy. Who wants to be bothered by a woman when you can get a whole harem of Lani so cheap? All Lani are exactly like women with one minor "addition". All happy only in the natural naked state. All expertly trained to make a man feel like a god. You specify pedigree - Say Silver Dawn out of White Magic for a platinum-blonde model, or you can take your pick from the adoring herd. The Lani People is the startling story of a planet that applied new scientific knowledge to techniques of breeding, and came up with a system that revolutionized society.
p41
sS'gutenberg'
p42
(dp43
g35
Vhttp://www.gutenberg.org/ebooks/2509
p44
sS'num'
p45
I2509
ssS'authors'
p46
(lp47
I68
asS'isbn13'
p48
V9781419168666
p49
sS'language'
p50
VEnglish
p51
sS'countries'
p52
(lp53
I2
asS'release_date'
p54
S'2001-02-01T00:00:00'
p55
sS'author'
p56
I68
sS'cover'
p57
Vhttps://s.gr-assets.com/assets/nophoto/book/111x148-bcc042a9c91a29c1d680899eff700a03.png
p58
sS'content_cleaned'
p59
I00
sS'classes'
p60
(lp61
Vto-read
p62
aVscience-fiction
p63
aVfiction
p64
aVcurrently-reading
p65
aVowned
p66
aVsf-fantasy
p67
aVluitingh-sf
p68
aVmaybe
p69
aVscifi-new-wave-1960-1979
p70
aVscifi
p71
aVdid-not-keep
p72
aVproject-gutenberg
p73
aVsf
p74
aV1-owning
p75
aVinlibrary
p76
aVmy-collection
p77
aVfeedbooks-com
p78
aVspace
p79
aVreligion
p80
aVpsychics
p81
aVpolitics
p82
aVhard-sci-fi
p83
aVcyberpunk
p84
aVbad-future
p85
aValiens
p86
aVliterary
p87
aVmight-read-someday
p88
aVhave-e-book
p89
aVto-acquire
p90
aVfantasy_science-fiction
p91
aVwill_not_read_only_release
p92
aVdutch_language
p93
aVbookcrossing
p94
aVsci-fi---fantasy
p95
aVunfiltered
p96
aVsf-space-opera
p97
aVsf-alien-planets-and-societies
p98
aVnot-read
p99
aVbaird-mcclintock
p100
aVpublic-domain
p101
aVbone-jesse-franklin
p102
asS'loc_class'
p103
VPS: Language and Literatures: American and Canadian literature
p104
sS'n_authors'
p105
I1
sb.