ccopy_reg
_reconstructor
p0
(cdataset.Book
Book
p1
c__builtin__
object
p2
Ntp3
Rp4
(dp5
S'content_name'
p6
V23872.txt.utf-8
p7
sS'isbn'
p8
V075068593X
p9
sS'year'
p10
I1962
sS'author_name'
p11
VCharles L. Harness
p12
sS'images_urls'
p13
(lp14
Vhttp://www.gutenberg.org/files/23872/23872-h/images/001.png
p15
aVhttp://www.gutenberg.org/files/23872/23872-h/images/002.png
p16
aVhttp://www.gutenberg.org/files/23872/23872-page-images/p119-image.png
p17
aVhttp://www.gutenberg.org/files/23872/23872-page-images/p119.png
p18
aVhttp://www.gutenberg.org/files/23872/23872-page-images/p120.png
p19
aVhttp://www.gutenberg.org/files/23872/23872-page-images/p121.png
p20
aVhttp://www.gutenberg.org/files/23872/23872-page-images/p122.png
p21
aVhttp://www.gutenberg.org/files/23872/23872-page-images/p123.png
p22
aVhttp://www.gutenberg.org/files/23872/23872-page-images/p124.png
p23
aVhttp://www.gutenberg.org/files/23872/23872-page-images/p125.png
p24
aVhttp://www.gutenberg.org/files/23872/23872-page-images/p126.png
p25
aVhttp://www.gutenberg.org/files/23872/23872-page-images/p127.png
p26
aVhttp://www.gutenberg.org/files/23872/23872-page-images/p128.png
p27
aVhttp://www.gutenberg.org/files/23872/23872-page-images/p129.png
p28
aVhttp://www.gutenberg.org/files/23872/23872-page-images/p130.png
p29
aVhttp://www.gutenberg.org/files/23872/23872-page-images/p131.png
p30
aVhttp://www.gutenberg.org/files/23872/23872-page-images/p132.png
p31
aVhttp://www.gutenberg.org/files/23872/23872-page-images/p133.png
p32
aVhttp://www.gutenberg.org/files/23872/23872-page-images/p134.png
p33
aVhttp://www.gutenberg.org/files/23872/23872-page-images/p135.png
p34
asS'language_code'
p35
NsS'id'
p36
I492
sS'category'
p37
VText
p38
sS'genres'
p39
(lp40
sS'copyright'
p41
VPublic domain in the USA.
p42
sS'title'
p43
VThe Professional Approach
p44
sS'wikipedia'
p45
(dp46
S'found'
p47
I00
ssS'average_rating'
p48
F4.09
sS'rating_count'
p49
I204
sS'content_available'
p50
I01
sS'goodreads'
p51
(dp52
S'url'
p53
Vhttps://www.goodreads.com/book/show/2178285.Photojournalism
p54
sS'found'
p55
I01
sS'year'
p56
I1983
ssS'similar_books'
p57
(lp58
VSlightly Out of Focus
p59
aVTao of Photography: Seeing Beyond Seeing
p60
aVMichael Freeman's Perfect Exposure: The Professional's Guide to Capturing Perfect Digital Photographs
p61
aVThe Print (Ansel Adams Photography, #3)
p62
aVUnreasonable Behaviour: An Autobiography
p63
aVWhiskey Tango Foxtrot: A Photographer's Chronicle of the Iraq War
p64
aVPhotography
p65
aVBreaking News: A Stunning and Memorable Account of Reporting from Some of the Most Dangerous Places in the World
p66
aVThe Great Life Photographers
p67
aVLight: Science and Magic: An Introduction to Photographic Lighting
p68
aVThe Passionate Photographer: Ten Steps Toward Becoming Great
p69
aVNational Geographic Photography Field Guide: Secrets to Making Great Pictures
p70
aVDigital Photographer's Handbook
p71
aVPhotography and the Art of Seeing: A Visual Perception Workshop for Film and Digital Photography
p72
aVThe Photographer's Handbook
p73
aVImage Makers, Image Takers: Interviews with Today's Leading Curators, Editors and Photographers
p74
aVCreative Black & White: Digital Photography Tips & Techniques
p75
aVTravel Photography: A Guide to Taking Better Pictures
p76
asS'description'
p77
NsS'format'
p78
NsS'gutenberg'
p79
(dp80
g53
Vhttp://www.gutenberg.org/ebooks/23872
p81
sS'num'
p82
I23872
ssS'authors'
p83
(lp84
I163
aI164
asS'isbn13'
p85
V9780750685931
p86
sS'language'
p87
VEnglish
p88
sS'countries'
p89
(lp90
I2
asS'release_date'
p91
S'2007-12-15T00:00:00'
p92
sS'author'
p93
I163
sS'content_cleaned'
p94
I01
sS'classes'
p95
(lp96
Vto-read
p97
aVphotography
p98
aVcurrently-reading
p99
aVnon-fiction
p100
aVjournalism
p101
aVowned
p102
aVphotography-books
p103
aVfotografia
p104
aVphotojournalism
p105
aVnonfiction
p106
aVtextbooks
p107
aVreference
p108
aVphysically-own
p109
aVdonated-lost
p110
aVbooks-owned-but-not-read
p111
aVmy-library
p112
aVart
p113
aVphotography-must-read
p114
aVto-read-southsuite
p115
aV\u0639\u06a9\u0627\u0633\u06cc
p116
aVbooks-i-own
p117
aVeric-seidle-bookshelf
p118
aVhistorical
p119
aVin
p120
aVillustrated
p121
aVhandbok
p122
aVenglish
p123
aV_shelf-05
p124
aVphotography-references
p125
aVto-buy
p126
aVbookshelf
p127
aVwriting
p128
aVon-the-shelves
p129
aVskill-upgrade-books
p130
aVwriting-publishing
p131
aV20th-century
p132
aVartist
p133
aVlocation-f
p134
aVbojo-library
p135
aVclasses
p136
aVinspectional_reading
p137
aVtext-books
p138
aVbooks
p139
aVfall-2013
p140
aVschool-photography
p141
aVags-40
p142
aVtechnique
p143
aVscholarly-visual
p144
aVscholarly-intro
p145
aVnonfiction-advice
p146
aVmine
p147
aVno-plan-to-read
p148
aVgen-art
p149
aVto-read-if
p150
aVart-books
p151
aVdefault
p152
aVphotographing
p153
aVon-photography
p154
aVon-my-shelf
p155
aVcollege-texts
p156
aVlibrary-byu
p157
aVto-get
p158
aVphotography-design
p159
aVread-in-2010
p160
aVwould-like-to-own
p161
aVnewspapers
p162
aVjournalist
p163
aVphotographers
p164
aVmedia
p165
aVyour
p166
asS'loc_class'
p167
VPS: Language and Literatures: American and Canadian literature
p168
sS'n_authors'
p169
I2
sb.