ccopy_reg
_reconstructor
p0
(cdataset.Book
Book
p1
c__builtin__
object
p2
Ntp3
Rp4
(dp5
S'content_name'
p6
V51167.txt.utf-8
p7
sS'isbn'
p8
NsS'year'
p9
I2000
sS'author_name'
p10
VDonald Keith
p11
sS'images_urls'
p12
(lp13
Vhttp://www.gutenberg.org/files/51167/51167-h/images/cover.jpg
p14
aVhttp://www.gutenberg.org/files/51167/51167-h/images/illus1.jpg
p15
aVhttp://www.gutenberg.org/files/51167/51167-h/images/illus2.jpg
p16
aVhttp://www.gutenberg.org/files/51167/51167-h/images/illus3.jpg
p17
asS'language_code'
p18
Veng
p19
sS'images'
p20
(lp21
sS'id'
p22
I931
sS'category'
p23
VText
p24
sS'genres'
p25
(lp26
sS'copyright'
p27
VPublic domain in the USA.
p28
sS'title'
p29
VButterfly 9
p30
sS'wikipedia'
p31
(dp32
S'found'
p33
I00
ssS'average_rating'
p34
F4.08
sS'rating_count'
p35
I51606
sS'content_available'
p36
I01
sS'cover_art_url'
p37
S'http://www.gutenberg.org/cache/epub/51167/pg51167.cover.medium.jpg'
p38
sS'goodreads'
p39
(dp40
S'url'
p41
Vhttps://www.goodreads.com/book/show/190361.Obsidian_Butterfly
p42
sg33
I01
sS'year'
p43
I2000
ssS'similar_books'
p44
(lp45
VKissing Sin (Riley Jenson Guardian #2)
p46
aVBlack Magic Sanction (The Hollows, #8)
p47
aVEmbrace the Night (Cassandra Palmer, #3)
p48
aVBlood Pact (Vicki Nelson, #4)
p49
aVDarkling (Otherworld/Sisters of the Moon #3)
p50
aVKitty Goes to War (Kitty Norville, #8)
p51
aVOne More Bite (Jaz Parks, #5)
p52
aVAll Souls' Night (Blood Ties, #4)
p53
asS'description'
p54
VThe Anita Blake, Vampire Hunter backlist takes flight with a whole new look.<br /><br />In her ninth adventure, vampire hunter Anita Blake owes a favor to a friend-a man almost as dangerous as the ancient evil she's about to face.
p55
sS'format'
p56
VMass Market Paperback
p57
sS'gutenberg'
p58
(dp59
g41
Vhttp://www.gutenberg.org/ebooks/51167
p60
sS'num'
p61
I51167
ssS'authors'
p62
(lp63
I281
asS'pages'
p64
I596
sS'isbn13'
p65
V9780515134506
p66
sS'language'
p67
VEnglish
p68
sS'release_date'
p69
S'2016-02-10T00:00:00'
p70
sS'author'
p71
I281
sS'content_cleaned'
p72
I01
sS'classes'
p73
(lp74
Vto-read
p75
aVurban-fantasy
p76
aVvampires
p77
aVparanormal
p78
aVfantasy
p79
aVanita-blake
p80
aVfavorites
p81
aVlaurell-k-hamilton
p82
aVvampire
p83
aVparanormal-romance
p84
aVcurrently-reading
p85
aVromance
p86
aVhorror
p87
aVfiction
p88
aVseries
p89
aVsupernatural
p90
aVowned
p91
aVwerewolves
p92
aVbooks-i-own
p93
aVdefault
p94
aVanita-blake-series
p95
aVmystery
p96
aVshifters
p97
aVadult
p98
aVmagic
p99
aVshapeshifters
p100
aVerotica
p101
aVanita-blake-vampire-hunter
p102
aVzombies
p103
aVsci-fi-fantasy
p104
aVaudiobook
p105
aVvamps
p106
aVebook
p107
aVlibrary
p108
aVkindle
p109
aVebooks
p110
aVi-own
p111
aVsuspense
p112
aVhamilton
p113
aVpnr
p114
aVmy-books
p115
aVaudiobooks
p116
aVwitches
p117
aVanita
p118
aVwerewolf
p119
aVowned-books
p120
aVshifter
p121
aVvampire-books
p122
aVlaurell-hamilton
p123
aVguilty-pleasures
p124
aVdark-fantasy
p125
aVhamilton-laurell-k
p126
aVmy-library
p127
aVparanormal-fantasy
p128
aVoccult
p129
aVfantasy-urban
p130
aVcrime
p131
aVcontemporary
p132
aVfantasy-sci-fi
p133
aVerotic
p134
aVurban
p135
aVblake
p136
aVhave
p137
aVlaurel-k-hamilton
p138
aVe-books
p139
aVpaperback
p140
aVbooks
p141
aVnecromancer
p142
aVuf
p143
aVfavourites
p144
aVadult-fiction
p145
aVre-read
p146
aVsci-fi
p147
aVshelfari-favorites
p148
aVaudio-book
p149
aVaction
p150
aVanita-blake-vampire-hunter-series
p151
aVscifi-fantasy
p152
aVweres
p153
aVparanormal-fiction
p154
aVshapeshifter
p155
aVlkh
p156
aVown-it
p157
aVread-in-2011
p158
aVgeneral
p159
aVaudio
p160
aVseries-anita-blake
p161
aVpart-of-a-series
p162
aVthriller
p163
aVvampire-fiction
p164
aVcalibre
p165
aVadult-paranormal
p166
aVread-in-2012
p167
aVkick-ass-heroine
p168
aVnovels
p169
aVnecromancy
p170
aVfavorite-series
p171
aVto-buy
p172
aVscience-fiction
p173
aVfantasy-paranormal
p174
asS'loc_class'
p175
S''
p176
sS'n_authors'
p177
I1
sb.