ccopy_reg
_reconstructor
p0
(cdataset.Book
Book
p1
c__builtin__
object
p2
Ntp3
Rp4
(dp5
S'similar_books'
p6
(lp7
sS'genres'
p8
(lp9
sS'author'
p10
I302
sS'countries'
p11
(lp12
I2
asS'year'
p13
I1952
sS'title'
p14
VGalaxy Magazine February 1952
p15
sS'cover'
p16
Vhttps://ia600201.us.archive.org/BookReader/BookReaderImages.php?zip=/2/items/Galaxy_v03n05_1952-02/Galaxy_v03n05_1952-02_jp2.zip&file=Galaxy_v03n05_1952-02_jp2/Galaxy_v03n05_1952-02_0000.jp2&scale=0&rotate=0
p17
sS'cover_art'
p18
S'http://www.isfdb.org/wiki/images/e/e4/GALFEB1952.jpg'
p19
sS'author_name'
p20
VGalaxy Magazine
p21
sS'images_urls'
p22
(lp23
sS'authors'
p24
(lp25
I388
aI336
aI352
aI342
aI305
aI345
aI371
aI340
aI389
aI385
aI166
aI32
aI194
aI302
asS'images'
p26
(lp27
sS'id'
p28
I989
sS'contents'
p29
(lp30
(dp31
S'title'
p32
VDouble Standard
p33
sS'author'
p34
I388
sa(dp35
g32
VConditionally Human
p36
sg34
I336
sa(dp37
g32
VConditionally Human [2]
p38
sg34
I336
sa(dp39
g32
VConditionally Human [3]
p40
sg34
I336
sa(dp41
g32
VDr. Kometevsky's Day
p42
sg34
I336
sa(dp43
g32
VDr. Kometevsky's Day [2]
p44
sg34
I336
sa(dp45
g32
VFresh Air Fiend
p46
sg34
I352
sa(dp47
g32
VThe Demolished Man (Part 2 of 3)
p48
sg34
I342
sa(dp49
g32
VThe Demolished Man (Part 2 of 3) [2]
p50
sg34
I342
sa(dp51
g32
VThe Demolished Man (Part 2 of 3) [3]
p52
sg34
I342
sa(dp53
g32
VThe Demolished Man (Part 2 of 3) [4]
p54
sg34
I342
sa(dp55
g32
VOpen Letters
p56
sg34
I305
sa(dp57
g32
VWhere Were We?
p58
sg34
I345
sa(dp59
g32
VWhere To?
p60
sg34
I371
sa(dp61
g32
VGalaxy's 5 Star Shelf (Galaxy, February 1952)
p62
sg34
I340
sa(dp63
g32
VConditionally Human
p64
sg34
I389
sa(dp65
g32
VThe Demolished Man (Part 2 of 3)
p66
sg34
I385
sa(dp67
g32
VDouble Standard
p68
sg34
I166
sa(dp69
g32
VDr. Kometevsky's Day
p70
sg34
I32
sa(dp71
g32
VFresh Air Fiend
p72
sg34
I194
sasb.