ccopy_reg
_reconstructor
p0
(cdataset.Book
Book
p1
c__builtin__
object
p2
Ntp3
Rp4
(dp5
S'content_name'
p6
V51046.txt.utf-8
p7
sS'isbn'
p8
NsS'year'
p9
I1951
sS'author_name'
p10
VLester Del Rey
p11
sS'images_urls'
p12
(lp13
Vhttp://www.gutenberg.org/files/51046/51046-h/images/cover.jpg
p14
aVhttp://www.gutenberg.org/files/51046/51046-h/images/illus1.jpg
p15
aVhttp://www.gutenberg.org/files/51046/51046-h/images/illus2.jpg
p16
aVhttp://www.gutenberg.org/files/51046/51046-h/images/illus3.jpg
p17
asS'language_code'
p18
NsS'id'
p19
I232
sS'category'
p20
VText
p21
sS'genres'
p22
(lp23
sS'copyright'
p24
VPublic domain in the USA.
p25
sS'title'
p26
V...And It Comes Out Here
p27
sS'wikipedia'
p28
(dp29
S'found'
p30
I00
ssS'average_rating'
p31
F3.43
sS'rating_count'
p32
I7
sS'content_available'
p33
I01
sS'cover_art_url'
p34
S'http://www.gutenberg.org/cache/epub/51046/pg51046.cover.medium.jpg'
p35
sS'goodreads'
p36
(dp37
S'url'
p38
Vhttps://www.goodreads.com/book/show/31205791-and-it-comes-out-here
p39
sS'found'
p40
I01
sS'year'
p41
I-1
ssS'similar_books'
p42
(lp43
sS'description'
p44
NsS'format'
p45
NsS'gutenberg'
p46
(dp47
g38
Vhttp://www.gutenberg.org/ebooks/51046
p48
sS'num'
p49
I51046
ssS'authors'
p50
(lp51
I73
asS'isbn13'
p52
NsS'language'
p53
VEnglish
p54
sS'countries'
p55
(lp56
I2
asS'release_date'
p57
S'2016-01-26T00:00:00'
p58
sS'author'
p59
I73
sS'content_cleaned'
p60
I01
sS'classes'
p61
(lp62
Vto-read
p63
aVscience-fiction
p64
aVaudio
p65
asS'loc_class'
p66
S''
p67
sS'n_authors'
p68
I1
sb.