ccopy_reg
_reconstructor
p0
(cdataset.Book
Book
p1
c__builtin__
object
p2
Ntp3
Rp4
(dp5
S'content_name'
p6
V20707.txt.utf-8
p7
sS'isbn'
p8
V1557429316
p9
sS'year'
p10
I1930
sS'author_name'
p11
VJr. John W. Campbell
p12
sS'images_urls'
p13
(lp14
Vhttp://www.gutenberg.org/files/20707/20707-h/images/cover.jpg
p15
aVhttp://www.gutenberg.org/files/20707/20707-h/images/fig1.png
p16
asS'language_code'
p17
NsS'images'
p18
(lp19
sS'id'
p20
I108
sS'category'
p21
VText
p22
sS'genres'
p23
(lp24
sS'copyright'
p25
VPublic domain in the USA.
p26
sS'title'
p27
VThe Black Star Passes
p28
sS'wikipedia'
p29
(dp30
S'url'
p31
Vhttps://en.wikipedia.org/wiki/The_Black_Star_Passes
p32
sS'found'
p33
I01
sS'year'
p34
I-1
ssS'published_in'
p35
NsS'average_rating'
p36
F3.25
sS'rating_count'
p37
I115
sS'content_available'
p38
I01
sS'cover_art_url'
p39
S'http://www.gutenberg.org/cache/epub/20707/pg20707.cover.medium.jpg'
p40
sS'goodreads'
p41
(dp42
g31
Vhttps://www.goodreads.com/book/show/923614.The_Black_Star_Passes
p43
sg33
I01
sg34
I1930
ssS'similar_books'
p44
(lp45
VThe Misplaced Battleship
p46
aVBadge of Infamy
p47
aVSpacehounds of IPC
p48
aVArc of the Dream (Radix, #3)
p49
aVThe Legion of Space
p50
aVThe Metal Monster
p51
aVCity at World's End
p52
aVThe Defiant Agents (Time Traders/Ross Murdock, #3)
p53
aVThe Purple Cloud (Frontiers of Imagination)
p54
aVThe Night of the Long Knives
p55
aVA Plague of Demons & Other Stories
p56
aVDesign for Great-Day
p57
aVSurvival Tactics
p58
aVThe Big Jump
p59
aVAct One
p60
aVLimits
p61
aVAdventures (The Chronicles of Lucifer Jones, #1)
p62
aVTau Ceti
p63
asS'description'
p64
VTHREE AGAINST THE STARS! A sky pirate armed with superior weapons of his own invention...<br /><br />First contact with an alien race dangerous enough to threaten the safety of two planets...<br /><br />The arrival of an unseen dark sun whose attendant marauders aimed at the very end of civilization in this Solar System...<br /><br />These were the three challenges that tested the skill and minds of the brilliant team of scientist-astronauts Arcot, Wade, and Morey. Their initial adventures are a classic of science fiction which first brought the name of their author, John W. Campbell, Jr., into prominence as a master of the inventive imagination -- long before he became the editor of Astounding/Analog and changed the field of science fiction forever!
p65
sS'format'
p66
VPaperback
p67
sS'gutenberg'
p68
(dp69
g31
Vhttp://www.gutenberg.org/ebooks/20707
p70
sS'num'
p71
I20707
ssS'authors'
p72
(lp73
I41
asS'pages'
p74
I176
sS'isbn13'
p75
V9781557429315
p76
sS'language'
p77
VEnglish
p78
sS'country'
p79
I2
sS'release_date'
p80
S'2007-02-27T00:00:00'
p81
sS'author'
p82
I41
sS'original_title'
p83
VThe Black Star Passes
p84
sS'summary'
p85
VThe Black Star Passes is a collection of science fiction short stories by American author John W. Campbell, Jr.. It was first published in 1953 by Fantasy Press in an edition of 2,951 copies. The book is the first in Campbell's Arcot, Morey and Wade series. The stories originally appeared in the magazines Amazing Stories and Amazing Stories Quarterly, and were "extensively edited" for book publication, with Campbell's approval, by Lloyd Arthur Eshbach.\u000aGalaxy reviewer Groff Conklin described the stories as "three creaking classics . . . fun to read, [but] rococo antiques [without] believable characters, human relations, even logical plots." Boucher and McComas dismissed the book as "a hopelessly outdated set of novelets . . . of concern only to those who wish to observe the awkward larval stage of a major figure in science fiction." P. Schuyler Miller described the stories as "old-fashioned fun which [Campbell] no longer takes any more seriously than you need to."
p86
sS'content_cleaned'
p87
I01
sS'classes'
p88
(lp89
Vto-read
p90
aVscience-fiction
p91
aVcurrently-reading
p92
aVsci-fi
p93
aVfiction
p94
aVscifi
p95
aVowned
p96
aVkindle
p97
aVsf
p98
aVjohn-w-campbell
p99
aVcollection
p100
aVspace-opera
p101
aVpulp-fiction
p102
aVlibrary
p103
aVscience
p104
aVbefore-the-golden-age
p105
aVclassic-sci-fi
p106
aVsci-fi-or-speculative
p107
aVon-calibre-to-read
p108
aVmaybe-i-should-read-this
p109
aVhorror
p110
aVnovels
p111
aV20th-century-lit
p112
aVaudiobooks-to-read
p113
aV15
p114
aVseries
p115
aVshelved
p116
aVunsorted-read
p117
aVread-sci-fi
p118
aVscifi-pulp-fiction-1920-1937
p119
aVold-skool
p120
aVmight-return-to
p121
aVkurzgeschichten
p122
aVabenteuer
p123
aVaudiobooks
p124
aVmaybe-read
p125
aVmovie
p126
aVowned-pending-kindle-free-ebook
p127
aVkindle-free-ebook
p128
aVz_fiction
p129
aVx_novel
p130
aVwo_scifi
p131
aVw_us_unitary
p132
aVa-d
p133
aVscience-fiction-fantasy
p134
aVaudio-shelf
p135
aVshortlist
p136
aVwanted
p137
aVother
p138
aVnook-59-sci-fi-classics
p139
aVsci-fi-books
p140
aVfavourites
p141
aVsoon-b
p142
aVe-books
p143
aVsf-fantasy
p144
aVaudio-only
p145
aVxx
p146
aVbelletristik
p147
aVgolden-age
p148
aVtk
p149
aVfeedbooks-com
p150
aVmilitary-sci-fi
p151
aVclassic
p152
aV1900-1950
p153
aVpaperback
p154
aVmy-personal-book-catalog
p155
aVsample-to-read
p156
aVall
p157
aVapocalyptic-dystopian-futuristic
p158
aVa1-i-own-books
p159
aV2013-eclectic-reader-challenge
p160
aV2013-dustbuster-challenge
p161
aVa1-to-read-immediate
p162
aV2013-personal-reading-challenge
p163
aVnovel
p164
aVto-read-own
p165
aVz2010
p166
aVsci-fi-fantasy
p167
aVp-mass-mkt-paperback
p168
aVown-not-read
p169
aVfree-ebooks
p170
aVaudiobook-\u266c\u266a
p171
aV20_kindle_books
p172
aV2010-08-august
p173
aVkindle-free
p174
aVcampbell-john-w
p175
aVgolden-age-sf
p176
aVclassics
p177
aVa-shelved
p178
aVspace-travel
p179
aVshort-stories
p180
aVbackburner
p181
aVfree
p182
aVgeneral
p183
aVextraterrestrial
p184
aVbeings
p185
aVfiction-sci-fi
p186
aVebookshelf
p187
aVall-paper
p188
aVsifi
p189
asS'loc_class'
p190
VPS: Language and Literatures: American and Canadian literature
p191
sS'n_authors'
p192
I1
sb.