ccopy_reg
_reconstructor
p0
(cdataset.Book
Book
p1
c__builtin__
object
p2
Ntp3
Rp4
(dp5
S'content_name'
p6
V51363.txt.utf-8
p7
sS'isbn'
p8
V0671737600
p9
sS'year'
p10
I1984
sS'author_name'
p11
VAlfred Coppel
p12
sS'images_urls'
p13
(lp14
Vhttp://www.gutenberg.org/files/51363/51363-h/images/cover.jpg
p15
aVhttp://www.gutenberg.org/files/51363/51363-h/images/illus.jpg
p16
asS'language_code'
p17
Ven-US
p18
sS'images'
p19
(lp20
sS'id'
p21
I498
sS'category'
p22
VText
p23
sS'genres'
p24
(lp25
sS'copyright'
p26
VPublic domain in the USA.
p27
sS'title'
p28
VDouble Standard
p29
sS'wikipedia'
p30
(dp31
S'found'
p32
I00
ssS'average_rating'
p33
F3.94
sS'rating_count'
p34
I9379
sS'content_available'
p35
I01
sS'cover_art_url'
p36
S'http://www.gutenberg.org/cache/epub/51363/pg51363.cover.medium.jpg'
p37
sS'goodreads'
p38
(dp39
S'url'
p40
Vhttps://www.goodreads.com/book/show/129615.Double_Standards
p41
sg32
I01
sS'year'
p42
I1984
ssS'similar_books'
p43
(lp44
VThe Substitute Wife
p45
aVTo the Ends of the Earth
p46
aVThe Spanish Groom
p47
aVRisk Everything (The Blackthorn Trilogy, #3)
p48
aVSarah's Child (Spencer-Nyle Co, #1)
p49
aVAristides' Convenient Wife  (A Mediterranean Marriage #9)
p50
aVThe Conqueror (deWarenne Dynasty, #1)
p51
aVGypsy Lady (Louisiana #1)
p52
aVTexas! Chase (Texas! Tyler Family Saga, #2)
p53
aVAfter The Music
p54
aVIn Your Eyes
p55
aVA Passionate Marriage
p56
aVAlmost Heaven by Judith McNaught | Summary & Study Guide
p57
aVSome Enchanted Season (Bethlehem, #2)
p58
aVThe Dark God's Bride Trilogy (The Dark God's Bride, #3)
p59
aVThe Way of the Heart
p60
aVSeni Sevmek \u0130stemedim
p61
aVIn His Arms
p62
asS'description'
p63
V<i>Librarian note: an alternate cover for this edition can be found <a href="https://www.goodreads.com/book/show/11888760-double-standards" rel="nofollow">here</a>.</i><br /><br /><b>In the exclusive, glittering world of business superstars, Nick Sinclair was a legend...</b> <br /><br />The ruggedly handsome president of Global Industries handled his business the way he handled his women -- with charm, daring and ruthless self-control. A man used to the very best, Nick hired Lauren Danner, and assumed the proud beauty would soon be another easy conquest. But Lauren's flashing wit and rare spirit dazzled him -- and slowly, against his will, he was intrigued, challenged -- and in love. <br /><br />Yet Lauren was living a lie, a charade that became more dangerous with every passing moment. Trapped in a web of deceit, she fought her growing love for Nick. Her secret could destroy his fragile trust -- and the promise of life with the most compelling man she had ever met!
p64
sS'format'
p65
NsS'gutenberg'
p66
(dp67
g40
Vhttp://www.gutenberg.org/ebooks/51363
p68
sS'num'
p69
I51363
ssS'authors'
p70
(lp71
I166
asS'pages'
p72
I310
sS'isbn13'
p73
V9780671737603
p74
sS'language'
p75
VEnglish
p76
sS'release_date'
p77
S'2016-03-05T00:00:00'
p78
sS'author'
p79
I166
sS'content_cleaned'
p80
I01
sS'classes'
p81
(lp82
Vto-read
p83
aVromance
p84
aVcontemporary-romance
p85
aVjudith-mcnaught
p86
aVfavorites
p87
aVcontemporary
p88
aVcurrently-reading
p89
aVfiction
p90
aVowned
p91
aVbooks-i-own
p92
aVhistorical-romance
p93
aVdefault
p94
aVadult
p95
aVromance-contemporary
p96
aVchick-lit
p97
aVpaperback
p98
aVoffice-romance
p99
aVvirgin-heroine
p100
aVmcnaught-judith
p101
aVfavourites
p102
aVstand-alone
p103
aVfavorite-author
p104
aV5-stars
p105
aVmcnaught
p106
aVmade-me-cry
p107
aVhistorical
p108
aVmodern-romance
p109
aVfavorite
p110
aVre-read
p111
aVowned-books
p112
aVebook
p113
aVangsty
p114
aVromantic-suspense
p115
aVkindle
p116
aValpha-hero
p117
aVmanwhore
p118
aVvirgin
p119
aV4-stars
p120
aVmy-books
p121
aVnovel
p122
aVebooks
p123
aV3-stars
p124
aVromances
p125
aVromance-novels
p126
aValpha-male
p127
aVtear-jerker
p128
aVread-more-than-once
p129
aVgenre-contemporary-romance
p130
aVe-book
p131
aVkeeper
p132
aVcontemporary-romances
p133
aVenglish-books
p134
aVall-time-favorites
p135
aVmcnaught--judith
p136
aVstandalone
p137
aVcheating-hero
p138
aVbookshelf
p139
aVmisunderstanding
p140
aVborrowed
p141
aVbooks
p142
aVmeh
p143
aVdnf
p144
aVboring
p145
aVfinished
p146
aVenglish-novel
p147
aVreread
p148
aVtortured-hero
p149
aVmodern
p150
aVmy-library
p151
aVguilty-pleasures
p152
aVshelfari-favorites
p153
aV2014-read
p154
aVall-time-favourites
p155
aVon-kindle
p156
aVcalibre
p157
aVemotional
p158
aVangst
p159
aVfluff
p160
aVsecond-chance
p161
aVepub
p162
aVread-in-2013
p163
aVaudiobook
p164
aV\u0421\u044a\u0432\u0440\u0435\u043c\u0435\u043d\u043d\u0438-\u043b\u044e\u0431\u043e\u0432\u043d\u0438
p165
aVall-time-favorite
p166
aVread-2013
p167
aVbought
p168
aVboss-employee
p169
aVadult-romance
p170
aVlove
p171
aVchicklit
p172
aVnovels
p173
aVdrama
p174
aVhistorical-fiction
p175
aVromance-contemp
p176
aVsuspense
p177
aVfiction-romance
p178
aVheroine-virgin
p179
aVhero-rich
p180
aVfavorite-authors
p181
aVgrovel
p182
asS'loc_class'
p183
S''
p184
sS'n_authors'
p185
I1
sb.