ccopy_reg
_reconstructor
p0
(cdataset.Book
Book
p1
c__builtin__
object
p2
Ntp3
Rp4
(dp5
S'content_name'
p6
V26955.txt.utf-8
p7
sS'isbn'
p8
NsS'year'
p9
I2009
sS'author_name'
p10
VJack G. Huekels
p11
sS'images_urls'
p12
(lp13
Vhttp://www.gutenberg.org/files/26955/26955-h/images/001.png
p14
aVhttp://www.gutenberg.org/files/26955/26955-page-images/p216-image.png
p15
aVhttp://www.gutenberg.org/files/26955/26955-page-images/p216.png
p16
aVhttp://www.gutenberg.org/files/26955/26955-page-images/p217.png
p17
aVhttp://www.gutenberg.org/files/26955/26955-page-images/p218.png
p18
aVhttp://www.gutenberg.org/files/26955/26955-page-images/p219.png
p19
aVhttp://www.gutenberg.org/files/26955/26955-page-images/p220.png
p20
aVhttp://www.gutenberg.org/files/26955/26955-page-images/p221.png
p21
asS'language_code'
p22
NsS'images'
p23
(lp24
sS'id'
p25
I297
sS'category'
p26
VText
p27
sS'genres'
p28
(lp29
sS'copyright'
p30
VPublic domain in the USA.
p31
sS'title'
p32
VAdvanced Chemistry
p33
sS'wikipedia'
p34
(dp35
S'found'
p36
I00
ssS'average_rating'
p37
F3.09
sS'rating_count'
p38
I32
sS'content_available'
p39
I01
sS'goodreads'
p40
(dp41
S'url'
p42
Vhttps://www.goodreads.com/book/show/6350505-advanced-chemistry
p43
sg36
I01
sS'year'
p44
I2009
ssS'similar_books'
p45
(lp46
sS'description'
p47
NsS'format'
p48
NsS'gutenberg'
p49
(dp50
g42
Vhttp://www.gutenberg.org/ebooks/26955
p51
sS'num'
p52
I26955
ssS'authors'
p53
(lp54
I96
asS'isbn13'
p55
NsS'language'
p56
VEnglish
p57
sS'release_date'
p58
S'2008-10-18T00:00:00'
p59
sS'author'
p60
I96
sS'content_cleaned'
p61
I01
sS'classes'
p62
(lp63
Vto-read
p64
aVcurrently-reading
p65
aVscience-fiction
p66
aVebook
p67
aVsci-fi
p68
aVnonfictionreference
p69
aVdeath
p70
aVaudio-books
p71
aVlibrivox-short-story-collection-11
p72
aVaudiobooks
p73
aVshort-story
p74
aVbooks
p75
aVunread
p76
aVcalibre
p77
aVowned
p78
aVaudio-obtained
p79
aVacademic
p80
aVchemistry
p81
aVfeedbooks-com
p82
aVaudio
p83
aVg-science-fiction
p84
aVtype-short-story
p85
aVaudio-obtained-ss
p86
aVun
p87
asS'loc_class'
p88
VPS: Language and Literatures: American and Canadian literature
p89
sS'n_authors'
p90
I1
sb.