ccopy_reg
_reconstructor
p0
(cdataset.Book
Book
p1
c__builtin__
object
p2
Ntp3
Rp4
(dp5
S'content_name'
p6
V23301.txt.utf-8
p7
sS'isbn'
p8
NsS'year'
p9
I1951
sS'author_name'
p10
VVictoria Glad
p11
sS'images_urls'
p12
(lp13
Vhttp://www.gutenberg.org/files/23301/23301-h/images/illus.jpg
p14
aVhttp://www.gutenberg.org/files/23301/23301-page-images/p048-image.png
p15
aVhttp://www.gutenberg.org/files/23301/23301-page-images/p048.png
p16
aVhttp://www.gutenberg.org/files/23301/23301-page-images/p049.png
p17
aVhttp://www.gutenberg.org/files/23301/23301-page-images/p050.png
p18
aVhttp://www.gutenberg.org/files/23301/23301-page-images/p051.png
p19
aVhttp://www.gutenberg.org/files/23301/23301-page-images/p052.png
p20
aVhttp://www.gutenberg.org/files/23301/23301-page-images/p053.png
p21
aVhttp://www.gutenberg.org/files/23301/23301-page-images/p054.png
p22
aVhttp://www.gutenberg.org/files/23301/23301-page-images/p055.png
p23
aVhttp://www.gutenberg.org/files/23301/23301-page-images/p056.png
p24
aVhttp://www.gutenberg.org/files/23301/23301-page-images/p057.png
p25
asS'language_code'
p26
NsS'images'
p27
(lp28
sS'id'
p29
I258
sS'category'
p30
VText
p31
sS'genres'
p32
(lp33
sS'copyright'
p34
VPublic domain in the USA.
p35
sS'title'
p36
VEach Man Kills
p37
sS'wikipedia'
p38
(dp39
S'found'
p40
I00
ssS'average_rating'
p41
F2.44
sS'rating_count'
p42
I7
sS'content_available'
p43
I01
sS'goodreads'
p44
(dp45
S'url'
p46
Vhttps://www.goodreads.com/book/show/6084730-each-man-kills
p47
sg40
I01
sS'year'
p48
I2008
ssS'similar_books'
p49
(lp50
sS'description'
p51
NsS'format'
p52
NsS'gutenberg'
p53
(dp54
g46
Vhttp://www.gutenberg.org/ebooks/23301
p55
sS'num'
p56
I23301
ssS'authors'
p57
(lp58
I87
asS'isbn13'
p59
NsS'language'
p60
VEnglish
p61
sS'countries'
p62
(lp63
I3
asS'release_date'
p64
S'2007-11-03T00:00:00'
p65
sS'author'
p66
I87
sS'content_cleaned'
p67
I01
sS'classes'
p68
(lp69
Vto-read
p70
aVhorror
p71
aVshort-stories
p72
aVfiction
p73
aVneed-to-read
p74
aV21st-century-lit
p75
aVread-again
p76
aVkindle
p77
aVshelf-g-authors
p78
aVgenre-mys-thrill-act
p79
aVweird-fiction
p80
aVvampires
p81
aVsupernatural
p82
aVstrange-fiction
p83
aVspooky
p84
aVparanormal
p85
aVmeh
p86
aVhorror-ghost-stories
p87
aVvampire
p88
aVpulp
p89
aVhumor
p90
aV20th-century
p91
aVsfbywomen
p92
aVsf
p93
aVshort-story
p94
aVtype-short-story
p95
asS'loc_class'
p96
VPS: Language and Literatures: American and Canadian literature
p97
sS'n_authors'
p98
I1
sb.