ccopy_reg
_reconstructor
p0
(cdataset.Book
Book
p1
c__builtin__
object
p2
Ntp3
Rp4
(dp5
S'content_name'
p6
V29940.txt.utf-8
p7
sS'isbn'
p8
NsS'year'
p9
I1953
sS'author_name'
p10
VMack Reynolds
p11
sS'images_urls'
p12
(lp13
Vhttp://www.gutenberg.org/files/29940/29940-h/images/001-1.jpg
p14
aVhttp://www.gutenberg.org/files/29940/29940-h/images/001-2.jpg
p15
asS'language_code'
p16
NsS'images'
p17
(lp18
sS'id'
p19
I709
sS'category'
p20
VText
p21
sS'genres'
p22
(lp23
sS'copyright'
p24
VPublic domain in the USA.
p25
sS'title'
p26
VDogfight\u20141973
p27
sS'wikipedia'
p28
(dp29
S'found'
p30
I00
ssS'average_rating'
p31
F3.0
sS'rating_count'
p32
I13
sS'content_available'
p33
I01
sS'goodreads'
p34
(dp35
S'url'
p36
Vhttps://www.goodreads.com/book/show/11468354-dogfight-1973
p37
sg30
I01
sS'year'
p38
I2010
ssS'similar_books'
p39
(lp40
sS'description'
p41
NsS'format'
p42
NsS'gutenberg'
p43
(dp44
g36
Vhttp://www.gutenberg.org/ebooks/29940
p45
sS'num'
p46
I29940
ssS'authors'
p47
(lp48
I69
asS'isbn13'
p49
NsS'language'
p50
VEnglish
p51
sS'countries'
p52
(lp53
I2
asS'release_date'
p54
S'2009-09-08T00:00:00'
p55
sS'author'
p56
I69
sS'content_cleaned'
p57
I01
sS'classes'
p58
(lp59
Vto-read
p60
aVaudiobooks
p61
aVshort-story
p62
aVscience-fiction
p63
aVtype-short-story
p64
asS'loc_class'
p65
VPS: Language and Literatures: American and Canadian literature
p66
sS'n_authors'
p67
I1
sb.