ccopy_reg
_reconstructor
p0
(cdataset.Book
Book
p1
c__builtin__
object
p2
Ntp3
Rp4
(dp5
S'content_name'
p6
V32347.txt.utf-8
p7
sS'isbn'
p8
NsS'year'
p9
I1954
sS'author_name'
p10
VRandall Garrett
p11
sS'images_urls'
p12
(lp13
Vhttp://www.gutenberg.org/files/32347/32347-h/images/image001.jpg
p14
aVhttp://www.gutenberg.org/files/32347/32347-h/images/image002.jpg
p15
asS'language_code'
p16
NsS'images'
p17
(lp18
sS'id'
p19
I369
sS'category'
p20
VText
p21
sS'genres'
p22
(lp23
sS'copyright'
p24
VPublic domain in the USA.
p25
sS'title'
p26
VTime Fuze
p27
sS'wikipedia'
p28
(dp29
S'found'
p30
I00
ssS'average_rating'
p31
F3.75
sS'rating_count'
p32
I4
sS'content_available'
p33
I01
sS'goodreads'
p34
(dp35
S'url'
p36
Vhttps://www.goodreads.com/book/show/8582620-time-fuze
p37
sg30
I01
sS'year'
p38
I2010
ssS'similar_books'
p39
(lp40
sS'description'
p41
NsS'gutenberg'
p42
(dp43
g36
Vhttp://www.gutenberg.org/ebooks/32347
p44
sS'num'
p45
I32347
ssS'authors'
p46
(lp47
I49
asS'isbn13'
p48
NsS'language'
p49
VEnglish
p50
sS'countries'
p51
(lp52
I2
asS'release_date'
p53
S'2010-05-12T00:00:00'
p54
sS'author'
p55
I49
sS'cover'
p56
Vhttps://s.gr-assets.com/assets/nophoto/book/111x148-bcc042a9c91a29c1d680899eff700a03.png
p57
sS'content_cleaned'
p58
I01
sS'classes'
p59
(lp60
Vto-read
p61
aVfree-from-amazon
p62
aVclassic
p63
aVscience-fiction
p64
aVreview-done
p65
aVtype-short-story
p66
aVaudio-obtained-lvss
p67
aVreino-unido
p68
aVaudio-obtained-ss
p69
asS'loc_class'
p70
VPS: Language and Literatures: American and Canadian literature
p71
sS'n_authors'
p72
I1
sb.