ccopy_reg
_reconstructor
p0
(cdataset.Book
Book
p1
c__builtin__
object
p2
Ntp3
Rp4
(dp5
S'content_name'
p6
V30474.txt.utf-8
p7
sS'isbn'
p8
NsS'year'
p9
I1961
sS'author_name'
p10
VDonald E. Westlake
p11
sS'images_urls'
p12
(lp13
Vhttp://www.gutenberg.org/files/30474/30474-h/images/t.png
p14
aVhttp://www.gutenberg.org/files/30474/30474-h/images/title-1.png
p15
aVhttp://www.gutenberg.org/files/30474/30474-h/images/title-2.png
p16
asS'language_code'
p17
NsS'id'
p18
I549
sS'category'
p19
VText
p20
sS'genres'
p21
(lp22
sS'copyright'
p23
VPublic domain in the USA.
p24
sS'title'
p25
VThey Also Serve
p26
sS'wikipedia'
p27
(dp28
S'found'
p29
I00
ssS'average_rating'
p30
F3.38
sS'rating_count'
p31
I48
sS'content_available'
p32
I01
sS'cover_art_url'
p33
S'http://www.gutenberg.org/cache/epub/30474/pg30474.cover.medium.jpg'
p34
sS'goodreads'
p35
(dp36
S'url'
p37
Vhttps://www.goodreads.com/book/show/11534141-they-also-serve
p38
sS'found'
p39
I01
sS'year'
p40
I2010
ssS'similar_books'
p41
(lp42
sS'description'
p43
VThe launch carrying the mail, supplies and replacements eased slowly in toward the base, keeping the bulk of the Moon between itself and Earth. Captain Ebor, seated at the controls, guided the ship to the rocky uneven ground with the easy carelessness of long practice, then cut the drive, got to his walking tentacles, and stretched. Donning his spacesuit, he left the ship to go over to the dome and meet Darquelnoy, the base commander.
p44
sS'gutenberg'
p45
(dp46
g37
Vhttp://www.gutenberg.org/ebooks/30474
p47
sS'num'
p48
I30474
ssS'authors'
p49
(lp50
I168
asS'pages'
p51
I16
sS'isbn13'
p52
NsS'language'
p53
VEnglish
p54
sS'countries'
p55
(lp56
I2
asS'release_date'
p57
S'2009-11-14T00:00:00'
p58
sS'author'
p59
I168
sS'cover'
p60
Vhttps://s.gr-assets.com/assets/nophoto/book/111x148-bcc042a9c91a29c1d680899eff700a03.png
p61
sS'content_cleaned'
p62
I01
sS'classes'
p63
(lp64
Vto-read
p65
aVshort-story
p66
aVshort-stories
p67
aVfiction
p68
aVlibrary
p69
aVdonald-westlake-non-parker
p70
aVhave-but-not-read
p71
aVshort-fiction
p72
aVbought-not-read
p73
aVowned-pending-kindle-free-ebook
p74
aVkindle-free-ebook
p75
aVsci-fi
p76
aValiens
p77
aVhoarded-books
p78
aVaudio-obtained-lvss
p79
aVe-book
p80
aVsigh-phi
p81
aVshortcut
p82
aVscience-fiction
p83
aVunread
p84
aV14
p85
aVwish-list
p86
aV3-ebooks
p87
aVfree
p88
aVereader
p89
aVbedside-reading
p90
aVmystery
p91
aVcaper
p92
aVsf-fantasy-and-other-dorky-shit
p93
aVtype-short-story
p94
aVaudio-obtained-ss
p95
aVfiction-and-westerns
p96
aV3a-ebooks
p97
asS'loc_class'
p98
VPS: Language and Literatures: American and Canadian literature
p99
sS'n_authors'
p100
I1
sb.