ccopy_reg
_reconstructor
p0
(cdataset.Book
Book
p1
c__builtin__
object
p2
Ntp3
Rp4
(dp5
S'content_name'
p6
V29503.txt.utf-8
p7
sS'isbn'
p8
V0316041440
p9
sS'year'
p10
I1958
sS'author_name'
p11
VFrederik Pohl
p12
sS'images_urls'
p13
(lp14
Vhttp://www.gutenberg.org/files/29503/29503-h/images/001.png
p15
aVhttp://www.gutenberg.org/files/29503/29503-h/images/002-1.jpg
p16
aVhttp://www.gutenberg.org/files/29503/29503-h/images/002-2.jpg
p17
asS'language_code'
p18
Veng
p19
sS'images'
p20
(lp21
sS'id'
p22
I497
sS'category'
p23
VText
p24
sS'genres'
p25
(lp26
sS'copyright'
p27
VPublic domain in the USA.
p28
sS'title'
p29
VThe Hated
p30
sS'wikipedia'
p31
(dp32
S'url'
p33
Vhttps://en.wikipedia.org/wiki/The_Day_After_the_Day_the_Martians_Came
p34
sS'found'
p35
I01
sS'year'
p36
I-1
ssS'published_in'
p37
NsS'average_rating'
p38
F4.03
sS'rating_count'
p39
I39714
sS'content_available'
p40
I01
sS'goodreads'
p41
(dp42
g33
Vhttps://www.goodreads.com/book/show/6316171-hate-list
p43
sg35
I01
sg36
I2009
ssS'similar_books'
p44
(lp45
VRight Behind You
p46
aVHold Still
p47
aVAfter
p48
aVFlash Burnout
p49
aVBy the Time You Read This, I'll Be Dead
p50
aVPurple Heart
p51
aVQuad
p52
aVThe Mockingbirds (The Mockingbirds, #1)
p53
aVDirty Little Secrets
p54
aVWillow
p55
aVButter
p56
aVFreaks and Revelations
p57
aVBallads of Suburbia
p58
aVBecause I Am Furniture
p59
aVFall for Anything
p60
aVScrawl
p61
aVGoth Girl Rising (The Astonishing Adventures of Fanboy and Goth Girl, #2)
p62
aVLeftovers
p63
asS'description'
p64
VFive months ago, Valerie Leftman's boyfriend, Nick, opened fire on their school cafeteria. Shot trying to stop him, Valerie inadvertently saved the life of a classmate, but was implicated in the shootings because of the list she helped create. A list of people and things she and Nick hated. The list he used to pick his targets.<br /><br />Now, after a summer of seclusion, Val is forced to confront her guilt as she returns to school to complete her senior year. Haunted by the memory of the boyfriend she still loves and navigating rocky relationships with her family, former friends and the girl whose life she saved, Val must come to grips with the tragedy that took place and her role in it, in order to make amends and move on with her life.<br />
p65
sS'format'
p66
NsS'gutenberg'
p67
(dp68
g33
Vhttp://www.gutenberg.org/ebooks/29503
p69
sS'num'
p70
I29503
ssS'authors'
p71
(lp72
I40
asS'pages'
p73
I405
sS'isbn13'
p74
V9780316041447
p75
sS'language'
p76
VEnglish
p77
sS'countries'
p78
(lp79
I2
asS'release_date'
p80
S'2009-07-24T00:00:00'
p81
sS'author'
p82
I40
sS'original_title'
p83
VThe Day After the Day the Martians Came
p84
sS'summary'
p85
V"The Day After the Day the Martians Came" is a short story by American writer Frederik Pohl, first published in Harlan Ellison's Dangerous Visions. It shows how humans can (and will) laugh at (and hate) any minority group. It centers on a group of reporters in a bar, shortly after humans have made first contact with Martians, who are passing the time by retelling 'dumb Polack' jokes as 'dumb Martian' jokes.\u000a"The Day After the Day the Martians Came" was adapted by Marvel Comics in Worlds Unknown #1, May, 1973 illustrated by Ralph Reese.
p86
sS'content_cleaned'
p87
I01
sS'classes'
p88
(lp89
Vto-read
p90
aVyoung-adult
p91
aVya
p92
aVcontemporary
p93
aVrealistic-fiction
p94
aVfiction
p95
aVbooks-i-own
p96
aVowned
p97
aVteen
p98
aVto-buy
p99
aVlibrary
p100
aVbullying
p101
aVcurrently-reading
p102
aVdeath
p103
aVrealistic
p104
aVhigh-school
p105
aVromance
p106
aVya-fiction
p107
aVwish-list
p108
aVdrama
p109
aVstand-alone
p110
aVkindle
p111
aVmental-health
p112
aVya-books
p113
aVmaybe
p114
aVfavourites
p115
aVebooks
p116
aVowned-books
p117
aVread-in-2014
p118
aVread-in-2013
p119
aVya-lit
p120
aVsuicide
p121
aVya-contemporary
p122
aVread-in-2012
p123
aVbook-club
p124
aVschool-shooting
p125
aVi-own
p126
aVyoung-adult-fiction
p127
aVcoming-of-age
p128
aVfavorites
p129
aVmade-me-cry
p130
aVsad
p131
aVcontemporary-fiction
p132
aVread-in-2015
p133
aVdepression
p134
aVschool
p135
aVstand-alones
p136
aVe-book
p137
aVfriendship
p138
aVmental-illness
p139
aV4-stars
p140
aVcrime
p141
aV5-stars
p142
aVread-in-2011
p143
aVneed-to-buy
p144
aVteen-fiction
p145
aVnovels
p146
aVlibrary-books
p147
aVstandalone
p148
aVhave
p149
aVmy-books
p150
aVwant
p151
aVto-read-ya
p152
aVfavorite-books
p153
aVread-in-2010
p154
aVdark
p155
aVwant-to-read
p156
aVread-2013
p157
aVdnf
p158
aVbooks
p159
aVfamily
p160
aVe-books
p161
aVall-time-favorites
p162
aVfavorite
p163
aVreviewed
p164
aVown-it
p165
aVsocial-issues
p166
aVmust-read
p167
aVya-to-read
p168
aVviolence
p169
aVtbr
p170
aVread-2012
p171
aVbooks-to-buy
p172
aVy-a
p173
aVread-2015
p174
aVborrowed
p175
aVrecommended
p176
aVschool-shootings
p177
aVread-2014
p178
aVteens
p179
aVissues
p180
aVdid-not-finish
p181
aVshelfari-favorites
p182
aVon-my-shelf
p183
aVcontemporary-ya
p184
aVyoungadult
p185
aV2013-reads
p186
aVadult
p187
aVkindle-books
p188
aVschool-violence
p189
asS'loc_class'
p190
VPS: Language and Literatures: American and Canadian literature
p191
sS'n_authors'
p192
I1
sb.