ccopy_reg
_reconstructor
p0
(cdataset.Book
Book
p1
c__builtin__
object
p2
Ntp3
Rp4
(dp5
S'content_name'
p6
V40961.txt.utf-8
p7
sS'isbn'
p8
NsS'year'
p9
I2012
sS'author_name'
p10
VH. B. Fyfe
p11
sS'images_urls'
p12
(lp13
Vhttp://www.gutenberg.org/files/40961/40961-h/images/cover.jpg
p14
aVhttp://www.gutenberg.org/files/40961/40961-h/images/illus1.jpg
p15
aVhttp://www.gutenberg.org/files/40961/40961-h/images/illus2.jpg
p16
asS'language_code'
p17
NsS'images'
p18
(lp19
sS'id'
p20
I621
sS'category'
p21
VText
p22
sS'genres'
p23
(lp24
sS'copyright'
p25
VPublic domain in the USA.
p26
sS'title'
p27
VLuna Escapade
p28
sS'wikipedia'
p29
(dp30
S'found'
p31
I00
ssS'average_rating'
p32
F2.0
sS'rating_count'
p33
I1
sS'content_available'
p34
I01
sS'cover_art_url'
p35
S'http://www.gutenberg.org/cache/epub/40961/pg40961.cover.medium.jpg'
p36
sS'goodreads'
p37
(dp38
S'url'
p39
Vhttps://www.goodreads.com/book/show/24750296-luna-escapade
p40
sg31
I01
sS'year'
p41
I2012
ssS'similar_books'
p42
(lp43
sS'description'
p44
NsS'format'
p45
NsS'gutenberg'
p46
(dp47
g39
Vhttp://www.gutenberg.org/ebooks/40961
p48
sS'num'
p49
I40961
ssS'authors'
p50
(lp51
I94
asS'isbn13'
p52
NsS'language'
p53
VEnglish
p54
sS'countries'
p55
(lp56
I2
asS'release_date'
p57
S'2012-10-06T00:00:00'
p58
sS'author'
p59
I94
sS'content_cleaned'
p60
I01
sS'classes'
p61
(lp62
Vto-read
p63
aV21st-century-lit
p64
aVfree-from-amazon
p65
asS'loc_class'
p66
VPS: Language and Literatures: American and Canadian literature
p67
sS'n_authors'
p68
I1
sb.