ccopy_reg
_reconstructor
p0
(cdataset.Book
Book
p1
c__builtin__
object
p2
Ntp3
Rp4
(dp5
S'content_name'
p6
V51571.txt.utf-8
p7
sS'isbn'
p8
V1459811461
p9
sS'year'
p10
I1960
sS'author_name'
p11
VRon Goulart
p12
sS'images_urls'
p13
(lp14
Vhttp://www.gutenberg.org/files/51571/51571-h/images/cover.jpg
p15
aVhttp://www.gutenberg.org/files/51571/51571-h/images/illus1.jpg
p16
aVhttp://www.gutenberg.org/files/51571/51571-h/images/illus2.jpg
p17
asS'language_code'
p18
Veng
p19
sS'id'
p20
I686
sS'category'
p21
VText
p22
sS'genres'
p23
(lp24
sS'copyright'
p25
VPublic domain in the USA.
p26
sS'title'
p27
VSubject to Change
p28
sS'wikipedia'
p29
(dp30
S'found'
p31
I00
ssS'average_rating'
p32
F3.52
sS'rating_count'
p33
I21
sS'content_available'
p34
I01
sS'cover_art_url'
p35
S'http://www.gutenberg.org/cache/epub/51571/pg51571.cover.medium.jpg'
p36
sS'goodreads'
p37
(dp38
S'url'
p39
Vhttps://www.goodreads.com/book/show/33855723-subject-to-change
p40
sS'found'
p41
I01
sS'year'
p42
I2017
ssS'similar_books'
p43
(lp44
sS'description'
p45
VDeclan\u2019s small-town life is a series of let-downs\u2014his delinquent brother, his own lackluster performance at school and the ultimate: his father\u2019s unexplained five-year absence. How is it all going to change when he\u2019s confronted with the truth about his parents\u2019 divorce?
p46
sS'format'
p47
VPaperback
p48
sS'gutenberg'
p49
(dp50
g39
Vhttp://www.gutenberg.org/ebooks/51571
p51
sS'num'
p52
I51571
ssS'authors'
p53
(lp54
I225
asS'pages'
p55
I288
sS'isbn13'
p56
V9781459811461
p57
sS'language'
p58
VEnglish
p59
sS'countries'
p60
(lp61
I2
asS'release_date'
p62
S'2016-03-26T00:00:00'
p63
sS'author'
p64
I225
sS'content_cleaned'
p65
I01
sS'classes'
p66
(lp67
Vto-read
p68
aVyoung-adult
p69
aVlgbtq
p70
aVnew-books
p71
aVglbt
p72
aVfiction
p73
aVwish-list
p74
aVgiveaways
p75
aVya
p76
aV2017-releases
p77
aVlgbt
p78
aVbookshare
p79
aV2017-wishlist
p80
aVstandalone
p81
aVlgbt-i-didnt-know-about
p82
aV00-lgbt
p83
aVstand-alone
p84
aVsequoyah-2018
p85
aVpick-it-for-me
p86
aVntr-not-available-at-the-library
p87
aVmiddle-school
p88
aVya-lit
p89
aV2017-releases-tbr
p90
aVrainbow
p91
aVjri
p92
aV2017-reads
p93
aVthe-home-library
p94
aVcontemporary-young-adult
p95
aVconsideration-2018
p96
aVfavourites
p97
aVneed-to-buy
p98
aVlibrary
p99
aVbooks-to-read-in-the-future
p100
aVat-my-library
p101
aVi-have
p102
aVsjrc-library
p103
aVbuy
p104
aVneed-this-right-now
p105
aVm-lgbtq
p106
aVdark
p107
aVdrama
p108
aVgoodreads-first-reads
p109
aV2017-books-i-read
p110
aVtbr-pile
p111
aVrealistic-fiction
p112
aVya-childrens
p113
aVquebec
p114
aVblog
p115
aVteen
p116
aVfirst-reads
p117
aVgiveaway-wins
p118
aVx-lib
p119
aVsiblings
p120
aVneed-to-read
p121
aVlife-struggle
p122
aVfamily-struggles
p123
aVarcs
p124
aVya-nos
p125
aVreviewed
p126
aVread-in-2017
p127
aVpaper-reading
p128
aVoh-canada
p129
aVi-cried
p130
aVfree-from-author-or-publisher
p131
aVearly-reviewers
p132
aVcontemporary-and-realistic
p133
aV18-19-ga-peach-awards
p134
aV2017-can-lit
p135
aVentered-giveaway
p136
aVcontemporary
p137
aVanticipated-reads
p138
aV2-feb-17-release
p139
aVlibrary-thing-reviews
p140
aVgiveaway
p141
aVout-in-2017
p142
aVabuse-mental-illness
p143
aVnot-out-yet
p144
aVqueer
p145
aVya-contemporary
p146
aV2017-ya-contemporary
p147
aVbeyond
p148
aVno
p149
aV2017-new-release
p150
aVanticipated-read-a-s-a-p
p151
asS'loc_class'
p152
S''
p153
sS'n_authors'
p154
I1
sb.