ccopy_reg
_reconstructor
p0
(cdataset.Book
Book
p1
c__builtin__
object
p2
Ntp3
Rp4
(dp5
S'content_name'
p6
V29410.txt.utf-8
p7
sS'isbn'
p8
NsS'year'
p9
I1933
sS'author_name'
p10
VWallace West
p11
sS'images_urls'
p12
(lp13
Vhttp://www.gutenberg.org/files/29410/29410-h/images/image_001.jpg
p14
asS'language_code'
p15
Veng
p16
sS'images'
p17
(lp18
sS'id'
p19
I473
sS'category'
p20
VText
p21
sS'genres'
p22
(lp23
sS'copyright'
p24
VPublic domain in the USA.
p25
sS'title'
p26
VThe End of Time
p27
sS'wikipedia'
p28
(dp29
S'found'
p30
I00
ssS'average_rating'
p31
F3.76
sS'rating_count'
p32
I15
sS'content_available'
p33
I01
sS'goodreads'
p34
(dp35
S'url'
p36
S'https://www.goodreads.com/book/show/13438140-the-end-of-time'
p37
sS'found'
p38
I01
ssS'similar_books'
p39
(lp40
sS'description'
p41
V<b>By millions of millions the creatures of earth slow and drop when their time-sense is mysteriously paralyzed.</b><br /><i>Time Manipulation</i><br /><br />Play Duration: 00:54:47 <br />Down load file sizes<br />[mp3@64kbps - 26.2MB]<br />[mp3@128kbps - 52.5MB]<br /><br />Public Domain stories from Project Gutenberg, that are read by volunteers. <br />First published in Astounding Stories
p42
sS'gutenberg'
p43
(dp44
S'url'
p45
Vhttp://www.gutenberg.org/ebooks/29410
p46
sS'num'
p47
I29410
ssS'authors'
p48
(lp49
I158
asS'isbn13'
p50
NsS'language'
p51
VEnglish
p52
sS'countries'
p53
(lp54
I2
asS'release_date'
p55
S'2009-07-15T00:00:00'
p56
sS'author'
p57
I158
sS'cover'
p58
Vhttps://s.gr-assets.com/assets/nophoto/book/111x148-bcc042a9c91a29c1d680899eff700a03.png
p59
sS'content_cleaned'
p60
I01
sS'classes'
p61
(lp62
Vto-read
p63
aVscience-fiction
p64
aV16
p65
aVaudiobooks
p66
aV2015-pop-reading-challenge
p67
aVshort-story
p68
aVcalibre
p69
aVtype-short-story
p70
aVunread
p71
asS'loc_class'
p72
VPS: Language and Literatures: American and Canadian literature
p73
sS'n_authors'
p74
I1
sb.