ccopy_reg
_reconstructor
p0
(cdataset.Book
Book
p1
c__builtin__
object
p2
Ntp3
Rp4
(dp5
S'content_name'
p6
V23920.txt.utf-8
p7
sS'isbn'
p8
NsS'year'
p9
I1959
sS'author_name'
p10
VAnne Walker
p11
sS'images_urls'
p12
(lp13
Vhttp://www.gutenberg.org/files/23920/23920-h/images/001.png
p14
aVhttp://www.gutenberg.org/files/23920/23920-h/images/002.png
p15
aVhttp://www.gutenberg.org/files/23920/23920-h/images/003.png
p16
asS'language_code'
p17
NsS'id'
p18
I705
sS'category'
p19
VText
p20
sS'genres'
p21
(lp22
sS'copyright'
p23
VPublic domain in the USA.
p24
sS'title'
p25
VA Matter of Proportion
p26
sS'wikipedia'
p27
(dp28
S'found'
p29
I00
ssS'average_rating'
p30
F2.67
sS'rating_count'
p31
I6
sS'content_available'
p32
I01
sS'goodreads'
p33
(dp34
S'url'
p35
Vhttps://www.goodreads.com/book/show/20653665-a-matter-of-proportion
p36
sS'found'
p37
I01
sS'year'
p38
I2011
ssS'similar_books'
p39
(lp40
sS'description'
p41
NsS'gutenberg'
p42
(dp43
g35
Vhttp://www.gutenberg.org/ebooks/23920
p44
sS'num'
p45
I23920
ssS'authors'
p46
(lp47
I232
asS'isbn13'
p48
NsS'language'
p49
VEnglish
p50
sS'countries'
p51
(lp52
I3
asS'release_date'
p53
S'2007-12-19T00:00:00'
p54
sS'author'
p55
I232
sS'content_cleaned'
p56
I01
sS'classes'
p57
(lp58
Vscience-fiction
p59
aVsfbywomen
p60
aVdisabilitystudies
p61
aVsf
p62
aVshort-story
p63
aV14
p64
aVtype-short-story
p65
asS'loc_class'
p66
VPS: Language and Literatures: American and Canadian literature
p67
sS'n_authors'
p68
I1
sb.