ccopy_reg
_reconstructor
p0
(cdataset.Book
Book
p1
c__builtin__
object
p2
Ntp3
Rp4
(dp5
S'content_name'
p6
V29989.txt.utf-8
p7
sS'isbn'
p8
V0865711054
p9
sS'year'
p10
I1961
sS'author_name'
p11
VH. B. Fyfe
p12
sS'images_urls'
p13
(lp14
Vhttp://www.gutenberg.org/files/29989/29989-h/images/image_001.jpg
p15
aVhttp://www.gutenberg.org/files/29989/29989-h/images/image_i.jpg
p16
asS'language_code'
p17
NsS'id'
p18
I733
sS'category'
p19
VText
p20
sS'genres'
p21
(lp22
sS'copyright'
p23
VPublic domain in the USA.
p24
sS'title'
p25
VThe Outbreak of Peace
p26
sS'wikipedia'
p27
(dp28
S'found'
p29
I00
ssS'average_rating'
p30
F5.0
sS'rating_count'
p31
I3
sS'content_available'
p32
I01
sS'goodreads'
p33
(dp34
S'url'
p35
Vhttps://www.goodreads.com/book/show/2090656.An_Outbreak_of_Peace
p36
sS'found'
p37
I01
sS'year'
p38
I1987
ssS'similar_books'
p39
(lp40
sS'description'
p41
NsS'format'
p42
NsS'gutenberg'
p43
(dp44
g35
Vhttp://www.gutenberg.org/ebooks/29989
p45
sS'num'
p46
I29989
ssS'authors'
p47
(lp48
I94
asS'isbn13'
p49
V9780865711051
p50
sS'language'
p51
VEnglish
p52
sS'countries'
p53
(lp54
I2
asS'release_date'
p55
S'2009-09-14T00:00:00'
p56
sS'author'
p57
I94
sS'content_cleaned'
p58
I01
sS'classes'
p59
(lp60
sS'loc_class'
p61
VPS: Language and Literatures: American and Canadian literature
p62
sS'n_authors'
p63
I1
sb.