ccopy_reg
_reconstructor
p0
(cdataset.Book
Book
p1
c__builtin__
object
p2
Ntp3
Rp4
(dp5
S'content_name'
p6
V29146.txt.utf-8
p7
sS'isbn'
p8
NsS'year'
p9
I2010
sS'author_name'
p10
VGerald Vance
p11
sS'images_urls'
p12
(lp13
Vhttp://www.gutenberg.org/files/29146/29146-h/images/cover.jpg
p14
aVhttp://www.gutenberg.org/files/29146/29146-h/images/equation.png
p15
asS'language_code'
p16
NsS'images'
p17
(lp18
sS'id'
p19
I554
sS'category'
p20
VText
p21
sS'genres'
p22
(lp23
sS'copyright'
p24
VPublic domain in the USA.
p25
sS'title'
p26
VEquation of Doom
p27
sS'wikipedia'
p28
(dp29
S'found'
p30
I00
ssS'average_rating'
p31
F4.0
sS'rating_count'
p32
I6
sS'content_available'
p33
I01
sS'cover_art_url'
p34
S'http://www.gutenberg.org/cache/epub/29146/pg29146.cover.medium.jpg'
p35
sS'goodreads'
p36
(dp37
S'url'
p38
Vhttps://www.goodreads.com/book/show/8708868-equation-of-doom
p39
sg30
I01
sS'year'
p40
I2010
ssS'similar_books'
p41
(lp42
sS'description'
p43
NsS'format'
p44
NsS'gutenberg'
p45
(dp46
g38
Vhttp://www.gutenberg.org/ebooks/29146
p47
sS'num'
p48
I29146
ssS'authors'
p49
(lp50
I185
asS'isbn13'
p51
NsS'language'
p52
VEnglish
p53
sS'release_date'
p54
S'2009-06-17T00:00:00'
p55
sS'author'
p56
I185
sS'content_cleaned'
p57
I00
sS'classes'
p58
(lp59
Vto-read
p60
aVscience-fiction
p61
aV21st-century-lit
p62
aVaudiobooks
p63
aV15
p64
aVlibrivox
p65
asS'loc_class'
p66
VPS: Language and Literatures: American and Canadian literature
p67
sS'n_authors'
p68
I1
sb.