ccopy_reg
_reconstructor
p0
(cdataset.Book
Book
p1
c__builtin__
object
p2
Ntp3
Rp4
(dp5
S'content_name'
p6
V17958.txt.utf-8
p7
sS'isbn'
p8
V1434619346
p9
sS'year'
p10
I1963
sS'author_name'
p11
VTerry Gene Carr
p12
sS'images_urls'
p13
(lp14
sS'language_code'
p15
NsS'images'
p16
(lp17
sS'id'
p18
I536
sS'category'
p19
VText
p20
sS'genres'
p21
(lp22
sS'copyright'
p23
VPublic domain in the USA.
p24
sS'title'
p25
VWarlord of Kor
p26
sS'wikipedia'
p27
(dp28
S'found'
p29
I00
ssS'average_rating'
p30
F3.57
sS'rating_count'
p31
I15
sS'content_available'
p32
I01
sS'goodreads'
p33
(dp34
S'url'
p35
Vhttps://www.goodreads.com/book/show/2511999.Warlord_of_Kor
p36
sg29
I01
sS'year'
p37
I1963
ssS'similar_books'
p38
(lp39
sS'description'
p40
VThis is a pre-1923 historical reproduction that was curated for quality. Quality assurance was conducted on each of these books in an attempt to remove books with imperfections introduced by the digitization process. Though we have made best efforts - the books may have occasional errors that do not impede the reading experience. We believe this work is culturally important and have elected to bring the book back into print as part of our continuing commitment to the preservation of printed works worldwide.
p41
sS'gutenberg'
p42
(dp43
g35
Vhttp://www.gutenberg.org/ebooks/17958
p44
sS'num'
p45
I17958
ssS'authors'
p46
(lp47
I177
asS'isbn13'
p48
V9781434619341
p49
sS'language'
p50
VEnglish
p51
sS'countries'
p52
(lp53
I2
asS'release_date'
p54
S'2006-03-10T00:00:00'
p55
sS'author'
p56
I177
sS'cover'
p57
Vhttps://s.gr-assets.com/assets/nophoto/book/111x148-bcc042a9c91a29c1d680899eff700a03.png
p58
sS'content_cleaned'
p59
I00
sS'classes'
p60
(lp61
Vto-read
p62
aVscience-fiction
p63
aVcurrently-reading
p64
aVto-get
p65
aVpublic-domain
p66
aVnovels
p67
aVown-audiobook
p68
aVaudiobooks
p69
aVbooks
p70
aVowned-books
p71
aVunread
p72
aVfiction
p73
aVcover-art-collection
p74
aVace-doubles
p75
aVdonated
p76
aVebook
p77
aVfeedbooks-com
p78
aVreimport
p79
aVsword-and-planet
p80
aVsci-fi-fantasy
p81
aVsci-fic
p82
aVto-purchase
p83
aVe-books
p84
aVread-on-pc
p85
aVmy-ebooks
p86
aVreorganize
p87
aVshelved
p88
aVs-tr
p89
aVtanith
p90
aVlee
p91
asS'loc_class'
p92
VPS: Language and Literatures: American and Canadian literature
p93
sS'n_authors'
p94
I1
sb.