ccopy_reg
_reconstructor
p0
(cdataset.Book
Book
p1
c__builtin__
object
p2
Ntp3
Rp4
(dp5
S'content_name'
p6
V30971.txt.utf-8
p7
sS'isbn'
p8
NsS'year'
p9
I1963
sS'author_name'
p10
VPoul Anderson
p11
sS'images_urls'
p12
(lp13
Vhttp://www.gutenberg.org/files/30971/30971-h/images/cover.jpg
p14
aVhttp://www.gutenberg.org/files/30971/30971-h/images/image_001.jpg
p15
aVhttp://www.gutenberg.org/files/30971/30971-h/images/image_002.jpg
p16
aVhttp://www.gutenberg.org/files/30971/30971-h/images/image_003.jpg
p17
aVhttp://www.gutenberg.org/files/30971/30971-h/images/image_004.jpg
p18
aVhttp://www.gutenberg.org/files/30971/30971-h/images/image_005.jpg
p19
aVhttp://www.gutenberg.org/files/30971/30971-h/images/image_006.jpg
p20
aVhttp://www.gutenberg.org/files/30971/30971-h/images/image_w.jpg
p21
asS'language_code'
p22
Veng
p23
sS'id'
p24
I77
sS'category'
p25
VText
p26
sS'genres'
p27
(lp28
sS'copyright'
p29
VPublic domain in the USA.
p30
sS'title'
p31
VIndustrial Revolution
p32
sS'wikipedia'
p33
(dp34
S'found'
p35
I00
ssS'average_rating'
p36
F3.91
sS'rating_count'
p37
I24
sS'content_available'
p38
I01
sS'cover_art_url'
p39
S'http://www.gutenberg.org/cache/epub/30971/pg30971.cover.medium.jpg'
p40
sS'goodreads'
p41
(dp42
S'url'
p43
S'https://www.goodreads.com/book/show/9371553-industrial-revolution'
p44
sS'found'
p45
I01
ssS'similar_books'
p46
(lp47
sS'description'
p48
VVariant Titles:<br /><br />The Rogue (1963) - Poul Anderson<br />Industrial Revolution (1963) - Winston P. Sanders<br /><br />The book has no illustrations or index. Purchasers are entitled to a free trial membership in the General Books Club where they can select from more than a million books without charge. Subjects: Industries; Great Britain; Fiction / Classics;
p49
sS'gutenberg'
p50
(dp51
S'url'
p52
Vhttp://www.gutenberg.org/ebooks/30971
p53
sS'num'
p54
I30971
ssS'authors'
p55
(lp56
I30
asS'isbn13'
p57
NsS'language'
p58
VEnglish
p59
sS'countries'
p60
(lp61
I2
asS'release_date'
p62
S'2010-01-15T00:00:00'
p63
sS'author'
p64
I30
sS'content_cleaned'
p65
I01
sS'classes'
p66
(lp67
Vto-read
p68
aVscience-fiction
p69
aVcurrently-reading
p70
aVsf
p71
aVfiction
p72
aVsci-fi
p73
aVowned
p74
aVebooks
p75
aVhave
p76
aVroundtuit
p77
aVunread
p78
aV20th-century-lit
p79
aVtie-elib
p80
aVskovde-bibliotek
p81
aVbest-free-reads
p82
aVtbr-owned
p83
aVshort-classics
p84
aVkindle-to-read
p85
aVhistory
p86
aVscifi-fantasy
p87
aVowned-pending-kindle-free-ebook
p88
aVkindle-free-ebook
p89
aVno-time-soon
p90
aVshort-stories
p91
aVsf-fan
p92
aVundecided
p93
aVto-read-sort
p94
aVkindle-own
p95
aVquit-reading
p96
aVpaul
p97
aVread-2014
p98
aVhard-science-fiction
p99
aVfeedbooks-com
p100
aVbackburner
p101
aVonshelf
p102
aVfree
p103
aVepub
p104
aVto-read-kindle
p105
aVebook
p106
aVscifi
p107
aVnovellas-short-stories
p108
aV1960s-1970s-sf-silver-age
p109
aV3-ebooks
p110
aVkindle
p111
aVbacklog
p112
aVhigh-priority-tbr
p113
aVround-tuit
p114
aV3a-ebooks
p115
aVbacklogue
p116
asS'loc_class'
p117
VPS: Language and Literatures: American and Canadian literature
p118
sS'n_authors'
p119
I1
sb.