ccopy_reg
_reconstructor
p0
(cdataset.Book
Book
p1
c__builtin__
object
p2
Ntp3
Rp4
(dp5
S'content_name'
p6
V50863.txt.utf-8
p7
sS'isbn'
p8
V1880418169
p9
sS'cover'
p10
Vhttps://s.gr-assets.com/assets/nophoto/book/111x148-bcc042a9c91a29c1d680899eff700a03.png
p11
sS'year'
p12
I1955
sS'author_name'
p13
VE. Everett Evans
p14
sS'images_urls'
p15
(lp16
Vhttp://www.gutenberg.org/files/50863/50863-h/images/cover.jpg
p17
asS'language_code'
p18
NsS'images'
p19
(lp20
Vhttps://upload.wikimedia.org/wikipedia/en/2/2f/Alien_minds.jpg
p21
aVhttps://upload.wikimedia.org/wikipedia/commons/a/a0/Sfbook.png
p22
asS'id'
p23
I502
sS'category'
p24
VText
p25
sS'genres'
p26
(lp27
sS'copyright'
p28
VPublic domain in the USA.
p29
sS'title'
p30
VAlien Minds
p31
sS'wikipedia'
p32
(dp33
S'url'
p34
Vhttps://en.wikipedia.org/wiki/Alien_Minds
p35
sS'found'
p36
I01
sS'year'
p37
I-1
ssS'published_in'
p38
NsS'average_rating'
p39
F4.53
sS'rating_count'
p40
I2
sS'content_available'
p41
I01
sS'cover_art_url'
p42
S'http://www.gutenberg.org/cache/epub/50863/pg50863.cover.medium.jpg'
p43
sS'goodreads'
p44
(dp45
S'url'
p46
S'https://www.goodreads.com/book/show/3781782-alien-minds'
p47
sS'found'
p48
I01
ssS'similar_books'
p49
(lp50
sS'description'
p51
VThe ability to read minds isn't an unmixed blessing, so learns George Hanlon, Secret Operative of the Inter-Stellar Corps. His unique gift helps him with his assignments, of course -- except that he has a lot of trouble with alien minds. He encounters a whole planet full of alien minds on Estrella when the semi-human inhabitants of this Earth-like world of another sun decide that they want nothing to do with the Federation Planets. Hanlon's investigation's lead him into complications and troubles, all of which contribute to the entertainment of this tale of intrigue on a distant world.The striking jacket of this book is by the master of science fiction art -- Hannes Bok.
p52
sS'gutenberg'
p53
(dp54
g34
Vhttp://www.gutenberg.org/ebooks/50863
p55
sS'num'
p56
I50863
ssS'authors'
p57
(lp58
I38
asS'isbn13'
p59
V9781880418161
p60
sS'language'
p61
VEnglish
p62
sS'countries'
p63
(lp64
I2
asS'release_date'
p65
S'2016-01-07T00:00:00'
p66
sS'author'
p67
I38
sS'original_title'
p68
VAlien Minds
p69
sS'summary'
p70
VAlien Minds is a science fiction novel by author E. Everett Evans. It was first published in 1955 by Fantasy Press in an edition of 1,417 copies. The book is a sequel to Man of Many Minds
p71
sS'content_cleaned'
p72
I01
sS'classes'
p73
(lp74
sS'loc_class'
p75
S''
p76
sS'n_authors'
p77
I1
sb.