ccopy_reg
_reconstructor
p0
(cdataset.Book
Book
p1
c__builtin__
object
p2
Ntp3
Rp4
(dp5
S'content_name'
p6
V29503.txt.utf-8
p7
sS'isbn'
p8
V0316041440
p9
sS'year'
p10
I2009
sS'author_name'
p11
VFrederik Pohl
p12
sS'images_urls'
p13
(lp14
Vhttp://www.gutenberg.org/files/29503/29503-h/images/001.png
p15
aVhttp://www.gutenberg.org/files/29503/29503-h/images/002-1.jpg
p16
aVhttp://www.gutenberg.org/files/29503/29503-h/images/002-2.jpg
p17
asS'language_code'
p18
Veng
p19
sS'images'
p20
(lp21
sS'id'
p22
I497
sS'category'
p23
VText
p24
sS'genres'
p25
(lp26
sS'copyright'
p27
VPublic domain in the USA.
p28
sS'title'
p29
VThe Hated
p30
sS'wikipedia'
p31
(dp32
S'url'
p33
Vhttps://en.wikipedia.org/wiki/The_Day_After_the_Day_the_Martians_Came
p34
sS'found'
p35
I01
sS'year'
p36
I-1
ssS'published_in'
p37
NsS'average_rating'
p38
F4.03
sS'rating_count'
p39
I39714
sS'content_available'
p40
I01
sS'goodreads'
p41
(dp42
g33
Vhttps://www.goodreads.com/book/show/6316171-hate-list
p43
sg35
I01
sg36
I2009
ssS'similar_books'
p44
(lp45
VRight Behind You
p46
aVHold Still
p47
aVAfter
p48
aVFlash Burnout
p49
aVBy the Time You Read This, I'll Be Dead
p50
aVPurple Heart
p51
aVQuad
p52
aVThe Mockingbirds (The Mockingbirds, #1)
p53
aVDirty Little Secrets
p54
aVWillow
p55
aVButter
p56
aVFreaks and Revelations
p57
aVBallads of Suburbia
p58
aVBecause I Am Furniture
p59
aVFall for Anything
p60
aVScrawl
p61
aVGoth Girl Rising (The Astonishing Adventures of Fanboy and Goth Girl, #2)
p62
aVLeftovers
p63
asS'description'
p64
VFive months ago, Valerie Leftman's boyfriend, Nick, opened fire on their school cafeteria. Shot trying to stop him, Valerie inadvertently saved the life of a classmate, but was implicated in the shootings because of the list she helped create. A list of people and things she and Nick hated. The list he used to pick his targets.<br /><br />Now, after a summer of seclusion, Val is forced to confront her guilt as she returns to school to complete her senior year. Haunted by the memory of the boyfriend she still loves and navigating rocky relationships with her family, former friends and the girl whose life she saved, Val must come to grips with the tragedy that took place and her role in it, in order to make amends and move on with her life.<br />
p65
sS'format'
p66
NsS'gutenberg'
p67
(dp68
g33
Vhttp://www.gutenberg.org/ebooks/29503
p69
sS'num'
p70
I29503
ssS'authors'
p71
(lp72
I40
asS'pages'
p73
I405
sS'isbn13'
p74
V9780316041447
p75
sS'language'
p76
VEnglish
p77
sS'country'
p78
I2
sS'release_date'
p79
S'2009-07-24T00:00:00'
p80
sS'author'
p81
I40
sS'original_title'
p82
VThe Day After the Day the Martians Came
p83
sS'summary'
p84
V"The Day After the Day the Martians Came" is a short story by American writer Frederik Pohl, first published in Harlan Ellison's Dangerous Visions. It shows how humans can (and will) laugh at (and hate) any minority group. It centers on a group of reporters in a bar, shortly after humans have made first contact with Martians, who are passing the time by retelling 'dumb Polack' jokes as 'dumb Martian' jokes.\u000a"The Day After the Day the Martians Came" was adapted by Marvel Comics in Worlds Unknown #1, May, 1973 illustrated by Ralph Reese.
p85
sS'content_cleaned'
p86
I01
sS'classes'
p87
(lp88
Vto-read
p89
aVyoung-adult
p90
aVya
p91
aVcontemporary
p92
aVrealistic-fiction
p93
aVfiction
p94
aVbooks-i-own
p95
aVowned
p96
aVteen
p97
aVto-buy
p98
aVlibrary
p99
aVbullying
p100
aVcurrently-reading
p101
aVdeath
p102
aVrealistic
p103
aVhigh-school
p104
aVromance
p105
aVya-fiction
p106
aVwish-list
p107
aVdrama
p108
aVstand-alone
p109
aVkindle
p110
aVmental-health
p111
aVya-books
p112
aVmaybe
p113
aVfavourites
p114
aVebooks
p115
aVowned-books
p116
aVread-in-2014
p117
aVread-in-2013
p118
aVya-lit
p119
aVsuicide
p120
aVya-contemporary
p121
aVread-in-2012
p122
aVbook-club
p123
aVschool-shooting
p124
aVi-own
p125
aVyoung-adult-fiction
p126
aVcoming-of-age
p127
aVfavorites
p128
aVmade-me-cry
p129
aVsad
p130
aVcontemporary-fiction
p131
aVread-in-2015
p132
aVdepression
p133
aVschool
p134
aVstand-alones
p135
aVe-book
p136
aVfriendship
p137
aVmental-illness
p138
aV4-stars
p139
aVcrime
p140
aV5-stars
p141
aVread-in-2011
p142
aVneed-to-buy
p143
aVteen-fiction
p144
aVnovels
p145
aVlibrary-books
p146
aVstandalone
p147
aVhave
p148
aVmy-books
p149
aVwant
p150
aVto-read-ya
p151
aVfavorite-books
p152
aVread-in-2010
p153
aVdark
p154
aVwant-to-read
p155
aVread-2013
p156
aVdnf
p157
aVbooks
p158
aVfamily
p159
aVe-books
p160
aVall-time-favorites
p161
aVfavorite
p162
aVreviewed
p163
aVown-it
p164
aVsocial-issues
p165
aVmust-read
p166
aVya-to-read
p167
aVviolence
p168
aVtbr
p169
aVread-2012
p170
aVbooks-to-buy
p171
aVy-a
p172
aVread-2015
p173
aVborrowed
p174
aVrecommended
p175
aVschool-shootings
p176
aVread-2014
p177
aVteens
p178
aVissues
p179
aVdid-not-finish
p180
aVshelfari-favorites
p181
aVon-my-shelf
p182
aVcontemporary-ya
p183
aVyoungadult
p184
aV2013-reads
p185
aVadult
p186
aVkindle-books
p187
aVschool-violence
p188
asS'loc_class'
p189
VPS: Language and Literatures: American and Canadian literature
p190
sS'n_authors'
p191
I1
sb.