ccopy_reg
_reconstructor
p0
(cdataset.Book
Book
p1
c__builtin__
object
p2
Ntp3
Rp4
(dp5
S'content_name'
p6
V23535.txt.utf-8
p7
sS'isbn'
p8
V1423169492
p9
sS'year'
p10
I2015
sS'author_name'
p11
VBenjamin Ferris
p12
sS'images_urls'
p13
(lp14
Vhttp://www.gutenberg.org/files/23535/23535-h/images/illus.jpg
p15
aVhttp://www.gutenberg.org/files/23535/23535-page-images/p080-image.png
p16
aVhttp://www.gutenberg.org/files/23535/23535-page-images/p080.png
p17
aVhttp://www.gutenberg.org/files/23535/23535-page-images/p081.png
p18
aVhttp://www.gutenberg.org/files/23535/23535-page-images/p082.png
p19
aVhttp://www.gutenberg.org/files/23535/23535-page-images/p083.png
p20
aVhttp://www.gutenberg.org/files/23535/23535-page-images/p084.png
p21
aVhttp://www.gutenberg.org/files/23535/23535-page-images/p085a.png
p22
aVhttp://www.gutenberg.org/files/23535/23535-page-images/p085b.png
p23
aVhttp://www.gutenberg.org/files/23535/23535-page-images/p086a.png
p24
aVhttp://www.gutenberg.org/files/23535/23535-page-images/p086b.png
p25
aVhttp://www.gutenberg.org/files/23535/23535-page-images/p087a.png
p26
aVhttp://www.gutenberg.org/files/23535/23535-page-images/p087b.png
p27
aVhttp://www.gutenberg.org/files/23535/23535-page-images/p088a.png
p28
aVhttp://www.gutenberg.org/files/23535/23535-page-images/p088b.png
p29
aVhttp://www.gutenberg.org/files/23535/23535-page-images/p089a.png
p30
aVhttp://www.gutenberg.org/files/23535/23535-page-images/p089b.png
p31
asS'language_code'
p32
Veng
p33
sS'images'
p34
(lp35
sS'id'
p36
I671
sS'category'
p37
VText
p38
sS'genres'
p39
(lp40
sS'copyright'
p41
VPublic domain in the USA.
p42
sS'title'
p43
VThe Invaders
p44
sS'wikipedia'
p45
(dp46
S'found'
p47
I00
ssS'average_rating'
p48
F4.0
sS'rating_count'
p49
I5349
sS'content_available'
p50
I01
sS'goodreads'
p51
(dp52
S'url'
p53
Vhttps://www.goodreads.com/book/show/17316770-invaded
p54
sg47
I01
sS'year'
p55
I2015
ssS'similar_books'
p56
(lp57
VThis Shattered World (Starbound, #2)
p58
aVUnchanged (Unremembered, #3)
p59
aVCollide (The Taking, #3)
p60
aVReborn (Altered, #3)
p61
aVUnleashed (Uninvited, #2)
p62
aVCrash (The Game, #3)
p63
aVForged (Taken, #3)
p64
aVUnmade (Entangled #2)
p65
aVInvisible (The Twixt, #2)
p66
aVThe Eternity Key (Into the Dark, #2)
p67
aVStrange Skies (Burn Out, #2)
p68
aVPublic Enemies (Immortal Game, #2)
p69
aVPolaris (Avalon, #2)
p70
aVSoulprint
p71
aVTwist (Loop, #2)
p72
aVUntitled (Denazen, #5)
p73
aVAstray (Gated, #2)
p74
aVCatalyst (Control, #2)
p75
asS'description'
p76
VThe romantic sequel to Alienated takes long-distance relationships to a new level as Cara and Aelyx long for each other from opposite ends of the universe...until a threat to both their worlds reunites them. <br /><br />Cara always knew life on planet L\u2019eihr would be an adjustment. With Aelyx, her L\u2019eihr boyfriend, back on Earth, working to mend the broken alliance between their two planets, Cara is left to fend for herself at a new school, surrounded by hostile alien clones. Even the weird dorm pet hates her.<br /><br />Things look up when Cara is appointed as human representative to a panel preparing for a human colony on L\u2019eihr. A society melding their two cultures is a place where Cara and Aelyx could one day make a life together. But with L\u2019eihr leaders balking at granting even the most basic freedoms, Cara begins to wonder if she could ever be happy on this planet, even with Aelyx by her side.<br /><br />Meanwhile, on Earth, Aelyx, finds himself thrown into a full-scale PR campaign to improve human-L\u2019eihr relations. Humans don\u2019t know that their very survival depends on this alliance: only Aelyx\u2019s people have the technology to fix the deadly contamination in the global water supply that human governments are hiding. Yet despite their upper hand, the leaders of his world suddenly seem desperate to get humans on their side, and hardly bat an eye at extremists\u2019 multiple attempts on Aelyx\u2019s life.<br /><br />The Way clearly needs humans\u2019 help . . . but with what? And what will they ask for in return?
p77
sS'format'
p78
VHardcover
p79
sS'gutenberg'
p80
(dp81
g53
Vhttp://www.gutenberg.org/ebooks/23535
p82
sS'num'
p83
I23535
ssS'authors'
p84
(lp85
I223
asS'pages'
p86
I356
sS'isbn13'
p87
V9781423169499
p88
sS'language'
p89
VEnglish
p90
sS'release_date'
p91
S'2007-11-18T00:00:00'
p92
sS'author'
p93
I223
sS'content_cleaned'
p94
I01
sS'classes'
p95
(lp96
Vto-read
p97
aVyoung-adult
p98
aVsci-fi
p99
aVcurrently-reading
p100
aVromance
p101
aValiens
p102
aVscience-fiction
p103
aVfavorites
p104
aVya
p105
aVbooks-i-own
p106
aVseries
p107
aVfantasy
p108
aVread-in-2015
p109
aVto-buy
p110
aV2015-releases
p111
aVparanormal
p112
aVowned
p113
aV2015-reads
p114
aVowned-books
p115
aVread-2015
p116
aVwish-list
p117
aV2015-release
p118
aVaudiobook
p119
aValien
p120
aVdystopian
p121
aVfiction
p122
aVspace
p123
aVscifi
p124
aVdystopia
p125
aVtbr
p126
aVebook
p127
aVarc
p128
aVread-in-2016
p129
aVlibrary
p130
aVdnf
p131
aVteen
p132
aVsequels
p133
aVparanormal-romance
p134
aValienated
p135
aVebooks
p136
aVwant
p137
aVmaybe
p138
aVmy-books
p139
aVsupernatural
p140
aVneed-to-buy
p141
aVseries-to-finish
p142
aVfebruary-2015
p143
aVaudio
p144
aVsigned
p145
aVcontemporary
p146
aVya-sci-fi
p147
aVsequel
p148
aVaudiobooks
p149
aVread-2016
p150
aVfuturistic
p151
aVcover-love
p152
aVnot-interested
p153
aVseries-i-need-to-finish
p154
aVtrilogy
p155
aV2015-publication
p156
aV2015-books
p157
aVdisney-hyperion
p158
aVmelissa-landers
p159
aVya-fiction
p160
aVhave
p161
aVown-it
p162
aVlibrary-books
p163
aVreviewed
p164
aV4-stars
p165
aVe-books
p166
aVpart-of-a-series
p167
aVhigh-school
p168
aVreally-want-to-read
p169
aVunfinished-series
p170
aVya-romance
p171
aVaudio-books
p172
aVon-my-shelf
p173
aVebooks-i-own
p174
aVfantasy-sci-fi
p175
aVtbr-pile
p176
aVbooks-to-buy
p177
aVya-books
p178
aVseries-to-read
p179
aV2016-reads
p180
aVfavourites
p181
aVbookshelf
p182
aVhardcover
p183
aVi-own
p184
aVbook-boyfriends
p185
aVkindle
p186
aVenglish-books
p187
aVadventure
p188
aVto-read-2015
p189
aVgiveaways
p190
aVmost-anticipated-2015
p191
aV2015-read
p192
aVya-fantasy
p193
aVbeautiful-covers
p194
aVfebruary
p195
aVcan-t-wait
p196
asS'loc_class'
p197
VPS: Language and Literatures: American and Canadian literature
p198
sS'n_authors'
p199
I1
sb.