ccopy_reg
_reconstructor
p0
(cdataset.Book
Book
p1
c__builtin__
object
p2
Ntp3
Rp4
(dp5
S'similar_books'
p6
(lp7
sS'genres'
p8
(lp9
sS'author'
p10
I918
sS'countries'
p11
(lp12
I2
asS'year'
p13
I1955
sS'title'
p14
VIF Magazine August 1955
p15
sS'cover'
p16
Vhttps://ia601300.us.archive.org/BookReader/BookReaderImages.php?zip=/25/items/1955-08_IF/1955-08_IF_jp2.zip&file=1955-08_IF_jp2/1955-08_IF_0000.jp2&scale=0&rotate=0
p17
sS'cover_art'
p18
S'http://www.isfdb.org/wiki/images/4/4d/WOFIFAUG1955.jpg'
p19
sS'author_name'
p20
VIF Magazine
p21
sS'images_urls'
p22
(lp23
sS'authors'
p24
(lp25
I951
aI956
aI412
aI363
aI326
aI1017
aI228
aI8
aI3
aI1018
aI144
aI1019
aI918
asS'images'
p26
(lp27
sS'id'
p28
I1246
sS'contents'
p29
(lp30
(dp31
g10
I951
sg14
VPreview of Cover Art for October 1955
p32
sa(dp33
g10
I956
sg14
VFranchise
p34
sa(dp35
g10
I412
sg14
VBirthright
p36
sa(dp37
g10
I363
sg14
VBleedback
p38
sa(dp39
g10
I363
sg14
VThe Mold of Yancy
p40
sa(dp41
g10
I956
sg14
VThe Patriot
p42
sa(dp43
g10
I956
sg14
VEcology On Rollins Island
p44
sa(dp45
g10
I326
sg14
VWorth Citing (If, August 1955)
p46
sa(dp47
g10
I326
sg14
VWhat Is Your Science I. Q.? (If, August 1955)
p48
sa(dp49
g10
I326
sg14
VScience Briefs (If, August 1955)
p50
sa(dp51
g10
I1017
sg14
VBirthright
p52
sa(dp53
g10
I228
sg14
VBleedback
p54
sa(dp55
g10
I8
sg14
VThe Mold of Yancy
p56
sa(dp57
g10
I3
sg14
VFranchise
p58
sa(dp59
g10
I1018
sg14
VThe Ethicators
p60
sa(dp61
g10
I144
sg14
VThe Patriot
p62
sa(dp63
g10
I1019
sg14
VEcology On Rollins Island
p64
sasb.