ccopy_reg
_reconstructor
p0
(cdataset.Book
Book
p1
c__builtin__
object
p2
Ntp3
Rp4
(dp5
S'content_name'
p6
V23762.txt.utf-8
p7
sS'isbn'
p8
NsS'year'
p9
I1955
sS'author_name'
p10
VG. C. Edmondson
p11
sS'images_urls'
p12
(lp13
Vhttp://www.gutenberg.org/files/23762/23762-h/images/001.jpg
p14
aVhttp://www.gutenberg.org/files/23762/23762-page-images/p124-image.png
p15
aVhttp://www.gutenberg.org/files/23762/23762-page-images/p124.png
p16
aVhttp://www.gutenberg.org/files/23762/23762-page-images/p125.png
p17
aVhttp://www.gutenberg.org/files/23762/23762-page-images/p126.png
p18
aVhttp://www.gutenberg.org/files/23762/23762-page-images/p127.png
p19
aVhttp://www.gutenberg.org/files/23762/23762-page-images/p128.png
p20
asS'language_code'
p21
NsS'id'
p22
I747
sS'category'
p23
VText
p24
sS'genres'
p25
(lp26
sS'copyright'
p27
VPublic domain in the USA.
p28
sS'title'
p29
VBlessed Are the Meek
p30
sS'wikipedia'
p31
(dp32
S'found'
p33
I00
ssS'average_rating'
p34
F4.14
sS'rating_count'
p35
I19
sS'content_available'
p36
I01
sS'goodreads'
p37
(dp38
S'url'
p39
S'https://www.goodreads.com/book/show/9083951-blessed-are-the-meek'
p40
sS'found'
p41
I01
ssS'similar_books'
p42
(lp43
sS'description'
p44
VThis work has been previously published and carefully edited by humans to be read digitally on your eReader. Please enjoy this historical and classic work. All of our titles are only 99 cents and are formatted to work with the Nook. Also, if it is an illustrated work, you will be able to see all of the original images. This makes them the best quality classic works available for the lowest price. So enjoy this classic work as if it were the original book!
p45
sS'gutenberg'
p46
(dp47
S'url'
p48
Vhttp://www.gutenberg.org/ebooks/23762
p49
sS'num'
p50
I23762
ssS'authors'
p51
(lp52
I242
asS'isbn13'
p53
NsS'language'
p54
VEnglish
p55
sS'countries'
p56
(lp57
I2
asS'release_date'
p58
S'2007-12-07T00:00:00'
p59
sS'author'
p60
I242
sS'content_cleaned'
p61
I01
sS'classes'
p62
(lp63
Vto-read
p64
aVowned
p65
aVaudiobooks
p66
aVebooks
p67
aVsci-fi
p68
aVshelved
p69
aVshort-story
p70
aVsci-fi_short_stories
p71
aVunread
p72
aV15
p73
aV0-anthologies-storeis-novellas
p74
aVaudio-obtained
p75
aVe
p76
aVread-in-2014
p77
aVfree
p78
aVedition-librivox
p79
aV20-science-fiction
p80
aV010-audiobooks
p81
aV000-short-story
p82
aVscience-fiction
p83
aVmy-books
p84
aVtype-short-story
p85
aVaudio-obtained-ss
p86
aV01-free
p87
aV01-librivox
p88
aV00-short-story
p89
aVaudio-books
p90
asS'loc_class'
p91
VPS: Language and Literatures: American and Canadian literature
p92
sS'n_authors'
p93
I1
sb.