ccopy_reg
_reconstructor
p0
(cdataset.Book
Book
p1
c__builtin__
object
p2
Ntp3
Rp4
(dp5
S'content_name'
p6
V23563.txt.utf-8
p7
sS'isbn'
p8
NsS'year'
p9
I1960
sS'author_name'
p10
VRandall Garrett
p11
sS'images_urls'
p12
(lp13
Vhttp://www.gutenberg.org/files/23563/23563-h/images/illus.jpg
p14
asS'language_code'
p15
NsS'images'
p16
(lp17
sS'id'
p18
I581
sS'category'
p19
VText
p20
sS'genres'
p21
(lp22
sS'copyright'
p23
VPublic domain in the USA.
p24
sS'title'
p25
VViewpoint
p26
sS'wikipedia'
p27
(dp28
S'found'
p29
I00
ssS'average_rating'
p30
F4.06
sS'rating_count'
p31
I10
sS'content_available'
p32
I01
sS'goodreads'
p33
(dp34
S'url'
p35
S'https://www.goodreads.com/book/show/9774756-viewpoint'
p36
sS'found'
p37
I01
ssS'similar_books'
p38
(lp39
sS'description'
p40
NsS'gutenberg'
p41
(dp42
S'url'
p43
Vhttp://www.gutenberg.org/ebooks/23563
p44
sS'num'
p45
I23563
ssS'authors'
p46
(lp47
I49
asS'isbn13'
p48
NsS'language'
p49
VEnglish
p50
sS'countries'
p51
(lp52
I2
asS'release_date'
p53
S'2007-11-20T00:00:00'
p54
sS'author'
p55
I49
sS'cover'
p56
Vhttps://s.gr-assets.com/assets/nophoto/book/111x148-bcc042a9c91a29c1d680899eff700a03.png
p57
sS'content_cleaned'
p58
I01
sS'classes'
p59
(lp60
Vto-read
p61
aVscience-fiction
p62
aVfree-from-amazon
p63
aVclassic
p64
aVbooks-read-in-2016
p65
aVshort-story
p66
aVaudio-obtained-lvss
p67
aVcurrently-reading
p68
aV13
p69
aVsci-fi
p70
aVtype-short-story
p71
aVaudio-obtained-ss
p72
aVaudio-books
p73
asS'loc_class'
p74
VPS: Language and Literatures: American and Canadian literature
p75
sS'n_authors'
p76
I1
sb.