ccopy_reg
_reconstructor
p0
(cdataset.Book
Book
p1
c__builtin__
object
p2
Ntp3
Rp4
(dp5
S'similar_books'
p6
(lp7
sS'genres'
p8
(lp9
sS'author'
p10
I302
sS'countries'
p11
(lp12
I2
asS'year'
p13
I1968
sS'title'
p14
VGalaxy Magazine April 1968
p15
sS'cover'
p16
Vhttps://ia600208.us.archive.org/BookReader/BookReaderImages.php?zip=/28/items/Galaxy_v26n04_1968-04/Galaxy_v26n04_1968-04_jp2.zip&file=Galaxy_v26n04_1968-04_jp2/Galaxy_v26n04_1968-04_0000.jp2&scale=0&rotate=0
p17
sS'cover_art'
p18
S'http://www.isfdb.org/wiki/images/2/28/GALAPR68.jpg'
p19
sS'author_name'
p20
VGalaxy Magazine
p21
sS'images_urls'
p22
(lp23
sS'authors'
p24
(lp25
I545
aI611
aI326
aI499
aI40
aI339
aI91
aI622
aI350
aI204
aI56
aI305
aI623
aI604
aI302
asS'images'
p26
(lp27
sS'id'
p28
I1122
sS'contents'
p29
(lp30
(dp31
S'title'
p32
VGoblin Reservation (Part 1 of 2)
p33
sS'author'
p34
I545
sa(dp35
g32
VGoblin Reservation (Part 1 of 2) [2]
p36
sg34
I545
sa(dp37
g32
VGoblin Reservation (Part 1 of 2) [4]
p38
sg34
I545
sa(dp39
g32
VGoblin Reservation (Part 1 of 2) [3]
p40
sg34
I545
sa(dp41
g32
VGoblin Reservation (Part 1 of 2) [5]
p42
sg34
I545
sa(dp43
g32
VGoblin Reservation (Part 1 of 2) [6]
p44
sg34
I545
sa(dp45
g32
VBrain Drain
p46
sg34
I611
sa(dp47
g32
VSword Game
p48
sg34
I326
sa(dp49
g32
VTouch of the Moon
p50
sg34
I611
sa(dp51
g32
VTouch of the Moon [2]
p52
sg34
I611
sa(dp53
g32
VThe Deceivers
p54
sg34
I499
sa(dp55
g32
VThe World and Thorinn
p56
sg34
I499
sa(dp57
g32
VThe World and Thorinn [2]
p58
sg34
I499
sa(dp59
g32
VThe World and Thorinn [3]
p60
sg34
I499
sa(dp61
g32
VThe World and Thorinn [4]
p62
sg34
I499
sa(dp63
g32
VYet Still It Moves
p64
sg34
I40
sa(dp65
g32
VFor Your Information: The Devil's Apples
p66
sg34
I339
sa(dp67
g32
VGalaxy Bookshelf (Galaxy, April 1968)
p68
sg34
I91
sa(dp69
g32
VForecast (Galaxy, April 1968)
p70
sg34
I326
sa(dp71
g32
VBrain Drain
p72
sg34
I622
sa(dp73
g32
VTouch of the Moon
p74
sg34
I350
sa(dp75
g32
VThe World and Thorinn
p76
sg34
I204
sa(dp77
g32
VGoblin Reservation (Part 1 of 2)
p78
sg34
I56
sa(dp79
g32
VThe Riches of Embarrassment
p80
sg34
I305
sa(dp81
g32
VSword Game
p82
sg34
I623
sa(dp83
g32
VThe Deceivers
p84
sg34
I604
sasb.