ccopy_reg
_reconstructor
p0
(cdataset.Book
Book
p1
c__builtin__
object
p2
Ntp3
Rp4
(dp5
S'content_name'
p6
V27609.txt.utf-8
p7
sS'isbn'
p8
NsS'year'
p9
I1929
sS'author_name'
p10
VL. Taylor Hansen
p11
sS'images_urls'
p12
(lp13
Vhttp://www.gutenberg.org/files/27609/27609-h/images/001.png
p14
aVhttp://www.gutenberg.org/files/27609/27609-h/images/002.png
p15
aVhttp://www.gutenberg.org/files/27609/27609-h/images/003.png
p16
aVhttp://www.gutenberg.org/files/27609/27609-h/images/004.png
p17
aVhttp://www.gutenberg.org/files/27609/27609-page-images/f0001.png
p18
aVhttp://www.gutenberg.org/files/27609/27609-page-images/p0113-image1.png
p19
aVhttp://www.gutenberg.org/files/27609/27609-page-images/p0113.png
p20
aVhttp://www.gutenberg.org/files/27609/27609-page-images/p0114.png
p21
aVhttp://www.gutenberg.org/files/27609/27609-page-images/p0115-image1.png
p22
aVhttp://www.gutenberg.org/files/27609/27609-page-images/p0115.png
p23
aVhttp://www.gutenberg.org/files/27609/27609-page-images/p0116.png
p24
aVhttp://www.gutenberg.org/files/27609/27609-page-images/p0117.png
p25
aVhttp://www.gutenberg.org/files/27609/27609-page-images/p0118-image1.png
p26
aVhttp://www.gutenberg.org/files/27609/27609-page-images/p0118.png
p27
aVhttp://www.gutenberg.org/files/27609/27609-page-images/p0119-image1.png
p28
aVhttp://www.gutenberg.org/files/27609/27609-page-images/p0119.png
p29
aVhttp://www.gutenberg.org/files/27609/27609-page-images/p0120.png
p30
aVhttp://www.gutenberg.org/files/27609/27609-page-images/p0121.png
p31
aVhttp://www.gutenberg.org/files/27609/27609-page-images/p0122.png
p32
aVhttp://www.gutenberg.org/files/27609/27609-page-images/p0123.png
p33
aVhttp://www.gutenberg.org/files/27609/27609-page-images/p0124.png
p34
asS'language_code'
p35
Veng
p36
sS'id'
p37
I905
sS'category'
p38
VText
p39
sS'genres'
p40
(lp41
sS'copyright'
p42
VPublic domain in the USA.
p43
sS'title'
p44
VThe Undersea Tube
p45
sS'wikipedia'
p46
(dp47
S'found'
p48
I00
ssS'average_rating'
p49
F2.6
sS'rating_count'
p50
I4
sS'content_available'
p51
I01
sS'goodreads'
p52
(dp53
S'url'
p54
Vhttps://www.goodreads.com/book/show/24983380-the-undersea-tube
p55
sS'found'
p56
I01
sS'year'
p57
I2011
ssS'similar_books'
p58
(lp59
sS'description'
p60
NsS'gutenberg'
p61
(dp62
g54
Vhttp://www.gutenberg.org/ebooks/27609
p63
sS'num'
p64
I27609
ssS'authors'
p65
(lp66
I275
asS'isbn13'
p67
NsS'language'
p68
VEnglish
p69
sS'countries'
p70
(lp71
I2
asS'release_date'
p72
S'2008-12-25T00:00:00'
p73
sS'author'
p74
I275
sS'content_cleaned'
p75
I01
sS'classes'
p76
(lp77
Vto-read
p78
aVsfbywomen
p79
aVsf
p80
aVscience-fiction
p81
asS'loc_class'
p82
VPS: Language and Literatures: American and Canadian literature
p83
sS'n_authors'
p84
I1
sb.