ccopy_reg
_reconstructor
p0
(cdataset.Book
Book
p1
c__builtin__
object
p2
Ntp3
Rp4
(dp5
S'content_name'
p6
V32847.txt.utf-8
p7
sS'isbn'
p8
V0545386985
p9
sS'year'
p10
I2013
sS'author_name'
p11
VEdmond Hamilton
p12
sS'images_urls'
p13
(lp14
Vhttp://www.gutenberg.org/files/32847/32847-h/images/cover.jpg
p15
aVhttp://www.gutenberg.org/files/32847/32847-h/images/illus.jpg
p16
asS'language_code'
p17
NsS'images'
p18
(lp19
sS'id'
p20
I251
sS'category'
p21
VText
p22
sS'genres'
p23
(lp24
sS'copyright'
p25
VPublic domain in the USA.
p26
sS'title'
p27
VThe Door into Infinity
p28
sS'wikipedia'
p29
(dp30
S'found'
p31
I00
ssS'average_rating'
p32
F4.03
sS'rating_count'
p33
I2219
sS'content_available'
p34
I01
sS'cover_art_url'
p35
S'http://www.gutenberg.org/cache/epub/32847/pg32847.cover.medium.jpg'
p36
sS'goodreads'
p37
(dp38
S'url'
p39
Vhttps://www.goodreads.com/book/show/13356176-the-trap-door
p40
sg31
I01
sS'year'
p41
I2013
ssS'similar_books'
p42
(lp43
VCurse of the Ancients (Infinity Ring #4)
p44
aVDivide and Conquer (Infinity Ring #2)
p45
aVCave of Wonders (Infinity Ring, #5)
p46
aVBehind Enemy Lines (Infinity Ring, #6)
p47
aVThe Iron Empire (Infinity Ring, #7)
p48
aVTrust No One (The 39 Clues: Cahills vs. Vespers, #5)
p49
aVThe Last Musketeer (The Last Musketeer, #1)
p50
aVSpymasters (The 39 Clues: The Cahill Files, #2-4)
p51
aVDay of Doom (The 39 Clues: Cahills vs. Vespers, #6)
p52
aVTime Pullers
p53
aVThe Pirate Kings (TimeRiders, #7)
p54
aVThe Triad of Finity (Oliver Nocturne, #6)
p55
aVLost Train of Thought (The Seems, #3)
p56
aVPotterwookiee (The Creature from My Closet, #2)
p57
aVThe Crimson Shard  (The Blackhope Enigma, #2)
p58
aVWill in Scarlet
p59
aVThe Cydonian Pyramid (The Klaatu Diskos, #2)
p60
aVShatterproof (The 39 Clues: Cahills vs. Vespers, #4)
p61
asS'description'
p62
VThe multi-platform adventure through time continues! Dak, Sera, and Riq return to the United States and walk immediately into a deadly trap. The year is 1850, and the nation is divided over the issue of slavery. In these dark days, the Underground Railroad provides a light of hope, helping runaway slaves escape to freedom. But the SQ has taken control of the Underground Railroad from within. Now Dak and Sera are left wondering who to trust... while Riq risks everything to save the life of a young boy.
p63
sS'format'
p64
VHardcover
p65
sS'gutenberg'
p66
(dp67
g39
Vhttp://www.gutenberg.org/ebooks/32847
p68
sS'num'
p69
I32847
ssS'authors'
p70
(lp71
I83
asS'pages'
p72
I192
sS'isbn13'
p73
V9780545386982
p74
sS'language'
p75
VEnglish
p76
sS'country'
p77
I3
sS'release_date'
p78
S'2010-06-17T00:00:00'
p79
sS'author'
p80
I83
sS'content_cleaned'
p81
I01
sS'classes'
p82
(lp83
Vto-read
p84
aVscience-fiction
p85
aVinfinity-ring
p86
aVcurrently-reading
p87
aVadventure
p88
aVtime-travel
p89
aVfantasy
p90
aVhistorical-fiction
p91
aVfiction
p92
aVseries
p93
aVmiddle-grade
p94
aVyoung-adult
p95
aVchildren
p96
aVowned
p97
aVsci-fi
p98
aVchildren-s
p99
aVbooks-i-own
p100
aVfavorites
p101
aVaction
p102
aVjuvenile
p103
aVhistorical
p104
aVkids
p105
aVya
p106
aVaudiobooks
p107
aVhardcover
p108
aVaudiobook
p109
aVchildrens
p110
aVdefault
p111
aVaudio-book
p112
aVaction-adventure
p113
aVlibrary
p114
aVto-buy
p115
aVseries-to-read
p116
aVchildren-s-books
p117
aVmystery
p118
aVclassroom-library
p119
aVlisa-mcmann
p120
aVdystopian
p121
aVall-books
p122
aVborrowed
p123
aVread-in-2015
p124
aVi-own
p125
aVbooks-i-have
p126
aVhistory
p127
aVscifi
p128
aVjuvenile-fiction
p129
aVmaybe-read
p130
aVread-2014
p131
aVfor-the-kids
p132
aVaudio-books
p133
aVmiddle-grades
p134
aVmy-shelf
p135
aVmiddle-school
p136
aVawesome
p137
aVslmta
p138
aVteen
p139
aVyouth
p140
aVmg-fantasy
p141
aVebook
p142
aVthe-39-clues
p143
aV3-stars
p144
aVread-2013
p145
aVslavery
p146
aVreviewed
p147
aVya-fiction
p148
aVread-2012
p149
aVarc
p150
aVdystopia
p151
aV2013-releases
p152
aVwish-list
p153
aVtamara
p154
aVbooks-in-english
p155
aVliteratura-juvenil
p156
aVjames-dashner
p157
aVto-read-2
p158
aVedie-s-books
p159
aV2017-audio
p160
aVpeter-2016-2017
p161
aVfriends-of-library-purchase
p162
aVdashner-james
p163
aV2017-additional-ya
p164
aVhard-copy-in-my-kids-home-library
p165
aVre-read
p166
aVwar
p167
aVmid-grade
p168
aVkindle
p169
aVculture
p170
aVbattle
p171
aVadult
p172
aVhome-chapter-books
p173
aV04-words-sb
p174
aVhellner
p175
aV04-words-s
p176
aVhard-back
p177
aV1-read-it
p178
aVya-series
p179
aVelem-library
p180
aV03-words-g
p181
aVsydney
p182
aVjames-dashner-infinity-ring
p183
asS'loc_class'
p184
VPS: Language and Literatures: American and Canadian literature
p185
sS'n_authors'
p186
I1
sb.