ccopy_reg
_reconstructor
p0
(cdataset.Book
Book
p1
c__builtin__
object
p2
Ntp3
Rp4
(dp5
S'similar_books'
p6
(lp7
sS'genres'
p8
(lp9
sS'author'
p10
I302
sS'countries'
p11
(lp12
I2
asS'year'
p13
I1953
sS'title'
p14
VGalaxy Magazine May 1953
p15
sS'cover'
p16
Vhttps://ia600200.us.archive.org/BookReader/BookReaderImages.php?zip=/10/items/Galaxy_v06n02_1953-05/Galaxy_v06n02_1953-05_jp2.zip&file=Galaxy_v06n02_1953-05_jp2/Galaxy_v06n02_1953-05_0000.jp2&scale=0&rotate=0
p17
sS'cover_art'
p18
S'http://www.isfdb.org/wiki/images/0/00/MLO4311.jpg'
p19
sS'author_name'
p20
VGalaxy Magazine
p21
sS'images_urls'
p22
(lp23
sS'authors'
p24
(lp25
I342
aI344
aI363
aI419
aI326
aI305
aI339
aI340
aI56
aI161
aI23
aI429
aI172
aI302
asS'images'
p26
(lp27
sS'id'
p28
I1004
sS'contents'
p29
(lp30
(dp31
g10
I342
sg14
VWherever You May Be
p32
sa(dp33
g10
I342
sg14
VWherever You May Be [2]
p34
sa(dp35
g10
I342
sg14
VWherever You May Be [3]
p36
sa(dp37
g10
I342
sg14
VWherever You May Be [4]
p38
sa(dp39
g10
I344
sg14
VSpecialist
p40
sa(dp41
g10
I363
sg14
VA Gleeb for Earth
p42
sa(dp43
g10
I419
sg14
VNot Fit for Children
p44
sa(dp45
g10
I342
sg14
VJunkyard
p46
sa(dp47
g10
I342
sg14
VJunkyard [2]
p48
sa(dp49
g10
I342
sg14
VJunkyard [3]
p50
sa(dp51
g10
I326
sg14
VForecast (Galaxy, May 1953)
p52
sa(dp53
g10
I305
sg14
VGueffef On Progreff
p54
sa(dp55
g10
I339
sg14
VFor Your Information: The Birth of the Space Station (Ii)
p56
sa(dp57
g10
I340
sg14
VGalaxy's 5 Star Shelf (Galaxy, May 1953)
p58
sa(dp59
g10
I56
sg14
VJunkyard
p60
sa(dp61
g10
I161
sg14
VWherever You May Be
p62
sa(dp63
g10
I23
sg14
VSpecialist
p64
sa(dp65
g10
I429
sg14
VA Gleeb for Earth
p66
sa(dp67
g10
I172
sg14
VNot Fit for Children
p68
sasb.