ccopy_reg
_reconstructor
p0
(cdataset.Book
Book
p1
c__builtin__
object
p2
Ntp3
Rp4
(dp5
S'content_name'
p6
V19029.txt.utf-8
p7
sS'isbn'
p8
NsS'year'
p9
I1948
sS'author_name'
p10
VAndre Norton
p11
sS'images_urls'
p12
(lp13
Vhttp://www.gutenberg.org/files/19029/19029-h/images/fig1.jpg
p14
asS'language_code'
p15
NsS'images'
p16
(lp17
sS'id'
p18
I206
sS'category'
p19
VText
p20
sS'genres'
p21
(lp22
sS'copyright'
p23
VPublic domain in the USA.
p24
sS'title'
p25
VThe Gifts of Asti
p26
sS'wikipedia'
p27
(dp28
S'url'
p29
Vhttps://en.wikipedia.org/wiki/The_Many_Worlds_of_Andre_Norton
p30
sS'found'
p31
I01
sS'year'
p32
I-1
ssS'published_in'
p33
NsS'average_rating'
p34
F3.57
sS'rating_count'
p35
I89
sS'content_available'
p36
I01
sS'goodreads'
p37
(dp38
g29
Vhttps://www.goodreads.com/book/show/6570775-the-gifts-of-asti
p39
sg31
I01
sg32
I1948
ssS'similar_books'
p40
(lp41
VArmageddon 2419 A.D.
p42
aVIn the Mood
p43
aVThe Best of Fritz Leiber
p44
aVThe Best of Isaac Asimov (Doubleday science fiction)
p45
aVStarman's Quest
p46
aVSteel Valentine
p47
aVNight Games
p48
aVMerlin
p49
aVAcross the Sea of Stars
p50
aVThe Doomed Planet (Mission Earth, #10)
p51
aVFalse Dawn
p52
aVDeath on an Autumn River (Sugawara Akitada #9)
p53
aVJailbreak (Hungry, #0.5)
p54
aVOutpost
p55
aVAriel
p56
aVDerelict
p57
aVThe Mystic Mullah (Doc Savage, #9)
p58
aVRath's Reckoning (The Janus Group #3)
p59
asS'description'
p60
NsS'format'
p61
NsS'gutenberg'
p62
(dp63
g29
Vhttp://www.gutenberg.org/ebooks/19029
p64
sS'num'
p65
I19029
ssS'authors'
p66
(lp67
I28
asS'isbn13'
p68
NsS'language'
p69
VEnglish
p70
sS'release_date'
p71
S'2006-08-11T00:00:00'
p72
sS'author'
p73
I28
sS'original_title'
p74
VThe Many Worlds of Andre Norton
p75
sS'summary'
p76
VThe Many Worlds of Andre Norton is a collection of fantasy and science fantasy short stories by American writer Andre Norton, edited by Roger Elwood. It was first published in August 1974 in simultaneous hardcover editions by Chilton (U.S.) and Thomas Nelson (Canada). A paperback edition, retitled The Book of Andre Norton and omitting the name of the editor, was issued by DAW Books in October 1975, and was reprinted in November 1977, July 1981 and September 1987.\u000aThe book collects seven novellas and short stories along with one essay by Norton, with an introduction by Donald A. Wollheim, an essay on Norton by Rick Brooks, and a bibliography of Norton's works as of 1975 by Helen-Jo Jakusz Hewitt. The stories include the Witch World tale "The Toads of Grimmerdale".
p77
sS'content_cleaned'
p78
I01
sS'classes'
p79
(lp80
Vto-read
p81
aVscience-fiction
p82
aVfantasy
p83
aVsci-fi
p84
aVebooks
p85
aVandre-norton
p86
aVowned
p87
aVkindle-books
p88
aVkindle
p89
aVebook
p90
aVscifi
p91
aVeown
p92
aVactually-own
p93
aVcurrently-reading
p94
aV20th-century-lit
p95
aVwant-to-read-later
p96
aVbooks-i-own
p97
aVpost-apocalyptic
p98
aVsword-and-planet
p99
aVoriginal-literature
p100
aVshort-story-novella
p101
aVwomen-s-book-project
p102
aVmy-books
p103
aVamazon-ebooks
p104
aVscifi-fantasy
p105
aVundecided
p106
aVw_us_modern
p107
aVaudiobooks
p108
aVshort-stories
p109
aVshort-story
p110
aVcalibre
p111
aVshelfari-science-fiction
p112
aVshelfari-review-only
p113
aVshelfari-part-of-a-set
p114
aVshelfari-no
p115
aVshelfari-kindlebook
p116
aVshelfari-eo
p117
aVshelfari-andre-norton
p118
aValdiko
p119
aVfemale-author
p120
aVread-2014
p121
aVon-disk
p122
aVkindle-lendable-fantasy-scifi
p123
aVowned-not-read-yet
p124
aVkindle-lendable
p125
aVkindle-free
p126
aVkindle-ebook
p127
aVbooks-to-keep-after-move
p128
aVon-my-ereader
p129
aVfree
p130
aVmy-personal-book-catalog
p131
aV4-lineup
p132
aVmonte
p133
aVe-book
p134
aVfree-ebook
p135
aVfantasy-sci-fi
p136
aVmy-kindle-books
p137
aVfantasy-science-fiction
p138
aVsci-fi-fantasy
p139
aVnovellas
p140
aVi-book
p141
aVmagic
p142
aVpublic-library
p143
aVtype-short-story
p144
aVw_us_unitary
p145
aVrescued-p2p-and-shelved-books
p146
aVshelved-for-one-reason-or-another
p147
aVnorton-andre
p148
aVs-tr
p149
aVto-read-owned
p150
asS'loc_class'
p151
VPS: Language and Literatures: American and Canadian literature
p152
sS'n_authors'
p153
I1
sb.