ccopy_reg
_reconstructor
p0
(cdataset.Book
Book
p1
c__builtin__
object
p2
Ntp3
Rp4
(dp5
S'content_name'
p6
V20728.txt.utf-8
p7
sS'isbn'
p8
V0441777848
p9
sS'year'
p10
I1962
sS'author_name'
p11
VH. Beam Piper
p12
sS'images_urls'
p13
(lp14
Vhttp://www.gutenberg.org/files/20728/20728-h/images/illus-back.jpg
p15
aVhttp://www.gutenberg.org/files/20728/20728-h/images/illus-front.jpg
p16
aVhttp://www.gutenberg.org/files/20728/20728-h/images/image001.jpg
p17
aVhttp://www.gutenberg.org/files/20728/20728-h/images/image002-3.png
p18
aVhttp://www.gutenberg.org/files/20728/20728-h/images/image010-11.jpg
p19
aVhttp://www.gutenberg.org/files/20728/20728-h/images/image020-21.png
p20
aVhttp://www.gutenberg.org/files/20728/20728-h/images/image030-31.jpg
p21
aVhttp://www.gutenberg.org/files/20728/20728-h/images/image040-41.jpg
p22
aVhttp://www.gutenberg.org/files/20728/20728-h/images/image049.jpg
p23
aVhttp://www.gutenberg.org/files/20728/20728-h/images/image054.jpg
p24
aVhttp://www.gutenberg.org/files/20728/20728-h/images/image062-63.jpg
p25
aVhttp://www.gutenberg.org/files/20728/20728-h/images/image071.jpg
p26
aVhttp://www.gutenberg.org/files/20728/20728-h/images/image080.jpg
p27
aVhttp://www.gutenberg.org/files/20728/20728-h/images/image089-90.jpg
p28
aVhttp://www.gutenberg.org/files/20728/20728-h/images/image096.jpg
p29
aVhttp://www.gutenberg.org/files/20728/20728-h/images/image105.jpg
p30
aVhttp://www.gutenberg.org/files/20728/20728-h/images/image114.jpg
p31
aVhttp://www.gutenberg.org/files/20728/20728-h/images/image123.jpg
p32
aVhttp://www.gutenberg.org/files/20728/20728-h/images/image130-31.jpg
p33
aVhttp://www.gutenberg.org/files/20728/20728-h/images/image136.jpg
p34
aVhttp://www.gutenberg.org/files/20728/20728-h/images/image144.jpg
p35
aVhttp://www.gutenberg.org/files/20728/20728-h/images/image153.jpg
p36
aVhttp://www.gutenberg.org/files/20728/20728-h/images/image162.jpg
p37
aVhttp://www.gutenberg.org/files/20728/20728-h/images/image168.jpg
p38
asS'language_code'
p39
Veng
p40
sS'images'
p41
(lp42
sS'id'
p43
I68
sS'category'
p44
VText
p45
sS'plot'
p46
V
p47
sS'genres'
p48
(lp49
sS'copyright'
p50
VPublic domain in the USA.
p51
sS'title'
p52
VSpace Viking
p53
sS'wikipedia'
p54
(dp55
S'url'
p56
Vhttps://en.wikipedia.org/wiki/Space_Viking
p57
sS'found'
p58
I01
sS'year'
p59
I-1
ssS'published_in'
p60
NsS'average_rating'
p61
F3.76
sS'rating_count'
p62
I1013
sS'content_available'
p63
I01
sS'goodreads'
p64
(dp65
g56
Vhttps://www.goodreads.com/book/show/676237.Space_Viking
p66
sg58
I01
sg59
I1962
ssS'similar_books'
p67
(lp68
VSinister Barrier
p69
aVShield
p70
aVBarsoom: The Third Omnibus (Barsoom, #6-7)
p71
aVIceworld
p72
aVIn Paul Klee's Enchanted Garden
p73
aVPrivateer (The Flight Engineer, #2)
p74
aVInvid Invasion (#10)
p75
aVThe Dorsai Companion (Childe Cycle, #8)
p76
aVGolden Witchbreed
p77
aVDesign for Great-Day
p78
aVBy Any Other Name
p79
aVPandora's Legions
p80
asS'description'
p81
V<i>Vengeance is a strange human motivation -- it can drive a man to do things which he neither would nor could achieve without it... and because of that it lies behind some of the greatest sagas of human literature!</i><br /><br />After a galaxy-wide war had left the planetary federation in ruins, every surviving civilized world was on its own. And that was a perfect setup for the marauders from the far-out rim.<br /><br />Trask was one of those dreaded Space Vikings, a warrior spaceman with a crew and a ship that struck terror to a thousand worlds. But Trask had a special personal interest in scourging the stars -- he wanted to draw upon himself the fire of a certain enemy -- a renegade planet-wrecker with a yen for galactic empire building....<br /><br />This text, taken from <i>Analog</i> November 1962 through February 1963, is Piper's original novel.
p82
sS'format'
p83
VPaperback
p84
sS'gutenberg'
p85
(dp86
g56
Vhttp://www.gutenberg.org/ebooks/20728
p87
sS'num'
p88
I20728
ssS'authors'
p89
(lp90
I19
asS'pages'
p91
I243
sS'isbn13'
p92
V9780441777846
p93
sS'language'
p94
VEnglish
p95
sS'countries'
p96
(lp97
I2
asS'release_date'
p98
S'2007-03-03T00:00:00'
p99
sS'author'
p100
I19
sS'original_title'
p101
VSpace Viking
p102
sS'summary'
p103
VSpace Viking is a science fiction novel by American writer H. Beam Piper, set in his Terro-Human future history. It tells the story of one man's search for his wife's murderer and its unexpected consequences. The story was originally serialized in Analog magazine (November 1962 \u2013 February 1963), then published by Ace Books in 1963.
p104
sS'content_cleaned'
p105
I01
sS'classes'
p106
(lp107
Vto-read
p108
aVscience-fiction
p109
aVcurrently-reading
p110
aVsci-fi
p111
aVfiction
p112
aVsf
p113
aVscifi
p114
aVdefault
p115
aVowned
p116
aVspace-opera
p117
aVkindle
p118
aVfantasy
p119
aVscience
p120
aVfavorites
p121
aVaudiobooks
p122
aVbooks-i-own
p123
aVscifi-fantasy
p124
aVadventure
p125
aVsf-fantasy
p126
aVebook
p127
aVspeculative-fiction
p128
aVh-beam-piper
p129
aVaudio
p130
aVspace
p131
aVnovel
p132
aVpolitics
p133
aVseries
p134
aVnovels
p135
aVe-books
p136
aVgutenberg
p137
aV2013-reading-list
p138
aVe-book
p139
aVebooks
p140
aVwish-list
p141
aVmilitary-sci-fi
p142
aVi-own
p143
aVsf-classics
p144
aVfuture
p145
aVspeculative
p146
aVsci-fi-fantasy
p147
aVabandoned
p148
aVreviewed
p149
aVon-calibre-to-read
p150
aVowned-read-eventually
p151
aVto-read-ebooks
p152
aVto-read-fantasy
p153
aV00-to-read-02
p154
aVto-sort
p155
aVowned-books
p156
aVread-not-reviewed
p157
aVvikings-gods-myths
p158
aValien-sci-first-apocalypse
p159
aVsellining
p160
aVkindled
p161
aVb-library
p162
aVon-kindle
p163
aVgalaktyka-gutenberga
p164
aVtbr-challenge
p165
aVhave-but-not-read-yet
p166
aVon-my-shelf
p167
aV20th-century-lit
p168
aVfantastyka
p169
aVtbr-on-shelves
p170
aVhabitual-re-reads
p171
aVgrp-favorites
p172
aVold-stony-way
p173
aVh-beam-piper-science-fiction-a
p174
aVreturned
p175
aVaudible
p176
aVtrillion-year-spree-recs
p177
aVnovelas
p178
aVlit-anglosajona
p179
aVgenero-cf
p180
aVebook-epub
p181
aVmine
p182
aVcurrently-on-kindle
p183
aVmy-sci-fi-shelf
p184
aVscience-fiction-and-fantasy
p185
aVwell-maybe
p186
aVbest-bookrags
p187
aVsci-fi-golden-age
p188
aVto-read-fiction
p189
aVscif-fi
p190
aVdescargados
p191
aVown-audiobook
p192
aVtranslated-pl
p193
aVsf-f-horror
p194
aVowned-as-ebook
p195
aVmy-books
p196
aVsci-fi-and-fantasy
p197
aVappendix-n
p198
aV02sftr
p199
aVlistened-to
p200
aVown_physical_book
p201
aVown_ebook
p202
aVit-was-for-free
p203
aVneed-to-buy
p204
aVlibros-en-casa
p205
aVwant-to-read-sci-fi
p206
aVsocial-commentary
p207
asS'loc_class'
p208
VPS: Language and Literatures: American and Canadian literature
p209
sS'n_authors'
p210
I1
sb.