ccopy_reg
_reconstructor
p0
(cdataset.Book
Book
p1
c__builtin__
object
p2
Ntp3
Rp4
(dp5
S'similar_books'
p6
(lp7
sS'genres'
p8
(lp9
sS'author'
p10
I302
sS'countries'
p11
(lp12
I2
asS'year'
p13
I1964
sS'title'
p14
VGalaxy Magazine August 1964
p15
sS'cover'
p16
Vhttps://ia600203.us.archive.org/BookReader/BookReaderImages.php?zip=/10/items/Galaxy_v22n06_1964-08/Galaxy_v22n06_1964-08_jp2.zip&file=Galaxy_v22n06_1964-08_jp2/Galaxy_v22n06_1964-08_0000.jp2&scale=0&rotate=0
p17
sS'cover_art'
p18
S'http://www.isfdb.org/wiki/images/1/15/GALAUG1964.jpg'
p19
sS'author_name'
p20
VGalaxy Magazine
p21
sS'images_urls'
p22
(lp23
sS'authors'
p24
(lp25
I545
aI499
aI581
aI497
aI40
aI339
aI326
aI592
aI217
aI368
aI479
aI50
aI302
asS'images'
p26
(lp27
sS'id'
p28
I1102
sS'contents'
p29
(lp30
(dp31
S'title'
p32
VThe Dead Lady of Clown Town
p33
sS'author'
p34
I545
sa(dp35
g32
VThe Dead Lady of Clown Town [2]
p36
sg34
I545
sa(dp37
g32
VThe Dead Lady of Clown Town [3]
p38
sg34
I545
sa(dp39
g32
VThe Dead Lady of Clown Town [4]
p40
sg34
I545
sa(dp41
g32
VJungle Substitute
p42
sg34
I499
sa(dp43
g32
VJungle Substitute [2]
p44
sg34
I499
sa(dp45
g32
VThe Watchers in the Glade
p46
sg34
I499
sa(dp47
g32
VThe Watchers in the Glade [2]
p48
sg34
I499
sa(dp49
g32
VNeighbor
p50
sg34
I581
sa(dp51
g32
VThe Delegate From Guapanga
p52
sg34
I497
sa(dp53
g32
VThe Delegate From Guapanga [2]
p54
sg34
I497
sa(dp55
g32
VPolitics -- 21st Century Style
p56
sg34
I40
sa(dp57
g32
VFor Your Information: A Century of Fossil Man
p58
sg34
I339
sa(dp59
g32
VForecast (Galaxy, August 1964)
p60
sg34
I326
sa(dp61
g32
VJungle Substitute
p62
sg34
I592
sa(dp63
g32
VThe Watchers in the Glade
p64
sg34
I217
sa(dp65
g32
VThe Delegate From Guapanga
p66
sg34
I368
sa(dp67
g32
VThe Dead Lady of Clown Town
p68
sg34
I479
sa(dp69
g32
VNeighbor
p70
sg34
I50
sasb.