ccopy_reg
_reconstructor
p0
(cdataset.Book
Book
p1
c__builtin__
object
p2
Ntp3
Rp4
(dp5
S'content_name'
p6
V51311.txt.utf-8
p7
sS'isbn'
p8
NsS'year'
p9
I1957
sS'author_name'
p10
VCon Blomberg
p11
sS'images_urls'
p12
(lp13
Vhttp://www.gutenberg.org/files/51311/51311-h/images/cover.jpg
p14
aVhttp://www.gutenberg.org/files/51311/51311-h/images/illus.jpg
p15
asS'language_code'
p16
NsS'id'
p17
I742
sS'category'
p18
VText
p19
sS'genres'
p20
(lp21
sS'copyright'
p22
VPublic domain in the USA.
p23
sS'title'
p24
VMake Me An Offer
p25
sS'wikipedia'
p26
(dp27
S'found'
p28
I00
ssS'average_rating'
p29
F3.5
sS'rating_count'
p30
I2
sS'content_available'
p31
I01
sS'cover_art_url'
p32
S'http://www.gutenberg.org/cache/epub/51311/pg51311.cover.medium.jpg'
p33
sS'goodreads'
p34
(dp35
S'url'
p36
Vhttps://www.goodreads.com/book/show/9626388-make-me-an-offer
p37
sS'found'
p38
I01
sS'year'
p39
I2004
ssS'similar_books'
p40
(lp41
sS'description'
p42
VA delicious novel for anyone who's had an experience with a real estate salesperson and who craves an intimate look inside the world of residential real estate. Make Me an Offer is a tasty cocktail - part expose, a splash of romance and garnished with a zest for life!
p43
sS'format'
p44
NsS'gutenberg'
p45
(dp46
g36
Vhttp://www.gutenberg.org/ebooks/51311
p47
sS'num'
p48
I51311
ssS'authors'
p49
(lp50
I159
asS'isbn13'
p51
NsS'language'
p52
VEnglish
p53
sS'countries'
p54
(lp55
I3
asS'release_date'
p56
S'2016-02-27T00:00:00'
p57
sS'author'
p58
I159
sS'content_cleaned'
p59
I01
sS'classes'
p60
(lp61
Vto-read
p62
aVlounge
p63
aVfiction-read
p64
aVsuspense
p65
aVromance
p66
asS'loc_class'
p67
S''
p68
sS'n_authors'
p69
I1
sb.