ccopy_reg
_reconstructor
p0
(cdataset.Book
Book
p1
c__builtin__
object
p2
Ntp3
Rp4
(dp5
S'similar_books'
p6
(lp7
sS'genres'
p8
(lp9
sS'author'
p10
I918
sS'countries'
p11
(lp12
I2
asS'year'
p13
I1964
sS'title'
p14
VIF Magazine July 1964
p15
sS'cover'
p16
Vhttps://ia601305.us.archive.org/BookReader/BookReaderImages.php?zip=/0/items/1964-07_IF/1964-07_IF_jp2.zip&file=1964-07_IF_jp2/1964-07_IF_0000.jp2&scale=0&rotate=0
p17
sS'cover_art'
p18
S'http://www.isfdb.org/wiki/images/5/53/WOFIFJUL1964.jpg'
p19
sS'author_name'
p20
VIF Magazine
p21
sS'images_urls'
p22
(lp23
sS'authors'
p24
(lp25
I499
aI581
aI545
aI40
aI658
aI371
aI205
aI1102
aI414
aI918
asS'images'
p26
(lp27
sS'id'
p28
I1298
sS'contents'
p29
(lp30
(dp31
g10
I499
sg14
VFarnham's Freehold (Part 1 of 3)
p32
sa(dp33
g10
I581
sg14
VThe Mathenauts
p34
sa(dp35
g10
I545
sg14
VThe Silkie
p36
sa(dp37
g10
I40
sg14
VNow That We're Monthly -
p38
sa(dp39
g10
I658
sg14
VThe Silkie
p40
sa(dp41
g10
I371
sg14
VFarnham's Freehold (Part 1 of 3)
p42
sa(dp43
g10
I205
sg14
VWeetl
p44
sa(dp45
g10
I1102
sg14
VThe Mathenauts
p46
sa(dp47
g10
I414
sg14
VOld Testament
p48
sasb.