ccopy_reg
_reconstructor
p0
(cdataset.Book
Book
p1
c__builtin__
object
p2
Ntp3
Rp4
(dp5
S'similar_books'
p6
(lp7
sS'genres'
p8
(lp9
sS'author'
p10
I302
sS'countries'
p11
(lp12
I2
asS'year'
p13
I1967
sS'title'
p14
VGalaxy Magazine April 1967
p15
sS'cover'
p16
Vhttps://ia600207.us.archive.org/BookReader/BookReaderImages.php?zip=/28/items/Galaxy_v25n04_1967-04/Galaxy_v25n04_1967-04_jp2.zip&file=Galaxy_v25n04_1967-04_jp2/Galaxy_v25n04_1967-04_0000.jp2&scale=0&rotate=0
p17
sS'cover_art'
p18
S'http://www.isfdb.org/wiki/images/d/d9/GALAPR67.jpg'
p19
sS'author_name'
p20
VGalaxy Magazine
p21
sS'images_urls'
p22
(lp23
sS'authors'
p24
(lp25
I545
aI499
aI40
aI339
aI326
aI91
aI67
aI602
aI614
aI81
aI616
aI617
aI194
aI16
aI302
asS'images'
p26
(lp27
sS'id'
p28
I1117
sS'contents'
p29
(lp30
(dp31
S'title'
p32
VThunderhead
p33
sS'author'
p34
I545
sa(dp35
g32
VThunderhead [2]
p36
sg34
I545
sa(dp37
g32
VThunderhead [3]
p38
sg34
I545
sa(dp39
g32
VThe Purpose of Life
p40
sg34
I499
sa(dp41
g32
VThe Purpose of Life [2]
p42
sg34
I499
sa(dp43
g32
VThe Purpose of Life [3]
p44
sg34
I499
sa(dp45
g32
VMaking Models
p46
sg34
I40
sa(dp47
g32
VFor Your Information: The Orbits of the Comets
p48
sg34
I339
sa(dp49
g32
VStatement of Ownership (Galaxy, April 1967) ((Circulation: 73,450)
p50
sg34
I326
sa(dp51
g32
VGalaxy Bookshelf (Galaxy, April 1967)
p52
sg34
I91
sa(dp53
g32
VForecast (Galaxy, April 1967)
p54
sg34
I326
sa(dp55
g32
VThunderhead
p56
sg34
I67
sa(dp57
g32
VThe Purpose of Life
p58
sg34
I602
sa(dp59
g32
VFair Test
p60
sg34
I614
sa(dp61
g32
VThe New Member
p62
sg34
I81
sa(dp63
g32
VThe Young Priests of Adytum 199
p64
sg34
I616
sa(dp65
g32
VWithin the Cloud
p66
sg34
I617
sa(dp67
g32
VBallenger's People
p68
sg34
I194
sa(dp69
g32
VYou Men of Violence
p70
sg34
I16
sasb.