ccopy_reg
_reconstructor
p0
(cdataset.Book
Book
p1
c__builtin__
object
p2
Ntp3
Rp4
(dp5
S'content_name'
p6
V50668.txt.utf-8
p7
sS'isbn'
p8
NsS'year'
p9
I2008
sS'author_name'
p10
VJack Sharkey
p11
sS'images_urls'
p12
(lp13
Vhttp://www.gutenberg.org/files/50668/50668-h/images/cover.jpg
p14
aVhttp://www.gutenberg.org/files/50668/50668-h/images/illus.jpg
p15
asS'language_code'
p16
NsS'images'
p17
(lp18
sS'id'
p19
I722
sS'category'
p20
VText
p21
sS'genres'
p22
(lp23
sS'copyright'
p24
VPublic domain in the USA.
p25
sS'title'
p26
VThe Secret Martians
p27
sS'wikipedia'
p28
(dp29
S'found'
p30
I00
ssS'average_rating'
p31
F2.33
sS'rating_count'
p32
I5
sS'content_available'
p33
I01
sS'cover_art_url'
p34
S'http://www.gutenberg.org/cache/epub/50668/pg50668.cover.medium.jpg'
p35
sS'goodreads'
p36
(dp37
S'url'
p38
Vhttps://www.goodreads.com/book/show/8784340-the-secret-martians
p39
sg30
I01
sS'year'
p40
I2008
ssS'similar_books'
p41
(lp42
sS'description'
p43
NsS'format'
p44
NsS'gutenberg'
p45
(dp46
g38
Vhttp://www.gutenberg.org/ebooks/50668
p47
sS'num'
p48
I50668
ssS'authors'
p49
(lp50
I205
asS'isbn13'
p51
V2940000131244
p52
sS'language'
p53
VEnglish
p54
sS'countries'
p55
(lp56
I2
asS'release_date'
p57
S'2015-12-11T00:00:00'
p58
sS'author'
p59
I205
sS'content_cleaned'
p60
I01
sS'classes'
p61
(lp62
Vto-read
p63
aVcurrently-reading
p64
aV21st-century-lit
p65
aVscience-fiction
p66
aVadventure
p67
aVe-books
p68
aVsf
p69
asS'loc_class'
p70
S''
p71
sS'n_authors'
p72
I1
sb.