ccopy_reg
_reconstructor
p0
(cdataset.Book
Book
p1
c__builtin__
object
p2
Ntp3
Rp4
(dp5
S'content_name'
p6
V28453.txt.utf-8
p7
sS'isbn'
p8
NsS'year'
p9
I1947
sS'author_name'
p10
VStanton A. Coblentz
p11
sS'images_urls'
p12
(lp13
sS'language_code'
p14
Veng
p15
sS'id'
p16
I706
sS'category'
p17
VText
p18
sS'genres'
p19
(lp20
sS'copyright'
p21
VPublic domain in the USA.
p22
sS'title'
p23
VFlight Through Tomorrow
p24
sS'wikipedia'
p25
(dp26
S'found'
p27
I00
ssS'average_rating'
p28
F2.64
sS'rating_count'
p29
I10
sS'content_available'
p30
I01
sS'goodreads'
p31
(dp32
S'url'
p33
Vhttps://www.goodreads.com/book/show/6375235-flight-through-tomorrow
p34
sS'found'
p35
I01
sS'year'
p36
I1947
ssS'similar_books'
p37
(lp38
sS'description'
p39
VSuper warfare has destroyed the old race of man, but elsewhere a new civilization is dawning....<br /><br />Transcriber's Note: This etext was produced from Fantasy Book Vol. 1 number 1 (1947). Extensive research did not uncover any evidence that the U.S. copyright on this publication was renewed. Minor spelling and typographical errors have been corrected without note.
p40
sS'gutenberg'
p41
(dp42
g33
Vhttp://www.gutenberg.org/ebooks/28453
p43
sS'num'
p44
I28453
ssS'authors'
p45
(lp46
I233
asS'isbn13'
p47
NsS'language'
p48
VEnglish
p49
sS'countries'
p50
(lp51
I2
asS'release_date'
p52
S'2009-03-30T00:00:00'
p53
sS'author'
p54
I233
sS'cover'
p55
Vhttps://s.gr-assets.com/assets/nophoto/book/111x148-bcc042a9c91a29c1d680899eff700a03.png
p56
sS'content_cleaned'
p57
I01
sS'classes'
p58
(lp59
Vto-read
p60
aVcurrently-reading
p61
aVscience-fiction
p62
aVaudiobooks
p63
aVshort-story
p64
aVshort-sci-fi
p65
aVshort-stories
p66
aV1940s
p67
aVsf-fantasy
p68
aVmy-ebooks
p69
aVtype-short-story
p70
asS'loc_class'
p71
VPS: Language and Literatures: American and Canadian literature
p72
sS'n_authors'
p73
I1
sb.