ccopy_reg
_reconstructor
p0
(cdataset.Book
Book
p1
c__builtin__
object
p2
Ntp3
Rp4
(dp5
S'content_name'
p6
V50884.txt.utf-8
p7
sS'isbn'
p8
V1576739767
p9
sS'year'
p10
I2002
sS'author_name'
p11
VRoger D. Aycock
p12
sS'images_urls'
p13
(lp14
Vhttp://www.gutenberg.org/files/50884/50884-h/images/cover.jpg
p15
aVhttp://www.gutenberg.org/files/50884/50884-h/images/illus.jpg
p16
asS'language_code'
p17
NsS'id'
p18
I672
sS'category'
p19
VText
p20
sS'genres'
p21
(lp22
sS'copyright'
p23
VPublic domain in the USA.
p24
sS'title'
p25
VToday is Forever
p26
sS'wikipedia'
p27
(dp28
S'found'
p29
I00
ssS'average_rating'
p30
F4.05
sS'rating_count'
p31
I822
sS'content_available'
p32
I01
sS'cover_art_url'
p33
S'http://www.gutenberg.org/cache/epub/50884/pg50884.cover.medium.jpg'
p34
sS'goodreads'
p35
(dp36
S'url'
p37
Vhttps://www.goodreads.com/book/show/798938.A_Life_God_Rewards
p38
sS'found'
p39
I01
sS'year'
p40
I2002
ssS'similar_books'
p41
(lp42
VLiving Beyond the Limits: A Life in Sync with God
p43
aVThe Life God Blesses: The Secret of Enjoying God's Favor
p44
aVMy Heart's Cry
p45
aVSafe in the Shepherd's Arms
p46
aVPeace with God: The Secret of Happiness
p47
aVFlying Closer to the Flame
p48
aVLoving God
p49
aVWhere To Find It In The Bible The Ultimate A To Z Resource Series
p50
aVPraying God's Will For Your Life: A Prayerful Walk To Spiritual Well Being
p51
aVFor Better or for Best: A Valuable Guide to Knowing, Understanding, and Loving Your Husband
p52
aVLiving the Extraordinary Life: Nine Principles to Discover It
p53
aVWith Christ in the School of Prayer
p54
aVLeap Over a Wall: Earthy Spirituality for Everyday Christians
p55
aVWhen, God, When?: Learning to Trust in God's Timing
p56
aVMind Siege: The Battle for the Truth
p57
aVThe Handbook for Spiritual Warfare
p58
asS'description'
p59
NsS'format'
p60
NsS'gutenberg'
p61
(dp62
g37
Vhttp://www.gutenberg.org/ebooks/50884
p63
sS'num'
p64
I50884
ssS'authors'
p65
(lp66
I162
asS'isbn13'
p67
V9781576739761
p68
sS'language'
p69
VEnglish
p70
sS'countries'
p71
(lp72
I2
asS'release_date'
p73
S'2016-01-09T00:00:00'
p74
sS'author'
p75
I162
sS'content_cleaned'
p76
I01
sS'classes'
p77
(lp78
Vto-read
p79
aVchristian
p80
aVcurrently-reading
p81
aVdefault
p82
aVreligion
p83
aVchristianity
p84
aVfaith
p85
aVowned
p86
aVnon-fiction
p87
aVinspirational
p88
aVnonfiction
p89
aVchristian-living
p90
aVlibrary
p91
aVbruce-wilkinson
p92
aVspiritual
p93
aVfavorites
p94
aVspirituality
p95
aVhome
p96
aVchristian-nonfiction
p97
aVself-help
p98
aVbooks-i-own
p99
aVreligious
p100
aVchristian-non-fiction
p101
aVmy-library
p102
aVaudio-cd-s-cassettes
p103
aVtheology
p104
aVdevotional
p105
aVchristian-books
p106
aVchristian-life
p107
aVunread
p108
aVi-own
p109
aVnot-read
p110
aVliving
p111
aVchurch
p112
aVreligion-spirituality
p113
aVadult-non-fiction
p114
aV2006
p115
aVkindle
p116
aVbible-study
p117
aVgainesville-books
p118
aVkaci
p119
aVessays
p120
aVsearch-for-meaning
p121
aVperspective
p122
aVpersonal-growth
p123
aVmaybe-read
p124
aVchristen-books
p125
aVnls
p126
aVbookshare
p127
aVgave-away
p128
aVmy-books
p129
aVread-own
p130
aV2011-and-earlier
p131
aVchristian-praxis
p132
aVpurchased-books-but-not-read
p133
aVpersonaldevelop-psych
p134
aVinspirational-spiritual
p135
aVnonfiction-christianity
p136
aVread-in-2017
p137
aVlibrary-office
p138
aVbookcase-9-shelf-5
p139
aVbookshelf
p140
aVread-in-2016
p141
aV2016-non-fiction
p142
aV2016-five-star
p143
aVgoogle-play-books
p144
aVlife
p145
aVchristian-living-owned
p146
aVchristian-resources
p147
aV2-b-filed
p148
aVchristian-community
p149
aVbible-character-present-days
p150
aV2016a-library-itunes
p151
aVitunes
p152
aVdud
p153
aVfinancial-stewardship
p154
aV_library-professional
p155
aV_collection-at-office
p156
aVshelfari-christian
p157
aVchurch-living
p158
aVhardcover-leather
p159
aVhardback
p160
aV011
p161
aVpurchased
p162
aVfor-sale
p163
aVread-in-2002
p164
aVreligion-cults-spiritual
p165
aVw
p166
aVshelf-to-read
p167
aVlife-rhythm
p168
aVdisciplines-formation-warfare
p169
aVchristian-character
p170
aVdevelopment
p171
aVdad
p172
aVcfot
p173
aV410-spiritual-growth
p174
aVlight-reading
p175
aVshelved
p176
aVzz-guest-room
p177
aVowned-and-read
p178
asS'loc_class'
p179
S''
p180
sS'n_authors'
p181
I1
sb.