ccopy_reg
_reconstructor
p0
(cdataset.Book
Book
p1
c__builtin__
object
p2
Ntp3
Rp4
(dp5
S'content_name'
p6
V51712.txt.utf-8
p7
sS'isbn'
p8
V0425607801
p9
sS'year'
p10
I1962
sS'author_name'
p11
VKeith Laumer
p12
sS'images_urls'
p13
(lp14
Vhttp://www.gutenberg.org/files/51712/51712-h/images/cover.jpg
p15
asS'language_code'
p16
NsS'images'
p17
(lp18
sS'id'
p19
I265
sS'category'
p20
VText
p21
sS'genres'
p22
(lp23
sS'copyright'
p24
VPublic domain in the USA.
p25
sS'title'
p26
VA Trace of Memory
p27
sS'wikipedia'
p28
(dp29
S'found'
p30
I00
ssS'average_rating'
p31
F4.0
sS'rating_count'
p32
I161
sS'content_available'
p33
I01
sS'cover_art_url'
p34
S'http://www.gutenberg.org/cache/epub/51712/pg51712.cover.medium.jpg'
p35
sS'goodreads'
p36
(dp37
S'url'
p38
Vhttps://www.goodreads.com/book/show/1549260.A_Trace_of_Memory
p39
sg30
I01
sS'year'
p40
I1962
ssS'similar_books'
p41
(lp42
VNaked to the Stars
p43
aVThe Pimpernel Plot (Time Wars, #3)
p44
aVThe Wind Whales of Ishmael
p45
aVThe Humanoid Touch (Humanoids, #2)
p46
aVThe Corridors of Time
p47
aVAll the Colors of Darkness
p48
aVThe Reefs of Space
p49
aVGodspeed
p50
aVWhere Time Winds Blow
p51
aVOperation: Outer Space
p52
aVShowboat World
p53
aVThe Great Explosion
p54
aVThe Paradox Men
p55
aVTime Slave
p56
aVNight Walk
p57
aVThe Syndic
p58
aVSecret of the Lost Race
p59
aVFun with Your New Head
p60
asS'description'
p61
V<b>Nightmare at Stonehenge</b><br /><br />When Legion meets a strange old millionaire called "Foster,"" he doesn't know that his whole life will never be the same again. For "Foster" has a strange story to tell. Part of his story is contained in his diary, which not only describes things in the very recent past, but goes back for <i>centuries</i>. . .<br /><br />Foster has hired Legion to help him regain his lost memory. Then both men are suddenly attacked by alien powers. They flee to Stonehenge in England where they discover a strange control chamber deep in the ruins. <br /><br />They succeed in bringing down to earth an alien space ship which has been in orbit for thousands of years. Eventually they both become captives. . . <i>on another planet.</i><br /><br /><br /><br />First Book Publication, 1963
p62
sS'format'
p63
VPaperback
p64
sS'gutenberg'
p65
(dp66
g38
Vhttp://www.gutenberg.org/ebooks/51712
p67
sS'num'
p68
I51712
ssS'authors'
p69
(lp70
I67
asS'pages'
p71
I176
sS'isbn13'
p72
V9780425607800
p73
sS'language'
p74
VEnglish
p75
sS'release_date'
p76
S'2016-04-09T00:00:00'
p77
sS'author'
p78
I67
sS'content_cleaned'
p79
I01
sS'classes'
p80
(lp81
Vto-read
p82
aVscience-fiction
p83
aVsci-fi
p84
aVfantascienza
p85
aVsf
p86
aVowned
p87
aVfiction
p88
aVcurrently-reading
p89
aVurania
p90
aV1960s
p91
aVdefault
p92
aVcollection
p93
aVscifi
p94
aVsf-fantasy
p95
aVfirst-person
p96
aVsci-fi-fantasy
p97
aVbooks-i-own
p98
aVamerican
p99
aV-library-no
p100
aVhard-science-fiction
p101
aVnext-up
p102
aVon-calibre-to-read
p103
aVaudiobook
p104
aVaudiobooks-to-read
p105
aVunread
p106
aVstudy_author-series
p107
aVlow-priority
p108
aV00-to-read-01
p109
aVluitingh-sf
p110
aV20th-century-lit
p111
aVkeith-laumer-science-fiction-auth
p112
aV31
p113
aVnederlands
p114
aVfantasy
p115
aVurania-s
p116
aVtbr-high-priority
p117
aVpocket-books
p118
aVobscure
p119
aVnarrativa
p120
aVin-attesa
p121
aV2
p122
aVscif-fi
p123
aVshelf-l-authors
p124
aVa-pending-placement
p125
aVclassics
p126
aVtor
p127
aVfucked-up-horror
p128
aVamazon
p129
aVposseduti
p130
aVfiction-sci-fi
p131
aV02sftr
p132
aVpaperbook
p133
aVdutch-or-flemish
p134
aVshelved
p135
aVno-time-soon
p136
aVnew
p137
aVfantasy-en-sf
p138
aVsci-fi-fantasy-weird
p139
aV2fiction
p140
aVread-2015
p141
aVre-read
p142
aVfive-star
p143
aVadventure
p144
aVrecommended-reading
p145
aVfeatured
p146
aVarthurian
p147
aVill
p148
aVpaperwhite-active
p149
aVamnesia
p150
aVnovella-novelette
p151
aVread-donated-given-traded
p152
aVnot-read
p153
aV_ita
p154
aVsomeday-maybe
p155
aVstonehenge-uk
p156
aVpapernl
p157
aVvintage-sci-fi
p158
aVto-read-already-own
p159
aVbooks
p160
aVscience-fiction-and-fantasy
p161
aVread-when-a-kid
p162
aVreviewed
p163
aVcollected-work
p164
aVowned-amazon
p165
aVpaperback
p166
aVlibr-bianca-camera
p167
aVscience-ficton
p168
aVtaggare
p169
aVfantasy-sci-fi
p170
aV1paper
p171
aVto-get
p172
aV2013-completed
p173
aVdad-s
p174
aVfamilyroom
p175
aVdiscard-pb
p176
aV_miscor2do
p177
aVurania-201-400
p178
aVnovecento
p179
aVletteratura-americana
p180
aVclassici-urania
p181
asS'loc_class'
p182
S''
p183
sS'n_authors'
p184
I1
sb.