ccopy_reg
_reconstructor
p0
(cdataset.Book
Book
p1
c__builtin__
object
p2
Ntp3
Rp4
(dp5
S'similar_books'
p6
(lp7
sS'genres'
p8
(lp9
sS'author'
p10
I918
sS'countries'
p11
(lp12
I2
asS'year'
p13
I1956
sS'title'
p14
VIF Magazine April 1956
p15
sS'cover'
p16
Vhttps://ia600206.us.archive.org/BookReader/BookReaderImages.php?zip=/9/items/1956-04_IF_modified/1956-04_IF_modified_jp2.zip&file=1956-04_IF_modified_jp2/1956-04_IF_modified_0000.jp2&scale=0&rotate=0
p17
sS'cover_art'
p18
S'http://www.isfdb.org/wiki/images/f/f6/WOFIFAPR1956.jpg'
p19
sS'author_name'
p20
VIF Magazine
p21
sS'images_urls'
p22
(lp23
sS'authors'
p24
(lp25
I427
aI956
aI412
aI363
aI103
aI326
aI129
aI144
aI153
aI1008
aI1023
aI1013
aI918
asS'images'
p26
(lp27
sS'id'
p28
I1250
sS'contents'
p29
(lp30
(dp31
g10
I427
sg14
VAtomic Bomber
p32
sa(dp33
g10
I956
sg14
VHuman Error
p34
sa(dp35
g10
I412
sg14
VThe Executioner
p36
sa(dp37
g10
I363
sg14
VLife Hutch
p38
sa(dp39
g10
I363
sg14
VAtom Drive
p40
sa(dp41
g10
I412
sg14
VChrome Pastures
p42
sa(dp43
g10
I956
sg14
VLove Story
p44
sa(dp45
g10
I103
sg14
VThe Odd Genre (If, April 1956)
p46
sa(dp47
g10
I326
sg14
VWhat Is Your Science I. Q.? (If, April 1956)
p48
sa(dp49
g10
I326
sg14
VScience Briefs (If, April 1956)
p50
sa(dp51
g10
I326
sg14
VHue and Cry (If, April 1956)
p52
sa(dp53
g10
I129
sg14
VHuman Error
p54
sa(dp55
g10
I144
sg14
VAtom Drive
p56
sa(dp57
g10
I153
sg14
VChrome Pastures
p58
sa(dp59
g10
I1008
sg14
VThe Executioner
p60
sa(dp61
g10
I1023
sg14
VLife Hutch
p62
sa(dp63
g10
I1013
sg14
VLove Story
p64
sasb.