ccopy_reg
_reconstructor
p0
(cdataset.Book
Book
p1
c__builtin__
object
p2
Ntp3
Rp4
(dp5
S'content_name'
p6
V51809.txt.utf-8
p7
sS'isbn'
p8
V0374399174
p9
sS'year'
p10
I2013
sS'author_name'
p11
VFrederik Pohl
p12
sS'images_urls'
p13
(lp14
Vhttp://www.gutenberg.org/files/51809/51809-h/images/cover.jpg
p15
aVhttp://www.gutenberg.org/files/51809/51809-h/images/illus1.jpg
p16
aVhttp://www.gutenberg.org/files/51809/51809-h/images/illus2.jpg
p17
aVhttp://www.gutenberg.org/files/51809/51809-h/images/illus3.jpg
p18
asS'language_code'
p19
Ven-US
p20
sS'images'
p21
(lp22
sS'id'
p23
I165
sS'category'
p24
VText
p25
sS'genres'
p26
(lp27
sS'copyright'
p28
VPublic domain in the USA.
p29
sS'title'
p30
VSurvival Kit
p31
sS'wikipedia'
p32
(dp33
S'found'
p34
I00
ssS'average_rating'
p35
F3.99
sS'rating_count'
p36
I3338
sS'content_available'
p37
I01
sS'cover_art_url'
p38
S'http://www.gutenberg.org/cache/epub/51809/pg51809.cover.medium.jpg'
p39
sS'goodreads'
p40
(dp41
S'url'
p42
Vhttps://www.goodreads.com/book/show/10191879-the-survival-kit
p43
sg34
I01
sS'year'
p44
I2013
ssS'similar_books'
p45
(lp46
VVirtuosity
p47
aVA Little Wanting Song
p48
aVWithout Tess
p49
aVAmplified (Amplified, #1)
p50
aVGirls Don't Fly
p51
aVPast Perfect
p52
aVDon't Breathe a Word
p53
aVInstructions for a Broken Heart
p54
aVNotes from the Blender
p55
aVThe Probability of Miracles
p56
aVMercy Lily
p57
aVAll These Lives
p58
aVRoadside Assistance (Roadside Assistance #1)
p59
aVAll I Ever Wanted
p60
aVParadise
p61
aVA Straight Line to My Heart
p62
aVHolier Than Thou
p63
aVWhat Happens Next
p64
asS'description'
p65
VWhen Rose\u2019s mom dies, she leaves behind a brown paper bag labeled Rose\u2019s Survival Kit. Inside the bag, Rose finds an iPod, with a to-be-determined playlist; a picture of peonies, for growing; a crystal heart, for loving; a paper star, for making a wish; and a paper kite, for letting go.<br /><br />As Rose ponders the meaning of each item, she finds herself returning again and again to an unexpected source of comfort. Will is her family\u2019s gardener, the school hockey star, and the only person who really understands what she\u2019s going through. Can loss lead to love?
p66
sS'format'
p67
VHardcover
p68
sS'gutenberg'
p69
(dp70
g42
Vhttp://www.gutenberg.org/ebooks/51809
p71
sS'num'
p72
I51809
ssS'authors'
p73
(lp74
I40
asS'pages'
p75
I351
sS'isbn13'
p76
V9780374399177
p77
sS'language'
p78
VEnglish
p79
sS'countries'
p80
(lp81
I2
asS'release_date'
p82
S'2016-04-20T00:00:00'
p83
sS'author'
p84
I40
sS'content_cleaned'
p85
I01
sS'classes'
p86
(lp87
Vto-read
p88
aVyoung-adult
p89
aVfavorites
p90
aVromance
p91
aVcontemporary
p92
aVya
p93
aVrealistic-fiction
p94
aVcurrently-reading
p95
aVmusic
p96
aVchick-lit
p97
aVya-contemporary
p98
aVlibrary
p99
aVstand-alone
p100
aVdeath
p101
aVfiction
p102
aVfamily
p103
aVread-in-2012
p104
aVto-buy
p105
aVwish-list
p106
aVgrief
p107
aVmaybe
p108
aVstand-alones
p109
aVyoung-adult-fiction
p110
aVwant
p111
aVya-romance
p112
aVebook
p113
aVcontemp
p114
aVya-lit
p115
aVbooks-i-own
p116
aVcontemporary-romance
p117
aVsad
p118
aVsports
p119
aVkindle
p120
aVteen
p121
aVdeath-and-dying
p122
aVya-fiction
p123
aVrealistic
p124
aVya-to-read
p125
aV2012-reads
p126
aVfavourites
p127
aVdrama
p128
aVhigh-school
p129
aVwant-to-read
p130
aVnovels
p131
aVsub
p132
aVe-book
p133
aVstandalone
p134
aVya-books
p135
aVmade-me-cry
p136
aVread-in-2011
p137
aV2011-releases
p138
aVcancer
p139
aVread-in-2014
p140
aVebooks
p141
aVjugendbuch
p142
aVwunschliste
p143
aVfavorite
p144
aVfriendship
p145
aVbooks-that-made-me-cry
p146
aVread-2012
p147
aVrelationships
p148
aVmust-read
p149
aVread-in-2016
p150
aVlibrary-books
p151
aVcontemporary-fiction
p152
aVto-read-realistic-fiction
p153
aVat-library
p154
aVunfinished
p155
aVloss
p156
aVmaybe-read
p157
aVenglish
p158
aVi-own
p159
aVyoung-adult-books
p160
aVmy-bookshelf
p161
aVread-in-2015
p162
aVread-2015
p163
aVsoon
p164
aVread-2014
p165
aV2014-reads
p166
aV2013-reads
p167
aVtearjerkers
p168
aVread-in-2013
p169
aVemotional
p170
aV5-stars
p171
aVcute
p172
aVyoung-adult-romance
p173
aVon-shelf
p174
aVnon-series
p175
aVneed
p176
aVtear-jerker
p177
aVneed-to-buy
p178
aVsweet
p179
aVgirly
p180
aVfavorite-books
p181
aVthought-provoking
p182
aVyoung-adult-contemporary
p183
aVlove
p184
aVreal-life
p185
aV4-stars
p186
aVlooks-interesting
p187
asS'loc_class'
p188
S''
p189
sS'n_authors'
p190
I1
sb.