ccopy_reg
_reconstructor
p0
(cdataset.Book
Book
p1
c__builtin__
object
p2
Ntp3
Rp4
(dp5
S'content_name'
p6
V24278.txt.utf-8
p7
sS'isbn'
p8
NsS'year'
p9
I1991
sS'author_name'
p10
VTom Purdom
p11
sS'images_urls'
p12
(lp13
Vhttp://www.gutenberg.org/files/24278/24278-h/images/image_01.jpg
p14
aVhttp://www.gutenberg.org/files/24278/24278-h/images/image_02.jpg
p15
asS'language_code'
p16
Ven-US
p17
sS'images'
p18
(lp19
sS'id'
p20
I776
sS'category'
p21
VText
p22
sS'genres'
p23
(lp24
sS'copyright'
p25
VPublic domain in the USA.
p26
sS'title'
p27
VThe Green Beret
p28
sS'wikipedia'
p29
(dp30
S'found'
p31
I00
ssS'average_rating'
p32
F3.9
sS'rating_count'
p33
I533
sS'content_available'
p34
I01
sS'goodreads'
p35
(dp36
S'url'
p37
Vhttps://www.goodreads.com/book/show/11010115-eyes-of-the-hammer
p38
sg31
I01
sS'year'
p39
I1991
ssS'similar_books'
p40
(lp41
VHide and Seek (Sgt. Major Eric Moyer, #4)
p42
aVHunter (Dylan Hunter #1)
p43
aVMAC WALKER'S BENGHAZI:  The Complete Collection
p44
aVA Pious Killing (A Sean Colquhoun Adventure)
p45
aVThe Ajax Protocol (The Project, #7)
p46
aVThe Girl He Knows (No Strings Attached, #1)
p47
aVWith His Lady's Assistance (The Regent Mysteries, #1)
p48
aVUntying the Knot
p49
aVSuperbia (Superbia #1)
p50
aVTalon: Combat Tracking Team (A Breed Apart, #2)
p51
aVOverture to Disaster (Post Cold War Political Thriller Trilogy)
p52
aVThe Last Airship (Sam Reilly #1)
p53
aVSuperior Storm (Lake Superior Mysteries)
p54
aVThe Spider Inside
p55
aVPRIMAL Mirza (A PRIMAL Series Novella)
p56
aVThe Dig (Pike Logan #1.5)
p57
aVDeadly Crossing (Tom Dugan #3)
p58
aVSoundkeeper (Hall McCormick Thriller, #1)
p59
asS'description'
p60
VFrom NY Times Bestselling Author, Amazon top 25 Author, former Green Beret and West Point Graduate, Bob Mayer. <br /><br />What if US Army Green Berets led by Dave Riley must take on not only criminal drug traffickers but also betray their own government? <br /><br />A US Army Special Forces team carrying sterilized weapons and unmarked uniforms is on its way to Colombia. The mission: conduct covert, unilateral raids to destroy cocaine processing laboratories. <br /><br />Of course nothing is as it seems especially once the CIA gets involved. Throw in an Israeli mercenary, betrayal and double-dealing in Washington and the team soon finds itself wondering what the real mission is.
p61
sS'format'
p62
NsS'gutenberg'
p63
(dp64
g37
Vhttp://www.gutenberg.org/ebooks/24278
p65
sS'num'
p66
I24278
ssS'authors'
p67
(lp68
I248
asS'isbn13'
p69
NsS'language'
p70
VEnglish
p71
sS'countries'
p72
(lp73
I2
asS'release_date'
p74
S'2008-01-14T00:00:00'
p75
sS'author'
p76
I248
sS'content_cleaned'
p77
I01
sS'classes'
p78
(lp79
Vto-read
p80
aVcurrently-reading
p81
aVkindle
p82
aVmilitary
p83
aVthriller
p84
aVfiction
p85
aVaction
p86
aVkindle-books
p87
aVseries
p88
aVbob-mayer
p89
aVaction-adventure
p90
aVkindle-free
p91
aVown-kindle
p92
aVebook
p93
aVaudible
p94
aVibooks
p95
aVowned
p96
aVebooks
p97
aVunread
p98
aVthrillers
p99
aVsuspense
p100
aVon-kindle
p101
aVe-book
p102
aVmilitary-fiction
p103
aVdefault
p104
aVto-read-own-kindle
p105
aVowned-kindle
p106
aVshelved
p107
aVown-to-read
p108
aVdon-t-plan-on-reading
p109
aVe-books
p110
aVown-not-read
p111
aVowned-books
p112
aVhave
p113
aVbooks-i-own
p114
aVkobo
p115
aVown-it
p116
aVdid-not-finish
p117
aVmysteries-thrillers
p118
aVfirst-reads
p119
aVlendable
p120
aVkindle-to-read
p121
aVnot-read
p122
aVc-thriller-horror
p123
aVc-adventure-military
p124
aVbb-kindle-owned
p125
aVaaa-just-completed-to-review
p126
aV2017-read
p127
aV2016-read
p128
aVexciting-action
p129
aVliving-room
p130
aVhave-on-ibooks
p131
aVhave-but-not-read
p132
aVmaybe-to-read-someday
p133
aVamazon-kindle
p134
aVgen
p135
aVebook-owned
p136
aVcalibre
p137
aVfree-on-kindle
p138
aVnope
p139
aVthe-green-berets
p140
aVaction-thriller-spy
p141
aVown-not-read-yet
p142
aVnext-in-series
p143
aVnot-at-library
p144
aVto-read-owned-ebooks
p145
aVkobo-book
p146
aVnew-authors-to-me
p147
aVkindle-books-i-own-unread
p148
aVread-2016
p149
aVe-books-owned
p150
aVibooks-tbr-library
p151
aVwant-to-listen
p152
aVfree-ebooks
p153
aVon-kindle-to-read
p154
aVecopy
p155
aVaa-review-awol
p156
aVmy-kindle-tbr
p157
aVbought
p158
aVgave-up
p159
aVmystery-paranormal
p160
aVdigital
p161
aVshelf-m-authors
p162
aVa-pending-placement
p163
aVnook-or-kindle-freebie-not-gifted
p164
aValready-own-or-have-preordered
p165
aVavailable-at-medina
p166
aV_kindle
p167
aVto-read-owned
p168
aVspy-ct-war-thrillers
p169
aVtbr-owned
p170
aVseries-to-check
p171
aVpolitical-military-thriller
p172
aVauthor-to-check
p173
aVowned-pending-kindle-free-ebook
p174
aVon-my-ipad
p175
aVi-books
p176
aVkindle-to-read-series-have-multiple
p177
aVwant-to-read
p178
aVmy-apple-ibooks-library
p179
asS'loc_class'
p180
VPS: Language and Literatures: American and Canadian literature
p181
sS'n_authors'
p182
I1
sb.