ccopy_reg
_reconstructor
p0
(cdataset.Book
Book
p1
c__builtin__
object
p2
Ntp3
Rp4
(dp5
S'content_name'
p6
V50904.txt.utf-8
p7
sS'isbn'
p8
NsS'year'
p9
I1961
sS'author_name'
p10
VJesse F. Bone
p11
sS'images_urls'
p12
(lp13
Vhttp://www.gutenberg.org/files/50904/50904-h/images/cover.jpg
p14
aVhttp://www.gutenberg.org/files/50904/50904-h/images/illus1.jpg
p15
aVhttp://www.gutenberg.org/files/50904/50904-h/images/illus2.jpg
p16
asS'language_code'
p17
NsS'images'
p18
(lp19
sS'id'
p20
I352
sS'category'
p21
VText
p22
sS'genres'
p23
(lp24
sS'copyright'
p25
VPublic domain in the USA.
p26
sS'title'
p27
VOn the Fourth Planet
p28
sS'wikipedia'
p29
(dp30
S'found'
p31
I00
ssS'average_rating'
p32
F3.71
sS'rating_count'
p33
I1
sS'content_available'
p34
I01
sS'cover_art_url'
p35
S'http://www.gutenberg.org/cache/epub/50904/pg50904.cover.medium.jpg'
p36
sS'goodreads'
p37
(dp38
S'url'
p39
S'https://www.goodreads.com/book/show/33859230-on-the-fourth-planet'
p40
sS'found'
p41
I01
ssS'similar_books'
p42
(lp43
sS'description'
p44
NsS'gutenberg'
p45
(dp46
S'url'
p47
Vhttp://www.gutenberg.org/ebooks/50904
p48
sS'num'
p49
I50904
ssS'authors'
p50
(lp51
I68
asS'isbn13'
p52
NsS'language'
p53
VEnglish
p54
sS'countries'
p55
(lp56
I2
asS'release_date'
p57
S'2016-01-12T00:00:00'
p58
sS'author'
p59
I68
sS'cover'
p60
Vhttps://s.gr-assets.com/assets/nophoto/book/111x148-bcc042a9c91a29c1d680899eff700a03.png
p61
sS'content_cleaned'
p62
I01
sS'classes'
p63
(lp64
Vto-read
p65
aVunknown-publication-dates
p66
aVcurrently-reading
p67
asS'loc_class'
p68
S''
p69
sS'n_authors'
p70
I1
sb.