ccopy_reg
_reconstructor
p0
(cdataset.Book
Book
p1
c__builtin__
object
p2
Ntp3
Rp4
(dp5
S'content_name'
p6
V22579.txt.utf-8
p7
sS'isbn'
p8
V1606642847
p9
sS'year'
p10
I1958
sS'author_name'
p11
VFritz Leiber
p12
sS'images_urls'
p13
(lp14
Vhttp://www.gutenberg.org/files/22579/22579-h/images/001.png
p15
aVhttp://www.gutenberg.org/files/22579/22579-h/images/002.png
p16
aVhttp://www.gutenberg.org/files/22579/22579-h/images/003.png
p17
aVhttp://www.gutenberg.org/files/22579/22579-page-images/p074.png
p18
aVhttp://www.gutenberg.org/files/22579/22579-page-images/p075.png
p19
aVhttp://www.gutenberg.org/files/22579/22579-page-images/p076.png
p20
aVhttp://www.gutenberg.org/files/22579/22579-page-images/p077.png
p21
aVhttp://www.gutenberg.org/files/22579/22579-page-images/p078.png
p22
aVhttp://www.gutenberg.org/files/22579/22579-page-images/p079.png
p23
aVhttp://www.gutenberg.org/files/22579/22579-page-images/p080.png
p24
aVhttp://www.gutenberg.org/files/22579/22579-page-images/p081.png
p25
aVhttp://www.gutenberg.org/files/22579/22579-page-images/p082.png
p26
aVhttp://www.gutenberg.org/files/22579/22579-page-images/p083.png
p27
aVhttp://www.gutenberg.org/files/22579/22579-page-images/p084.png
p28
aVhttp://www.gutenberg.org/files/22579/22579-page-images/p085.png
p29
aVhttp://www.gutenberg.org/files/22579/22579-page-images/p086.png
p30
aVhttp://www.gutenberg.org/files/22579/22579-page-images/p087.png
p31
aVhttp://www.gutenberg.org/files/22579/22579-page-images/p088.png
p32
aVhttp://www.gutenberg.org/files/22579/22579-page-images/p089.png
p33
asS'language_code'
p34
NsS'images'
p35
(lp36
sS'id'
p37
I274
sS'category'
p38
VText
p39
sS'genres'
p40
(lp41
sS'copyright'
p42
VPublic domain in the USA.
p43
sS'title'
p44
VBread Overhead
p45
sS'wikipedia'
p46
(dp47
S'found'
p48
I00
ssS'average_rating'
p49
F3.48
sS'rating_count'
p50
I71
sS'content_available'
p51
I01
sS'goodreads'
p52
(dp53
S'url'
p54
Vhttps://www.goodreads.com/book/show/6867836-bread-overhead
p55
sg48
I01
sS'year'
p56
I1958
ssS'similar_books'
p57
(lp58
sS'description'
p59
V"Bread Overhead" is a story Fritz Leiber could have written to send up today's bewildering bread aisle -- all those claims of low-cal and low-low-carb. In fact, the story probably reads better now than it did in 1958, back when the choice came down to white or whole wheat. Leiber slyly imagines a near-future when giant machines not only harvest the wheat field, but grind flour and bake bread on the spot -- the ultimate in big farming. In this toasted tomorrow, the highly-mechanized Puffy Products is bent on producing the supremely lightest loaf. The story is what happens if bread isn't just airy, but pumped full of lighter-than-air helium. Leiber ("Ships to the Stars") didn't often bake up such a souffle of spoof, but he's a master in the kitchen. And "Bread Overhead" has just enough to say about human nature to be filling, besides.
p60
sS'format'
p61
VPaperback
p62
sS'gutenberg'
p63
(dp64
g54
Vhttp://www.gutenberg.org/ebooks/22579
p65
sS'num'
p66
I22579
ssS'authors'
p67
(lp68
I32
asS'pages'
p69
I56
sS'isbn13'
p70
V9781606642849
p71
sS'language'
p72
VEnglish
p73
sS'countries'
p74
(lp75
I2
asS'release_date'
p76
S'2007-09-11T00:00:00'
p77
sS'author'
p78
I32
sS'content_cleaned'
p79
I01
sS'classes'
p80
(lp81
Vto-read
p82
aVscience-fiction
p83
aVcurrently-reading
p84
aVshort-stories
p85
aVfiction
p86
aVsci-fi
p87
aVshort-story
p88
aVowned
p89
aVkindle
p90
aVaudiobook
p91
aVroundtuit
p92
aVunread
p93
aVrandoms
p94
aVclassics
p95
aVaudiobooks-read
p96
aV3-stars
p97
aVamerican
p98
aVacquired
p99
aVscifi-fantasy
p100
aVshorts
p101
aVtbr-owned
p102
aVaudio
p103
aVaudiobooks
p104
aVno-time-soon
p105
aVto-buy
p106
aVundecided
p107
aVeverything-else
p108
aVfiction-sci-fi
p109
aVaudiobook-loyalbooks
p110
aV15
p111
aVreviewed
p112
aVebooks_unread
p113
aVe-book
p114
aVfood
p115
aVe-books
p116
aVaudio-obtained
p117
aVcook-books
p118
aVto-read-kindle
p119
aVnook
p120
aVpodcast
p121
aVlibrivox-short-scifi
p122
aVebook-kindle-own
p123
aVgutenberg
p124
aVscience
p125
aVmegan-s
p126
aV04-stjerne
p127
aVebook
p128
aV50-book-challenge
p129
aVread-on-pc
p130
aVmy-ebooks
p131
aVbacklog
p132
aVhigh-priority-tbr
p133
aVround-tuit
p134
aVaudio-obtained-ss
p135
aVsci-fi-fantasy
p136
aVbacklogue
p137
aVaaaaaaaa
p138
asS'loc_class'
p139
VPS: Language and Literatures: American and Canadian literature
p140
sS'n_authors'
p141
I1
sb.