ccopy_reg
_reconstructor
p0
(cdataset.Book
Book
p1
c__builtin__
object
p2
Ntp3
Rp4
(dp5
S'similar_books'
p6
(lp7
sS'genres'
p8
(lp9
sS'author'
p10
I302
sS'countries'
p11
(lp12
I2
asS'year'
p13
I1951
sS'title'
p14
VGalaxy Magazine June 1951
p15
sS'cover'
p16
Vhttps://ia601308.us.archive.org/BookReader/BookReaderImages.php?zip=/2/items/Galaxy_v02n03_1951-06/Galaxy_v02n03_1951-06_jp2.zip&file=Galaxy_v02n03_1951-06_jp2/Galaxy_v02n03_1951-06_0000.jp2&scale=0&rotate=0
p17
sS'cover_art'
p18
S'http://www.isfdb.org/wiki/images/9/91/GALJUN1951.jpg'
p19
sS'author_name'
p20
VGalaxy Magazine
p21
sS'images_urls'
p22
(lp23
sS'authors'
p24
(lp25
I355
aI336
aI351
aI363
aI305
aI340
aI132
aI204
aI51
aI194
aI326
aI302
asS'images'
p26
(lp27
sS'id'
p28
I981
sS'contents'
p29
(lp30
(dp31
g10
I355
sg14
VHunt the Hunter
p32
sa(dp33
g10
I336
sg14
VAngel's Egg
p34
sa(dp35
g10
I336
sg14
VAngel's Egg [2]
p36
sa(dp37
g10
I336
sg14
VAngel's Egg [3]
p38
sa(dp39
g10
I351
sg14
VDon't Live in the Past
p40
sa(dp41
g10
I351
sg14
VDon't Live in the Past [2]
p42
sa(dp43
g10
I351
sg14
VDon't Live in the Past [3]
p44
sa(dp45
g10
I351
sg14
VDon't Live in the Past [4]
p46
sa(dp47
g10
I351
sg14
VDon't Live in the Past [5]
p48
sa(dp49
g10
I363
sg14
VMars Child (Part 2 of 3)
p50
sa(dp51
g10
I363
sg14
VMars Child (Part 2 of 3) [2]
p52
sa(dp53
g10
I363
sg14
VMars Child (Part 2 of 3) [3]
p54
sa(dp55
g10
I363
sg14
VMars Child (Part 2 of 3) [4]
p56
sa(dp57
g10
I363
sg14
VMars Child (Part 2 of 3) [5]
p58
sa(dp59
g10
I363
sg14
VMars Child (Part 2 of 3) [6]
p60
sa(dp61
g10
I305
sg14
VLooking Forward
p62
sa(dp63
g10
I340
sg14
VGalaxy's Five Star Shelf (Galaxy, June 1951)
p64
sa(dp65
g10
I132
sg14
VAngel's Egg
p66
sa(dp67
g10
I204
sg14
VDon't Live in the Past
p68
sa(dp69
g10
I51
sg14
VMars Child (Part 2 of 3)
p70
sa(dp71
g10
I194
sg14
VHunt the Hunter
p72
sa(dp73
g10
I326
sg14
VNext Month's Contents Page (Galaxy, June 1951)
p74
sasb.