ccopy_reg
_reconstructor
p0
(cdataset.Book
Book
p1
c__builtin__
object
p2
Ntp3
Rp4
(dp5
S'content_name'
p6
V32705.txt.utf-8
p7
sS'isbn'
p8
NsS'year'
p9
I1953
sS'author_name'
p10
VPaul W. Fairman
p11
sS'images_urls'
p12
(lp13
Vhttp://www.gutenberg.org/files/32705/32705-h/images/cover.jpg
p14
aVhttp://www.gutenberg.org/files/32705/32705-h/images/illus1.jpg
p15
aVhttp://www.gutenberg.org/files/32705/32705-h/images/illus2.jpg
p16
asS'language_code'
p17
NsS'id'
p18
I893
sS'category'
p19
VText
p20
sS'genres'
p21
(lp22
sS'copyright'
p23
VPublic domain in the USA.
p24
sS'title'
p25
VDeadly City
p26
sS'wikipedia'
p27
(dp28
S'found'
p29
I00
ssS'average_rating'
p30
F3.86
sS'rating_count'
p31
I6
sS'content_available'
p32
I01
sS'cover_art_url'
p33
S'http://www.gutenberg.org/cache/epub/32705/pg32705.cover.medium.jpg'
p34
sS'goodreads'
p35
(dp36
S'url'
p37
S'https://www.goodreads.com/book/show/10663274-deadly-city'
p38
sS'found'
p39
I01
ssS'similar_books'
p40
(lp41
sS'description'
p42
NsS'gutenberg'
p43
(dp44
S'url'
p45
Vhttp://www.gutenberg.org/ebooks/32705
p46
sS'num'
p47
I32705
ssS'authors'
p48
(lp49
I221
asS'isbn13'
p50
V2940012123992
p51
sS'language'
p52
VEnglish
p53
sS'countries'
p54
(lp55
I2
asS'release_date'
p56
S'2010-06-05T00:00:00'
p57
sS'author'
p58
I221
sS'content_cleaned'
p59
I01
sS'classes'
p60
(lp61
Vhave-but-not-read
p62
aVsci-fi-fantasy
p63
aVto-read-someday
p64
aVkindle
p65
asS'loc_class'
p66
VPS: Language and Literatures: American and Canadian literature
p67
sS'n_authors'
p68
I1
sb.