ccopy_reg
_reconstructor
p0
(cdataset.Book
Book
p1
c__builtin__
object
p2
Ntp3
Rp4
(dp5
S'content_name'
p6
V32748.txt.utf-8
p7
sS'isbn'
p8
NsS'year'
p9
I1954
sS'author_name'
p10
VWinston K. Marks
p11
sS'images_urls'
p12
(lp13
Vhttp://www.gutenberg.org/files/32748/32748-h/images/cover.jpg
p14
aVhttp://www.gutenberg.org/files/32748/32748-h/images/illus1.jpg
p15
aVhttp://www.gutenberg.org/files/32748/32748-h/images/illus2.jpg
p16
aVhttp://www.gutenberg.org/files/32748/32748-h/images/illus3.jpg
p17
asS'language_code'
p18
NsS'id'
p19
I910
sS'category'
p20
VText
p21
sS'genres'
p22
(lp23
sS'copyright'
p24
VPublic domain in the USA.
p25
sS'title'
p26
VMate in Two Moves
p27
sS'wikipedia'
p28
(dp29
S'found'
p30
I00
ssS'average_rating'
p31
F3.0
sS'rating_count'
p32
I3
sS'content_available'
p33
I01
sS'cover_art_url'
p34
S'http://www.gutenberg.org/cache/epub/32748/pg32748.cover.medium.jpg'
p35
sS'goodreads'
p36
(dp37
S'url'
p38
Vhttps://www.goodreads.com/book/show/20799808-mate-in-two-moves
p39
sS'found'
p40
I01
sS'year'
p41
I2011
ssS'similar_books'
p42
(lp43
sS'description'
p44
NsS'gutenberg'
p45
(dp46
g38
Vhttp://www.gutenberg.org/ebooks/32748
p47
sS'num'
p48
I32748
ssS'authors'
p49
(lp50
I228
asS'isbn13'
p51
NsS'language'
p52
VEnglish
p53
sS'countries'
p54
(lp55
I3
asS'release_date'
p56
S'2010-06-08T00:00:00'
p57
sS'author'
p58
I228
sS'cover'
p59
Vhttps://s.gr-assets.com/assets/nophoto/book/111x148-bcc042a9c91a29c1d680899eff700a03.png
p60
sS'content_cleaned'
p61
I01
sS'classes'
p62
(lp63
Vto-read
p64
aV21st-century-lit
p65
asS'loc_class'
p66
VPS: Language and Literatures: American and Canadian literature
p67
sS'n_authors'
p68
I1
sb.