ccopy_reg
_reconstructor
p0
(cdataset.Book
Book
p1
c__builtin__
object
p2
Ntp3
Rp4
(dp5
S'content_name'
p6
V40993.txt.utf-8
p7
sS'isbn'
p8
NsS'year'
p9
I1932
sS'author_name'
p10
VNeil R. Jones
p11
sS'images_urls'
p12
(lp13
Vhttp://www.gutenberg.org/files/40993/40993-h/images/author.jpg
p14
aVhttp://www.gutenberg.org/files/40993/40993-h/images/cover.jpg
p15
aVhttp://www.gutenberg.org/files/40993/40993-h/images/illus1.jpg
p16
asS'language_code'
p17
NsS'images'
p18
(lp19
sS'id'
p20
I404
sS'category'
p21
VText
p22
sS'genres'
p23
(lp24
sS'copyright'
p25
VPublic domain in the USA.
p26
sS'title'
p27
VSpacewrecked on Venus
p28
sS'wikipedia'
p29
(dp30
S'found'
p31
I00
ssS'average_rating'
p32
F2.91
sS'rating_count'
p33
I20
sS'content_available'
p34
I01
sS'cover_art_url'
p35
S'http://www.gutenberg.org/cache/epub/40993/pg40993.cover.medium.jpg'
p36
sS'goodreads'
p37
(dp38
S'url'
p39
Vhttps://www.goodreads.com/book/show/19295912-spacewrecked-on-venus
p40
sg31
I01
sS'year'
p41
I1932
ssS'similar_books'
p42
(lp43
sS'description'
p44
NsS'gutenberg'
p45
(dp46
g39
Vhttp://www.gutenberg.org/ebooks/40993
p47
sS'num'
p48
I40993
ssS'authors'
p49
(lp50
I131
asS'isbn13'
p51
NsS'language'
p52
VEnglish
p53
sS'countries'
p54
(lp55
I2
asS'release_date'
p56
S'2012-10-09T00:00:00'
p57
sS'author'
p58
I131
sS'cover'
p59
Vhttps://s.gr-assets.com/assets/nophoto/book/111x148-bcc042a9c91a29c1d680899eff700a03.png
p60
sS'content_cleaned'
p61
I01
sS'classes'
p62
(lp63
Vto-read
p64
aVcurrently-reading
p65
aVscience-fiction
p66
aVhave-but-not-read
p67
aV20th-century-lit
p68
aVshort-stories
p69
aV1930s
p70
aVenglisch
p71
aVebook
p72
asS'loc_class'
p73
VPS: Language and Literatures: American and Canadian literature
p74
sS'n_authors'
p75
I1
sb.