ccopy_reg
_reconstructor
p0
(cdataset.Book
Book
p1
c__builtin__
object
p2
Ntp3
Rp4
(dp5
S'content_name'
p6
V29069.txt.utf-8
p7
sS'isbn'
p8
NsS'year'
p9
I1932
sS'author_name'
p10
VS. P. Meek
p11
sS'images_urls'
p12
(lp13
Vhttp://www.gutenberg.org/files/29069/29069-h/images/image_001.jpg
p14
asS'language_code'
p15
NsS'id'
p16
I761
sS'category'
p17
VText
p18
sS'genres'
p19
(lp20
sS'copyright'
p21
VPublic domain in the USA.
p22
sS'title'
p23
VPoisoned Air
p24
sS'wikipedia'
p25
(dp26
S'found'
p27
I00
ssS'average_rating'
p28
F0.0
sS'rating_count'
p29
I0
sS'content_available'
p30
I01
sS'goodreads'
p31
(dp32
S'url'
p33
Vhttps://www.goodreads.com/book/show/29481245-poisoned-air
p34
sS'found'
p35
I01
sS'year'
p36
I-1
ssS'similar_books'
p37
(lp38
sS'description'
p39
NsS'format'
p40
NsS'gutenberg'
p41
(dp42
g33
Vhttp://www.gutenberg.org/ebooks/29069
p43
sS'num'
p44
I29069
ssS'authors'
p45
(lp46
I139
asS'isbn13'
p47
NsS'language'
p48
VEnglish
p49
sS'countries'
p50
(lp51
I2
asS'release_date'
p52
S'2009-06-08T00:00:00'
p53
sS'author'
p54
I139
sS'content_cleaned'
p55
I01
sS'classes'
p56
(lp57
sS'loc_class'
p58
VPS: Language and Literatures: American and Canadian literature
p59
sS'n_authors'
p60
I1
sb.