ccopy_reg
_reconstructor
p0
(cdataset.Book
Book
p1
c__builtin__
object
p2
Ntp3
Rp4
(dp5
S'content_name'
p6
V31168.txt.utf-8
p7
sS'isbn'
p8
NsS'year'
p9
I2010
sS'author_name'
p10
VVarious
p11
sS'images_urls'
p12
(lp13
Vhttp://www.gutenberg.org/files/31168/31168-h/images/cover.jpg
p14
aVhttp://www.gutenberg.org/files/31168/31168-h/images/image_001.jpg
p15
aVhttp://www.gutenberg.org/files/31168/31168-h/images/image_002.jpg
p16
aVhttp://www.gutenberg.org/files/31168/31168-h/images/image_003_01.jpg
p17
aVhttp://www.gutenberg.org/files/31168/31168-h/images/image_003_02.jpg
p18
aVhttp://www.gutenberg.org/files/31168/31168-h/images/image_004.jpg
p19
aVhttp://www.gutenberg.org/files/31168/31168-h/images/image_005_01.jpg
p20
aVhttp://www.gutenberg.org/files/31168/31168-h/images/image_005_02.jpg
p21
aVhttp://www.gutenberg.org/files/31168/31168-h/images/image_006.jpg
p22
aVhttp://www.gutenberg.org/files/31168/31168-h/images/image_007.jpg
p23
aVhttp://www.gutenberg.org/files/31168/31168-h/images/image_008.jpg
p24
aVhttp://www.gutenberg.org/files/31168/31168-h/images/image_009_01.jpg
p25
aVhttp://www.gutenberg.org/files/31168/31168-h/images/image_009_02.jpg
p26
aVhttp://www.gutenberg.org/files/31168/31168-h/images/image_010_01.jpg
p27
aVhttp://www.gutenberg.org/files/31168/31168-h/images/image_010_02.jpg
p28
aVhttp://www.gutenberg.org/files/31168/31168-h/images/image_011.jpg
p29
aVhttp://www.gutenberg.org/files/31168/31168-h/images/image_012.jpg
p30
aVhttp://www.gutenberg.org/files/31168/31168-h/images/image_013.jpg
p31
aVhttp://www.gutenberg.org/files/31168/31168-h/images/image_a.jpg
p32
aVhttp://www.gutenberg.org/files/31168/31168-h/images/image_b.jpg
p33
aVhttp://www.gutenberg.org/files/31168/31168-h/images/image_b1.jpg
p34
aVhttp://www.gutenberg.org/files/31168/31168-h/images/image_c.jpg
p35
aVhttp://www.gutenberg.org/files/31168/31168-h/images/image_d.jpg
p36
aVhttp://www.gutenberg.org/files/31168/31168-h/images/image_f.jpg
p37
aVhttp://www.gutenberg.org/files/31168/31168-h/images/image_f1.jpg
p38
aVhttp://www.gutenberg.org/files/31168/31168-h/images/image_g.jpg
p39
aVhttp://www.gutenberg.org/files/31168/31168-h/images/image_h.jpg
p40
aVhttp://www.gutenberg.org/files/31168/31168-h/images/image_i.jpg
p41
aVhttp://www.gutenberg.org/files/31168/31168-h/images/image_i1.jpg
p42
aVhttp://www.gutenberg.org/files/31168/31168-h/images/image_j.jpg
p43
aVhttp://www.gutenberg.org/files/31168/31168-h/images/image_k.jpg
p44
aVhttp://www.gutenberg.org/files/31168/31168-h/images/image_m.jpg
p45
aVhttp://www.gutenberg.org/files/31168/31168-h/images/image_n.jpg
p46
aVhttp://www.gutenberg.org/files/31168/31168-h/images/image_n1.jpg
p47
aVhttp://www.gutenberg.org/files/31168/31168-h/images/image_o.jpg
p48
aVhttp://www.gutenberg.org/files/31168/31168-h/images/image_p.jpg
p49
aVhttp://www.gutenberg.org/files/31168/31168-h/images/image_s.jpg
p50
aVhttp://www.gutenberg.org/files/31168/31168-h/images/image_s1.jpg
p51
aVhttp://www.gutenberg.org/files/31168/31168-h/images/image_t.jpg
p52
aVhttp://www.gutenberg.org/files/31168/31168-h/images/image_t1.jpg
p53
aVhttp://www.gutenberg.org/files/31168/31168-h/images/image_u.jpg
p54
aVhttp://www.gutenberg.org/files/31168/31168-h/images/image_w.jpg
p55
aVhttp://www.gutenberg.org/files/31168/31168-h/images/image_x1.jpg
p56
aVhttp://www.gutenberg.org/files/31168/31168-h/images/image_y.jpg
p57
aVhttp://www.gutenberg.org/files/31168/31168-h/images/image_y1.jpg
p58
asS'language_code'
p59
NsS'images'
p60
(lp61
sS'id'
p62
I101
sS'category'
p63
VText
p64
sS'genres'
p65
(lp66
sS'copyright'
p67
VPublic domain in the USA.
p68
sS'title'
p69
VAstounding Stories, July, 1931
p70
sS'wikipedia'
p71
(dp72
S'url'
p73
Vhttps://en.wikipedia.org/wiki/Science_Fiction_of_the_Thirties
p74
sS'found'
p75
I01
sS'year'
p76
I-1
ssS'published_in'
p77
NsS'average_rating'
p78
F3.73
sS'rating_count'
p79
I26
sS'content_available'
p80
I01
sS'cover_art_url'
p81
S'http://www.gutenberg.org/cache/epub/31168/pg31168.cover.medium.jpg'
p82
sS'goodreads'
p83
(dp84
g73
Vhttps://www.goodreads.com/book/show/18755982-astounding-stories-july-1931
p85
sg75
I01
sg76
I2010
ssS'similar_books'
p86
(lp87
sS'description'
p88
NsS'format'
p89
NsS'gutenberg'
p90
(dp91
g73
Vhttp://www.gutenberg.org/ebooks/31168
p92
sS'num'
p93
I31168
ssS'authors'
p94
(lp95
I17
asS'isbn13'
p96
NsS'language'
p97
VEnglish
p98
sS'country'
p99
I2
sS'release_date'
p100
S'2010-02-03T00:00:00'
p101
sS'author'
p102
I17
sS'original_title'
p103
VScience Fiction of the Thirties
p104
sS'summary'
p105
VScience Fiction of the Thirties is an anthology of science fiction short stories edited by Damon Knight. It was first published in hardcover by Bobbs-Merrill in January 1976; a book club edition was issued simultaneously by the same publisher together with the Science Fiction Book Club, and a trade paperback edition by Avon Books in March 1977.\u000aThe book collects eighteen tales by various authors originally published in the 1930s and exemplifying American magazine science fiction of that decade, together with a foreword and three essays on the period by the editor, and a bibliography. The stories were originally published in Astounding Stories and Amazing Stories, the premier science fiction magazines of the time. The book reproduces period illustrations that accompanied the stories' original appearances by H. W. Wesso, Leo Morey, Paul Orban, Howard V. Brown, Elliott Dold, Jr., Thompson, and Charles Schneeman.
p106
sS'content_cleaned'
p107
I01
sS'classes'
p108
(lp109
Vto-read
p110
aVcurrently-reading
p111
aVkindle
p112
aVgraphic-novel
p113
aVfiction
p114
aVart
p115
aVanime
p116
aValready-bought
p117
aVshortstories
p118
aV2010s
p119
aVshort-stories
p120
aVscience-fiction
p121
aVe-book
p122
aVread-in-2010
p123
aVown-unread
p124
aVgutenberg
p125
asS'loc_class'
p126
VPN: Language and Literatures: Literature: General, Criticism, Collections
p127
sS'n_authors'
p128
I1
sb.