ccopy_reg
_reconstructor
p0
(cdataset.Book
Book
p1
c__builtin__
object
p2
Ntp3
Rp4
(dp5
S'similar_books'
p6
(lp7
sS'genres'
p8
(lp9
sS'author'
p10
I302
sS'countries'
p11
(lp12
I2
asS'year'
p13
I1962
sS'title'
p14
VGalaxy Magazine August 1962
p15
sS'cover'
p16
Vhttps://ia601003.us.archive.org/BookReader/BookReaderImages.php?zip=/3/items/Galaxy_v20n06_1962-08/Galaxy_v20n06_1962-08_jp2.zip&file=Galaxy_v20n06_1962-08_jp2/Galaxy_v20n06_1962-08_0000.jp2&scale=0&rotate=0
p17
sS'cover_art'
p18
S'http://www.isfdb.org/wiki/images/a/a1/GALAUG1962.jpg'
p19
sS'author_name'
p20
VGalaxy Magazine
p21
sS'images_urls'
p22
(lp23
sS'authors'
p24
(lp25
I499
aI568
aI560
aI40
aI326
aI339
aI95
aI483
aI575
aI89
aI229
aI205
aI142
aI302
asS'images'
p26
(lp27
sS'id'
p28
I1091
sS'contents'
p29
(lp30
(dp31
g10
I499
sg14
VThe Dragon Masters
p32
sa(dp33
g10
I499
sg14
VThe Dragon Masters [2]
p34
sa(dp35
g10
I499
sg14
VThe Dragon Masters [3]
p36
sa(dp37
g10
I499
sg14
VThe Dragon Masters [4]
p38
sa(dp39
g10
I499
sg14
VThe Dragon Masters [5]
p40
sa(dp41
g10
I499
sg14
VThe Dragon Masters [6]
p42
sa(dp43
g10
I499
sg14
VThe Dragon Masters [7]
p44
sa(dp45
g10
I499
sg14
VThe Dragon Masters [8]
p46
sa(dp47
g10
I499
sg14
VThe Dragon Masters [9]
p48
sa(dp49
g10
I499
sg14
VThe Dragon Masters [10]
p50
sa(dp51
g10
I568
sg14
VA Matter of Protocol
p52
sa(dp53
g10
I560
sg14
VAlways a Qurono
p54
sa(dp55
g10
I560
sg14
VOne Race Show
p56
sa(dp57
g10
I560
sg14
VOne Race Show [2]
p58
sa(dp59
g10
I40
sg14
VWhich Way Is Progress?
p60
sa(dp61
g10
I326
sg14
VForecast (Galaxy, August 1962)
p62
sa(dp63
g10
I339
sg14
VFor Your Information: Rotating Luminous Wheels in the Sea
p64
sa(dp65
g10
I95
sg14
VThe Luck of Magnitudes
p66
sa(dp67
g10
I483
sg14
VGalaxy's 5 Star Shelf (Galaxy, August 1962)
p68
sa(dp69
g10
I575
sg14
VOne Race Show
p70
sa(dp71
g10
I89
sg14
VThe Dragon Masters
p72
sa(dp73
g10
I229
sg14
VHandyman
p74
sa(dp75
g10
I205
sg14
VA Matter of Protocol
p76
sa(dp77
g10
I40
sg14
VThree Portraits and a Prayer
p78
sa(dp79
g10
I142
sg14
VAlways a Qurono
p80
sasb.