ccopy_reg
_reconstructor
p0
(cdataset.Book
Book
p1
c__builtin__
object
p2
Ntp3
Rp4
(dp5
S'content_name'
p6
V25644.txt.utf-8
p7
sS'isbn'
p8
NsS'year'
p9
I1956
sS'author_name'
p10
VRandall Garrett
p11
sS'images_urls'
p12
(lp13
Vhttp://www.gutenberg.org/files/25644/25644-h/images/001.png
p14
aVhttp://www.gutenberg.org/files/25644/25644-h/images/002.png
p15
aVhttp://www.gutenberg.org/files/25644/25644-h/images/003.png
p16
aVhttp://www.gutenberg.org/files/25644/25644-page-images/p0038-image.png
p17
aVhttp://www.gutenberg.org/files/25644/25644-page-images/p0038.png
p18
aVhttp://www.gutenberg.org/files/25644/25644-page-images/p0039-image.png
p19
aVhttp://www.gutenberg.org/files/25644/25644-page-images/p0039.png
p20
aVhttp://www.gutenberg.org/files/25644/25644-page-images/p0040.png
p21
aVhttp://www.gutenberg.org/files/25644/25644-page-images/p0041.png
p22
aVhttp://www.gutenberg.org/files/25644/25644-page-images/p0042.png
p23
aVhttp://www.gutenberg.org/files/25644/25644-page-images/p0043.png
p24
aVhttp://www.gutenberg.org/files/25644/25644-page-images/p0044.png
p25
aVhttp://www.gutenberg.org/files/25644/25644-page-images/p0045.png
p26
aVhttp://www.gutenberg.org/files/25644/25644-page-images/p0046.png
p27
aVhttp://www.gutenberg.org/files/25644/25644-page-images/p0047.png
p28
aVhttp://www.gutenberg.org/files/25644/25644-page-images/p0048.png
p29
aVhttp://www.gutenberg.org/files/25644/25644-page-images/p0049.png
p30
aVhttp://www.gutenberg.org/files/25644/25644-page-images/p0050.png
p31
aVhttp://www.gutenberg.org/files/25644/25644-page-images/p0051.png
p32
aVhttp://www.gutenberg.org/files/25644/25644-page-images/p0052.png
p33
aVhttp://www.gutenberg.org/files/25644/25644-page-images/p0053.png
p34
asS'language_code'
p35
Veng
p36
sS'images'
p37
(lp38
sS'id'
p39
I415
sS'category'
p40
VText
p41
sS'genres'
p42
(lp43
sS'copyright'
p44
VPublic domain in the USA.
p45
sS'title'
p46
VThe Man Who Hated Mars
p47
sS'wikipedia'
p48
(dp49
S'found'
p50
I00
ssS'average_rating'
p51
F3.46
sS'rating_count'
p52
I22
sS'content_available'
p53
I01
sS'goodreads'
p54
(dp55
S'url'
p56
Vhttps://www.goodreads.com/book/show/6328979-the-man-who-hated-mars
p57
sg50
I01
sS'year'
p58
I2014
ssS'similar_books'
p59
(lp60
sS'description'
p61
NsS'gutenberg'
p62
(dp63
g56
Vhttp://www.gutenberg.org/ebooks/25644
p64
sS'num'
p65
I25644
ssS'authors'
p66
(lp67
I49
asS'isbn13'
p68
NsS'language'
p69
VEnglish
p70
sS'countries'
p71
(lp72
I2
asS'release_date'
p73
S'2008-05-30T00:00:00'
p74
sS'author'
p75
I49
sS'content_cleaned'
p76
I01
sS'classes'
p77
(lp78
Vto-read
p79
aVscience-fiction
p80
aVshort-stories
p81
aVsci-fi
p82
aVcurrently-reading
p83
aVfiction
p84
aVclassic
p85
aVfree-from-amazon
p86
aVshort-fiction
p87
aV20th-century
p88
aVshort-story
p89
aVscience
p90
aVpdf
p91
aVsci-fi_short_stories
p92
aV13
p93
aVowned
p94
aVhumor
p95
aVsciencefiction-fantasy-notstartrek
p96
aVmars
p97
aVklassiker
p98
aVfiktion
p99
asS'loc_class'
p100
VPS: Language and Literatures: American and Canadian literature
p101
sS'n_authors'
p102
I1
sb.