ccopy_reg
_reconstructor
p0
(cdataset.Book
Book
p1
c__builtin__
object
p2
Ntp3
Rp4
(dp5
S'content_name'
p6
V24054.txt.utf-8
p7
sS'isbn'
p8
V0671666657
p9
sS'year'
p10
I1990
sS'author_name'
p11
VRandall Garrett
p12
sS'images_urls'
p13
(lp14
Vhttp://www.gutenberg.org/files/24054/24054-h/images/illus1.jpg
p15
aVhttp://www.gutenberg.org/files/24054/24054-h/images/illus2.jpg
p16
aVhttp://www.gutenberg.org/files/24054/24054-h/images/illus3.jpg
p17
aVhttp://www.gutenberg.org/files/24054/24054-h/images/illus4.jpg
p18
asS'language_code'
p19
Veng
p20
sS'images'
p21
(lp22
sS'id'
p23
I494
sS'category'
p24
VText
p25
sS'genres'
p26
(lp27
sS'copyright'
p28
VPublic domain in the USA.
p29
sS'title'
p30
VDead Giveaway
p31
sS'wikipedia'
p32
(dp33
S'found'
p34
I00
ssS'average_rating'
p35
F3.45
sS'rating_count'
p36
I186
sS'content_available'
p37
I01
sS'goodreads'
p38
(dp39
S'url'
p40
Vhttps://www.goodreads.com/book/show/876161.Dead_Giveaway
p41
sg34
I01
sS'year'
p42
I1990
ssS'similar_books'
p43
(lp44
VZero-Degree Murder (Search and Rescue Mystery #1)
p45
aVBinary Witness (The Amy Lane Mysteries, #1)
p46
aVThe Case of the Killer Divorce (Jamie Quinn Mystery #2)
p47
aVPerfect Game
p48
aVThe Coffin Trader
p49
aVThe Eye of Horus
p50
aVNight Kill (Iris Oakley, #1)
p51
aVNo Room for Error (Lexi Carmichael Mystery, #7)
p52
aVKittens Can Kill (Pru Marlowe, #5)
p53
aVBeat Until Stiff
p54
aVDead in the Water (Rebecca Schwartz, #4)
p55
aVEvery Breath You Take (Kristen Conner Mystery #2)
p56
aVMurder and Moonshine (Moonshine Mystery, #1)
p57
aVKiller Reunion (A Savannah Reid Mystery, #21)
p58
aVHow to be a Ghost (Libby Grace Mystery #1)
p59
aVScavenger Hunt (A Finny Aletter Mystery, Book 1)
p60
aVLove Thy Sister (Mina's Adventures, #1)
p61
aVStalking Jack: The Hunt Begins (Madeline Donovan #1)
p62
asS'description'
p63
VIN THE DESOLATE REACHES OF NEVADA, ONE MAN GUARDS A BRUTAL SECRET...<br />AND HE'LL KILL FOR IT.<br />AT A PLUSH MOUNTAIN RETREAT, LIFE IS A PLEASURE.<br />THE PRICE IS MURDER.<br /><br />The Deer Creek Condos are delightfully secluded, an ultra-luxury development nestled in the mountains above Las Vegas's garish, billion-dollar carnival. There are only nine apartments, one to a floor. The owners are rich, successful and cultured, enjoying the finest of everything, with the best security money can buy...<br /><br />Now a violent winter avalanche has trapped them in the wilderness. And the residents of Deer Creek are dying, in fatal accidents that add up to homicide. Only a handful of them are left--neighbors, friends, lovers--and a old, obsessive killer. Someone whose job is death. Someone who knows every way there is to snuff a human life...<br /><br />cover art Ron Barbagallo
p64
sS'format'
p65
VPaperback
p66
sS'gutenberg'
p67
(dp68
g40
Vhttp://www.gutenberg.org/ebooks/24054
p69
sS'num'
p70
I24054
ssS'authors'
p71
(lp72
I49
asS'pages'
p73
I280
sS'isbn13'
p74
V9780671666651
p75
sS'language'
p76
VEnglish
p77
sS'country'
p78
I3
sS'release_date'
p79
S'2007-12-27T00:00:00'
p80
sS'author'
p81
I49
sS'content_cleaned'
p82
I01
sS'classes'
p83
(lp84
Vto-read
p85
aVcurrently-reading
p86
aVmystery
p87
aVjoanne-fluke
p88
aVfiction
p89
aVdefault
p90
aVnook
p91
aVebooks
p92
aVmy-books
p93
aVmystery-thriller
p94
aVmysteries
p95
aVmystery-suspense
p96
aVifpl
p97
aV2015-reading-list
p98
aVto-buy
p99
aVread-in-2014
p100
aVowned-pbmystery-tbr
p101
aVfluke
p102
aVkindle
p103
aV2014-books-read
p104
aVtbr-master-list
p105
aVown-unread
p106
aVunfinished-books
p107
aVif-library
p108
aVcozy-mysteries-fluke
p109
aVj-fluke-various
p110
aVepub-mp3
p111
aV4-non-series-7-10
p112
aV__dont-own-yet
p113
aVbooks-i-ve-read
p114
aVthriller
p115
aV2016-reading-challenge
p116
aVmisc
p117
aVmystery-series
p118
aVi-own
p119
aVsuspense
p120
aVkobo
p121
aVgag-me-with-a-fork
p122
aVbut-why-is-the-rum-gone-mystery
p123
aVborrrrring
p124
aVbaby-its-cold-outside
p125
aVfluke-misc
p126
aVbought-2016
p127
aVscribd
p128
aVpleasure
p129
aVrt-10-15
p130
aVbooks
p131
aVstand-alone-2-read
p132
aVdled
p133
aVdo-not-want
p134
aV2015-150-goal
p135
aV2015-challenge
p136
aV2015-reading-challenge
p137
aVdigital-download
p138
aVaudio-book
p139
aVamazon
p140
aVebook-library
p141
aVmoonreader-app-nook
p142
aVbooks-i-want-to-read
p143
aVmy
p144
aVout-of-the-box
p145
aVguidall
p146
aVcatalog
p147
aVadult
p148
aVoverdrive-not-good
p149
aVcm
p150
aVmystrey
p151
aVshelved
p152
aVtbr-2014
p153
aVpub-pocket
p154
aVpc-200-299
p155
aVmystery-thrillers
p156
aVe-book
p157
aVd
p158
aVc-black
p159
aVauthor-f
p160
aVromance
p161
aVmurder-mystery
p162
aVask-greg
p163
aVmom-to-read
p164
aVmystery-suspense-thriller-crime
p165
aVebrary
p166
aVjoan-fluk
p167
aVon-oneclickdigital
p168
aVwish-list
p169
aVbrisbane
p170
aVto-find
p171
aVnovella
p172
aVebook
p173
aVnew-releases-2014-april
p174
aVto-read-mystery
p175
aVword-cat-editorial
p176
aVauthors-i-read-other-books
p177
aVlas-vegas-and-nevada
p178
aVfav-authors-to-read
p179
aVmysteries-to-read
p180
aVlook-for
p181
aVipad-books
p182
aVfluke-joanne
p183
aVpaperback
p184
asS'loc_class'
p185
VPS: Language and Literatures: American and Canadian literature
p186
sS'n_authors'
p187
I1
sb.