ccopy_reg
_reconstructor
p0
(cdataset.Book
Book
p1
c__builtin__
object
p2
Ntp3
Rp4
(dp5
S'similar_books'
p6
(lp7
sS'genres'
p8
(lp9
sS'author'
p10
I302
sS'countries'
p11
(lp12
I2
asS'year'
p13
I1963
sS'title'
p14
VGalaxy Magazine April 1963
p15
sS'cover'
p16
Vhttps://ia600207.us.archive.org/BookReader/BookReaderImages.php?zip=/3/items/Galaxy_v21n04_1963-04/Galaxy_v21n04_1963-04_jp2.zip&file=Galaxy_v21n04_1963-04_jp2/Galaxy_v21n04_1963-04_0000.jp2&scale=0&rotate=0
p17
sS'cover_art'
p18
S'http://www.isfdb.org/wiki/images/7/74/GALAPR1963.jpg'
p19
sS'author_name'
p20
VGalaxy Magazine
p21
sS'images_urls'
p22
(lp23
sS'authors'
p24
(lp25
I363
aI580
aI497
aI551
aI40
aI339
aI326
aI483
aI569
aI194
aI204
aI572
aI507
aI302
asS'images'
p26
(lp27
sS'id'
p28
I1094
sS'contents'
p29
(lp30
(dp31
S'title'
p32
VThe Visitor at the Zoo
p33
sS'author'
p34
I363
sa(dp35
g32
VThe Visitor at the Zoo [2]
p36
sg34
I363
sa(dp37
g32
VThe Visitor at the Zoo [3]
p38
sg34
I363
sa(dp39
g32
VThe Visitor at the Zoo [4]
p40
sg34
I363
sa(dp41
g32
VThe Visitor at the Zoo [5]
p42
sg34
I363
sa(dp43
g32
VThe Visitor at the Zoo [6]
p44
sg34
I363
sa(dp45
g32
VThe Visitor at the Zoo [7]
p46
sg34
I363
sa(dp47
g32
VThe Visitor at the Zoo [8]
p48
sg34
I363
sa(dp49
g32
VThe Visitor at the Zoo [9]
p50
sg34
I363
sa(dp51
g32
VThe Lonely Man
p52
sg34
I580
sa(dp53
g32
VOn the Fourth Planet
p54
sg34
I497
sa(dp55
g32
VVoyage to Far N'jurd
p56
sg34
I551
sa(dp57
g32
VDramatis Personae
p58
sg34
I40
sa(dp59
g32
VFor Your Information: Too Much Imagination
p60
sg34
I339
sa(dp61
g32
VForecast (Galaxy, April 1963)
p62
sg34
I326
sa(dp63
g32
VGalaxy's 5 Star Shelf (Galaxy, April 1963)
p64
sg34
I483
sa(dp65
g32
VStatement of Ownership (Galaxy, April 1963) (Circulation: 92,000)
p66
sg34
I326
sa(dp67
g32
VThe Lonely Man
p68
sg34
I569
sa(dp69
g32
VVoyage to Far N'jurd
p70
sg34
I194
sa(dp71
g32
VThe Visitor at the Zoo
p72
sg34
I204
sa(dp73
g32
VMy Lady Selene
p74
sg34
I572
sa(dp75
g32
VOn the Fourth Planet
p76
sg34
I507
sasb.