ccopy_reg
_reconstructor
p0
(cdataset.Book
Book
p1
c__builtin__
object
p2
Ntp3
Rp4
(dp5
S'content_name'
p6
V4994.txt.utf-8
p7
sS'isbn'
p8
V1548044091
p9
sS'year'
p10
I1908
sS'author_name'
p11
VRockwood, Roy
p12
sS'images_urls'
p13
(lp14
Vhttp://www.gutenberg.org/files/4994/4994-h/images/a251a.png
p15
aVhttp://www.gutenberg.org/files/4994/4994-h/images/a251b.png
p16
aVhttp://www.gutenberg.org/files/4994/4994-h/images/a252.png
p17
aVhttp://www.gutenberg.org/files/4994/4994-h/images/a253.png
p18
aVhttp://www.gutenberg.org/files/4994/4994-h/images/a254.png
p19
aVhttp://www.gutenberg.org/files/4994/4994-h/images/a255.png
p20
aVhttp://www.gutenberg.org/files/4994/4994-h/images/a256.png
p21
aVhttp://www.gutenberg.org/files/4994/4994-h/images/a257.png
p22
aVhttp://www.gutenberg.org/files/4994/4994-h/images/cover.jpg
p23
aVhttp://www.gutenberg.org/files/4994/4994-h/images/illus-046.jpg
p24
aVhttp://www.gutenberg.org/files/4994/4994-h/images/illus-046f.jpg
p25
aVhttp://www.gutenberg.org/files/4994/4994-h/images/illus-180.jpg
p26
aVhttp://www.gutenberg.org/files/4994/4994-h/images/illus-180f.jpg
p27
aVhttp://www.gutenberg.org/files/4994/4994-h/images/illus-193.jpg
p28
aVhttp://www.gutenberg.org/files/4994/4994-h/images/illus-193f.jpg
p29
aVhttp://www.gutenberg.org/files/4994/4994-h/images/illus-fpc.jpg
p30
aVhttp://www.gutenberg.org/files/4994/4994-h/images/illus-fpcf.jpg
p31
asS'language_code'
p32
NsS'images'
p33
(lp34
sS'id'
p35
I455
sS'category'
p36
VText
p37
sS'genres'
p38
(lp39
sS'copyright'
p40
VPublic domain in the USA.
p41
sS'title'
p42
VFive Thousand Miles Underground; Or, the Mystery of the Centre of the Earth
p43
sS'wikipedia'
p44
(dp45
S'found'
p46
I00
ssS'average_rating'
p47
F0.0
sS'rating_count'
p48
I0
sS'content_available'
p49
I01
sS'cover_art_url'
p50
S'http://www.gutenberg.org/cache/epub/4994/pg4994.cover.medium.jpg'
p51
sS'goodreads'
p52
(dp53
S'url'
p54
Vhttps://www.goodreads.com/book/show/35808682-five-thousand-miles-underground
p55
sg46
I01
sS'year'
p56
I-1
ssS'similar_books'
p57
(lp58
sS'description'
p59
VA cruise to the center of the earth through an immense hole found in an island in the ocean.
p60
sS'gutenberg'
p61
(dp62
g54
Vhttp://www.gutenberg.org/ebooks/4994
p63
sS'num'
p64
I4994
ssS'authors'
p65
(lp66
I155
asS'isbn13'
p67
V9781548044091
p68
sS'language'
p69
VEnglish
p70
sS'countries'
p71
(lp72
I3
asS'release_date'
p73
S'2004-01-01T00:00:00'
p74
sS'author'
p75
I155
sS'cover'
p76
Vhttps://s.gr-assets.com/assets/nophoto/book/111x148-bcc042a9c91a29c1d680899eff700a03.png
p77
sS'content_cleaned'
p78
I00
sS'classes'
p79
(lp80
sS'loc_class'
p81
VPZ: Language and Literatures: Juvenile belles lettres
p82
sS'n_authors'
p83
I1
sb.