ccopy_reg
_reconstructor
p0
(cdataset.Book
Book
p1
c__builtin__
object
p2
Ntp3
Rp4
(dp5
S'content_name'
p6
V31651.txt.utf-8
p7
sS'isbn'
p8
NsS'year'
p9
I1953
sS'author_name'
p10
VIrving E. Cox
p11
sS'images_urls'
p12
(lp13
Vhttp://www.gutenberg.org/files/31651/31651-h/images/cover.jpg
p14
asS'language_code'
p15
NsS'id'
p16
I928
sS'category'
p17
VText
p18
sS'genres'
p19
(lp20
sS'copyright'
p21
VPublic domain in the USA.
p22
sS'title'
p23
VThe Instant of Now
p24
sS'wikipedia'
p25
(dp26
S'found'
p27
I00
ssS'average_rating'
p28
F4.17
sS'rating_count'
p29
I0
sS'content_available'
p30
I01
sS'cover_art_url'
p31
S'http://www.gutenberg.org/cache/epub/31651/pg31651.cover.medium.jpg'
p32
sS'goodreads'
p33
(dp34
S'url'
p35
S'https://www.goodreads.com/book/show/9991825-the-instant-of-now'
p36
sS'found'
p37
I01
ssS'similar_books'
p38
(lp39
sS'description'
p40
NsS'gutenberg'
p41
(dp42
S'url'
p43
Vhttp://www.gutenberg.org/ebooks/31651
p44
sS'num'
p45
I31651
ssS'authors'
p46
(lp47
I160
asS'isbn13'
p48
V2940011842214
p49
sS'language'
p50
VEnglish
p51
sS'countries'
p52
(lp53
I1
asS'release_date'
p54
S'2010-03-15T00:00:00'
p55
sS'author'
p56
I160
sS'content_cleaned'
p57
I01
sS'classes'
p58
(lp59
sS'loc_class'
p60
VPS: Language and Literatures: American and Canadian literature
p61
sS'n_authors'
p62
I1
sb.