ccopy_reg
_reconstructor
p0
(cdataset.Book
Book
p1
c__builtin__
object
p2
Ntp3
Rp4
(dp5
S'similar_books'
p6
(lp7
sS'genres'
p8
(lp9
sS'author'
p10
I918
sS'countries'
p11
(lp12
I2
asS'year'
p13
I1968
sS'title'
p14
VIF Magazine November 1968
p15
sS'cover'
p16
Vhttps://ia600203.us.archive.org/BookReader/BookReaderImages.php?zip=/21/items/1968-11_IF/1968-11_IF_jp2.zip&file=1968-11_IF_jp2/1968-11_IF_0000.jp2&scale=0&rotate=0
p17
sS'cover_art'
p18
S'http://www.isfdb.org/wiki/images/e/e2/WOFIFNOV1968.jpg'
p19
sS'author_name'
p20
VIF Magazine
p21
sS'images_urls'
p22
(lp23
sS'authors'
p24
(lp25
I499
aI1174
aI326
aI519
aI40
aI356
aI3
aI591
aI1175
aI69
aI136
aI55
aI1176
aI163
aI918
asS'images'
p26
(lp27
sS'id'
p28
I1349
sS'contents'
p29
(lp30
(dp31
g10
I499
sg14
VThe Computer Conspiracy (Part 1 of 2)
p32
sa(dp33
g10
I1174
sg14
VCreatures of Light
p34
sa(dp35
g10
I326
sg14
VNow That Man Is Gone
p36
sa(dp37
g10
I519
sg14
VThe Perfect Secretary
p38
sa(dp39
g10
I40
sg14
VMore Dooms
p40
sa(dp41
g10
I356
sg14
VIf ... And When (If, November 1968)
p42
sa(dp43
g10
I40
sg14
VHue and Cry (If, November 1968)
p44
sa(dp45
g10
I3
sg14
VLetter (If, November 1968)
p46
sa(dp47
g10
I326
sg14
VSf Calendar (If, November 1968)
p48
sa(dp49
g10
I591
sg14
VCreatures of Light
p50
sa(dp51
g10
I1175
sg14
VThe Perfect Secretary
p52
sa(dp53
g10
I69
sg14
VThe Computer Conspiracy (Part 1 of 2)
p54
sa(dp55
g10
I136
sg14
VWhere the Time Went
p56
sa(dp57
g10
I55
sg14
VNow That Man Is Gone
p58
sa(dp59
g10
I1176
sg14
VWizard Ship
p60
sa(dp61
g10
I163
sg14
VBookmobile
p62
sasb.