ccopy_reg
_reconstructor
p0
(cdataset.Book
Book
p1
c__builtin__
object
p2
Ntp3
Rp4
(dp5
S'content_name'
p6
V19709.txt.utf-8
p7
sS'isbn'
p8
V1428075496
p9
sS'year'
p10
I1953
sS'author_name'
p11
VCarey Rockwell
p12
sS'images_urls'
p13
(lp14
Vhttp://www.gutenberg.org/files/19709/19709-h/images/bc3.png
p15
aVhttp://www.gutenberg.org/files/19709/19709-h/images/img001.png
p16
aVhttp://www.gutenberg.org/files/19709/19709-h/images/img002.png
p17
aVhttp://www.gutenberg.org/files/19709/19709-h/images/img003.png
p18
aVhttp://www.gutenberg.org/files/19709/19709-h/images/img004.png
p19
aVhttp://www.gutenberg.org/files/19709/19709-h/images/img005.png
p20
aVhttp://www.gutenberg.org/files/19709/19709-h/images/img006.png
p21
aVhttp://www.gutenberg.org/files/19709/19709-h/images/img007.png
p22
aVhttp://www.gutenberg.org/files/19709/19709-h/images/img008.png
p23
aVhttp://www.gutenberg.org/files/19709/19709-h/images/img009.png
p24
aVhttp://www.gutenberg.org/files/19709/19709-h/images/img010.png
p25
aVhttp://www.gutenberg.org/files/19709/19709-h/images/img011.png
p26
aVhttp://www.gutenberg.org/files/19709/19709-h/images/img012.png
p27
aVhttp://www.gutenberg.org/files/19709/19709-h/images/img014.png
p28
aVhttp://www.gutenberg.org/files/19709/19709-h/images/img015.png
p29
aVhttp://www.gutenberg.org/files/19709/19709-h/images/img016.png
p30
aVhttp://www.gutenberg.org/files/19709/19709-h/images/img017.png
p31
aVhttp://www.gutenberg.org/files/19709/19709-h/images/img019.png
p32
aVhttp://www.gutenberg.org/files/19709/19709-h/images/img020.png
p33
aVhttp://www.gutenberg.org/files/19709/19709-h/images/img021.png
p34
aVhttp://www.gutenberg.org/files/19709/19709-h/images/img022.png
p35
aVhttp://www.gutenberg.org/files/19709/19709-h/images/img023.png
p36
aVhttp://www.gutenberg.org/files/19709/19709-h/images/img024.png
p37
aVhttp://www.gutenberg.org/files/19709/19709-h/images/img025.png
p38
aVhttp://www.gutenberg.org/files/19709/19709-h/images/img026.png
p39
aVhttp://www.gutenberg.org/files/19709/19709-h/images/img027.png
p40
aVhttp://www.gutenberg.org/files/19709/19709-h/images/img028.png
p41
asS'language_code'
p42
NsS'images'
p43
(lp44
sS'id'
p45
I375
sS'category'
p46
VText
p47
sS'genres'
p48
(lp49
sS'copyright'
p50
VPublic domain in the USA.
p51
sS'title'
p52
VDanger in Deep Space
p53
sS'wikipedia'
p54
(dp55
S'found'
p56
I00
ssS'average_rating'
p57
F3.43
sS'rating_count'
p58
I57
sS'content_available'
p59
I01
sS'goodreads'
p60
(dp61
S'url'
p62
Vhttps://www.goodreads.com/book/show/723787.Danger_in_Deep_Space
p63
sg56
I01
sS'year'
p64
I1953
ssS'similar_books'
p65
(lp66
sS'description'
p67
VThe book you hold in your hands -- second in the "Tom Corbett" series by "Carey Rockwell" -- is something special. Oh, it was a work made for hire, and after it had its day, even the author (whoever he was in real life) forgot he'd done it. But believe it or not, this book is really pretty neat. It's the tale of three young space cadets of the Solar Guard: it starts with space maneuvers and a mock attack, and runs through complications on places like Venus and Tara. Cool stuff! Read it now!
p68
sS'format'
p69
VPaperback
p70
sS'gutenberg'
p71
(dp72
g62
Vhttp://www.gutenberg.org/ebooks/19709
p73
sS'num'
p74
I19709
ssS'authors'
p75
(lp76
I118
asS'pages'
p77
I176
sS'isbn13'
p78
V9781428075498
p79
sS'language'
p80
VEnglish
p81
sS'country'
p82
I2
sS'release_date'
p83
S'2006-11-04T00:00:00'
p84
sS'author'
p85
I118
sS'content_cleaned'
p86
I01
sS'classes'
p87
(lp88
Vto-read
p89
aVsci-fi
p90
aVfiction
p91
aVcurrently-reading
p92
aVscience-fiction
p93
aVsf
p94
aVscifi
p95
aVaudiobooks
p96
aVpre-goodreads
p97
aVsff
p98
aVscience
p99
aVin-my-home-library
p100
aVread_2016
p101
aVchildren-ya
p102
aVtom-corbett
p103
aVfavorites
p104
aVtemporary-storage
p105
aVguttenberg
p106
aVowned
p107
aVb5
p108
aVyoung-and-ya
p109
aVepubbooks
p110
aVspace-adventures
p111
aVnook
p112
aVcarey-rockwell
p113
aVpersonal-collection
p114
aVnot-read
p115
aV13
p116
aVkindle
p117
aVya-books
p118
aVsci-fi-fantasy
p119
aV2013-books-read
p120
aVhave-this
p121
aVin-calibre
p122
aVmass-romance
p123
aVcalibre
p124
aVchildrens-series
p125
aVread-in-2008
p126
aVebooks
p127
asS'loc_class'
p128
VPZ: Language and Literatures: Juvenile belles lettres
p129
sS'n_authors'
p130
I1
sb.