ccopy_reg
_reconstructor
p0
(cdataset.Book
Book
p1
c__builtin__
object
p2
Ntp3
Rp4
(dp5
S'content_name'
p6
V32427.txt.utf-8
p7
sS'isbn'
p8
V1463801947
p9
sS'year'
p10
I1952
sS'author_name'
p11
VBoyd Ellanby
p12
sS'images_urls'
p13
(lp14
Vhttp://www.gutenberg.org/files/32427/32427-h/images/cover.jpg
p15
aVhttp://www.gutenberg.org/files/32427/32427-h/images/illus1.jpg
p16
aVhttp://www.gutenberg.org/files/32427/32427-h/images/illus2.jpg
p17
aVhttp://www.gutenberg.org/files/32427/32427-h/images/illus3.jpg
p18
asS'language_code'
p19
NsS'images'
p20
(lp21
sS'id'
p22
I694
sS'category'
p23
VText
p24
sS'genres'
p25
(lp26
sS'copyright'
p27
VPublic domain in the USA.
p28
sS'title'
p29
VCategory Phoenix
p30
sS'wikipedia'
p31
(dp32
S'found'
p33
I00
ssS'average_rating'
p34
F3.2
sS'rating_count'
p35
I2
sS'content_available'
p36
I01
sS'cover_art_url'
p37
S'http://www.gutenberg.org/cache/epub/32427/pg32427.cover.medium.jpg'
p38
sS'goodreads'
p39
(dp40
S'url'
p41
Vhttps://www.goodreads.com/book/show/14402806-category-phoenix
p42
sg33
I01
sS'year'
p43
I2010
ssS'similar_books'
p44
(lp45
sS'description'
p46
VWong leaned back in his chair and smiled at his visitors.<br /><br />"The wisdom of Leader Marley is a constant help to us all, but his generosity is also a byword. Surely you remember that on the tenth anniversary of his accession, he honored me by the grant of occasional hours of Privacy, as a reward for my work on Blue Martian Fever?"<br /><br />"I remember now," said Dr. Lanza.<br /><br />"But what for?" asked Officer Blagun. "It's anti-social!"
p47
sS'format'
p48
VPaperback
p49
sS'gutenberg'
p50
(dp51
g41
Vhttp://www.gutenberg.org/ebooks/32427
p52
sS'num'
p53
I32427
ssS'authors'
p54
(lp55
I149
asS'pages'
p56
I64
sS'isbn13'
p57
V9781463801946
p58
sS'language'
p59
VEnglish
p60
sS'countries'
p61
(lp62
I2
asS'release_date'
p63
S'2010-05-19T00:00:00'
p64
sS'author'
p65
I149
sS'content_cleaned'
p66
I01
sS'classes'
p67
(lp68
Vto-read
p69
aVfree-from-amazon
p70
aV21st-century-lit
p71
aVowned-pending-kindle-free-ebook
p72
aVpg
p73
aVellanby-boyd
p74
asS'loc_class'
p75
VPS: Language and Literatures: American and Canadian literature
p76
sS'n_authors'
p77
I1
sb.