ccopy_reg
_reconstructor
p0
(cdataset.Book
Book
p1
c__builtin__
object
p2
Ntp3
Rp4
(dp5
S'content_name'
p6
V24928.txt.utf-8
p7
sS'isbn'
p8
NsS'year'
p9
I1960
sS'author_name'
p10
VTherese Windser
p11
sS'images_urls'
p12
(lp13
Vhttp://www.gutenberg.org/files/24928/24928-page-images/p0137.png
p14
aVhttp://www.gutenberg.org/files/24928/24928-page-images/p0138.png
p15
asS'language_code'
p16
NsS'images'
p17
(lp18
sS'id'
p19
I642
sS'category'
p20
VText
p21
sS'genres'
p22
(lp23
sS'copyright'
p24
VPublic domain in the USA.
p25
sS'title'
p26
VLongevity
p27
sS'wikipedia'
p28
(dp29
S'found'
p30
I00
ssS'average_rating'
p31
F3.8
sS'rating_count'
p32
I12
sS'content_available'
p33
I01
sS'goodreads'
p34
(dp35
S'url'
p36
S'https://www.goodreads.com/book/show/12744957-longevity'
p37
sS'found'
p38
I01
ssS'similar_books'
p39
(lp40
sS'description'
p41
V<b>"A morality tale\u20141960 style."</b><br /><br /><i>Science Fiction </i><br />Play Duration:00:04:02 <br />Public Domain stories from Project Gutenberg, that are read by volunteers. <br />First published in <i>\u201dAmazing Science Fiction Stories\u201d</i> <br /><br /><u>Free download from LibriVox.org</u>
p42
sS'gutenberg'
p43
(dp44
S'url'
p45
Vhttp://www.gutenberg.org/ebooks/24928
p46
sS'num'
p47
I24928
ssS'authors'
p48
(lp49
I210
asS'isbn13'
p50
NsS'language'
p51
VEnglish
p52
sS'countries'
p53
(lp54
I3
asS'release_date'
p55
S'2008-03-27T00:00:00'
p56
sS'author'
p57
I210
sS'content_cleaned'
p58
I01
sS'classes'
p59
(lp60
Vto-read
p61
aVauthors-r-through-z
p62
aVreview-done
p63
aVfiction
p64
aV15
p65
aVsfbywomen
p66
aVsf
p67
aVshort-story
p68
aVsci-fi_short_stories
p69
aVscience-fiction
p70
aVkindle
p71
aVaaaaaaaa
p72
asS'loc_class'
p73
VPS: Language and Literatures: American and Canadian literature
p74
sS'n_authors'
p75
I1
sb.