ccopy_reg
_reconstructor
p0
(cdataset.Book
Book
p1
c__builtin__
object
p2
Ntp3
Rp4
(dp5
S'content_name'
p6
V29353.txt.utf-8
p7
sS'isbn'
p8
V0983965552
p9
sS'year'
p10
I1932
sS'author_name'
p11
VSewell Peaslee Wright
p12
sS'images_urls'
p13
(lp14
Vhttp://www.gutenberg.org/files/29353/29353-h/images/i402.jpg
p15
aVhttp://www.gutenberg.org/files/29353/29353-h/images/icover.jpg
p16
asS'language_code'
p17
NsS'images'
p18
(lp19
sS'id'
p20
I124
sS'category'
p21
VText
p22
sS'genres'
p23
(lp24
sS'copyright'
p25
VPublic domain in the USA.
p26
sS'title'
p27
VVampires of Space
p28
sS'wikipedia'
p29
(dp30
S'found'
p31
I00
ssS'average_rating'
p32
F3.7
sS'rating_count'
p33
I124
sS'content_available'
p34
I01
sS'cover_art_url'
p35
S'http://www.gutenberg.org/cache/epub/29353/pg29353.cover.medium.jpg'
p36
sS'goodreads'
p37
(dp38
S'url'
p39
Vhttps://www.goodreads.com/book/show/20589110-amish-vampires-in-space
p40
sg31
I01
sS'year'
p41
I2013
ssS'similar_books'
p42
(lp43
VFailstate
p44
aVFusion Fire (Firebird, #2)
p45
aVSanctuary
p46
aVThe Enclave
p47
aVRearview (7 Hours #1)
p48
aVBid the Gods Arise (The Wells of the Worlds, #1)
p49
aVEmbers (Abiassa's Fire, #1)
p50
aVCorridor
p51
aVApocalypse: An Anthology by Authors and Readers
p52
aVThe Land Beyond the Portal
p53
aVThe Big Book of Lesbian Horse Stories
p54
aVA Time to Speak (Out of Time, #2)
p55
aVSpirit Bridge
p56
aVThe Realms Thereunder (The Ancient Earth, #1)
p57
aVFantasy Writer's Assistant and Other Stories
p58
aVThe God Hater
p59
aVAngelguard (Chronicles of the Angelguard #1)
p60
aVOne Step Away
p61
asS'description'
p62
VJebediah has a secret that will change his world forever and send his people into space. The Amish world of Alabaster calls upon an ancient promise to escape destruction. Then end up on a cargo ship bound for the stars. But they are not the only cargo on board. Some of it is alive...or used to be. Now, with vampires taking over and closing in on the Amish refugees, these simple believers must decide whether their faith depends upon their honored traditions or something even older.
p63
sS'format'
p64
VPaperback
p65
sS'gutenberg'
p66
(dp67
g39
Vhttp://www.gutenberg.org/ebooks/29353
p68
sS'num'
p69
I29353
ssS'authors'
p70
(lp71
I44
asS'pages'
p72
I492
sS'isbn13'
p73
V9780983965558
p74
sS'language'
p75
VEnglish
p76
sS'countries'
p77
(lp78
I2
asS'release_date'
p79
S'2009-07-08T00:00:00'
p80
sS'author'
p81
I44
sS'content_cleaned'
p82
I01
sS'classes'
p83
(lp84
Vto-read
p85
aVsci-fi
p86
aVscience-fiction
p87
aVcurrently-reading
p88
aVvampires
p89
aVfantasy
p90
aVparanormal
p91
aVhorror
p92
aVfiction
p93
aVscifi
p94
aVsci-fi-fantasy
p95
aVspeculative-fiction
p96
aVchristian
p97
aVchristian-fiction
p98
aVe-book
p99
aVvampire
p100
aVaudiobook
p101
aVrecommended
p102
aVseries
p103
aVsuper-secret-book-club
p104
aVto-read-sci-fi
p105
aVbrain-candy
p106
aVfavorites
p107
aVspeculative-thriller
p108
aVfiction-horror
p109
aVread-in-2014
p110
aVmy-shelf
p111
aVamish
p112
aVfiction-scifi
p113
aVreligion
p114
aVwant-to-have
p115
aV2017-reading-challenge
p116
aVwhat-s-in-a-title
p117
aVya-christian-fiction
p118
aVto-read-own
p119
aVa-queue
p120
aVread-2017
p121
aVwhat-in-all-thia-is-holy
p122
aVc-grade
p123
aVsmartbitches
p124
aVpossibilities-wishlist
p125
aVwow-list
p126
aVmust-read
p127
aV2-romance
p128
aVdnf
p129
aVorder-in-system
p130
aVcatchy-titles
p131
aVauthors-i-know
p132
aVunowned-consideration
p133
aVfull-sail
p134
aVchallenge
p135
aVabandon
p136
aVspiritual
p137
aVwtf-did-i-just-read
p138
aVread-in-english
p139
aVown-ebook
p140
aVdeep
p141
aVnovels-to-read
p142
aVhorror-thriller-suspense
p143
aVpartly-read
p144
aVweird
p145
aVthanks-erin
p146
aVpost-apocalyptic-dystopia
p147
aVparanormal-romance
p148
aVgeek
p149
aVfriend-recommendation
p150
aVworst-christian-book-titles
p151
aVfantasy-scifi
p152
aVbookface
p153
aV2016-reading-list
p154
aVhave-on-kindle
p155
aVadult-to-read
p156
aVsigned-copy
p157
aVpaperback
p158
aVowned
p159
aVfirst-read
p160
aVbook-i-won
p161
aVy-a
p162
aVvampires-vampires-vampires
p163
aVsf
p164
aVsachiko
p165
aVmystery-and-or-suspense
p166
aVinterestg-title
p167
aVgiveaway-add
p168
aVfriends-in-mind
p169
aVfree-to-read-or-preview-on-goodread
p170
aVck-library
p171
aVcinematic-premise
p172
aVto-buy
p173
aVreviewed
p174
aVunavoidable
p175
aV1
p176
aVsf-unread
p177
aVdidn-t-finish
p178
aVdid-not-finish
p179
aVumwhat
p180
aVto-read-adult
p181
aVfiction-fantasy
p182
aVdystopian
p183
aVyoung-adult
p184
asS'loc_class'
p185
VPS: Language and Literatures: American and Canadian literature
p186
sS'n_authors'
p187
I1
sb.