ccopy_reg
_reconstructor
p0
(cdataset.Book
Book
p1
c__builtin__
object
p2
Ntp3
Rp4
(dp5
S'content_name'
p6
V32696.txt.utf-8
p7
sS'isbn'
p8
NsS'year'
p9
I1942
sS'author_name'
p10
VRobert Moore Williams
p11
sS'images_urls'
p12
(lp13
Vhttp://www.gutenberg.org/files/32696/32696-h/images/cover.jpg
p14
aVhttp://www.gutenberg.org/files/32696/32696-h/images/illus1.jpg
p15
aVhttp://www.gutenberg.org/files/32696/32696-h/images/illus2.jpg
p16
asS'language_code'
p17
Vvie
p18
sS'images'
p19
(lp20
sS'id'
p21
I584
sS'category'
p22
VText
p23
sS'genres'
p24
(lp25
sS'copyright'
p26
VPublic domain in the USA.
p27
sS'title'
p28
VPlanet of the Gods
p29
sS'wikipedia'
p30
(dp31
S'found'
p32
I00
ssS'average_rating'
p33
F3.07
sS'rating_count'
p34
I9
sS'content_available'
p35
I01
sS'cover_art_url'
p36
S'http://www.gutenberg.org/cache/epub/32696/pg32696.cover.medium.jpg'
p37
sS'goodreads'
p38
(dp39
S'url'
p40
Vhttps://www.goodreads.com/book/show/10567723-planet-of-the-gods
p41
sg32
I01
sS'year'
p42
I2010
ssS'similar_books'
p43
(lp44
sS'description'
p45
NsS'gutenberg'
p46
(dp47
g40
Vhttp://www.gutenberg.org/ebooks/32696
p48
sS'num'
p49
I32696
ssS'authors'
p50
(lp51
I135
asS'isbn13'
p52
NsS'language'
p53
VEnglish
p54
sS'countries'
p55
(lp56
I2
asS'release_date'
p57
S'2010-06-05T00:00:00'
p58
sS'author'
p59
I135
sS'cover'
p60
Vhttps://s.gr-assets.com/assets/nophoto/book/111x148-bcc042a9c91a29c1d680899eff700a03.png
p61
sS'content_cleaned'
p62
I01
sS'classes'
p63
(lp64
Vto-read
p65
aVscience-fiction
p66
aVpulp
p67
aVaudiobooks-to-read
p68
aVhave-but-not-read
p69
aV21st-century-lit
p70
aVcurrently-reading
p71
aVaudiobooks
p72
aVfeedbooks-com
p73
aV3-ebooks
p74
aVsci-fi
p75
aVclassic-sci-fi
p76
aV3a-ebooks
p77
asS'loc_class'
p78
VPS: Language and Literatures: American and Canadian literature
p79
sS'n_authors'
p80
I1
sb.