ccopy_reg
_reconstructor
p0
(cdataset.Book
Book
p1
c__builtin__
object
p2
Ntp3
Rp4
(dp5
S'content_name'
p6
V29475.txt.utf-8
p7
sS'isbn'
p8
NsS'year'
p9
I1933
sS'author_name'
p10
VHarry Bates
p11
sS'images_urls'
p12
(lp13
Vhttp://www.gutenberg.org/files/29475/29475-h/images/image_001.jpg
p14
aVhttp://www.gutenberg.org/files/29475/29475-h/images/image_002_01.jpg
p15
aVhttp://www.gutenberg.org/files/29475/29475-h/images/image_002_02.jpg
p16
asS'language_code'
p17
NsS'id'
p18
I366
sS'category'
p19
VText
p20
sS'genres'
p21
(lp22
sS'copyright'
p23
VPublic domain in the USA.
p24
sS'title'
p25
VUnder Arctic Ice
p26
sS'wikipedia'
p27
(dp28
S'found'
p29
I00
ssS'average_rating'
p30
F3.5
sS'rating_count'
p31
I2
sS'content_available'
p32
I01
sS'goodreads'
p33
(dp34
S'url'
p35
Vhttps://www.goodreads.com/book/show/6672453-under-arctic-ice
p36
sS'found'
p37
I01
sS'year'
p38
I2009
ssS'similar_books'
p39
(lp40
sS'description'
p41
NsS'format'
p42
NsS'gutenberg'
p43
(dp44
g35
Vhttp://www.gutenberg.org/ebooks/29475
p45
sS'num'
p46
I29475
ssS'authors'
p47
(lp48
I120
asS'isbn13'
p49
NsS'language'
p50
VEnglish
p51
sS'countries'
p52
(lp53
I2
asS'release_date'
p54
S'2009-07-21T00:00:00'
p55
sS'author'
p56
I120
sS'content_cleaned'
p57
I01
sS'classes'
p58
(lp59
Vto-read
p60
aVcurrently-reading
p61
aVjunk
p62
aVunread
p63
aVmust-reread-for-review
p64
aVe-book
p65
aVebooks
p66
aV13
p67
aVavailable-on-website
p68
aVwaiting-to-read
p69
aVscience-fiction
p70
asS'loc_class'
p71
VPS: Language and Literatures: American and Canadian literature
p72
sS'n_authors'
p73
I1
sb.