ccopy_reg
_reconstructor
p0
(cdataset.Book
Book
p1
c__builtin__
object
p2
Ntp3
Rp4
(dp5
S'content_name'
p6
V27019.txt.utf-8
p7
sS'isbn'
p8
V1490536728
p9
sS'year'
p10
I1956
sS'author_name'
p11
VStephen Marlowe
p12
sS'images_urls'
p13
(lp14
Vhttp://www.gutenberg.org/files/27019/27019-h/images/001.png
p15
aVhttp://www.gutenberg.org/files/27019/27019-page-images/c0001-image1.png
p16
aVhttp://www.gutenberg.org/files/27019/27019-page-images/f0001.png
p17
aVhttp://www.gutenberg.org/files/27019/27019-page-images/f0002.png
p18
aVhttp://www.gutenberg.org/files/27019/27019-page-images/f0003.png
p19
aVhttp://www.gutenberg.org/files/27019/27019-page-images/f0005.png
p20
aVhttp://www.gutenberg.org/files/27019/27019-page-images/p0001.png
p21
aVhttp://www.gutenberg.org/files/27019/27019-page-images/p0003.png
p22
aVhttp://www.gutenberg.org/files/27019/27019-page-images/p0004.png
p23
aVhttp://www.gutenberg.org/files/27019/27019-page-images/p0005.png
p24
aVhttp://www.gutenberg.org/files/27019/27019-page-images/p0006.png
p25
aVhttp://www.gutenberg.org/files/27019/27019-page-images/p0007.png
p26
aVhttp://www.gutenberg.org/files/27019/27019-page-images/p0008.png
p27
aVhttp://www.gutenberg.org/files/27019/27019-page-images/p0009.png
p28
aVhttp://www.gutenberg.org/files/27019/27019-page-images/p0010.png
p29
aVhttp://www.gutenberg.org/files/27019/27019-page-images/p0011.png
p30
aVhttp://www.gutenberg.org/files/27019/27019-page-images/p0012.png
p31
aVhttp://www.gutenberg.org/files/27019/27019-page-images/p0013.png
p32
aVhttp://www.gutenberg.org/files/27019/27019-page-images/p0014.png
p33
aVhttp://www.gutenberg.org/files/27019/27019-page-images/p0015.png
p34
aVhttp://www.gutenberg.org/files/27019/27019-page-images/p0016.png
p35
aVhttp://www.gutenberg.org/files/27019/27019-page-images/p0017.png
p36
aVhttp://www.gutenberg.org/files/27019/27019-page-images/p0018.png
p37
aVhttp://www.gutenberg.org/files/27019/27019-page-images/p0019.png
p38
aVhttp://www.gutenberg.org/files/27019/27019-page-images/p0020.png
p39
aVhttp://www.gutenberg.org/files/27019/27019-page-images/p0021.png
p40
aVhttp://www.gutenberg.org/files/27019/27019-page-images/p0022.png
p41
aVhttp://www.gutenberg.org/files/27019/27019-page-images/p0023.png
p42
aVhttp://www.gutenberg.org/files/27019/27019-page-images/p0024.png
p43
aVhttp://www.gutenberg.org/files/27019/27019-page-images/p0025.png
p44
aVhttp://www.gutenberg.org/files/27019/27019-page-images/p0026.png
p45
aVhttp://www.gutenberg.org/files/27019/27019-page-images/p0027.png
p46
aVhttp://www.gutenberg.org/files/27019/27019-page-images/p0028.png
p47
aVhttp://www.gutenberg.org/files/27019/27019-page-images/p0029.png
p48
aVhttp://www.gutenberg.org/files/27019/27019-page-images/p0030.png
p49
aVhttp://www.gutenberg.org/files/27019/27019-page-images/p0031.png
p50
aVhttp://www.gutenberg.org/files/27019/27019-page-images/p0033.png
p51
aVhttp://www.gutenberg.org/files/27019/27019-page-images/p0034.png
p52
aVhttp://www.gutenberg.org/files/27019/27019-page-images/p0035.png
p53
aVhttp://www.gutenberg.org/files/27019/27019-page-images/p0036.png
p54
aVhttp://www.gutenberg.org/files/27019/27019-page-images/p0037.png
p55
aVhttp://www.gutenberg.org/files/27019/27019-page-images/p0038.png
p56
aVhttp://www.gutenberg.org/files/27019/27019-page-images/p0039.png
p57
aVhttp://www.gutenberg.org/files/27019/27019-page-images/p0040.png
p58
aVhttp://www.gutenberg.org/files/27019/27019-page-images/p0041.png
p59
aVhttp://www.gutenberg.org/files/27019/27019-page-images/p0042.png
p60
aVhttp://www.gutenberg.org/files/27019/27019-page-images/p0043.png
p61
aVhttp://www.gutenberg.org/files/27019/27019-page-images/p0044.png
p62
aVhttp://www.gutenberg.org/files/27019/27019-page-images/p0045.png
p63
aVhttp://www.gutenberg.org/files/27019/27019-page-images/p0046.png
p64
aVhttp://www.gutenberg.org/files/27019/27019-page-images/p0047.png
p65
aVhttp://www.gutenberg.org/files/27019/27019-page-images/p0048.png
p66
aVhttp://www.gutenberg.org/files/27019/27019-page-images/p0049.png
p67
aVhttp://www.gutenberg.org/files/27019/27019-page-images/p0050.png
p68
aVhttp://www.gutenberg.org/files/27019/27019-page-images/p0051.png
p69
aVhttp://www.gutenberg.org/files/27019/27019-page-images/p0052.png
p70
aVhttp://www.gutenberg.org/files/27019/27019-page-images/p0053.png
p71
aVhttp://www.gutenberg.org/files/27019/27019-page-images/p0055.png
p72
aVhttp://www.gutenberg.org/files/27019/27019-page-images/p0056.png
p73
aVhttp://www.gutenberg.org/files/27019/27019-page-images/p0057.png
p74
aVhttp://www.gutenberg.org/files/27019/27019-page-images/p0058.png
p75
aVhttp://www.gutenberg.org/files/27019/27019-page-images/p0059.png
p76
aVhttp://www.gutenberg.org/files/27019/27019-page-images/p0060.png
p77
aVhttp://www.gutenberg.org/files/27019/27019-page-images/p0061.png
p78
aVhttp://www.gutenberg.org/files/27019/27019-page-images/p0062.png
p79
aVhttp://www.gutenberg.org/files/27019/27019-page-images/p0063.png
p80
aVhttp://www.gutenberg.org/files/27019/27019-page-images/p0064.png
p81
aVhttp://www.gutenberg.org/files/27019/27019-page-images/p0065.png
p82
aVhttp://www.gutenberg.org/files/27019/27019-page-images/p0066.png
p83
aVhttp://www.gutenberg.org/files/27019/27019-page-images/p0067.png
p84
aVhttp://www.gutenberg.org/files/27019/27019-page-images/p0068.png
p85
aVhttp://www.gutenberg.org/files/27019/27019-page-images/p0069.png
p86
aVhttp://www.gutenberg.org/files/27019/27019-page-images/p0070.png
p87
aVhttp://www.gutenberg.org/files/27019/27019-page-images/p0071.png
p88
aVhttp://www.gutenberg.org/files/27019/27019-page-images/p0072.png
p89
aVhttp://www.gutenberg.org/files/27019/27019-page-images/p0073.png
p90
aVhttp://www.gutenberg.org/files/27019/27019-page-images/p0074.png
p91
aVhttp://www.gutenberg.org/files/27019/27019-page-images/p0075.png
p92
aVhttp://www.gutenberg.org/files/27019/27019-page-images/p0077.png
p93
aVhttp://www.gutenberg.org/files/27019/27019-page-images/p0078.png
p94
aVhttp://www.gutenberg.org/files/27019/27019-page-images/p0079.png
p95
aVhttp://www.gutenberg.org/files/27019/27019-page-images/p0080.png
p96
aVhttp://www.gutenberg.org/files/27019/27019-page-images/p0081.png
p97
aVhttp://www.gutenberg.org/files/27019/27019-page-images/p0082.png
p98
aVhttp://www.gutenberg.org/files/27019/27019-page-images/p0083.png
p99
aVhttp://www.gutenberg.org/files/27019/27019-page-images/p0084-image1.png
p100
aVhttp://www.gutenberg.org/files/27019/27019-page-images/p0084.png
p101
aVhttp://www.gutenberg.org/files/27019/27019-page-images/p0085-image1.png
p102
aVhttp://www.gutenberg.org/files/27019/27019-page-images/p0085.png
p103
aVhttp://www.gutenberg.org/files/27019/27019-page-images/p0086.png
p104
aVhttp://www.gutenberg.org/files/27019/27019-page-images/p0087.png
p105
aVhttp://www.gutenberg.org/files/27019/27019-page-images/p0088.png
p106
aVhttp://www.gutenberg.org/files/27019/27019-page-images/p0089.png
p107
aVhttp://www.gutenberg.org/files/27019/27019-page-images/p0090.png
p108
aVhttp://www.gutenberg.org/files/27019/27019-page-images/p0091.png
p109
aVhttp://www.gutenberg.org/files/27019/27019-page-images/p0092.png
p110
aVhttp://www.gutenberg.org/files/27019/27019-page-images/p0093.png
p111
aVhttp://www.gutenberg.org/files/27019/27019-page-images/p0094.png
p112
aVhttp://www.gutenberg.org/files/27019/27019-page-images/p0095.png
p113
aVhttp://www.gutenberg.org/files/27019/27019-page-images/p0096.png
p114
aVhttp://www.gutenberg.org/files/27019/27019-page-images/p0097.png
p115
aVhttp://www.gutenberg.org/files/27019/27019-page-images/p0098.png
p116
aVhttp://www.gutenberg.org/files/27019/27019-page-images/p0099.png
p117
aVhttp://www.gutenberg.org/files/27019/27019-page-images/p0100.png
p118
aVhttp://www.gutenberg.org/files/27019/27019-page-images/p0101.png
p119
aVhttp://www.gutenberg.org/files/27019/27019-page-images/p0102.png
p120
aVhttp://www.gutenberg.org/files/27019/27019-page-images/p0103.png
p121
aVhttp://www.gutenberg.org/files/27019/27019-page-images/p0104.png
p122
aVhttp://www.gutenberg.org/files/27019/27019-page-images/p0105.png
p123
aVhttp://www.gutenberg.org/files/27019/27019-page-images/p0106.png
p124
aVhttp://www.gutenberg.org/files/27019/27019-page-images/p0107.png
p125
aVhttp://www.gutenberg.org/files/27019/27019-page-images/p0108.png
p126
aVhttp://www.gutenberg.org/files/27019/27019-page-images/p0109.png
p127
aVhttp://www.gutenberg.org/files/27019/27019-page-images/p0110.png
p128
aVhttp://www.gutenberg.org/files/27019/27019-page-images/p0111.png
p129
aVhttp://www.gutenberg.org/files/27019/27019-page-images/p0112.png
p130
aVhttp://www.gutenberg.org/files/27019/27019-page-images/p0113.png
p131
aVhttp://www.gutenberg.org/files/27019/27019-page-images/p0114.png
p132
aVhttp://www.gutenberg.org/files/27019/27019-page-images/p0115.png
p133
aVhttp://www.gutenberg.org/files/27019/27019-page-images/p0116.png
p134
aVhttp://www.gutenberg.org/files/27019/27019-page-images/p0117.png
p135
aVhttp://www.gutenberg.org/files/27019/27019-page-images/p0118.png
p136
aVhttp://www.gutenberg.org/files/27019/27019-page-images/p0119.png
p137
aVhttp://www.gutenberg.org/files/27019/27019-page-images/p0120.png
p138
aVhttp://www.gutenberg.org/files/27019/27019-page-images/p0121.png
p139
aVhttp://www.gutenberg.org/files/27019/27019-page-images/p0122.png
p140
aVhttp://www.gutenberg.org/files/27019/27019-page-images/p0123.png
p141
aVhttp://www.gutenberg.org/files/27019/27019-page-images/p0124.png
p142
aVhttp://www.gutenberg.org/files/27019/27019-page-images/p0125.png
p143
aVhttp://www.gutenberg.org/files/27019/27019-page-images/p0126.png
p144
aVhttp://www.gutenberg.org/files/27019/27019-page-images/p0127.png
p145
aVhttp://www.gutenberg.org/files/27019/27019-page-images/p0129.png
p146
aVhttp://www.gutenberg.org/files/27019/27019-page-images/p0131.png
p147
aVhttp://www.gutenberg.org/files/27019/27019-page-images/p0132.png
p148
aVhttp://www.gutenberg.org/files/27019/27019-page-images/p0133.png
p149
aVhttp://www.gutenberg.org/files/27019/27019-page-images/p0134.png
p150
aVhttp://www.gutenberg.org/files/27019/27019-page-images/p0135.png
p151
aVhttp://www.gutenberg.org/files/27019/27019-page-images/p0136.png
p152
aVhttp://www.gutenberg.org/files/27019/27019-page-images/p0137.png
p153
aVhttp://www.gutenberg.org/files/27019/27019-page-images/p0138.png
p154
aVhttp://www.gutenberg.org/files/27019/27019-page-images/p0139.png
p155
aVhttp://www.gutenberg.org/files/27019/27019-page-images/p0140.png
p156
aVhttp://www.gutenberg.org/files/27019/27019-page-images/p0141.png
p157
aVhttp://www.gutenberg.org/files/27019/27019-page-images/p0142.png
p158
aVhttp://www.gutenberg.org/files/27019/27019-page-images/p0143.png
p159
aVhttp://www.gutenberg.org/files/27019/27019-page-images/p0144.png
p160
aVhttp://www.gutenberg.org/files/27019/27019-page-images/p0145.png
p161
aVhttp://www.gutenberg.org/files/27019/27019-page-images/p0146.png
p162
aVhttp://www.gutenberg.org/files/27019/27019-page-images/p0147.png
p163
aVhttp://www.gutenberg.org/files/27019/27019-page-images/p0148.png
p164
aVhttp://www.gutenberg.org/files/27019/27019-page-images/p0149.png
p165
aVhttp://www.gutenberg.org/files/27019/27019-page-images/p0150.png
p166
aVhttp://www.gutenberg.org/files/27019/27019-page-images/p0151.png
p167
aVhttp://www.gutenberg.org/files/27019/27019-page-images/p0152.png
p168
aVhttp://www.gutenberg.org/files/27019/27019-page-images/p0153.png
p169
aVhttp://www.gutenberg.org/files/27019/27019-page-images/p0154.png
p170
aVhttp://www.gutenberg.org/files/27019/27019-page-images/p0155.png
p171
aVhttp://www.gutenberg.org/files/27019/27019-page-images/p0157.png
p172
aVhttp://www.gutenberg.org/files/27019/27019-page-images/p0158.png
p173
aVhttp://www.gutenberg.org/files/27019/27019-page-images/p0159.png
p174
aVhttp://www.gutenberg.org/files/27019/27019-page-images/p0160.png
p175
aVhttp://www.gutenberg.org/files/27019/27019-page-images/p0161.png
p176
aVhttp://www.gutenberg.org/files/27019/27019-page-images/p0162.png
p177
aVhttp://www.gutenberg.org/files/27019/27019-page-images/p0163.png
p178
aVhttp://www.gutenberg.org/files/27019/27019-page-images/p0164.png
p179
aVhttp://www.gutenberg.org/files/27019/27019-page-images/p0165.png
p180
aVhttp://www.gutenberg.org/files/27019/27019-page-images/p0166.png
p181
aVhttp://www.gutenberg.org/files/27019/27019-page-images/p0167.png
p182
aVhttp://www.gutenberg.org/files/27019/27019-page-images/p0168.png
p183
aVhttp://www.gutenberg.org/files/27019/27019-page-images/p0169.png
p184
aVhttp://www.gutenberg.org/files/27019/27019-page-images/p0170.png
p185
aVhttp://www.gutenberg.org/files/27019/27019-page-images/p0171.png
p186
aVhttp://www.gutenberg.org/files/27019/27019-page-images/p0172.png
p187
aVhttp://www.gutenberg.org/files/27019/27019-page-images/p0173.png
p188
aVhttp://www.gutenberg.org/files/27019/27019-page-images/p0174.png
p189
aVhttp://www.gutenberg.org/files/27019/27019-page-images/p0175.png
p190
aVhttp://www.gutenberg.org/files/27019/27019-page-images/p0176.png
p191
aVhttp://www.gutenberg.org/files/27019/27019-page-images/p0177.png
p192
aVhttp://www.gutenberg.org/files/27019/27019-page-images/p0178.png
p193
aVhttp://www.gutenberg.org/files/27019/27019-page-images/p0179.png
p194
aVhttp://www.gutenberg.org/files/27019/27019-page-images/p0180.png
p195
aVhttp://www.gutenberg.org/files/27019/27019-page-images/p0181.png
p196
aVhttp://www.gutenberg.org/files/27019/27019-page-images/p0182.png
p197
aVhttp://www.gutenberg.org/files/27019/27019-page-images/p0183.png
p198
aVhttp://www.gutenberg.org/files/27019/27019-page-images/p0184.png
p199
aVhttp://www.gutenberg.org/files/27019/27019-page-images/p0185.png
p200
aVhttp://www.gutenberg.org/files/27019/27019-page-images/p0187.png
p201
aVhttp://www.gutenberg.org/files/27019/27019-page-images/p0188.png
p202
aVhttp://www.gutenberg.org/files/27019/27019-page-images/p0189.png
p203
aVhttp://www.gutenberg.org/files/27019/27019-page-images/p0190.png
p204
aVhttp://www.gutenberg.org/files/27019/27019-page-images/p0191.png
p205
aVhttp://www.gutenberg.org/files/27019/27019-page-images/p0192.png
p206
aVhttp://www.gutenberg.org/files/27019/27019-page-images/p0193.png
p207
aVhttp://www.gutenberg.org/files/27019/27019-page-images/p0194.png
p208
aVhttp://www.gutenberg.org/files/27019/27019-page-images/p0195.png
p209
aVhttp://www.gutenberg.org/files/27019/27019-page-images/p0196.png
p210
aVhttp://www.gutenberg.org/files/27019/27019-page-images/p0197.png
p211
aVhttp://www.gutenberg.org/files/27019/27019-page-images/p0198.png
p212
aVhttp://www.gutenberg.org/files/27019/27019-page-images/p0199.png
p213
aVhttp://www.gutenberg.org/files/27019/27019-page-images/p0200.png
p214
aVhttp://www.gutenberg.org/files/27019/27019-page-images/p0201.png
p215
aVhttp://www.gutenberg.org/files/27019/27019-page-images/p0202.png
p216
aVhttp://www.gutenberg.org/files/27019/27019-page-images/p0203.png
p217
aVhttp://www.gutenberg.org/files/27019/27019-page-images/p0204.png
p218
aVhttp://www.gutenberg.org/files/27019/27019-page-images/p0205.png
p219
aVhttp://www.gutenberg.org/files/27019/27019-page-images/p0206.png
p220
aVhttp://www.gutenberg.org/files/27019/27019-page-images/p0207.png
p221
aVhttp://www.gutenberg.org/files/27019/27019-page-images/p0208.png
p222
aVhttp://www.gutenberg.org/files/27019/27019-page-images/p0209.png
p223
aVhttp://www.gutenberg.org/files/27019/27019-page-images/p0210.png
p224
aVhttp://www.gutenberg.org/files/27019/27019-page-images/p0211.png
p225
aVhttp://www.gutenberg.org/files/27019/27019-page-images/p0213.png
p226
aVhttp://www.gutenberg.org/files/27019/27019-page-images/p0214.png
p227
aVhttp://www.gutenberg.org/files/27019/27019-page-images/p0215.png
p228
aVhttp://www.gutenberg.org/files/27019/27019-page-images/p0216.png
p229
aVhttp://www.gutenberg.org/files/27019/27019-page-images/p0217.png
p230
aVhttp://www.gutenberg.org/files/27019/27019-page-images/p0218.png
p231
aVhttp://www.gutenberg.org/files/27019/27019-page-images/p0219.png
p232
aVhttp://www.gutenberg.org/files/27019/27019-page-images/p0220.png
p233
aVhttp://www.gutenberg.org/files/27019/27019-page-images/p0221.png
p234
aVhttp://www.gutenberg.org/files/27019/27019-page-images/p0222.png
p235
aVhttp://www.gutenberg.org/files/27019/27019-page-images/p0223.png
p236
aVhttp://www.gutenberg.org/files/27019/27019-page-images/p0224.png
p237
aVhttp://www.gutenberg.org/files/27019/27019-page-images/p0225.png
p238
aVhttp://www.gutenberg.org/files/27019/27019-page-images/p0226.png
p239
aVhttp://www.gutenberg.org/files/27019/27019-page-images/p0227.png
p240
aVhttp://www.gutenberg.org/files/27019/27019-page-images/p0228.png
p241
aVhttp://www.gutenberg.org/files/27019/27019-page-images/p0229.png
p242
aVhttp://www.gutenberg.org/files/27019/27019-page-images/p0230.png
p243
aVhttp://www.gutenberg.org/files/27019/27019-page-images/p0231.png
p244
aVhttp://www.gutenberg.org/files/27019/27019-page-images/p0232.png
p245
aVhttp://www.gutenberg.org/files/27019/27019-page-images/p0233.png
p246
aVhttp://www.gutenberg.org/files/27019/27019-page-images/p0234.png
p247
aVhttp://www.gutenberg.org/files/27019/27019-page-images/p0235.png
p248
aVhttp://www.gutenberg.org/files/27019/27019-page-images/p0236.png
p249
aVhttp://www.gutenberg.org/files/27019/27019-page-images/p0237.png
p250
aVhttp://www.gutenberg.org/files/27019/27019-page-images/p0238.png
p251
aVhttp://www.gutenberg.org/files/27019/27019-page-images/p0239.png
p252
aVhttp://www.gutenberg.org/files/27019/27019-page-images/p0240.png
p253
aVhttp://www.gutenberg.org/files/27019/27019-page-images/p0241.png
p254
aVhttp://www.gutenberg.org/files/27019/27019-page-images/p0243.png
p255
aVhttp://www.gutenberg.org/files/27019/27019-page-images/p0245.png
p256
aVhttp://www.gutenberg.org/files/27019/27019-page-images/p0246.png
p257
aVhttp://www.gutenberg.org/files/27019/27019-page-images/p0247.png
p258
aVhttp://www.gutenberg.org/files/27019/27019-page-images/p0248.png
p259
aVhttp://www.gutenberg.org/files/27019/27019-page-images/p0249.png
p260
aVhttp://www.gutenberg.org/files/27019/27019-page-images/p0250.png
p261
aVhttp://www.gutenberg.org/files/27019/27019-page-images/p0251.png
p262
aVhttp://www.gutenberg.org/files/27019/27019-page-images/p0252.png
p263
aVhttp://www.gutenberg.org/files/27019/27019-page-images/p0253.png
p264
aVhttp://www.gutenberg.org/files/27019/27019-page-images/p0254.png
p265
aVhttp://www.gutenberg.org/files/27019/27019-page-images/p0255.png
p266
aVhttp://www.gutenberg.org/files/27019/27019-page-images/p0256.png
p267
aVhttp://www.gutenberg.org/files/27019/27019-page-images/p0257.png
p268
aVhttp://www.gutenberg.org/files/27019/27019-page-images/p0258.png
p269
aVhttp://www.gutenberg.org/files/27019/27019-page-images/p0259.png
p270
aVhttp://www.gutenberg.org/files/27019/27019-page-images/p0260.png
p271
aVhttp://www.gutenberg.org/files/27019/27019-page-images/p0261.png
p272
aVhttp://www.gutenberg.org/files/27019/27019-page-images/p0262.png
p273
aVhttp://www.gutenberg.org/files/27019/27019-page-images/p0263.png
p274
aVhttp://www.gutenberg.org/files/27019/27019-page-images/p0264.png
p275
aVhttp://www.gutenberg.org/files/27019/27019-page-images/p0265.png
p276
aVhttp://www.gutenberg.org/files/27019/27019-page-images/p0266.png
p277
aVhttp://www.gutenberg.org/files/27019/27019-page-images/p0267.png
p278
aVhttp://www.gutenberg.org/files/27019/27019-page-images/p0268.png
p279
aVhttp://www.gutenberg.org/files/27019/27019-page-images/p0269.png
p280
aVhttp://www.gutenberg.org/files/27019/27019-page-images/p0270.png
p281
aVhttp://www.gutenberg.org/files/27019/27019-page-images/p0271.png
p282
aVhttp://www.gutenberg.org/files/27019/27019-page-images/p0272.png
p283
aVhttp://www.gutenberg.org/files/27019/27019-page-images/p0273.png
p284
aVhttp://www.gutenberg.org/files/27019/27019-page-images/p0274.png
p285
aVhttp://www.gutenberg.org/files/27019/27019-page-images/p0275.png
p286
aVhttp://www.gutenberg.org/files/27019/27019-page-images/p0277.png
p287
aVhttp://www.gutenberg.org/files/27019/27019-page-images/p0279.png
p288
aVhttp://www.gutenberg.org/files/27019/27019-page-images/p0280.png
p289
aVhttp://www.gutenberg.org/files/27019/27019-page-images/p0281.png
p290
aVhttp://www.gutenberg.org/files/27019/27019-page-images/p0282.png
p291
aVhttp://www.gutenberg.org/files/27019/27019-page-images/p0283.png
p292
aVhttp://www.gutenberg.org/files/27019/27019-page-images/p0284.png
p293
aVhttp://www.gutenberg.org/files/27019/27019-page-images/p0285.png
p294
aVhttp://www.gutenberg.org/files/27019/27019-page-images/p0286.png
p295
aVhttp://www.gutenberg.org/files/27019/27019-page-images/p0287.png
p296
aVhttp://www.gutenberg.org/files/27019/27019-page-images/p0288.png
p297
aVhttp://www.gutenberg.org/files/27019/27019-page-images/p0289.png
p298
aVhttp://www.gutenberg.org/files/27019/27019-page-images/p0290.png
p299
aVhttp://www.gutenberg.org/files/27019/27019-page-images/p0291.png
p300
aVhttp://www.gutenberg.org/files/27019/27019-page-images/p0292.png
p301
aVhttp://www.gutenberg.org/files/27019/27019-page-images/p0293.png
p302
aVhttp://www.gutenberg.org/files/27019/27019-page-images/p0294.png
p303
aVhttp://www.gutenberg.org/files/27019/27019-page-images/p0295.png
p304
aVhttp://www.gutenberg.org/files/27019/27019-page-images/p0296.png
p305
aVhttp://www.gutenberg.org/files/27019/27019-page-images/p0297.png
p306
aVhttp://www.gutenberg.org/files/27019/27019-page-images/p0298.png
p307
aVhttp://www.gutenberg.org/files/27019/27019-page-images/p0299.png
p308
aVhttp://www.gutenberg.org/files/27019/27019-page-images/p0300.png
p309
aVhttp://www.gutenberg.org/files/27019/27019-page-images/q0001.png
p310
aVhttp://www.gutenberg.org/files/27019/27019-page-images/q0002.png
p311
aVhttp://www.gutenberg.org/files/27019/27019-page-images/q0003.png
p312
aVhttp://www.gutenberg.org/files/27019/27019-page-images/q0004.png
p313
asS'language_code'
p314
NsS'images'
p315
(lp316
sS'id'
p317
I608
sS'category'
p318
VText
p319
sS'genres'
p320
(lp321
sS'copyright'
p322
VPublic domain in the USA.
p323
sS'title'
p324
VMy Shipmate\u2014Columbus
p325
sS'wikipedia'
p326
(dp327
S'found'
p328
I00
ssS'average_rating'
p329
F3.0
sS'rating_count'
p330
I1
sS'content_available'
p331
I01
sS'goodreads'
p332
(dp333
S'url'
p334
S'https://www.goodreads.com/book/show/20462927-my-shipmate---columbus'
p335
sS'found'
p336
I01
ssS'similar_books'
p337
(lp338
sS'description'
p339
VThe laughter brought spots of color to his cheeks. He stood there for a while, taking it, and then decided he had had enough and would sit down. A whisper of amusement still stirred the room as he returned to his seat and the professor said, "But just a moment, Mr. Jones. Won't you tell the class what makes you think Columbus was not the 'bold skipper' the history books say he was. After all, Mr. Jones, this is a history class. If you know more or better history than the history books do, isn't it your duty to tell us?"
p340
sS'gutenberg'
p341
(dp342
S'url'
p343
Vhttp://www.gutenberg.org/ebooks/27019
p344
sS'num'
p345
I27019
ssS'authors'
p346
(lp347
I79
asS'pages'
p348
I26
sS'isbn13'
p349
V9781490536729
p350
sS'language'
p351
VEnglish
p352
sS'countries'
p353
(lp354
I2
asS'release_date'
p355
S'2008-10-24T00:00:00'
p356
sS'author'
p357
I79
sS'cover'
p358
Vhttps://s.gr-assets.com/assets/nophoto/book/111x148-bcc042a9c91a29c1d680899eff700a03.png
p359
sS'content_cleaned'
p360
I01
sS'classes'
p361
(lp362
sS'loc_class'
p363
VPS: Language and Literatures: American and Canadian literature
p364
sS'n_authors'
p365
I1
sb.