ccopy_reg
_reconstructor
p0
(cdataset.Book
Book
p1
c__builtin__
object
p2
Ntp3
Rp4
(dp5
S'content_name'
p6
V24035.txt.utf-8
p7
sS'isbn'
p8
NsS'year'
p9
I1959
sS'author_name'
p10
VMurray Leinster
p11
sS'images_urls'
p12
(lp13
Vhttp://www.gutenberg.org/files/24035/24035-h/images/cover.jpg
p14
aVhttp://www.gutenberg.org/files/24035/24035-h/images/image-4.png
p15
aVhttp://www.gutenberg.org/files/24035/24035-h/images/image-5.png
p16
aVhttp://www.gutenberg.org/files/24035/24035-h/images/image-6.png
p17
aVhttp://www.gutenberg.org/files/24035/24035-h/images/image-7.png
p18
aVhttp://www.gutenberg.org/files/24035/24035-h/images/image-8.png
p19
aVhttp://www.gutenberg.org/files/24035/24035-h/images/image-9.png
p20
aVhttp://www.gutenberg.org/files/24035/24035-h/images/image-10.png
p21
aVhttp://www.gutenberg.org/files/24035/24035-h/images/image-11.png
p22
aVhttp://www.gutenberg.org/files/24035/24035-h/images/image-12.png
p23
aVhttp://www.gutenberg.org/files/24035/24035-h/images/image-13.png
p24
aVhttp://www.gutenberg.org/files/24035/24035-h/images/image-14.png
p25
aVhttp://www.gutenberg.org/files/24035/24035-h/images/image-15.png
p26
aVhttp://www.gutenberg.org/files/24035/24035-h/images/title.png
p27
asS'language_code'
p28
Veng
p29
sS'images'
p30
(lp31
Vhttps://upload.wikimedia.org/wikipedia/en/c/cc/The_Pirates_of_Zan.jpg
p32
asS'id'
p33
I179
sS'category'
p34
VText
p35
sS'plot'
p36
NsS'genres'
p37
(lp38
sS'copyright'
p39
VPublic domain in the USA.
p40
sS'title'
p41
VThe Pirates of Ersatz
p42
sS'wikipedia'
p43
(dp44
S'url'
p45
S'https://en.wikipedia.org/wiki/The_Pirates_of_Zan'
p46
sS'found'
p47
I01
sS'year'
p48
I-1
ssS'published_in'
p49
NsS'average_rating'
p50
F3.63
sS'rating_count'
p51
I84
sS'publisher_in'
p52
NsS'content_available'
p53
I01
sS'cover_art_url'
p54
S'http://www.gutenberg.org/cache/epub/24035/pg24035.cover.medium.jpg'
p55
sS'goodreads'
p56
(dp57
g45
Vhttps://www.goodreads.com/book/show/358766.The_Pirates_of_Ersatz
p58
sg47
I01
sg48
I1959
ssS'similar_books'
p59
(lp60
VThe Whole Man
p61
aVThe Enemy Stars
p62
aVThe Planet Buyer
p63
aVBrain Twister
p64
aVDay of the Minotaur
p65
aVWho?
p66
aVDavy
p67
aVThe Butterfly Kid
p68
aVDark Universe
p69
aVImmortality, Inc.
p70
aVStar Light
p71
aVPlanet of the Damned
p72
aVThorns
p73
aVThe Ragged Astronauts (Land and Overland Series, #1)
p74
aVTime Is the Simplest Thing
p75
aVPast Master
p76
aVVenus Plus X
p77
aVCourtship Rite
p78
asS'description'
p79
VBron is the offspring of infamous space pirates but instead of following in the family footsteps he decides to become an electronic engineer. Unfortunately, every time he tries to get out, something pulls him back in. This is a tongue-in-cheek space adventure along the lines of the Stainless Steel Rat by Harry Harrison. It was originally published in the FEB-APR issues of Astounding Science Fiction in 1959. <br />(Read by Elliott Miller)<br /><br />Approx. 6.25 hours
p80
sS'gutenberg'
p81
(dp82
g45
Vhttp://www.gutenberg.org/ebooks/24035
p83
sS'num'
p84
I24035
ssS'authors'
p85
(lp86
I61
asS'publisher'
p87
NsS'isbn13'
p88
NsS'language'
p89
VEnglish
p90
sS'countries'
p91
(lp92
I2
asS'release_date'
p93
S'2007-12-26T00:00:00'
p94
sS'author'
p95
I61
sS'original_title'
p96
VThe Pirates of Zan
p97
sS'summary'
p98
VThe Pirates of Zan is a science fiction novel by Murray Leinster, originally serialized in Astounding Science Fiction in 1959 as "The Pirates of Ersatz". It was nominated for the 1960 Hugo Award for Best Novel. It first appeared in book form in 1959 as one component of an Ace Double, bound with Leinster's The Mutant Weapon; this edition was reissued in 1971. A German translation was issued in hardcover in 1962, an Italian translation appeared in 1968, and a Dutch translation was published in 1972. Bart Books published a stand-alone American paperback edition in 1989. and Baen Books included Pirates in a Leinster omnibus, A Logic Named Joe, in 2005.
p99
sS'content_cleaned'
p100
I01
sS'classes'
p101
(lp102
Vto-read
p103
aVscience-fiction
p104
aVsci-fi
p105
aVsf
p106
aVfiction
p107
aVscifi
p108
aVadventure
p109
aVpirates
p110
aVowned
p111
aVhugo-nominees
p112
aVhugo-award
p113
aVcurrently-reading
p114
aVto-read-sf
p115
aVaudiobooks
p116
aVhugo-award-nominees
p117
aVscience-fiction-fantasy
p118
aVfavorites
p119
aVlibrary
p120
aVfantasy-sf
p121
aVhugo-nominee
p122
aVnot-read
p123
aVhugo-award-nominee
p124
aVabandoned
p125
aV00-to-read-01
p126
aVridderhof-sf
p127
aVfantasy-scifi
p128
aV20th-century-lit
p129
aVshelf-l-authors
p130
aVgenre-syfi-fan-horr
p131
aVmurray-leinster-science-fiction-au
p132
aVebooks
p133
aVsff-to-read
p134
aVkindle-bookshelf
p135
aVspec-fic-sci-fi-space-opera
p136
aVspec-fic-sci-fi-planetary-romance
p137
aVhugo-nebula-plus-nominations
p138
aVto-read-sci-fi
p139
aVhumor
p140
aV02sftr
p141
aVdone
p142
aVhugo-nebula-nominees
p143
aVargonauta
p144
aVpg
p145
aVaward-winning-or-nominated
p146
aVmight-read
p147
aVhugo-nominee-1960
p148
aVrecommended-reading
p149
aVfeatured
p150
aVscience-fiction-space-opera
p151
aVto-be-verified
p152
aVnovella-novelette
p153
aVhumor-and-comedy
p154
aVnovels
p155
aVbooks-i-own
p156
aVhugo-nominated
p157
aVpapernl
p158
aVhugo-queue
p159
aVhugo
p160
aVactual-sci-fi
p161
aVto-read-on-kindle
p162
aVsf-nominees
p163
aVfrom-tbr
p164
aV100-200
p165
aVreviewed
p166
aVcollected-work
p167
aVclassics
p168
aVhugo-nebula
p169
aVspec-fic-sci-fi
p170
aVspec-fic-awd-hugo-nom
p171
aVspec-fic
p172
aVscience-fic-fantasy
p173
aVclassic
p174
aVawait-ebook-edition
p175
aVto-mull-over
p176
aVhugo-novel-finalist
p177
aVei-suom
p178
aVto-read-2e-sf-d
p179
aVenglish
p180
aVto-read-2-en-sf
p181
aVhugo-winners
p182
aVh
p183
aVc2-f-en
p184
aVyear-1959
p185
aVunread
p186
aVthree-stars
p187
aVrecommended
p188
aVread-in-2010
p189
aVread-as-an-adult
p190
aVpre-1982-read
p191
aVhugo_finalist
p192
aVhugo-winners-nominees
p193
aVaudio
p194
aV_-have-in-mag
p195
aV2011-past-sff-awards
p196
aVz-hugo-nominee
p197
aVpublic-domain-science-fiction
p198
aVgolden-age-science-fiction
p199
aVhugo-awards
p200
aV2013-completed
p201
aVsave-for-later
p202
asS'loc_class'
p203
VPS: Language and Literatures: American and Canadian literature
p204
sS'cover_artist'
p205
NsS'n_authors'
p206
I1
sb.