ccopy_reg
_reconstructor
p0
(cdataset.Book
Book
p1
c__builtin__
object
p2
Ntp3
Rp4
(dp5
S'content_name'
p6
V50889.txt.utf-8
p7
sS'author_name'
p8
VDonald Colvin
p9
sS'images_urls'
p10
(lp11
Vhttp://www.gutenberg.org/files/50889/50889-h/images/cover.jpg
p12
aVhttp://www.gutenberg.org/files/50889/50889-h/images/illus1.jpg
p13
aVhttp://www.gutenberg.org/files/50889/50889-h/images/illus2.jpg
p14
aVhttp://www.gutenberg.org/files/50889/50889-h/images/illus3.jpg
p15
asS'year'
p16
I1953
sS'images'
p17
(lp18
sS'id'
p19
I864
sS'category'
p20
VText
p21
sS'genres'
p22
(lp23
sS'copyright'
p24
VPublic domain in the USA.
p25
sS'title'
p26
VHalf past Alligator
p27
sS'wikipedia'
p28
(dp29
S'found'
p30
I00
ssS'cover_art_url'
p31
S'http://www.gutenberg.org/cache/epub/50889/pg50889.cover.medium.jpg'
p32
sS'goodreads'
p33
(dp34
g30
I00
ssS'similar_books'
p35
(lp36
sS'content_available'
p37
I01
sS'gutenberg'
p38
(dp39
S'url'
p40
Vhttp://www.gutenberg.org/ebooks/50889
p41
sS'num'
p42
I50889
ssS'authors'
p43
(lp44
I268
asS'language'
p45
VEnglish
p46
sS'countries'
p47
(lp48
I3
asS'release_date'
p49
S'2016-01-10T00:00:00'
p50
sS'author'
p51
I268
sS'content_cleaned'
p52
I01
sS'classes'
p53
(lp54
sS'loc_class'
p55
S''
p56
sS'n_authors'
p57
I1
sb.