ccopy_reg
_reconstructor
p0
(cdataset.Book
Book
p1
c__builtin__
object
p2
Ntp3
Rp4
(dp5
S'similar_books'
p6
(lp7
sS'genres'
p8
(lp9
sS'author'
p10
I302
sS'countries'
p11
(lp12
I2
asS'year'
p13
I1971
sS'title'
p14
VGalaxy Magazine July 1971
p15
sS'cover'
p16
Vhttps://ia600200.us.archive.org/BookReader/BookReaderImages.php?zip=/34/items/Galaxy_v32n01_1971-07/Galaxy_v32n01_1971-07_jp2.zip&file=Galaxy_v32n01_1971-07_jp2/Galaxy_v32n01_1971-07_0000.jp2&scale=0&rotate=0
p17
sS'cover_art'
p18
S'http://www.isfdb.org/wiki/images/f/f0/GALJULAUG71.jpg'
p19
sS'author_name'
p20
VGalaxy Magazine
p21
sS'images_urls'
p22
(lp23
sS'authors'
p24
(lp25
I499
aI667
aI326
aI91
aI50
aI684
aI86
aI74
aI687
aI697
aI651
aI302
asS'images'
p26
(lp27
sS'id'
p28
I1152
sS'contents'
p29
(lp30
(dp31
g10
I499
sg14
VA Congregation of Vapors
p32
sa(dp33
g10
I499
sg14
VThe Moon Children (Part 1 of 3)
p34
sa(dp35
g10
I499
sg14
VThe Moon Children (Part 1 of 3) [2]
p36
sa(dp37
g10
I499
sg14
VAll but the Words
p38
sa(dp39
g10
I499
sg14
VThe Phylogenetic Factor
p40
sa(dp41
g10
I499
sg14
VThe S.B. Notations
p42
sa(dp43
g10
I499
sg14
VAll the Way Up, All the Way Down
p44
sa(dp45
g10
I499
sg14
VDuckworth and the Sound Probe
p46
sa(dp47
g10
I667
sg14
VUnless We Fear Some Evil
p48
sa(dp49
g10
I326
sg14
VGalaxy Stars (Galaxy, July-August 1971)
p50
sa(dp51
g10
I91
sg14
VGalaxy Bookshelf (Galaxy, July-August 1971)
p52
sa(dp53
g10
I50
sg14
VAll the Way Up, All the Way Down
p54
sa(dp55
g10
I684
sg14
VA Congregation of Vapors
p56
sa(dp57
g10
I86
sg14
VThe Moon Children (Part 1 of 3)
p58
sa(dp59
g10
I74
sg14
VAll but the Words
p60
sa(dp61
g10
I687
sg14
VThe Phylogenetic Factor
p62
sa(dp63
g10
I697
sg14
VThe S.B. Notations
p64
sa(dp65
g10
I651
sg14
VDuckworth and the Sound Probe
p66
sasb.