ccopy_reg
_reconstructor
p0
(cdataset.Book
Book
p1
c__builtin__
object
p2
Ntp3
Rp4
(dp5
S'content_name'
p6
V28832.txt.utf-8
p7
sS'isbn'
p8
NsS'year'
p9
I1931
sS'author_name'
p10
VEdmond Hamilton
p11
sS'images_urls'
p12
(lp13
Vhttp://www.gutenberg.org/files/28832/28832-h/images/cover.jpg
p14
aVhttp://www.gutenberg.org/files/28832/28832-h/images/frontis.jpg
p15
asS'language_code'
p16
NsS'id'
p17
I293
sS'category'
p18
VText
p19
sS'genres'
p20
(lp21
sS'copyright'
p22
VPublic domain in the USA.
p23
sS'title'
p24
VThe Sargasso of Space
p25
sS'wikipedia'
p26
(dp27
S'found'
p28
I00
ssS'average_rating'
p29
F3.87
sS'rating_count'
p30
I49
sS'content_available'
p31
I01
sS'cover_art_url'
p32
S'http://www.gutenberg.org/cache/epub/28832/pg28832.cover.medium.jpg'
p33
sS'goodreads'
p34
(dp35
S'url'
p36
S'https://www.goodreads.com/book/show/12007208-the-sargasso-of-space'
p37
sS'found'
p38
I01
ssS'similar_books'
p39
(lp40
sS'description'
p41
NsS'gutenberg'
p42
(dp43
S'url'
p44
Vhttp://www.gutenberg.org/ebooks/28832
p45
sS'num'
p46
I28832
ssS'authors'
p47
(lp48
I83
asS'isbn13'
p49
NsS'language'
p50
VEnglish
p51
sS'countries'
p52
(lp53
I2
asS'release_date'
p54
S'2009-05-16T00:00:00'
p55
sS'author'
p56
I83
sS'cover'
p57
Vhttps://s.gr-assets.com/assets/nophoto/book/111x148-bcc042a9c91a29c1d680899eff700a03.png
p58
sS'content_cleaned'
p59
I01
sS'classes'
p60
(lp61
Vto-read
p62
aVscience-fiction
p63
aVsci-fi
p64
aVshort-stories
p65
aVfiction
p66
aVcurrently-reading
p67
aVpulp
p68
aV20th-century
p69
aVdropbox
p70
aVmy-books
p71
aVshort-story
p72
aVcalibre
p73
aV15
p74
aVsf-fantasy
p75
aVeua
p76
aVsuspense
p77
aVscifi-book-challenge
p78
aVe-book
p79
aVaudiobook
p80
aVkindle
p81
aVsciencefiction
p82
aVjim-s
p83
aVscifi
p84
aVtype-short-story
p85
asS'loc_class'
p86
VPS: Language and Literatures: American and Canadian literature
p87
sS'n_authors'
p88
I1
sb.