ccopy_reg
_reconstructor
p0
(cdataset.Book
Book
p1
c__builtin__
object
p2
Ntp3
Rp4
(dp5
S'content_name'
p6
V24721.txt.utf-8
p7
sS'isbn'
p8
NsS'year'
p9
I1959
sS'author_name'
p10
VFrank Herbert
p11
sS'images_urls'
p12
(lp13
Vhttp://www.gutenberg.org/files/24721/24721-h/images/92.png
p14
aVhttp://www.gutenberg.org/files/24721/24721-h/images/92_thumb.png
p15
aVhttp://www.gutenberg.org/files/24721/24721-h/images/99.png
p16
aVhttp://www.gutenberg.org/files/24721/24721-h/images/99_thumb2.png
p17
aVhttp://www.gutenberg.org/files/24721/24721-h/images/103.png
p18
aVhttp://www.gutenberg.org/files/24721/24721-h/images/103_thumb.png
p19
aVhttp://www.gutenberg.org/files/24721/24721-h/images/w.png
p20
asS'language_code'
p21
NsS'id'
p22
I188
sS'category'
p23
VText
p24
sS'genres'
p25
(lp26
sS'copyright'
p27
VPublic domain in the USA.
p28
sS'title'
p29
VOperation Haystack
p30
sS'wikipedia'
p31
(dp32
S'found'
p33
I00
ssS'average_rating'
p34
F3.52
sS'rating_count'
p35
I69
sS'content_available'
p36
I01
sS'goodreads'
p37
(dp38
S'url'
p39
Vhttps://www.goodreads.com/book/show/6315489-operation-haystack
p40
sS'found'
p41
I01
sS'year'
p42
I1959
ssS'similar_books'
p43
(lp44
sS'description'
p45
VIt's hard to ferret out a gang of fanatics; it would, obviously, be even harder to spot a genetic line of dedicated men. But the problem Orne had was one step tougher than that! A science fiction classic from Frank Herbert, author of DUNE!
p46
sS'gutenberg'
p47
(dp48
g39
Vhttp://www.gutenberg.org/ebooks/24721
p49
sS'num'
p50
I24721
ssS'authors'
p51
(lp52
I63
asS'isbn13'
p53
NsS'language'
p54
VEnglish
p55
sS'countries'
p56
(lp57
I2
asS'release_date'
p58
S'2008-03-01T00:00:00'
p59
sS'author'
p60
I63
sS'cover'
p61
Vhttps://images.gr-assets.com/books/1261860933l/6315489.jpg
p62
sS'content_cleaned'
p63
I01
sS'classes'
p64
(lp65
Vto-read
p66
aVsci-fi
p67
aVscience-fiction
p68
aVshort-stories
p69
aVfiction
p70
aVkindlecollection
p71
aVdidn-t-finish
p72
aVunread-owned-books
p73
aVrandoms
p74
aV20th-century-lit
p75
aVbuy-science-fiction
p76
aVshorts-and-novellas
p77
aVinterested
p78
aVtop-100-sci-fi
p79
aVcurrently-reading
p80
aVlibrivox-short-story-collection-11
p81
aVaudiobooks
p82
aVowned-pending-kindle-free-ebook
p83
aVkindle-free-ebook
p84
aVhow-kindle
p85
aVz_fiction
p86
aVx_shortstory
p87
aVaudiobook
p88
aVw_us_modern
p89
aVshort-story
p90
aV15
p91
aVto-read-ebooks
p92
aVfantasy
p93
aVfree-audio
p94
aVepubbooks
p95
aVbooks-to-buy
p96
aVread-2013
p97
aV1959
p98
aVebook-yes
p99
aVdon-t-have-yet
p100
aVg-science-fiction
p101
aVdune
p102
aVdon-t-own
p103
aValready-read
p104
aVsciencefiction
p105
aVmy-kindle-books
p106
aVfrank-herbert
p107
aVto-read-scifi
p108
aVto-read-2
p109
aVpublic-library
p110
aVsuggested-to-me
p111
aVtype-short-story
p112
aVherbert-frank
p113
aVfirst-read-2012
p114
asS'loc_class'
p115
VPS: Language and Literatures: American and Canadian literature
p116
sS'n_authors'
p117
I1
sb.