ccopy_reg
_reconstructor
p0
(cdataset.Book
Book
p1
c__builtin__
object
p2
Ntp3
Rp4
(dp5
S'similar_books'
p6
(lp7
sS'genres'
p8
(lp9
sS'author'
p10
I918
sS'countries'
p11
(lp12
I2
asS'year'
p13
I1986
sS'title'
p14
VIF Magazine September 1986
p15
sS'cover'
p16
Vhttps://ia800203.us.archive.org/BookReader/BookReaderImages.php?zip=/23/items/1986-Fall-If/1986-Fall-If_jp2.zip&file=1986-Fall-If_jp2/1986-Fall-If_0000.jp2&scale=0&rotate=0
p17
sS'cover_art'
p18
S'http://www.isfdb.org/wiki/images/5/51/WOFIFSEPNOV1986.jpg'
p19
sS'author_name'
p20
VIF Magazine
p21
sS'images_urls'
p22
(lp23
sS'authors'
p24
(lp25
I1247
aI806
aI1248
aI1202
aI1249
aI1250
aI1251
aI658
aI604
aI1252
aI1253
aI1254
aI1255
aI1256
aI1257
aI1258
aI591
aI918
asS'images'
p26
(lp27
sS'id'
p28
I1393
sS'contents'
p29
(lp30
(dp31
g10
I1247
sg14
VLove of Life
p32
sa(dp33
g10
I806
sg14
VPrologue to Freedom
p34
sa(dp35
g10
I806
sg14
VCloudscape
p36
sa(dp37
g10
I1247
sg14
VCartoon: "Why Not to Use Electrical Outlets in Dungeons"
p38
sa(dp39
g10
I1248
sg14
VRing Shot
p40
sa(dp41
g10
I806
sg14
VMarchplateau
p42
sa(dp43
g10
I1202
sg14
VSamurai Fugue
p44
sa(dp45
g10
I1249
sg14
VNight Kings
p46
sa(dp47
g10
I1249
sg14
VNight Kings [2]
p48
sa(dp49
g10
I1250
sg14
VEditorial (Worlds of If, September-November 1986)
p50
sa(dp51
g10
I1251
sg14
VThe Light Fantastic: Book Reviews
p52
sa(dp53
g10
I1251
sg14
VFantasy Books: The New Humanism
p54
sa(dp55
g10
I658
sg14
VIntroduction to "Prologue to Freedom"
p56
sa(dp57
g10
I604
sg14
VStaying Rich
p58
sa(dp59
g10
I1252
sg14
VSavage Cinema: Scattered Thoughts On the State of Sf On Film
p60
sa(dp61
g10
I1253
sg14
VUnder Gaming
p62
sa(dp63
g10
I658
sg14
VPrologue to Freedom
p64
sa(dp65
g10
I1254
sg14
VMarchplateau
p66
sa(dp67
g10
I1255
sg14
VLove of Life
p68
sa(dp69
g10
I1256
sg14
VCloudscape
p70
sa(dp71
g10
I1257
sg14
VRing Shot
p72
sa(dp73
g10
I1258
sg14
VSamurai Fugue
p74
sa(dp75
g10
I591
sg14
VNight Kings
p76
sasb.