ccopy_reg
_reconstructor
p0
(cdataset.Book
Book
p1
c__builtin__
object
p2
Ntp3
Rp4
(dp5
S'content_name'
p6
V28698.txt.utf-8
p7
sS'isbn'
p8
NsS'year'
p9
I1954
sS'author_name'
p10
VPhilip K. Dick
p11
sS'images_urls'
p12
(lp13
Vhttp://www.gutenberg.org/files/28698/28698-h/images/001.png
p14
asS'language_code'
p15
Veng
p16
sS'images'
p17
(lp18
Vhttps://upload.wikimedia.org/wikipedia/commons/8/8c/Planet_stories_195401.jpg
p19
asS'id'
p20
I34
sS'category'
p21
VText
p22
sS'plot'
p23
NsS'genres'
p24
(lp25
sS'copyright'
p26
VPublic domain in the USA.
p27
sS'title'
p28
VThe Crystal Crypt
p29
sS'wikipedia'
p30
(dp31
S'url'
p32
S'https://en.wikipedia.org/wiki/The_Crystal_Crypt'
p33
sS'found'
p34
I01
ssS'average_rating'
p35
F3.51
sS'rating_count'
p36
I675
sS'publisher_in'
p37
NsS'content_available'
p38
I01
sS'goodreads'
p39
(dp40
S'url'
p41
Vhttps://www.goodreads.com/book/show/6456323-the-crystal-crypt
p42
sg34
I01
sS'year'
p43
I1954
ssS'similar_books'
p44
(lp45
VYouth
p46
aVSpecimen 313
p47
aVThe Big Trip Up Yonder by Kurt Vonnegut, Science Fiction, Literary
p48
aVThe Last Joy
p49
aVSignposts in a Strange Land: Essays
p50
aVSourland
p51
aVThe Pistoleer
p52
aVTight Little Stitches on a Dead Man's Back
p53
aVInvaders from the Infinite
p54
aVEureka: A Prose Poem
p55
aVThe Wild Girls
p56
aVTitans, Young Justice: Graduation Day
p57
aVPlanet of the Damned
p58
aVOther Earths
p59
aVLetters
p60
aVCode of the Lifemaker (Code of the Lifemaker, #1)
p61
aVPurgatory (Star Wars: Lost Tribe of the Sith, #5)
p62
aVHi I'm a Social Disease: Horror Stories
p63
asS'description'
p64
NsS'gutenberg'
p65
(dp66
g41
Vhttp://www.gutenberg.org/ebooks/28698
p67
sS'num'
p68
I28698
ssS'authors'
p69
(lp70
I8
asS'publisher'
p71
NsS'isbn13'
p72
NsS'language'
p73
VEnglish
p74
sS'countries'
p75
(lp76
I2
asS'release_date'
p77
S'2009-05-06T00:00:00'
p78
sS'author'
p79
I8
sS'original_title'
p80
VThe Crystal Crypt
p81
sS'summary'
p82
VThe Crystal Crypt is a science fiction short story by Philip K. Dick, first published in the January 1954 edition of Planet Stories and later published in Beyond Lies the Wub in 1988.\u000aThe story is set in the distant future where Earth and Mars are on the verge of war. The last spaceship to leave Mars headed for Earth is stopped and searched by Martian soldiers, who are looking for three saboteurs who destroyed a Martian city. They are not found, and the ship continues towards Earth. On board the space ship, a business man by the name of Thacher meets a young woman and two men, who tell that they are the people sought by the Martians, and proceed to tell Thacher the story of how they did not destroy the Martian city, but used a device to reduce the entire city to fit in a tiny globe, which they smuggled on board the ship. The city is to be used as a bargaining chip against Mars in the upcoming war. Thacher reveals that he is a Martian secret agent, and several of the passengers on board are Martian police.
p83
sS'content_cleaned'
p84
I01
sS'classes'
p85
(lp86
Vcurrently-reading
p87
aVto-read
p88
aVshort-stories
p89
aVphilip-k-dick
p90
aVscifi
p91
aVclassics
p92
aVebook
p93
aVkindle
p94
aVfantasy
p95
aVowned
p96
aVaudiobooks
p97
aVsci-fi-fantasy
p98
aVsf
p99
aVshort-story
p100
aVread-2013
p101
aVnook
p102
aVe-books
p103
aVscience-fiction
p104
aVbooks
p105
aVkindle-books-i-own
p106
aValiens
p107
aVfantasy-sci-fi
p108
aVshorts
p109
aVowned-books
p110
aVamazon
p111
aVkindle-books
p112
aVaudiobook
p113
aVibooks
p114
aVown-it
p115
aVsuspense
p116
aVfavorites
p117
aVaudio-books
p118
aVscifi-fantasy
p119
aVenglish
p120
aVin-english
p121
aV2017-read
p122
aVvintage
p123
aVfiction-speculative
p124
aVserial-reader
p125
aVclassic-american-literature
p126
aVscience-fiction-shelf
p127
aVfiction
p128
aVto-read-short-story
p129
aVon-kindle
p130
aVread-in-2017
p131
aVebook-short-stories
p132
aVamerican
p133
aVfantascienza
p134
aV2000
p135
aVroman
p136
aV04-format-ebook
p137
aV02-origin-american
p138
aV01-genre-short-stories
p139
aV01-genre-scifi
p140
aV20th-c-amer
p141
aVmy-books
p142
aVundgrad-15-17-tamu
p143
aVi-own
p144
aVdid-not-want-to-finish
p145
aVdick-philip
p146
aVunder-100-pages
p147
aVlibrary-book
p148
aVfuture
p149
aVe-shelf
p150
aVnovella
p151
aV2016-aty-challenge
p152
aVon-librivox-web-site
p153
aVshort-fiction
p154
aVnew
p155
aVkindle-to-read
p156
aVunited-states
p157
aV2016-read
p158
aVnext-on-deck
p159
aV2016readingchallenge
p160
aVown-kindle
p161
aVfree-kindle
p162
aVnot-read
p163
aVto-read-low-priority
p164
aVread-2016
p165
aVread-short-stories
p166
aV2016-book-challenge
p167
aVg-authors
p168
aVfree-stuff
p169
aVmoon-reader
p170
aVz_fiction
p171
aVx_shortstory
p172
aVp-k-d
p173
aVdystopian
p174
aVpkd
p175
aVpkd-project-2015
p176
aV2015-book-challenge
p177
aVloc-kindle
p178
aVauthor-male
p179
aVanthologies-and-short-stories
p180
aVnot-started
p181
aVw_us_modern
p182
aVbooks-that-i-have
p183
aVearly-mid-1900s
p184
aVbooks-i-reviewed
p185
aVusa
p186
asS'loc_class'
p187
VPS: Language and Literatures: American and Canadian literature
p188
sS'cover_artist'
p189
NsS'n_authors'
p190
I1
sb.