ccopy_reg
_reconstructor
p0
(cdataset.Book
Book
p1
c__builtin__
object
p2
Ntp3
Rp4
(dp5
S'content_name'
p6
V51727.txt.utf-8
p7
sS'isbn'
p8
V031236945X
p9
sS'year'
p10
I2008
sS'author_name'
p11
VJoy Leache
p12
sS'images_urls'
p13
(lp14
Vhttp://www.gutenberg.org/files/51727/51727-h/images/cover.jpg
p15
aVhttp://www.gutenberg.org/files/51727/51727-h/images/illus.jpg
p16
asS'language_code'
p17
NsS'images'
p18
(lp19
sS'id'
p20
I805
sS'category'
p21
VText
p22
sS'genres'
p23
(lp24
sS'copyright'
p25
VPublic domain in the USA.
p26
sS'title'
p27
VSatisfaction Guaranteed
p28
sS'wikipedia'
p29
(dp30
S'url'
p31
Vhttps://en.wikipedia.org/wiki/Earth_Is_Room_Enough
p32
sS'found'
p33
I01
sS'year'
p34
I-1
ssS'published_in'
p35
NsS'average_rating'
p36
F3.68
sS'rating_count'
p37
I288
sS'content_available'
p38
I01
sS'cover_art_url'
p39
S'http://www.gutenberg.org/cache/epub/51727/pg51727.cover.medium.jpg'
p40
sS'goodreads'
p41
(dp42
g31
Vhttps://www.goodreads.com/book/show/1654707.Satisfaction_Guaranteed
p43
sg33
I01
sg34
I2008
ssS'similar_books'
p44
(lp45
VHard to Get (Games, #3)
p46
aVBlack Silk (Rodesson's Daughters, #2)
p47
aVEllora's Cavemen: Seasons of Seduction III
p48
aVLisa's Gift
p49
aVCops and Cowboys
p50
aVWaiting for It
p51
aVTotal Surrender
p52
aVChains
p53
aVDown In Texas
p54
aVJane and the Sneaky Dom
p55
aVThe Twelve Quickies of Christmas (Volume 2)
p56
aVOne Wild Night
p57
aVForbidden Fantasies
p58
aVRated: X-Mas
p59
aVShow and Tell (Fortune Hunter Trilogy, #2)
p60
aVA Mutual Favor
p61
aVSkin Deep
p62
aVCady's Cowboy (Crime Tells, #2)
p63
asS'description'
p64
VWelcome to The Capture Agency, a fantasy dating service for dominant men who know what they like and how they like it, and women who can handle limitless pleasure. After being matched with a partner, the male will capture his date and make her a slave to passion. This service is for couples who aren't afraid to push the limits, let go of their inhibitions and lose themselves in the fantasy.<br /><br />Clients include Chase Hunter, the agency's owner, who decides to break his cardinal rule against dating clients and capture a woman for the first time. Kane Woods, a man of superior size and strength who's always had to reign in his desires--until now. And Gage Michael, who learns that his ex is using the service\u2026and decides to capture her. Will these couples enjoy a hot romp between the sheets, or will they capture each other's hearts?
p65
sS'format'
p66
VTrade Paperback
p67
sS'gutenberg'
p68
(dp69
g31
Vhttp://www.gutenberg.org/ebooks/51727
p70
sS'num'
p71
I51727
ssS'authors'
p72
(lp73
I257
asS'pages'
p74
I291
sS'isbn13'
p75
V9780312369453
p76
sS'language'
p77
VEnglish
p78
sS'release_date'
p79
S'2016-04-10T00:00:00'
p80
sS'author'
p81
I257
sS'original_title'
p82
VEarth Is Room Enough
p83
sS'summary'
p84
VEarth Is Room Enough is a collection of seventeen short science fiction and fantasy stories and two pieces of comic verse by American writer Isaac Asimov in 1957. In his autobiography In Joy Still Felt, Asimov wrote, "I was still thinking of the remarks of reviewers such as George O. Smith... concerning my penchant for wandering over the Galaxy. I therefore picked stories that took place on Earth and called the book Earth Is Room Enough." The collection includes one story from the Robot series and four stories that feature or mention the fictional computer Multivac.
p85
sS'content_cleaned'
p86
I01
sS'classes'
p87
(lp88
Vto-read
p89
aVerotica
p90
aVerotic-romance
p91
aVbdsm
p92
aVerotic
p93
aVromance
p94
aVcontemporary-romance
p95
aVanthology
p96
aVcontemporary
p97
aVcharlene-teglia
p98
aVcurrently-reading
p99
aVm-f
p100
aVadult
p101
aVromantica
p102
aVsecond-chances
p103
aVfavorites
p104
aVanthologies
p105
aVlibrary
p106
aVpaperback
p107
aVpaperbacks
p108
aVromantica-erotica
p109
aV2008-reads
p110
aV1-kindle-to-sort
p111
aVsouthwall
p112
aVtime-contemporary
p113
aVkink-bdsm
p114
aVgenre-romance
p115
aVgenre-erotica
p116
aVst
p117
aVtbr-list-2017
p118
aVprice-watch-restrictive-price
p119
aVnope
p120
aVnew
p121
aVblom-check
p122
aV1-4ever-love
p123
aVcrates
p124
aVoffice
p125
aV2000-s
p126
aVdefault
p127
aVbookcase
p128
aVre-read
p129
aVown-book
p130
aVwl-m
p131
aVhave
p132
aVreviews-say-meh
p133
aVdid-not-keep
p134
aVhome-shelf
p135
aVto-read-wishlist
p136
aVgenre-contemp-rom
p137
aVto-finish
p138
aVto-add
p139
aVformat-print
p140
aVnot-owned-will-read
p141
aV11-19
p142
aVmeet-n-greet
p143
aVcharacter-alpha-male
p144
aV2014-read
p145
aVmust-reads
p146
aV100
p147
aVsingle-books
p148
aVromance-inventory
p149
aVowned-kobo
p150
aVromance-hot-hot-hot
p151
aVromance-contemporary
p152
aVread-agaij
p153
aVspinsters-bluestockings
p154
aVpropositions
p155
aVnovella
p156
aVhot-as-eff
p157
aVfunny
p158
aVchildhood-friends
p159
aVangst
p160
aValpha-males
p161
aVerotic-romance-to-read
p162
aVmf
p163
aVrenewed-marriages
p164
aVlooks-pretty-good
p165
aVcollection
p166
aV3-my-2-read-library
p167
aVerotica-bdsm
p168
aVadult-erotica-romance
p169
aVadult-contemporary-romance
p170
aV4-stars
p171
aVi-own-it
p172
aVej-nedladdade
p173
aVread-at
p174
aVbooks
p175
aVromance-and-poetry
p176
aVjust-for-mama
p177
aVavailable-overdrive-library
p178
aVlink-library-book
p179
aVnot-a-library
p180
aVrich-business-hero
p181
aVlove-at-first-sight
p182
aVi-ve-loved-you-4ever
p183
aVerotic-love
p184
aVto-read-adult
p185
aVpaper-format
p186
aVf-m
p187
aVsearch
p188
asS'loc_class'
p189
S''
p190
sS'n_authors'
p191
I1
sb.