ccopy_reg
_reconstructor
p0
(cdataset.Book
Book
p1
c__builtin__
object
p2
Ntp3
Rp4
(dp5
S'similar_books'
p6
(lp7
sS'genres'
p8
(lp9
sS'author'
p10
I918
sS'countries'
p11
(lp12
I2
asS'year'
p13
I1962
sS'title'
p14
VIF Magazine January 1962
p15
sS'cover'
p16
Vhttps://ia600207.us.archive.org/BookReader/BookReaderImages.php?zip=/11/items/1962-01_IF/1962-01_IF_jp2.zip&file=1962-01_IF_jp2/1962-01_IF_0000.jp2&scale=0&rotate=0
p17
sS'cover_art'
p18
S'http://www.isfdb.org/wiki/images/d/d0/WOFIFJAN1962.jpg'
p19
sS'author_name'
p20
VIF Magazine
p21
sS'images_urls'
p22
(lp23
sS'authors'
p24
(lp25
I326
aI499
aI1073
aI341
aI40
aI1074
aI67
aI136
aI142
aI94
aI428
aI918
asS'images'
p26
(lp27
sS'id'
p28
I1283
sS'contents'
p29
(lp30
(dp31
g10
I326
sg14
VThe Yillian Way
p32
sa(dp33
g10
I499
sg14
VThe Last Place On Earth
p34
sa(dp35
g10
I1073
sg14
VMasters of Space (Part 2 of 2)
p36
sa(dp37
g10
I1073
sg14
VMasters of Space (Part 2 of 2) [2]
p38
sa(dp39
g10
I326
sg14
VScience Briefs (If, January 1962)
p40
sa(dp41
g10
I341
sg14
VFrom Plynck to Planck
p42
sa(dp43
g10
I40
sg14
VHue and Cry (If, January 1962)
p44
sa(dp45
g10
I1074
sg14
VMasters of Space (Part 2 of 2)
p46
sa(dp47
g10
I67
sg14
VThe Yillian Way
p48
sa(dp49
g10
I136
sg14
VAn Incident On Route 12
p50
sa(dp51
g10
I142
sg14
VThe Last Place On Earth
p52
sa(dp53
g10
I94
sg14
VThe Talkative Tree
p54
sa(dp55
g10
I428
sg14
V2 B R 0 2 B
p56
sasb.