ccopy_reg
_reconstructor
p0
(cdataset.Book
Book
p1
c__builtin__
object
p2
Ntp3
Rp4
(dp5
S'content_name'
p6
V17030.txt.utf-8
p7
sS'isbn'
p8
V3655161646
p9
sS'year'
p10
I1998
sS'author_name'
p11
VCory Doctorow
p12
sS'images_urls'
p13
(lp14
sS'language_code'
p15
NsS'images'
p16
(lp17
sS'id'
p18
I392
sS'category'
p19
VText
p20
sS'genres'
p21
(lp22
sS'copyright'
p23
VCopyrighted. Read the copyright notice inside this book for details.
p24
sS'title'
p25
VSuper Man and the Bug Out
p26
sS'wikipedia'
p27
(dp28
S'found'
p29
I00
ssS'average_rating'
p30
F3.08
sS'rating_count'
p31
I45
sS'content_available'
p32
I01
sS'goodreads'
p33
(dp34
S'url'
p35
Vhttps://www.goodreads.com/book/show/12635976-super-man-and-the-bug-out
p36
sg29
I01
sS'year'
p37
I1998
ssS'similar_books'
p38
(lp39
sS'description'
p40
NsS'gutenberg'
p41
(dp42
g35
Vhttp://www.gutenberg.org/ebooks/17030
p43
sS'num'
p44
I17030
ssS'authors'
p45
(lp46
I33
asS'pages'
p47
I32
sS'isbn13'
p48
V9783655161647
p49
sS'language'
p50
VEnglish
p51
sS'countries'
p52
(lp53
I8
aI1
asS'release_date'
p54
S'2005-11-20T00:00:00'
p55
sS'author'
p56
I33
sS'cover'
p57
Vhttps://s.gr-assets.com/assets/nophoto/book/111x148-bcc042a9c91a29c1d680899eff700a03.png
p58
sS'content_cleaned'
p59
I01
sS'classes'
p60
(lp61
Vto-read
p62
aVscience-fiction
p63
aVshort-stories
p64
aVsci-fi
p65
aVebook-bundles-etc
p66
aVunread-owned-books
p67
aVcalibre
p68
aVinterested
p69
aVdigital
p70
aVanother-to-read
p71
aV15
p72
aVto-read-ebooks
p73
aVvery-short
p74
aVto-read-in-2017
p75
aVa-on-nook
p76
aVa-adobe-editions
p77
aVshortsread
p78
aVfromcalibre
p79
aVebooks
p80
aVhumour
p81
aVe-books
p82
aVscience-fiction-fantasy
p83
aVcalibre-library
p84
aVscifi
p85
aVfree-ebook
p86
aVfiction
p87
aVebook
p88
aVrandom-added
p89
aVsuperhero
p90
aVkindle
p91
aVsf-dystopias
p92
aVless-than-100-pages
p93
aVa5
p94
asS'loc_class'
p95
VPS: Language and Literatures: American and Canadian literature
p96
sS'n_authors'
p97
I1
sb.