ccopy_reg
_reconstructor
p0
(cdataset.Book
Book
p1
c__builtin__
object
p2
Ntp3
Rp4
(dp5
S'content_name'
p6
V51530.txt.utf-8
p7
sS'isbn'
p8
NsS'year'
p9
I1958
sS'author_name'
p10
VFritz Leiber
p11
sS'images_urls'
p12
(lp13
Vhttp://www.gutenberg.org/files/51530/51530-h/images/cover.jpg
p14
aVhttp://www.gutenberg.org/files/51530/51530-h/images/illus.jpg
p15
asS'language_code'
p16
Veng
p17
sS'id'
p18
I422
sS'category'
p19
VText
p20
sS'genres'
p21
(lp22
sS'copyright'
p23
VPublic domain in the USA.
p24
sS'title'
p25
VThe Last Letter
p26
sS'wikipedia'
p27
(dp28
S'found'
p29
I00
ssS'average_rating'
p30
F3.94
sS'rating_count'
p31
I11
sS'content_available'
p32
I01
sS'cover_art_url'
p33
S'http://www.gutenberg.org/cache/epub/51530/pg51530.cover.medium.jpg'
p34
sS'goodreads'
p35
(dp36
S'url'
p37
S'https://www.goodreads.com/book/show/12122757-the-last-letter'
p38
sS'found'
p39
I01
ssS'similar_books'
p40
(lp41
sS'description'
p42
NsS'gutenberg'
p43
(dp44
S'url'
p45
Vhttp://www.gutenberg.org/ebooks/51530
p46
sS'num'
p47
I51530
ssS'authors'
p48
(lp49
I32
asS'pages'
p50
I47
sS'isbn13'
p51
NsS'language'
p52
VEnglish
p53
sS'countries'
p54
(lp55
I2
asS'release_date'
p56
S'2016-03-22T00:00:00'
p57
sS'author'
p58
I32
sS'content_cleaned'
p59
I01
sS'classes'
p60
(lp61
Vto-read
p62
aVscience-fiction
p63
aVshort-stories
p64
aVsci-fi
p65
aVfiction
p66
aVaudiobooks-read
p67
aV4-stars
p68
aVaudiobooks
p69
aVkindle-to-read
p70
aVbooks
p71
aVclassic-sci-fi
p72
asS'loc_class'
p73
S''
p74
sS'n_authors'
p75
I1
sb.