ccopy_reg
_reconstructor
p0
(cdataset.Book
Book
p1
c__builtin__
object
p2
Ntp3
Rp4
(dp5
S'content_name'
p6
V26855.txt.utf-8
p7
sS'isbn'
p8
NsS'year'
p9
I-1
sS'author_name'
p10
VHoward Browne
p11
sS'images_urls'
p12
(lp13
Vhttp://www.gutenberg.org/files/26855/26855-h/images/001.png
p14
aVhttp://www.gutenberg.org/files/26855/26855-page-images/p0136-image.png
p15
aVhttp://www.gutenberg.org/files/26855/26855-page-images/p0136.png
p16
aVhttp://www.gutenberg.org/files/26855/26855-page-images/p0137.png
p17
aVhttp://www.gutenberg.org/files/26855/26855-page-images/p0138.png
p18
asS'language_code'
p19
Veng
p20
sS'id'
p21
I727
sS'category'
p22
VText
p23
sS'genres'
p24
(lp25
sS'copyright'
p26
VPublic domain in the USA.
p27
sS'title'
p28
VHard Guy
p29
sS'wikipedia'
p30
(dp31
S'found'
p32
I00
ssS'average_rating'
p33
F3.47
sS'rating_count'
p34
I13
sS'content_available'
p35
I01
sS'goodreads'
p36
(dp37
S'url'
p38
Vhttps://www.goodreads.com/book/show/12225766-hard-guy
p39
sS'found'
p40
I01
sS'year'
p41
I1942
ssS'similar_books'
p42
(lp43
sS'description'
p44
VHe was standing at the side of the glassite super-highway, his arm half-raised, thumb pointed in the same direction as that of the approaching rocket car. Ordinarily Frederick Marden would have passed a hitch-hiker without stopping, but there was something in the bearing and appearance of this one that caused him to apply his brakes.
p45
sS'gutenberg'
p46
(dp47
g38
Vhttp://www.gutenberg.org/ebooks/26855
p48
sS'num'
p49
I26855
ssS'authors'
p50
(lp51
I235
asS'isbn13'
p52
V2940012111937
p53
sS'language'
p54
VEnglish
p55
sS'countries'
p56
(lp57
I2
asS'release_date'
p58
S'2008-10-09T00:00:00'
p59
sS'author'
p60
I235
sS'cover'
p61
Vhttps://s.gr-assets.com/assets/nophoto/book/111x148-bcc042a9c91a29c1d680899eff700a03.png
p62
sS'content_cleaned'
p63
I01
sS'classes'
p64
(lp65
Vscience-fiction
p66
aVfiction
p67
aVshort-story
p68
aV15
p69
aVshort-stories
p70
aV1940s
p71
aVtype-short-story
p72
asS'loc_class'
p73
VPS: Language and Literatures: American and Canadian literature
p74
sS'n_authors'
p75
I1
sb.