ccopy_reg
_reconstructor
p0
(cdataset.Book
Book
p1
c__builtin__
object
p2
Ntp3
Rp4
(dp5
S'content_name'
p6
V29059.txt.utf-8
p7
sS'isbn'
p8
NsS'year'
p9
I2015
sS'author_name'
p10
VRay Cummings
p11
sS'images_urls'
p12
(lp13
Vhttp://www.gutenberg.org/files/29059/29059-h/images/illo.jpg
p14
asS'language_code'
p15
Veng
p16
sS'images'
p17
(lp18
sS'id'
p19
I765
sS'category'
p20
VText
p21
sS'genres'
p22
(lp23
sS'copyright'
p24
VPublic domain in the USA.
p25
sS'title'
p26
VThe World Beyond
p27
sS'wikipedia'
p28
(dp29
S'url'
p30
Vhttps://en.wikipedia.org/wiki/Jack-in-the-Box_(short_story)
p31
sS'found'
p32
I01
sS'year'
p33
I-1
ssS'published_in'
p34
NsS'average_rating'
p35
F3.74
sS'rating_count'
p36
I2132
sS'content_available'
p37
I01
sS'goodreads'
p38
(dp39
g30
Vhttps://www.goodreads.com/book/show/24335191-torkel-s-chosen
p40
sg32
I01
sg33
I2015
ssS'similar_books'
p41
(lp42
VBay's Mercenary (Unearthly World, #1)
p43
aVNikhil (Kaliszians, #1)
p44
aVAbducted (Alien Mate Index, #1)
p45
aVCaptured (Warriors of Hir,  #1)
p46
aVTheron Destiny (Brides of Theron, #1)
p47
aVDagger's Hope (The Alliance, #3)
p48
aVRoark (Women of Earth, #1)
p49
aVAramus (Cyborgs: More Than Machines, #4)
p50
aVThe Melier (Women of Dor Nye, #1)
p51
aVEmbracing Emily (Warriors of Kelon, #7)
p52
aVReleasing Rage (Cyborg Sizzle, #1)
p53
aVStarkissed
p54
asS'description'
p55
V<b>What would you do if Earth didn\u2019t have enough men?<br />Would you take a chance and leave the only world you knew behind?</b><br /><br />This is the decision Faith Reid faces. Placing all her hope in a new government program, she seizes the opportunity that offers a chance for the women of Earth to find love among the stars, on a world beyond the one they know.<br /><br /><b>How many times can one man risk rejection?<br />Would you give up on your dreams?</b><br /><br />Torkel Alonson has had enough of being ignored and looked over by females on his adopted home world of Enotia. His pride has suffered and he must accept the painful truth. Females will never choose a male with his evil lineage despite his honorable service to his government\u2019s military.<br /><br />Can two people looking for the same thing find not just what they want but what they need in one another?
p56
sS'format'
p57
VKindle Edition
p58
sS'gutenberg'
p59
(dp60
g30
Vhttp://www.gutenberg.org/ebooks/29059
p61
sS'num'
p62
I29059
ssS'authors'
p63
(lp64
I71
asS'pages'
p65
I257
sS'isbn13'
p66
NsS'language'
p67
VEnglish
p68
sS'release_date'
p69
S'2009-06-07T00:00:00'
p70
sS'author'
p71
I71
sS'original_title'
p72
VJack-in-the-Box (short story)
p73
sS'summary'
p74
VJack-in-the-Box is a short story by American author Ray Bradbury, first published as part of the 1947 short story collection Dark Carnival. It was later collected in the magazine Avon Fantasy Reader and the anthologies Interplanet7: Fantascienza, The Small Assassin, Ghostly and Ghastly, and The Stories of Ray Bradbury.
p75
sS'content_cleaned'
p76
I01
sS'classes'
p77
(lp78
Vto-read
p79
aVcurrently-reading
p80
aVsci-fi
p81
aValiens
p82
aVromance
p83
aValien
p84
aVscience-fiction
p85
aVsci-fi-romance
p86
aVfantasy
p87
aValien-romance
p88
aVparanormal
p89
aVerotica
p90
aVparanormal-romance
p91
aVdnf
p92
aVfuturistic
p93
aVseries
p94
aValpha-male
p95
aVaudiobook
p96
aVebook
p97
aVscifi
p98
aVspace
p99
aVmilitary
p100
aVscience-fiction-romance
p101
aVfavorites
p102
aVaction
p103
aVscifi-romance
p104
aVkindle
p105
aVsfr
p106
aVread-in-2015
p107
aVm-f
p108
aVadult
p109
aVdid-not-finish
p110
aV1st-in-series
p111
aVnot-interested
p112
aVmichelle-howard
p113
aVsf
p114
aVabuse
p115
aVsuspense
p116
aVerotic-romance
p117
aVread-2015
p118
aVgenre-sci-fi
p119
aVfiction
p120
aVerotic
p121
aVsyfy
p122
aVaudible
p123
aVromance-sci-fi
p124
aVinsta-love
p125
aVfantasy-sci-fi
p126
aVsteamy
p127
aVhot
p128
aVsmut
p129
aVwarrior
p130
aVsci-fi-fantasy
p131
aVfuturistic-sci-fi
p132
aValien-love
p133
aVebooks
p134
aVe-book
p135
aVspace-travel
p136
aVadopted
p137
aVadult-romance
p138
aVaudio
p139
aVkidnapping
p140
aVsci-fy
p141
aValpha-men
p142
aVaudiobooks
p143
aVromance-erotic
p144
aVadult-fiction
p145
aVcontemporary
p146
aVannoying-heroine
p147
aV2016-read
p148
aVcurvy
p149
aVbetrayal
p150
aVauthor-h
p151
aVbooks
p152
aVsci-fi-alien
p153
aValiens-space
p154
aVsf-romance
p155
aVwhat-am-i-thinking
p156
aVmars-needs-women
p157
aVfaves
p158
aVdrama
p159
aVowned
p160
aVibooks
p161
aVfirst-in-series
p162
aVbbw
p163
aV5-stars
p164
aVfantasy-paranormal
p165
aVseries-jail
p166
aVwish-list
p167
aValpha
p168
aVcould-not-finish
p169
aVtortured-hero
p170
aVhave
p171
aVromances
p172
aV2015-reads
p173
aVfantasy-romance
p174
aVsci-fi-erotica
p175
aVerotica-sci-fi
p176
aVsi-fi
p177
aValpha-males
p178
asS'loc_class'
p179
VPS: Language and Literatures: American and Canadian literature
p180
sS'n_authors'
p181
I1
sb.