ccopy_reg
_reconstructor
p0
(cdataset.Book
Book
p1
c__builtin__
object
p2
Ntp3
Rp4
(dp5
S'similar_books'
p6
(lp7
sS'genres'
p8
(lp9
sS'author'
p10
I918
sS'countries'
p11
(lp12
I2
asS'year'
p13
I1969
sS'title'
p14
VIF Magazine April 1969
p15
sS'cover'
p16
Vhttps://ia601309.us.archive.org/BookReader/BookReaderImages.php?zip=/4/items/1969-04_IF/1969-04_IF_jp2.zip&file=1969-04_IF_jp2/1969-04_IF_0000.jp2&scale=0&rotate=0
p17
sS'cover_art'
p18
S'http://www.isfdb.org/wiki/images/c/ce/WOFIFAPR1969.jpg'
p19
sS'author_name'
p20
VIF Magazine
p21
sS'images_urls'
p22
(lp23
sS'authors'
p24
(lp25
I611
aI640
aI499
aI40
aI1184
aI356
aI326
aI1154
aI67
aI28
aI631
aI680
aI1185
aI1153
aI918
asS'images'
p26
(lp27
sS'id'
p28
I1354
sS'contents'
p29
(lp30
(dp31
g10
I611
sg14
VToys of Tamisan (Part 1 of 2)
p32
sa(dp33
g10
I640
sg14
VSpork of the Ayor
p34
sa(dp35
g10
I499
sg14
VAuthorgraphs: An Interview with Jack Williamson
p36
sa(dp37
g10
I499
sg14
VRetief, the Long-Awaited Master
p38
sa(dp39
g10
I40
sg14
VWhat We Think With
p40
sa(dp41
g10
I1184
sg14
VA Report On the Sixth International Sf Film Festival
p42
sa(dp43
g10
I356
sg14
VIf ... And When (If, April 1969)
p44
sa(dp45
g10
I40
sg14
VHue and Cry (If, April 1969)
p46
sa(dp47
g10
I326
sg14
VSf Calendar (If, April 1969)
p48
sa(dp49
g10
I326
sg14
VAuthorgraphs: An Interview with Jack Williamson
p50
sa(dp51
g10
I1154
sg14
VSpork of the Ayor
p52
sa(dp53
g10
I67
sg14
VRetief, the Long-Awaited Master
p54
sa(dp55
g10
I28
sg14
VToys of Tamisan (Part 1 of 2)
p56
sa(dp57
g10
I631
sg14
VStarbright
p58
sa(dp59
g10
I680
sg14
VThat Season
p60
sa(dp61
g10
I1185
sg14
VThe Light Bearer
p62
sa(dp63
g10
I1153
sg14
VTourists Welcome
p64
sasb.