ccopy_reg
_reconstructor
p0
(cdataset.Book
Book
p1
c__builtin__
object
p2
Ntp3
Rp4
(dp5
S'similar_books'
p6
(lp7
sS'genres'
p8
(lp9
sS'author'
p10
I302
sS'countries'
p11
(lp12
I2
asS'year'
p13
I1958
sS'title'
p14
VGalaxy Magazine March 1958
p15
sS'cover'
p16
Vhttps://ia600209.us.archive.org/BookReader/BookReaderImages.php?zip=/20/items/Galaxy_v15n05_1958-03/Galaxy_v15n05_1958-03_jp2.zip&file=Galaxy_v15n05_1958-03_jp2/Galaxy_v15n05_1958-03_0000.jp2&scale=0&rotate=0
p17
sS'cover_art'
p18
S'http://www.isfdb.org/wiki/images/f/fa/MLO4447.jpg'
p19
sS'author_name'
p20
VGalaxy Magazine
p21
sS'images_urls'
p22
(lp23
sS'authors'
p24
(lp25
I497
aI506
aI519
aI525
aI305
aI339
aI326
aI483
aI498
aI387
aI32
aI172
aI530
aI302
asS'images'
p26
(lp27
sS'id'
p28
I1061
sS'contents'
p29
(lp30
(dp31
S'title'
p32
VThe Big Time (Part 1 of 2)
p33
sS'author'
p34
I497
sa(dp35
g32
VThe Big Time (Part 1 of 2) [2]
p36
sg34
I497
sa(dp37
g32
VMy Fair Planet
p38
sg34
I506
sa(dp39
g32
VSpare the Rod
p40
sg34
I519
sa(dp41
g32
VSpare the Rod [2]
p42
sg34
I519
sa(dp43
g32
VSpare the Rod [3]
p44
sg34
I519
sa(dp45
g32
VThe Ethical Way
p46
sg34
I525
sa(dp47
g32
VA Feast of Demons
p48
sg34
I506
sa(dp49
g32
VA Feast of Demons [2]
p50
sg34
I506
sa(dp51
g32
VA Feast of Demons [3]
p52
sg34
I506
sa(dp53
g32
VThey're Back
p54
sg34
I305
sa(dp55
g32
VFor Your Information: The Orbit of the Vanguard Satellite
p56
sg34
I339
sa(dp57
g32
VForecast (Galaxy, March 1958)
p58
sg34
I326
sa(dp59
g32
VGalaxy's 5 Star Shelf (Galaxy, March 1958)
p60
sg34
I483
sa(dp61
g32
VSpare the Rod
p62
sg34
I498
sa(dp63
g32
VA Feast of Demons
p64
sg34
I387
sa(dp65
g32
VThe Big Time (Part 1 of 2)
p66
sg34
I32
sa(dp67
g32
VMy Fair Planet
p68
sg34
I172
sa(dp69
g32
VThe Ethical Way
p70
sg34
I530
sasb.