ccopy_reg
_reconstructor
p0
(cdataset.Book
Book
p1
c__builtin__
object
p2
Ntp3
Rp4
(dp5
S'content_name'
p6
V456.txt.utf-8
p7
sS'isbn'
p8
NsS'year'
p9
I1911
sS'author_name'
p10
VH. G. Wells
p11
sS'images_urls'
p12
(lp13
sS'language_code'
p14
NsS'id'
p15
I46
sS'category'
p16
VText
p17
sS'genres'
p18
(lp19
sS'copyright'
p20
VPublic domain in the USA.
p21
sS'title'
p22
VThe Door in the Wall, and Other Stories
p23
sS'wikipedia'
p24
(dp25
S'found'
p26
I00
ssS'average_rating'
p27
F3.77
sS'rating_count'
p28
I254
sS'content_available'
p29
I01
sS'goodreads'
p30
(dp31
S'url'
p32
Vhttps://www.goodreads.com/book/show/6058685-the-door-in-the-wall-and-other-stories
p33
sS'found'
p34
I01
sS'year'
p35
I1911
ssS'similar_books'
p36
(lp37
VMosses from an Old Manse
p38
aVThe Portable Poe
p39
aVOperation Chaos (Operation Otherworld, #1)
p40
aVThe Defeat of Youth and Other Poems
p41
aVThe Piazza Tales by Herman Melville, Fiction, Classics, Literary
p42
aVDoctor Who: The Forgotten (The Forgotten, #1)
p43
aVBite Me! A Vampire Farce
p44
aVThe Werewolf Principle
p45
aVHereticus
p46
aVThe Man Upstairs and Other Stories (Golf Stories, #0.5)
p47
aVNonsense Novels
p48
aVWraiths of Time
p49
aVTiger
p50
aVYouth
p51
aVGumption: The Practical Woman's Guide to Living an Adventuresome Life
p52
aVEventide (Magic: The Gathering: Lorwyn Cycle Part II: Shadowmoor Cycle, #2)
p53
aVThe Eyes Have It
p54
aVFreedom Incorporated
p55
asS'description'
p56
VTHE DOOR IN THE WALL is the story of a promising public figure used up by his job and obsessed by a vision of an enchanted garden he had known as a child. It is a tale all of us know, the attempt to recover a period when our lives were simpler and complications lay far in the future.<br /><br />Other titles are: "The Star," "A Dream of Armageddon," "The Cone," "A Moonlight Fable," "The Diamond Maker," "The Lord of the Dynamos," and Wells' durably celebrated story of true freedom and the human spirit "The Country of the Blind."
p57
sS'format'
p58
NsS'gutenberg'
p59
(dp60
g32
Vhttp://www.gutenberg.org/ebooks/456
p61
sS'num'
p62
I456
ssS'authors'
p63
(lp64
I1
asS'pages'
p65
I148
sS'isbn13'
p66
NsS'language'
p67
VEnglish
p68
sS'countries'
p69
(lp70
I1
asS'release_date'
p71
S'1996-03-01T00:00:00'
p72
sS'author'
p73
I1
sS'content_cleaned'
p74
I01
sS'classes'
p75
(lp76
Vto-read
p77
aVcurrently-reading
p78
aVscience-fiction
p79
aVshort-stories
p80
aVclassics
p81
aVfiction
p82
aVebook
p83
aVsci-fi
p84
aVkindle
p85
aVowned
p86
aVkobo
p87
aVbooks-i-own
p88
aVhorror
p89
aVenglish-literature
p90
aVfantasy
p91
aVfavorites
p92
aVdigital
p93
aVebooks
p94
aVfantascienza
p95
aVscifi
p96
aVproject-gutenberg
p97
aVown-ebook
p98
aVnot-read
p99
aVnarrativa
p100
aVcoursera
p101
aVcollections
p102
aVbibliotheca-mea
p103
aVanthology
p104
aVbabele
p105
aVjunk
p106
aVclassic-literature
p107
aVgift-ideas-for-sam
p108
aVmacher-library
p109
aVmacher-e-books
p110
aVzero-shelf
p111
aVstory-collections
p112
aVmy-library
p113
aVshort-story
p114
aVfiction-aams
p115
aVbooks-i-own-kindle
p116
aVaudio-books
p117
aVonline-literature
p118
aVlength-medium-100-200
p119
aVstatus-not-read-yet
p120
aVformat-kindle
p121
aV20th-century-lit
p122
aVto-review
p123
aVebooks-read
p124
aVbooks
p125
aVtbr-ebooks
p126
aVfantasy-and-sci-fi
p127
aVclassic-horror-etc
p128
aVboxed-set
p129
aVuk
p130
aVpublic-domain
p131
aVgutenberg
p132
aVgeneral-fiction
p133
aVbritish-literature
p134
aVnew
p135
aVon-librivox-web-site
p136
aVhorror-classici
p137
aVso-so-books
p138
aVnook
p139
aVhave-mobi
p140
aVhave-epub
p141
aVkindle-books
p142
aV0-owned
p143
aVsci-fiction
p144
aVkindle-editions
p145
aVclassics-i-want-to-read
p146
aVold-fiction
p147
aVx-m-auth
p148
aVzcollection
p149
aVon-kobo
p150
aV1-fiction
p151
aV0-all2
p152
aViown
p153
aVsuspense
p154
aVshort-stories-anthologies
p155
aVkindle-freebies
p156
aVcomprare
p157
aVfiction-scfi-horror
p158
aVcalibre
p159
aVhg-wells
p160
aVmine
p161
aVdiscworld
p162
aVe-books
p163
aVpurchased
p164
aVnext-x
p165
aVshort-stories-and-tales
p166
aVread-in-english
p167
aVirl-shelf
p168
aVfic-short
p169
aVhorror-sci-fi
p170
aVi-own-this
p171
aVkoboful
p172
aV2015-2read
p173
aVw-short
p174
aVradical-me
p175
aVliterature
p176
asS'loc_class'
p177
VPR: Language and Literatures: English literature
p178
sS'n_authors'
p179
I1
sb.