ccopy_reg
_reconstructor
p0
(cdataset.Book
Book
p1
c__builtin__
object
p2
Ntp3
Rp4
(dp5
S'content_name'
p6
V23929.txt.utf-8
p7
sS'isbn'
p8
NsS'year'
p9
I1960
sS'author_name'
p10
VMack Reynolds
p11
sS'images_urls'
p12
(lp13
Vhttp://www.gutenberg.org/files/23929/23929-h/images/001.png
p14
aVhttp://www.gutenberg.org/files/23929/23929-h/images/002.png
p15
aVhttp://www.gutenberg.org/files/23929/23929-h/images/003-1.png
p16
aVhttp://www.gutenberg.org/files/23929/23929-h/images/003-2.png
p17
aVhttp://www.gutenberg.org/files/23929/23929-h/images/004.png
p18
aVhttp://www.gutenberg.org/files/23929/23929-h/images/005.png
p19
asS'language_code'
p20
NsS'id'
p21
I630
sS'category'
p22
VText
p23
sS'genres'
p24
(lp25
sS'copyright'
p26
VPublic domain in the USA.
p27
sS'title'
p28
VRevolution
p29
sS'wikipedia'
p30
(dp31
S'found'
p32
I00
ssS'average_rating'
p33
F4.02
sS'rating_count'
p34
I8
sS'content_available'
p35
I01
sS'goodreads'
p36
(dp37
S'url'
p38
S'https://www.goodreads.com/book/show/6328940-revolution'
p39
sS'found'
p40
I01
ssS'similar_books'
p41
(lp42
sS'description'
p43
V"For some forty years critics of the U.S.S.R. have been desiring, predicting, not to mention praying for, its collapse," says Mack Reynolds in this story's preface. "For twenty of these years the author of this story has vaguely wondered what would replace the collapsed Soviet system. A return to Czarism? Oh, come now! Capitalism as we know it today in the advanced Western countries?" "Oh, if he'd only seen!, " we find ourselves thinking. Still, Reynolds has seen something, and he has a lot to say about it. See for yourself!
p44
sS'gutenberg'
p45
(dp46
S'url'
p47
Vhttp://www.gutenberg.org/ebooks/23929
p48
sS'num'
p49
I23929
ssS'authors'
p50
(lp51
I69
asS'isbn13'
p52
NsS'language'
p53
VEnglish
p54
sS'countries'
p55
(lp56
I2
asS'release_date'
p57
S'2007-12-20T00:00:00'
p58
sS'author'
p59
I69
sS'cover'
p60
Vhttps://s.gr-assets.com/assets/nophoto/book/111x148-bcc042a9c91a29c1d680899eff700a03.png
p61
sS'content_cleaned'
p62
I01
sS'classes'
p63
(lp64
Vto-read
p65
aVcurrently-reading
p66
aVsci-fi
p67
aVnext
p68
aVkindle
p69
aVone-book-a-day
p70
aVone-a-day-4
p71
aVanthology
p72
aVbacklog
p73
aVnext-fiction-tbr
p74
aVshort-stories
p75
aVpulp
p76
aVcold-war
p77
aV20th-century
p78
aV2017-or-later
p79
aVtbr-owned
p80
aVno-time-soon
p81
aVunknown-genre
p82
aVmaybe-someday
p83
aVscience-fiction
p84
aVfiction
p85
aVclassic-lit
p86
aVcollected-classics
p87
aV2017-2019
p88
aVhigh-priority
p89
aV2018-or-later
p90
aVlower-priority-tbr
p91
aVround-tuit
p92
aVowned-and-unread
p93
aVbacklogue
p94
asS'loc_class'
p95
VPS: Language and Literatures: American and Canadian literature
p96
sS'n_authors'
p97
I1
sb.