ccopy_reg
_reconstructor
p0
(cdataset.Book
Book
p1
c__builtin__
object
p2
Ntp3
Rp4
(dp5
S'content_name'
p6
V50924.txt.utf-8
p7
sS'isbn'
p8
V0224097377
p9
sS'year'
p10
I1963
sS'author_name'
p11
VRobert F. Young
p12
sS'images_urls'
p13
(lp14
Vhttp://www.gutenberg.org/files/50924/50924-h/images/cover.jpg
p15
aVhttp://www.gutenberg.org/files/50924/50924-h/images/illus.jpg
p16
asS'language_code'
p17
Veng
p18
sS'images'
p19
(lp20
sS'id'
p21
I674
sS'category'
p22
VText
p23
sS'genres'
p24
(lp25
sS'copyright'
p26
VPublic domain in the USA.
p27
sS'title'
p28
VSweet Tooth
p29
sS'wikipedia'
p30
(dp31
S'found'
p32
I00
ssS'average_rating'
p33
F3.4
sS'rating_count'
p34
I32670
sS'content_available'
p35
I01
sS'cover_art_url'
p36
S'http://www.gutenberg.org/cache/epub/50924/pg50924.cover.medium.jpg'
p37
sS'goodreads'
p38
(dp39
S'url'
p40
Vhttps://www.goodreads.com/book/show/13562049-sweet-tooth
p41
sg32
I01
sS'year'
p42
I2012
ssS'similar_books'
p43
(lp44
VWaiting for Sunrise
p45
aVThe Confidant
p46
aVA Delicate Truth
p47
aVAll That Is
p48
aVThe Heart Broke In
p49
aVLevels of Life
p50
aVIn Sunlight and in Shadow
p51
aVGods Without Men
p52
aVAt Last (Patrick Melrose #5)
p53
aVSkios
p54
aVWish You Were Here
p55
aVFobbit
p56
aVThe Stranger's Child
p57
aVThe Lighthouse
p58
aVThe Red and the Green (Vintage Classics)
p59
aVAncient Light
p60
aVThe Chemistry of Tears
p61
aVA Partial History of Lost Causes
p62
asS'description'
p63
VIan McEwan's mastery dazzles us in this superbly deft and witty story of betrayal and intrigue, love and the invented self.<br /><br />In this stunning new novel, Ian McEwan's first female protagonist since Atonement is about to learn that espionage is the ultimate seduction. <br /><br />Cambridge student Serena Frome's beauty and intelligence make her the ideal recruit for MI5. The year is 1972. The Cold War is far from over. England's legendary intelligence agency is determined to manipulate the cultural conversation by funding writers whose politics align with those of the government. The operation is code named "Sweet Tooth." <br /><br />Serena, a compulsive reader of novels, is the perfect candidate to infiltrate the literary circle of a promising young writer named Tom Haley. At first, she loves his stories. Then she begins to love the man. How long can she conceal her undercover life? To answer that question, Serena must abandon the first rule of espionage: trust no one. <br /><br />Once again, Ian McEwan's mastery dazzles us in this superbly deft and witty story of betrayal and intrigue, love and the invented self.
p64
sS'format'
p65
VHardcover
p66
sS'gutenberg'
p67
(dp68
g40
Vhttp://www.gutenberg.org/ebooks/50924
p69
sS'num'
p70
I50924
ssS'authors'
p71
(lp72
I153
asS'pages'
p73
I320
sS'isbn13'
p74
V9780224097376
p75
sS'language'
p76
VEnglish
p77
sS'countries'
p78
(lp79
I2
asS'release_date'
p80
S'2016-01-14T00:00:00'
p81
sS'author'
p82
I153
sS'content_cleaned'
p83
I01
sS'classes'
p84
(lp85
Vto-read
p86
aVcurrently-reading
p87
aVfiction
p88
aVhistorical-fiction
p89
aVbook-club
p90
aVmystery
p91
aVbritish
p92
aVliterary-fiction
p93
aVespionage
p94
aVkindle
p95
aVfavorites
p96
aVowned
p97
aVread-in-2013
p98
aVromance
p99
aVcontemporary
p100
aVbooks-i-own
p101
aVhistorical
p102
aVlibrary
p103
aVabandoned
p104
aVebook
p105
aVengland
p106
aVread-2013
p107
aVliterature
p108
aVcontemporary-fiction
p109
aVbritish-literature
p110
aVnovels
p111
aVdid-not-finish
p112
aVaudiobook
p113
aVian-mcewan
p114
aVthriller
p115
aVaudiobooks
p116
aVadult
p117
aVadult-fiction
p118
aVdidn-t-finish
p119
aVspy
p120
aVto-buy
p121
aVbookclub
p122
aVenglish
p123
aVspies
p124
aV2013-reads
p125
aVread-in-2012
p126
aVliterary
p127
aVnovel
p128
aVaudio
p129
aVread-in-2014
p130
aVcouldn-t-finish
p131
aVgeneral-fiction
p132
aVowned-books
p133
aVbook-group
p134
aVwish-list
p135
aV1970s
p136
aVuk
p137
aVdefault
p138
aVcold-war
p139
aVaudible
p140
aVunfinished
p141
aV21st-century
p142
aVlondon
p143
aVaudio-books
p144
aVsuspense
p145
aVe-book
p146
aVmaybe
p147
aVnever-finished
p148
aV2013-books
p149
aVe-books
p150
aVlibrary-book
p151
aVread-2014
p152
aVbooks-about-books
p153
aVbook-club-books
p154
aVdnf
p155
aVgave-up-on
p156
aVebooks
p157
aVbritain
p158
aVaudio-book
p159
aVbrit-lit
p160
aVmodern-fiction
p161
aVread-in-2015
p162
aVgave-up
p163
aVborrowed
p164
aVto-read-fiction
p165
aVhistory
p166
aVdrama
p167
aVspy-thriller
p168
aVeurope
p169
aVread-2012
p170
aVcrime
p171
aVstopped-reading
p172
aVcould-not-finish
p173
aVlibrary-books
p174
aVmystery-thriller
p175
aVmysteries
p176
aVfavourites
p177
aVmy-books
p178
aV2013-read
p179
aVbooks-read-in-2013
p180
aVfirst-reads
p181
aVmy-library
p182
aVread-in-english
p183
aVmcewan
p184
aV2012-books
p185
asS'loc_class'
p186
S''
p187
sS'n_authors'
p188
I1
sb.