ccopy_reg
_reconstructor
p0
(cdataset.Book
Book
p1
c__builtin__
object
p2
Ntp3
Rp4
(dp5
S'content_name'
p6
V23161.txt.utf-8
p7
sS'isbn'
p8
NsS'year'
p9
I1962
sS'author_name'
p10
VR. A. Lafferty
p11
sS'images_urls'
p12
(lp13
Vhttp://www.gutenberg.org/files/23161/23161-h/images/i-01.png
p14
aVhttp://www.gutenberg.org/files/23161/23161-page-images/c001.jpg
p15
aVhttp://www.gutenberg.org/files/23161/23161-page-images/p104.png
p16
aVhttp://www.gutenberg.org/files/23161/23161-page-images/p105.png
p17
aVhttp://www.gutenberg.org/files/23161/23161-page-images/p106.png
p18
aVhttp://www.gutenberg.org/files/23161/23161-page-images/p107.png
p19
aVhttp://www.gutenberg.org/files/23161/23161-page-images/p108.png
p20
aVhttp://www.gutenberg.org/files/23161/23161-page-images/p109.png
p21
aVhttp://www.gutenberg.org/files/23161/23161-page-images/p110.png
p22
aVhttp://www.gutenberg.org/files/23161/23161-page-images/p111.png
p23
asS'language_code'
p24
NsS'images'
p25
(lp26
sS'id'
p27
I283
sS'category'
p28
VText
p29
sS'genres'
p30
(lp31
sS'copyright'
p32
VPublic domain in the USA.
p33
sS'title'
p34
VSodom and Gomorrah, Texas
p35
sS'wikipedia'
p36
(dp37
S'found'
p38
I00
ssS'average_rating'
p39
F3.71
sS'rating_count'
p40
I45
sS'content_available'
p41
I01
sS'goodreads'
p42
(dp43
S'url'
p44
Vhttps://www.goodreads.com/book/show/6298637-sodom-and-gomorrah-texas
p45
sg38
I01
sS'year'
p46
I2008
ssS'similar_books'
p47
(lp48
sS'description'
p49
NsS'gutenberg'
p50
(dp51
g44
Vhttp://www.gutenberg.org/ebooks/23161
p52
sS'num'
p53
I23161
ssS'authors'
p54
(lp55
I74
asS'isbn13'
p56
NsS'language'
p57
VEnglish
p58
sS'countries'
p59
(lp60
I2
asS'release_date'
p61
S'2007-10-24T00:00:00'
p62
sS'author'
p63
I74
sS'content_cleaned'
p64
I01
sS'classes'
p65
(lp66
Vto-read
p67
aVscience-fiction
p68
aVshort-stories
p69
aVcurrently-reading
p70
aVsci-fi
p71
aVe-book
p72
aVsf-fantasy
p73
aVunread-owned
p74
aVscifi-fantasy
p75
aVebook
p76
aVaudio
p77
aVmodern-fantasy
p78
aVz_fiction
p79
aVx_shortstory
p80
aVwo_scifi
p81
aVw_us_unitary
p82
aVcheck-out
p83
aVread-short-stories
p84
aVmiscellany
p85
aVnovellas-poems-shorts
p86
aVfiction
p87
aVamerica
p88
aV1960s
p89
aVshorts
p90
aVoutread-aubrey-2014
p91
aV14
p92
aVgutenberg
p93
aVshortstories
p94
aVtype-short-story
p95
aVaudio-obtained-ss
p96
aVshort-stories-on-kindle
p97
asS'loc_class'
p98
VPS: Language and Literatures: American and Canadian literature
p99
sS'n_authors'
p100
I1
sb.