ccopy_reg
_reconstructor
p0
(cdataset.Book
Book
p1
c__builtin__
object
p2
Ntp3
Rp4
(dp5
S'content_name'
p6
V149.txt.utf-8
p7
sS'isbn'
p8
V1600961509
p9
sS'cover'
p10
Vhttps://s.gr-assets.com/assets/nophoto/book/111x148-bcc042a9c91a29c1d680899eff700a03.png
p11
sS'year'
p12
I1916
sS'author_name'
p13
VEdgar Rice Burroughs
p14
sS'images_urls'
p15
(lp16
sS'language_code'
p17
Veng
p18
sS'images'
p19
NsS'id'
p20
I88
sS'category'
p21
VText
p22
sS'plot'
p23
NsS'genres'
p24
(lp25
sS'copyright'
p26
VPublic domain in the USA.
p27
sS'title'
p28
VThe Lost Continent
p29
sS'wikipedia'
p30
(dp31
S'url'
p32
S'https://en.wikipedia.org/wiki/Beyond_Thirty'
p33
sS'found'
p34
I01
sS'year'
p35
I-1
ssS'published_in'
p36
NsS'average_rating'
p37
F3.83
sS'rating_count'
p38
I1104
sS'publisher_in'
p39
NsS'content_available'
p40
I01
sS'goodreads'
p41
(dp42
S'url'
p43
S'https://www.goodreads.com/book/show/29514.The_Lost_Continent'
p44
sS'found'
p45
I01
ssS'similar_books'
p46
(lp47
VAlmuric
p48
aVEdgar Rice Burroughs' Tarzan: The Land That Time Forgot
p49
aVArmageddon 2419 A.D.
p50
aVThe Unforsaken Hiero  (Hiero, #2)
p51
aVIn the Days of the Comet
p52
aVA Spectre Is Haunting Texas
p53
aVThe Fall of the Shell (The Pelbar Cycle, #4)
p54
aVApocalypse Nerd
p55
aVThe Babylonian Legends of Creation and the Fight Between Bel and the Dragon
p56
aVPlague Ship (Solar Queen, #2)
p57
aVAn Antarctic Mystery
p58
aVThe Last Man on Earth
p59
aVMasters Of The Pit Or Barbarians Of Mars (Michael Kane, Vol. 3)
p60
aVThe Story of Atlantis and the Lost Lemuria
p61
aVThe Syndic
p62
aVThe Stone God Awakens
p63
aVEdgar Rice Burroughs : Master of Adventure
p64
aVShe and Allan
p65
asS'description'
p66
VThe Lost Continent is one of the least-known of Burroughs' thrilling science-fiction tales. In the year 2137, civilization has been in decline for nearly two centuries, and war-torn Europe is but a distant memory to the inhabitants of the isolated United States. But an American adventurer rediscovers the Old World, which has become a strange and savage land.
p67
sS'gutenberg'
p68
(dp69
g32
Vhttp://www.gutenberg.org/ebooks/149
p70
sS'num'
p71
I149
ssS'authors'
p72
(lp73
I2
asS'pages'
p74
I108
sS'publisher'
p75
NsS'isbn13'
p76
V9781600961502
p77
sS'language'
p78
VEnglish
p79
sS'countries'
p80
(lp81
I2
asS'release_date'
p82
S'1994-07-01T00:00:00'
p83
sS'author'
p84
I2
sS'original_title'
p85
NsS'summary'
p86
NsS'content_cleaned'
p87
I01
sS'classes'
p88
(lp89
Vto-read
p90
aVscience-fiction
p91
aVcurrently-reading
p92
aVfiction
p93
aVfantasy
p94
aVsci-fi
p95
aVadventure
p96
aVclassics
p97
aVkindle
p98
aVebook
p99
aVedgar-rice-burroughs
p100
aVowned
p101
aVsf
p102
aVclassic
p103
aVpulp
p104
aVburroughs
p105
aVebooks
p106
aVscifi
p107
aVfic
p108
aValternate-history
p109
aVpost-apocalyptic
p110
aVsci-fi-fantasy
p111
aVbooks-i-own
p112
aVclassic-science-fiction
p113
aVe-book
p114
aVerb
p115
aVscience
p116
aVowned-books
p117
aVunread
p118
aVburroughs-edgar-rice
p119
aVowned-not-read
p120
aVdefault
p121
aVaction
p122
aVe-books
p123
aVe-r-burroughs
p124
aVtsundoku
p125
aVlost-world
p126
aVengland
p127
aVnovels
p128
aVto-read-maybe
p129
aVun-read
p130
aVaudio-book
p131
aVscience-fiction-fantasy
p132
aVpaperbacks
p133
aVon-kindle
p134
aVfantasy-sci-fi
p135
aVcataloged
p136
aVdystopian
p137
aVebooks-i-own
p138
aVthe-apocalist
p139
aVpulps
p140
aVfantasy-science-fiction
p141
aVclassic-sci-fi
p142
aVshort
p143
aVpost-apocalypse
p144
aVkindle-books
p145
aVsff
p146
aVnot-read
p147
aVsf-fantasy
p148
aVfantasy-sf
p149
aVz-read-type-audio
p150
aVz-read-src-lv
p151
aVmaybe
p152
aVintl-rel-polisci
p153
aVadventure-fantasy
p154
aVaudiobook
p155
aVfirst-read-2010-and-before
p156
aVsci-fi-or-fantasy
p157
aVfiction-to-read
p158
aVsounds-interesting
p159
aVhigh-priority
p160
aVsummer-audiobooks
p161
aVreread-again
p162
aVyear-2013
p163
aVe-reader
p164
aVsf-fan-horror
p165
aVhave
p166
aVshelfari-wishlist
p167
aVall-time-favorites
p168
aVactually-own
p169
aVto-read-science-fiction
p170
aVread-have
p171
aVapres-la-bombe
p172
aVshelved-tbr
p173
aVlit-usa
p174
aVkindlecollection
p175
aVamerican-pulp
p176
aVclassic-adventure
p177
aVread-in-2017
p178
aVlost-continents
p179
aVfik
p180
aVprior-2018
p181
aV2011-read
p182
aVto-buy
p183
aVps-american-literature
p184
aVguttenberg-project
p185
aVreference
p186
aVowned-to-read
p187
aVzz_aq_nidh
p188
aVabout-to-read-classics
p189
asS'loc_class'
p190
VPS: Language and Literatures: American and Canadian literature
p191
sS'cover_artist'
p192
NsS'n_authors'
p193
I1
sb.