ccopy_reg
_reconstructor
p0
(cdataset.Book
Book
p1
c__builtin__
object
p2
Ntp3
Rp4
(dp5
S'similar_books'
p6
(lp7
sS'genres'
p8
(lp9
sS'author'
p10
I302
sS'countries'
p11
(lp12
I2
asS'year'
p13
I1975
sS'title'
p14
VGalaxy Magazine March 1975
p15
sS'cover'
p16
Vhttps://ia600205.us.archive.org/BookReader/BookReaderImages.php?zip=/5/items/Galaxy_v36n03_1975-03/Galaxy_v36n03_1975-03_jp2.zip&file=Galaxy_v36n03_1975-03_jp2/Galaxy_v36n03_1975-03_0000.jp2&scale=0&rotate=0
p17
sS'cover_art'
p18
S'http://www.isfdb.org/wiki/images/9/99/GALMAR75.jpg'
p19
sS'author_name'
p20
VGalaxy Magazine
p21
sS'images_urls'
p22
(lp23
sS'authors'
p24
(lp25
I744
aI499
aI742
aI764
aI734
aI356
aI341
aI326
aI748
aI770
aI591
aI771
aI772
aI773
aI302
asS'images'
p26
(lp27
sS'id'
p28
I1182
sS'contents'
p29
(lp30
(dp31
S'title'
p32
VIn This Month's Issue
p33
sS'author'
p34
I744
sa(dp35
g32
VThe Politics of Ratticide
p36
sg34
I499
sa(dp37
g32
VChangelings
p38
sg34
I499
sa(dp39
g32
VSign of the Unicorn (Part 3 of 3)
p40
sg34
I744
sa(dp41
g32
VSign of the Unicorn (Part 3 of 3) [2]
p42
sg34
I744
sa(dp43
g32
VNobody Likes to Be Lonely
p44
sg34
I499
sa(dp45
g32
VTree of Life
p46
sg34
I744
sa(dp47
g32
VShowcase (Galaxy, March 1975)
p48
sg34
I742
sa(dp49
g32
VIf This Goes On (and On and On ... )
p50
sg34
I764
sa(dp51
g32
VAbm, Missile-Eating Lasers and a Bi-Polar World
p52
sg34
I734
sa(dp53
g32
VForum: The Siren Song of Academe
p54
sg34
I356
sa(dp55
g32
VBookshelf (Galaxy, March 1975)
p56
sg34
I341
sa(dp57
g32
VDirections (Galaxy, March 1975)
p58
sg34
I326
sa(dp59
g32
VThe Politics of Ratticide
p60
sg34
I748
sa(dp61
g32
VNobody Likes to Be Lonely
p62
sg34
I770
sa(dp63
g32
VSign of the Unicorn (Part 3 of 3)
p64
sg34
I591
sa(dp65
g32
VIn This Month's Issue
p66
sg34
I771
sa(dp67
g32
VChangelings
p68
sg34
I772
sa(dp69
g32
VTree of Life
p70
sg34
I773
sasb.