ccopy_reg
_reconstructor
p0
(cdataset.Book
Book
p1
c__builtin__
object
p2
Ntp3
Rp4
(dp5
S'isbn'
p6
NsS'year'
p7
I-1
sS'author_name'
p8
VEd M. Clinton
p9
sS'images_urls'
p10
(lp11
Vhttp://www.gutenberg.org/files/35759/35759-h/images/cover.jpg
p12
aVhttp://www.gutenberg.org/files/35759/35759-h/images/im1.png
p13
aVhttp://www.gutenberg.org/files/35759/35759-rst/images/cover.jpg
p14
aVhttp://www.gutenberg.org/files/35759/35759-rst/images/im1.png
p15
asS'language_code'
p16
NsS'images'
p17
(lp18
sS'id'
p19
I873
sS'category'
p20
VText
p21
sS'genres'
p22
(lp23
sS'copyright'
p24
VPublic domain in the USA.
p25
sS'title'
p26
VSecurity Risk
p27
sS'wikipedia'
p28
(dp29
S'url'
p30
Vhttps://en.wikipedia.org/wiki/The_Enemy_(Bagley_novel)
p31
sS'found'
p32
I01
sS'year'
p33
I-1
ssS'published_in'
p34
NsS'average_rating'
p35
F3.54
sS'rating_count'
p36
I27
sS'content_available'
p37
I00
sS'cover_art_url'
p38
S'http://www.gutenberg.org/cache/epub/35759/pg35759.cover.medium.jpg'
p39
sS'goodreads'
p40
(dp41
g30
Vhttps://www.goodreads.com/book/show/11774880-security-risk
p42
sg32
I01
sg33
I2011
ssS'similar_books'
p43
(lp44
sS'description'
p45
NsS'format'
p46
NsS'gutenberg'
p47
(dp48
g30
Vhttp://www.gutenberg.org/ebooks/35759
p49
sS'num'
p50
I35759
ssS'authors'
p51
(lp52
I231
asS'isbn13'
p53
NsS'language'
p54
VEnglish
p55
sS'countries'
p56
(lp57
I2
asS'release_date'
p58
S'2011-04-02T00:00:00'
p59
sS'author'
p60
I231
sS'original_title'
p61
VThe Enemy (Bagley novel)
p62
sS'summary'
p63
VThe Enemy is a first person narrative espionage thriller novel by English author Desmond Bagley, first published in 1977. In 2001 it was made into a movie, starring Roger Moore, Luke Perry and Olivia d'Abo.
p64
sS'classes'
p65
(lp66
Vto-read
p67
aVpaige-tyler
p68
aVerotic
p69
aVbdsm
p70
aVcurrently-reading
p71
aVkindle
p72
aVcontemporary
p73
aVerotica
p74
aVkindle-books
p75
aVdl
p76
aVm
p77
aVquickies
p78
aVcontemp-romance
p79
aVbooks-i-own
p80
aVok
p81
aVhot
p82
aVspanking-specific
p83
aVerotic-and-contemporary
p84
aVromance-to-read
p85
aVmy-dropbox
p86
aVromance-erotica
p87
aVromance-contemporary
p88
aVromance
p89
aVcontemporary-erotica
p90
aVlaw-enforcement
p91
aVlend-me-books
p92
aVmen-in-uniform
p93
aVebook
p94
aVnon-nook-books
p95
aV2-romance-to-read
p96
aVmust-read
p97
asS'loc_class'
p98
VPS: Language and Literatures: American and Canadian literature
p99
sS'n_authors'
p100
I1
sb.