ccopy_reg
_reconstructor
p0
(cdataset.Book
Book
p1
c__builtin__
object
p2
Ntp3
Rp4
(dp5
S'similar_books'
p6
(lp7
sS'genres'
p8
(lp9
sS'author'
p10
I302
sS'countries'
p11
(lp12
I2
asS'year'
p13
I1969
sS'title'
p14
VGalaxy Magazine May 1969
p15
sS'cover'
p16
Vhttps://ia600204.us.archive.org/BookReader/BookReaderImages.php?zip=/16/items/Galaxy_v28n04_1969-05/Galaxy_v28n04_1969-05_jp2.zip&file=Galaxy_v28n04_1969-05_jp2/Galaxy_v28n04_1969-05_0000.jp2&scale=0&rotate=0
p17
sS'cover_art'
p18
S'http://www.isfdb.org/wiki/images/f/fd/GALMAY69.jpg'
p19
sS'author_name'
p20
VGalaxy Magazine
p21
sS'images_urls'
p22
(lp23
sS'authors'
p24
(lp25
I640
aI650
aI499
aI40
aI339
aI326
aI91
aI217
aI577
aI67
aI651
aI621
aI652
aI653
aI654
aI302
asS'images'
p26
(lp27
sS'id'
p28
I1133
sS'contents'
p29
(lp30
(dp31
g10
I640
sg14
VLittle Blue Hawk
p32
sa(dp33
g10
I640
sg14
VLittle Blue Hawk [2]
p34
sa(dp35
g10
I640
sg14
VLittle Blue Hawk [3]
p36
sa(dp37
g10
I650
sg14
VA Man Spekith
p38
sa(dp39
g10
I650
sg14
VA Man Spekith [2]
p40
sa(dp41
g10
I499
sg14
VAnd Now They Wake (Part 3 of 3)
p42
sa(dp43
g10
I499
sg14
VAnd Now They Wake (Part 3 of 3) [2]
p44
sa(dp45
g10
I499
sg14
VAnd Now They Wake (Part 3 of 3) [3]
p46
sa(dp47
g10
I40
sg14
VThe Littleness of Earth and the Bigness of Man
p48
sa(dp49
g10
I339
sg14
VFor Your Information: Max Valier and the Rocket-Propelled Airplane
p50
sa(dp51
g10
I326
sg14
VForecast (Galaxy, May 1969)
p52
sa(dp53
g10
I91
sg14
VGalaxy Bookshelf (Galaxy, May 1969)
p54
sa(dp55
g10
I326
sg14
VGalaxy's Stars (Galaxy, May 1969)
p56
sa(dp57
g10
I217
sg14
VA Man Spekith
p58
sa(dp59
g10
I577
sg14
VLittle Blue Hawk
p60
sa(dp61
g10
I67
sg14
VAnd Now They Wake (Part 3 of 3)
p62
sa(dp63
g10
I651
sg14
VThe Open Secrets
p64
sa(dp65
g10
I621
sg14
VStar Dream
p66
sa(dp67
g10
I652
sg14
VColoured Element
p68
sa(dp69
g10
I653
sg14
VKillerbot!
p70
sa(dp71
g10
I654
sg14
VThe Man Inside
p72
sasb.