ccopy_reg
_reconstructor
p0
(cdataset.Book
Book
p1
c__builtin__
object
p2
Ntp3
Rp4
(dp5
S'isbn'
p6
V0836941667
p7
sS'cover'
p8
Vhttps://images.gr-assets.com/books/1356557864l/3497718.jpg
p9
sS'year'
p10
I1899
sS'author_name'
p11
VH. G. Wells
p12
sS'images_urls'
p13
(lp14
Vhttp://www.gutenberg.org/files/27365/27365-h/images/001.jpg
p15
aVhttp://www.gutenberg.org/files/27365/27365-h/images/002.png
p16
aVhttp://www.gutenberg.org/files/27365/27365-page-images/c001.jpg
p17
aVhttp://www.gutenberg.org/files/27365/27365-page-images/f001.png
p18
aVhttp://www.gutenberg.org/files/27365/27365-page-images/f002.png
p19
aVhttp://www.gutenberg.org/files/27365/27365-page-images/f003.png
p20
aVhttp://www.gutenberg.org/files/27365/27365-page-images/f004.png
p21
aVhttp://www.gutenberg.org/files/27365/27365-page-images/f005.png
p22
aVhttp://www.gutenberg.org/files/27365/27365-page-images/f006.png
p23
aVhttp://www.gutenberg.org/files/27365/27365-page-images/f007.png
p24
aVhttp://www.gutenberg.org/files/27365/27365-page-images/p001.png
p25
aVhttp://www.gutenberg.org/files/27365/27365-page-images/p002.png
p26
aVhttp://www.gutenberg.org/files/27365/27365-page-images/p003.png
p27
aVhttp://www.gutenberg.org/files/27365/27365-page-images/p004.png
p28
aVhttp://www.gutenberg.org/files/27365/27365-page-images/p005.png
p29
aVhttp://www.gutenberg.org/files/27365/27365-page-images/p006.png
p30
aVhttp://www.gutenberg.org/files/27365/27365-page-images/p007.png
p31
aVhttp://www.gutenberg.org/files/27365/27365-page-images/p008.png
p32
aVhttp://www.gutenberg.org/files/27365/27365-page-images/p009.png
p33
aVhttp://www.gutenberg.org/files/27365/27365-page-images/p010.png
p34
aVhttp://www.gutenberg.org/files/27365/27365-page-images/p011.png
p35
aVhttp://www.gutenberg.org/files/27365/27365-page-images/p012.png
p36
aVhttp://www.gutenberg.org/files/27365/27365-page-images/p013.png
p37
aVhttp://www.gutenberg.org/files/27365/27365-page-images/p014.png
p38
aVhttp://www.gutenberg.org/files/27365/27365-page-images/p015.png
p39
aVhttp://www.gutenberg.org/files/27365/27365-page-images/p016.png
p40
aVhttp://www.gutenberg.org/files/27365/27365-page-images/p017.png
p41
aVhttp://www.gutenberg.org/files/27365/27365-page-images/p018.png
p42
aVhttp://www.gutenberg.org/files/27365/27365-page-images/p019.png
p43
aVhttp://www.gutenberg.org/files/27365/27365-page-images/p020.png
p44
aVhttp://www.gutenberg.org/files/27365/27365-page-images/p021.png
p45
aVhttp://www.gutenberg.org/files/27365/27365-page-images/p022.png
p46
aVhttp://www.gutenberg.org/files/27365/27365-page-images/p023.png
p47
aVhttp://www.gutenberg.org/files/27365/27365-page-images/p024.png
p48
aVhttp://www.gutenberg.org/files/27365/27365-page-images/p025.png
p49
aVhttp://www.gutenberg.org/files/27365/27365-page-images/p026.png
p50
aVhttp://www.gutenberg.org/files/27365/27365-page-images/p027.png
p51
aVhttp://www.gutenberg.org/files/27365/27365-page-images/p028.png
p52
aVhttp://www.gutenberg.org/files/27365/27365-page-images/p029.png
p53
aVhttp://www.gutenberg.org/files/27365/27365-page-images/p030.png
p54
aVhttp://www.gutenberg.org/files/27365/27365-page-images/p031.png
p55
aVhttp://www.gutenberg.org/files/27365/27365-page-images/p032.png
p56
aVhttp://www.gutenberg.org/files/27365/27365-page-images/p033.png
p57
aVhttp://www.gutenberg.org/files/27365/27365-page-images/p034.png
p58
aVhttp://www.gutenberg.org/files/27365/27365-page-images/p035.png
p59
aVhttp://www.gutenberg.org/files/27365/27365-page-images/p036.png
p60
aVhttp://www.gutenberg.org/files/27365/27365-page-images/p037.png
p61
aVhttp://www.gutenberg.org/files/27365/27365-page-images/p038.png
p62
aVhttp://www.gutenberg.org/files/27365/27365-page-images/p039.png
p63
aVhttp://www.gutenberg.org/files/27365/27365-page-images/p040.png
p64
aVhttp://www.gutenberg.org/files/27365/27365-page-images/p041.png
p65
aVhttp://www.gutenberg.org/files/27365/27365-page-images/p042.png
p66
aVhttp://www.gutenberg.org/files/27365/27365-page-images/p043.png
p67
aVhttp://www.gutenberg.org/files/27365/27365-page-images/p044.png
p68
aVhttp://www.gutenberg.org/files/27365/27365-page-images/p045.png
p69
aVhttp://www.gutenberg.org/files/27365/27365-page-images/p046.png
p70
aVhttp://www.gutenberg.org/files/27365/27365-page-images/p047.png
p71
aVhttp://www.gutenberg.org/files/27365/27365-page-images/p048.png
p72
aVhttp://www.gutenberg.org/files/27365/27365-page-images/p049.png
p73
aVhttp://www.gutenberg.org/files/27365/27365-page-images/p050.png
p74
aVhttp://www.gutenberg.org/files/27365/27365-page-images/p051.png
p75
aVhttp://www.gutenberg.org/files/27365/27365-page-images/p052.png
p76
aVhttp://www.gutenberg.org/files/27365/27365-page-images/p053.png
p77
aVhttp://www.gutenberg.org/files/27365/27365-page-images/p054.png
p78
aVhttp://www.gutenberg.org/files/27365/27365-page-images/p055.png
p79
aVhttp://www.gutenberg.org/files/27365/27365-page-images/p056.png
p80
aVhttp://www.gutenberg.org/files/27365/27365-page-images/p057.png
p81
aVhttp://www.gutenberg.org/files/27365/27365-page-images/p058.png
p82
aVhttp://www.gutenberg.org/files/27365/27365-page-images/p059.png
p83
aVhttp://www.gutenberg.org/files/27365/27365-page-images/p060.png
p84
aVhttp://www.gutenberg.org/files/27365/27365-page-images/p061.png
p85
aVhttp://www.gutenberg.org/files/27365/27365-page-images/p062.png
p86
aVhttp://www.gutenberg.org/files/27365/27365-page-images/p063.png
p87
aVhttp://www.gutenberg.org/files/27365/27365-page-images/p064.png
p88
aVhttp://www.gutenberg.org/files/27365/27365-page-images/p065.png
p89
aVhttp://www.gutenberg.org/files/27365/27365-page-images/p066.png
p90
aVhttp://www.gutenberg.org/files/27365/27365-page-images/p067.png
p91
aVhttp://www.gutenberg.org/files/27365/27365-page-images/p068.png
p92
aVhttp://www.gutenberg.org/files/27365/27365-page-images/p069.png
p93
aVhttp://www.gutenberg.org/files/27365/27365-page-images/p070.png
p94
aVhttp://www.gutenberg.org/files/27365/27365-page-images/p071.png
p95
aVhttp://www.gutenberg.org/files/27365/27365-page-images/p072.png
p96
aVhttp://www.gutenberg.org/files/27365/27365-page-images/p073.png
p97
aVhttp://www.gutenberg.org/files/27365/27365-page-images/p074.png
p98
aVhttp://www.gutenberg.org/files/27365/27365-page-images/p075.png
p99
aVhttp://www.gutenberg.org/files/27365/27365-page-images/p076.png
p100
aVhttp://www.gutenberg.org/files/27365/27365-page-images/p077.png
p101
aVhttp://www.gutenberg.org/files/27365/27365-page-images/p078.png
p102
aVhttp://www.gutenberg.org/files/27365/27365-page-images/p079.png
p103
aVhttp://www.gutenberg.org/files/27365/27365-page-images/p080.png
p104
aVhttp://www.gutenberg.org/files/27365/27365-page-images/p081.png
p105
aVhttp://www.gutenberg.org/files/27365/27365-page-images/p082.png
p106
aVhttp://www.gutenberg.org/files/27365/27365-page-images/p083.png
p107
aVhttp://www.gutenberg.org/files/27365/27365-page-images/p084.png
p108
aVhttp://www.gutenberg.org/files/27365/27365-page-images/p085.png
p109
aVhttp://www.gutenberg.org/files/27365/27365-page-images/p086.png
p110
aVhttp://www.gutenberg.org/files/27365/27365-page-images/p087.png
p111
aVhttp://www.gutenberg.org/files/27365/27365-page-images/p088.png
p112
aVhttp://www.gutenberg.org/files/27365/27365-page-images/p089.png
p113
aVhttp://www.gutenberg.org/files/27365/27365-page-images/p090.png
p114
aVhttp://www.gutenberg.org/files/27365/27365-page-images/p091.png
p115
aVhttp://www.gutenberg.org/files/27365/27365-page-images/p092.png
p116
aVhttp://www.gutenberg.org/files/27365/27365-page-images/p093.png
p117
aVhttp://www.gutenberg.org/files/27365/27365-page-images/p094.png
p118
aVhttp://www.gutenberg.org/files/27365/27365-page-images/p095.png
p119
aVhttp://www.gutenberg.org/files/27365/27365-page-images/p096.png
p120
aVhttp://www.gutenberg.org/files/27365/27365-page-images/p097.png
p121
aVhttp://www.gutenberg.org/files/27365/27365-page-images/p098.png
p122
aVhttp://www.gutenberg.org/files/27365/27365-page-images/p099.png
p123
aVhttp://www.gutenberg.org/files/27365/27365-page-images/p100.png
p124
aVhttp://www.gutenberg.org/files/27365/27365-page-images/p101.png
p125
aVhttp://www.gutenberg.org/files/27365/27365-page-images/p102.png
p126
aVhttp://www.gutenberg.org/files/27365/27365-page-images/p103.png
p127
aVhttp://www.gutenberg.org/files/27365/27365-page-images/p104.png
p128
aVhttp://www.gutenberg.org/files/27365/27365-page-images/p105.png
p129
aVhttp://www.gutenberg.org/files/27365/27365-page-images/p106.png
p130
aVhttp://www.gutenberg.org/files/27365/27365-page-images/p107.png
p131
aVhttp://www.gutenberg.org/files/27365/27365-page-images/p108.png
p132
aVhttp://www.gutenberg.org/files/27365/27365-page-images/p109.png
p133
aVhttp://www.gutenberg.org/files/27365/27365-page-images/p110.png
p134
aVhttp://www.gutenberg.org/files/27365/27365-page-images/p111.png
p135
aVhttp://www.gutenberg.org/files/27365/27365-page-images/p112.png
p136
aVhttp://www.gutenberg.org/files/27365/27365-page-images/p113.png
p137
aVhttp://www.gutenberg.org/files/27365/27365-page-images/p114.png
p138
aVhttp://www.gutenberg.org/files/27365/27365-page-images/p115.png
p139
aVhttp://www.gutenberg.org/files/27365/27365-page-images/p116.png
p140
aVhttp://www.gutenberg.org/files/27365/27365-page-images/p117.png
p141
aVhttp://www.gutenberg.org/files/27365/27365-page-images/p118.png
p142
aVhttp://www.gutenberg.org/files/27365/27365-page-images/p119.png
p143
aVhttp://www.gutenberg.org/files/27365/27365-page-images/p120.png
p144
aVhttp://www.gutenberg.org/files/27365/27365-page-images/p121.png
p145
aVhttp://www.gutenberg.org/files/27365/27365-page-images/p122.png
p146
aVhttp://www.gutenberg.org/files/27365/27365-page-images/p123.png
p147
aVhttp://www.gutenberg.org/files/27365/27365-page-images/p124.png
p148
aVhttp://www.gutenberg.org/files/27365/27365-page-images/p125.png
p149
aVhttp://www.gutenberg.org/files/27365/27365-page-images/p126.png
p150
aVhttp://www.gutenberg.org/files/27365/27365-page-images/p127.png
p151
aVhttp://www.gutenberg.org/files/27365/27365-page-images/p128.png
p152
aVhttp://www.gutenberg.org/files/27365/27365-page-images/p129.png
p153
aVhttp://www.gutenberg.org/files/27365/27365-page-images/p130.png
p154
aVhttp://www.gutenberg.org/files/27365/27365-page-images/p131.png
p155
aVhttp://www.gutenberg.org/files/27365/27365-page-images/p132.png
p156
aVhttp://www.gutenberg.org/files/27365/27365-page-images/p133.png
p157
aVhttp://www.gutenberg.org/files/27365/27365-page-images/p134.png
p158
aVhttp://www.gutenberg.org/files/27365/27365-page-images/p135.png
p159
aVhttp://www.gutenberg.org/files/27365/27365-page-images/p136.png
p160
aVhttp://www.gutenberg.org/files/27365/27365-page-images/p137.png
p161
aVhttp://www.gutenberg.org/files/27365/27365-page-images/p138.png
p162
aVhttp://www.gutenberg.org/files/27365/27365-page-images/p139.png
p163
aVhttp://www.gutenberg.org/files/27365/27365-page-images/p140.png
p164
aVhttp://www.gutenberg.org/files/27365/27365-page-images/p141.png
p165
aVhttp://www.gutenberg.org/files/27365/27365-page-images/p142.png
p166
aVhttp://www.gutenberg.org/files/27365/27365-page-images/p143.png
p167
aVhttp://www.gutenberg.org/files/27365/27365-page-images/p144.png
p168
aVhttp://www.gutenberg.org/files/27365/27365-page-images/p145.png
p169
aVhttp://www.gutenberg.org/files/27365/27365-page-images/p146.png
p170
aVhttp://www.gutenberg.org/files/27365/27365-page-images/p147.png
p171
aVhttp://www.gutenberg.org/files/27365/27365-page-images/p148.png
p172
aVhttp://www.gutenberg.org/files/27365/27365-page-images/p149.png
p173
aVhttp://www.gutenberg.org/files/27365/27365-page-images/p150.png
p174
aVhttp://www.gutenberg.org/files/27365/27365-page-images/p151.png
p175
aVhttp://www.gutenberg.org/files/27365/27365-page-images/p152.png
p176
aVhttp://www.gutenberg.org/files/27365/27365-page-images/p153.png
p177
aVhttp://www.gutenberg.org/files/27365/27365-page-images/p154.png
p178
aVhttp://www.gutenberg.org/files/27365/27365-page-images/p155.png
p179
aVhttp://www.gutenberg.org/files/27365/27365-page-images/p156.png
p180
aVhttp://www.gutenberg.org/files/27365/27365-page-images/p157.png
p181
aVhttp://www.gutenberg.org/files/27365/27365-page-images/p158.png
p182
aVhttp://www.gutenberg.org/files/27365/27365-page-images/p159.png
p183
aVhttp://www.gutenberg.org/files/27365/27365-page-images/p160.png
p184
aVhttp://www.gutenberg.org/files/27365/27365-page-images/p161.png
p185
aVhttp://www.gutenberg.org/files/27365/27365-page-images/p162.png
p186
aVhttp://www.gutenberg.org/files/27365/27365-page-images/p163.png
p187
aVhttp://www.gutenberg.org/files/27365/27365-page-images/p164.png
p188
aVhttp://www.gutenberg.org/files/27365/27365-page-images/p165.png
p189
aVhttp://www.gutenberg.org/files/27365/27365-page-images/p166.png
p190
aVhttp://www.gutenberg.org/files/27365/27365-page-images/p167.png
p191
aVhttp://www.gutenberg.org/files/27365/27365-page-images/p168.png
p192
aVhttp://www.gutenberg.org/files/27365/27365-page-images/p169.png
p193
aVhttp://www.gutenberg.org/files/27365/27365-page-images/p170.png
p194
aVhttp://www.gutenberg.org/files/27365/27365-page-images/p171.png
p195
aVhttp://www.gutenberg.org/files/27365/27365-page-images/p172.png
p196
aVhttp://www.gutenberg.org/files/27365/27365-page-images/p173.png
p197
aVhttp://www.gutenberg.org/files/27365/27365-page-images/p174.png
p198
aVhttp://www.gutenberg.org/files/27365/27365-page-images/p175.png
p199
aVhttp://www.gutenberg.org/files/27365/27365-page-images/p176.png
p200
aVhttp://www.gutenberg.org/files/27365/27365-page-images/p177.png
p201
aVhttp://www.gutenberg.org/files/27365/27365-page-images/p178.png
p202
aVhttp://www.gutenberg.org/files/27365/27365-page-images/p179.png
p203
aVhttp://www.gutenberg.org/files/27365/27365-page-images/p180.png
p204
aVhttp://www.gutenberg.org/files/27365/27365-page-images/p181.png
p205
aVhttp://www.gutenberg.org/files/27365/27365-page-images/p182.png
p206
aVhttp://www.gutenberg.org/files/27365/27365-page-images/p183.png
p207
aVhttp://www.gutenberg.org/files/27365/27365-page-images/p184.png
p208
aVhttp://www.gutenberg.org/files/27365/27365-page-images/p185.png
p209
aVhttp://www.gutenberg.org/files/27365/27365-page-images/p186.png
p210
aVhttp://www.gutenberg.org/files/27365/27365-page-images/p187.png
p211
aVhttp://www.gutenberg.org/files/27365/27365-page-images/p188.png
p212
aVhttp://www.gutenberg.org/files/27365/27365-page-images/p189.png
p213
aVhttp://www.gutenberg.org/files/27365/27365-page-images/p190.png
p214
aVhttp://www.gutenberg.org/files/27365/27365-page-images/p191.png
p215
aVhttp://www.gutenberg.org/files/27365/27365-page-images/p192.png
p216
aVhttp://www.gutenberg.org/files/27365/27365-page-images/p193.png
p217
aVhttp://www.gutenberg.org/files/27365/27365-page-images/p194.png
p218
aVhttp://www.gutenberg.org/files/27365/27365-page-images/p195.png
p219
aVhttp://www.gutenberg.org/files/27365/27365-page-images/p196.png
p220
aVhttp://www.gutenberg.org/files/27365/27365-page-images/p197.png
p221
aVhttp://www.gutenberg.org/files/27365/27365-page-images/p198.png
p222
aVhttp://www.gutenberg.org/files/27365/27365-page-images/p199.png
p223
aVhttp://www.gutenberg.org/files/27365/27365-page-images/p200.png
p224
aVhttp://www.gutenberg.org/files/27365/27365-page-images/p201.png
p225
aVhttp://www.gutenberg.org/files/27365/27365-page-images/p202.png
p226
aVhttp://www.gutenberg.org/files/27365/27365-page-images/p203.png
p227
aVhttp://www.gutenberg.org/files/27365/27365-page-images/p204.png
p228
aVhttp://www.gutenberg.org/files/27365/27365-page-images/p205.png
p229
aVhttp://www.gutenberg.org/files/27365/27365-page-images/p206.png
p230
aVhttp://www.gutenberg.org/files/27365/27365-page-images/p207.png
p231
aVhttp://www.gutenberg.org/files/27365/27365-page-images/p208.png
p232
aVhttp://www.gutenberg.org/files/27365/27365-page-images/p209.png
p233
aVhttp://www.gutenberg.org/files/27365/27365-page-images/p210.png
p234
aVhttp://www.gutenberg.org/files/27365/27365-page-images/p211.png
p235
aVhttp://www.gutenberg.org/files/27365/27365-page-images/p212.png
p236
aVhttp://www.gutenberg.org/files/27365/27365-page-images/p213.png
p237
aVhttp://www.gutenberg.org/files/27365/27365-page-images/p214.png
p238
aVhttp://www.gutenberg.org/files/27365/27365-page-images/p215.png
p239
aVhttp://www.gutenberg.org/files/27365/27365-page-images/p216.png
p240
aVhttp://www.gutenberg.org/files/27365/27365-page-images/p217.png
p241
aVhttp://www.gutenberg.org/files/27365/27365-page-images/p218.png
p242
aVhttp://www.gutenberg.org/files/27365/27365-page-images/p219.png
p243
aVhttp://www.gutenberg.org/files/27365/27365-page-images/p220.png
p244
aVhttp://www.gutenberg.org/files/27365/27365-page-images/p221.png
p245
aVhttp://www.gutenberg.org/files/27365/27365-page-images/p222.png
p246
aVhttp://www.gutenberg.org/files/27365/27365-page-images/p223.png
p247
aVhttp://www.gutenberg.org/files/27365/27365-page-images/p224.png
p248
aVhttp://www.gutenberg.org/files/27365/27365-page-images/p225.png
p249
aVhttp://www.gutenberg.org/files/27365/27365-page-images/p226.png
p250
aVhttp://www.gutenberg.org/files/27365/27365-page-images/p227.png
p251
aVhttp://www.gutenberg.org/files/27365/27365-page-images/p228.png
p252
aVhttp://www.gutenberg.org/files/27365/27365-page-images/p229.png
p253
aVhttp://www.gutenberg.org/files/27365/27365-page-images/p230.png
p254
aVhttp://www.gutenberg.org/files/27365/27365-page-images/p231.png
p255
aVhttp://www.gutenberg.org/files/27365/27365-page-images/p232.png
p256
aVhttp://www.gutenberg.org/files/27365/27365-page-images/p233.png
p257
aVhttp://www.gutenberg.org/files/27365/27365-page-images/p234.png
p258
aVhttp://www.gutenberg.org/files/27365/27365-page-images/p235.png
p259
aVhttp://www.gutenberg.org/files/27365/27365-page-images/p236.png
p260
aVhttp://www.gutenberg.org/files/27365/27365-page-images/p237.png
p261
aVhttp://www.gutenberg.org/files/27365/27365-page-images/p238.png
p262
aVhttp://www.gutenberg.org/files/27365/27365-page-images/p239.png
p263
aVhttp://www.gutenberg.org/files/27365/27365-page-images/p240.png
p264
aVhttp://www.gutenberg.org/files/27365/27365-page-images/p241.png
p265
aVhttp://www.gutenberg.org/files/27365/27365-page-images/p242.png
p266
aVhttp://www.gutenberg.org/files/27365/27365-page-images/p243.png
p267
aVhttp://www.gutenberg.org/files/27365/27365-page-images/p244.png
p268
aVhttp://www.gutenberg.org/files/27365/27365-page-images/p245.png
p269
aVhttp://www.gutenberg.org/files/27365/27365-page-images/p246.png
p270
aVhttp://www.gutenberg.org/files/27365/27365-page-images/p247.png
p271
aVhttp://www.gutenberg.org/files/27365/27365-page-images/p248.png
p272
aVhttp://www.gutenberg.org/files/27365/27365-page-images/p249.png
p273
aVhttp://www.gutenberg.org/files/27365/27365-page-images/p250.png
p274
aVhttp://www.gutenberg.org/files/27365/27365-page-images/p251.png
p275
aVhttp://www.gutenberg.org/files/27365/27365-page-images/p252.png
p276
aVhttp://www.gutenberg.org/files/27365/27365-page-images/p253.png
p277
aVhttp://www.gutenberg.org/files/27365/27365-page-images/p254.png
p278
aVhttp://www.gutenberg.org/files/27365/27365-page-images/p255.png
p279
aVhttp://www.gutenberg.org/files/27365/27365-page-images/p256.png
p280
aVhttp://www.gutenberg.org/files/27365/27365-page-images/p257.png
p281
aVhttp://www.gutenberg.org/files/27365/27365-page-images/p258.png
p282
aVhttp://www.gutenberg.org/files/27365/27365-page-images/p259.png
p283
aVhttp://www.gutenberg.org/files/27365/27365-page-images/p260.png
p284
aVhttp://www.gutenberg.org/files/27365/27365-page-images/p261.png
p285
aVhttp://www.gutenberg.org/files/27365/27365-page-images/p262.png
p286
aVhttp://www.gutenberg.org/files/27365/27365-page-images/p263.png
p287
aVhttp://www.gutenberg.org/files/27365/27365-page-images/p264.png
p288
aVhttp://www.gutenberg.org/files/27365/27365-page-images/p265.png
p289
aVhttp://www.gutenberg.org/files/27365/27365-page-images/p266.png
p290
aVhttp://www.gutenberg.org/files/27365/27365-page-images/p267.png
p291
aVhttp://www.gutenberg.org/files/27365/27365-page-images/p268.png
p292
aVhttp://www.gutenberg.org/files/27365/27365-page-images/p269.png
p293
aVhttp://www.gutenberg.org/files/27365/27365-page-images/p270.png
p294
aVhttp://www.gutenberg.org/files/27365/27365-page-images/p271.png
p295
aVhttp://www.gutenberg.org/files/27365/27365-page-images/p272.png
p296
aVhttp://www.gutenberg.org/files/27365/27365-page-images/p273.png
p297
aVhttp://www.gutenberg.org/files/27365/27365-page-images/p274.png
p298
aVhttp://www.gutenberg.org/files/27365/27365-page-images/p275.png
p299
aVhttp://www.gutenberg.org/files/27365/27365-page-images/p276.png
p300
aVhttp://www.gutenberg.org/files/27365/27365-page-images/p277.png
p301
aVhttp://www.gutenberg.org/files/27365/27365-page-images/p278.png
p302
aVhttp://www.gutenberg.org/files/27365/27365-page-images/p279.png
p303
aVhttp://www.gutenberg.org/files/27365/27365-page-images/p280.png
p304
aVhttp://www.gutenberg.org/files/27365/27365-page-images/p281.png
p305
aVhttp://www.gutenberg.org/files/27365/27365-page-images/p282.png
p306
aVhttp://www.gutenberg.org/files/27365/27365-page-images/p283.png
p307
aVhttp://www.gutenberg.org/files/27365/27365-page-images/p284.png
p308
aVhttp://www.gutenberg.org/files/27365/27365-page-images/p285.png
p309
aVhttp://www.gutenberg.org/files/27365/27365-page-images/p286.png
p310
aVhttp://www.gutenberg.org/files/27365/27365-page-images/p287.png
p311
aVhttp://www.gutenberg.org/files/27365/27365-page-images/p288.png
p312
aVhttp://www.gutenberg.org/files/27365/27365-page-images/p289.png
p313
aVhttp://www.gutenberg.org/files/27365/27365-page-images/p290.png
p314
aVhttp://www.gutenberg.org/files/27365/27365-page-images/p291.png
p315
aVhttp://www.gutenberg.org/files/27365/27365-page-images/p292.png
p316
aVhttp://www.gutenberg.org/files/27365/27365-page-images/p293.png
p317
aVhttp://www.gutenberg.org/files/27365/27365-page-images/p294.png
p318
aVhttp://www.gutenberg.org/files/27365/27365-page-images/p295.png
p319
aVhttp://www.gutenberg.org/files/27365/27365-page-images/p296.png
p320
aVhttp://www.gutenberg.org/files/27365/27365-page-images/p297.png
p321
aVhttp://www.gutenberg.org/files/27365/27365-page-images/p298.png
p322
aVhttp://www.gutenberg.org/files/27365/27365-page-images/p299.png
p323
aVhttp://www.gutenberg.org/files/27365/27365-page-images/p300.png
p324
aVhttp://www.gutenberg.org/files/27365/27365-page-images/p301.png
p325
aVhttp://www.gutenberg.org/files/27365/27365-page-images/p302.png
p326
aVhttp://www.gutenberg.org/files/27365/27365-page-images/p303.png
p327
aVhttp://www.gutenberg.org/files/27365/27365-page-images/p304.png
p328
aVhttp://www.gutenberg.org/files/27365/27365-page-images/p305.png
p329
aVhttp://www.gutenberg.org/files/27365/27365-page-images/p306.png
p330
aVhttp://www.gutenberg.org/files/27365/27365-page-images/p307.png
p331
aVhttp://www.gutenberg.org/files/27365/27365-page-images/p308.png
p332
aVhttp://www.gutenberg.org/files/27365/27365-page-images/p309.png
p333
aVhttp://www.gutenberg.org/files/27365/27365-page-images/p310.png
p334
aVhttp://www.gutenberg.org/files/27365/27365-page-images/p311.png
p335
aVhttp://www.gutenberg.org/files/27365/27365-page-images/p312.png
p336
aVhttp://www.gutenberg.org/files/27365/27365-page-images/p313.png
p337
aVhttp://www.gutenberg.org/files/27365/27365-page-images/p314.png
p338
aVhttp://www.gutenberg.org/files/27365/27365-page-images/p315.png
p339
aVhttp://www.gutenberg.org/files/27365/27365-page-images/p316.png
p340
aVhttp://www.gutenberg.org/files/27365/27365-page-images/p317.png
p341
aVhttp://www.gutenberg.org/files/27365/27365-page-images/p318.png
p342
aVhttp://www.gutenberg.org/files/27365/27365-page-images/p319.png
p343
aVhttp://www.gutenberg.org/files/27365/27365-page-images/p320.png
p344
aVhttp://www.gutenberg.org/files/27365/27365-page-images/p321.png
p345
aVhttp://www.gutenberg.org/files/27365/27365-page-images/p322.png
p346
aVhttp://www.gutenberg.org/files/27365/27365-page-images/p323.png
p347
aVhttp://www.gutenberg.org/files/27365/27365-page-images/p324.png
p348
aVhttp://www.gutenberg.org/files/27365/27365-page-images/p325.png
p349
aVhttp://www.gutenberg.org/files/27365/27365-page-images/p326.png
p350
aVhttp://www.gutenberg.org/files/27365/27365-page-images/p327.png
p351
aVhttp://www.gutenberg.org/files/27365/27365-page-images/p328.png
p352
aVhttp://www.gutenberg.org/files/27365/27365-page-images/p329.png
p353
aVhttp://www.gutenberg.org/files/27365/27365-page-images/p330.png
p354
aVhttp://www.gutenberg.org/files/27365/27365-page-images/p331.png
p355
aVhttp://www.gutenberg.org/files/27365/27365-page-images/p332.png
p356
aVhttp://www.gutenberg.org/files/27365/27365-page-images/p333.png
p357
aVhttp://www.gutenberg.org/files/27365/27365-page-images/p334.png
p358
aVhttp://www.gutenberg.org/files/27365/27365-page-images/p335.png
p359
aVhttp://www.gutenberg.org/files/27365/27365-page-images/p336.png
p360
aVhttp://www.gutenberg.org/files/27365/27365-page-images/p337.png
p361
aVhttp://www.gutenberg.org/files/27365/27365-page-images/p338.png
p362
aVhttp://www.gutenberg.org/files/27365/27365-page-images/p339.png
p363
aVhttp://www.gutenberg.org/files/27365/27365-page-images/p340.png
p364
aVhttp://www.gutenberg.org/files/27365/27365-page-images/p341.png
p365
aVhttp://www.gutenberg.org/files/27365/27365-page-images/p342.png
p366
aVhttp://www.gutenberg.org/files/27365/27365-page-images/p343.png
p367
aVhttp://www.gutenberg.org/files/27365/27365-page-images/p344.png
p368
aVhttp://www.gutenberg.org/files/27365/27365-page-images/p345.png
p369
aVhttp://www.gutenberg.org/files/27365/27365-page-images/p346.png
p370
aVhttp://www.gutenberg.org/files/27365/27365-page-images/p347.png
p371
aVhttp://www.gutenberg.org/files/27365/27365-page-images/p348.png
p372
aVhttp://www.gutenberg.org/files/27365/27365-page-images/p349.png
p373
aVhttp://www.gutenberg.org/files/27365/27365-page-images/p350.png
p374
aVhttp://www.gutenberg.org/files/27365/27365-page-images/p351.png
p375
aVhttp://www.gutenberg.org/files/27365/27365-page-images/p352.png
p376
aVhttp://www.gutenberg.org/files/27365/27365-page-images/p353.png
p377
aVhttp://www.gutenberg.org/files/27365/27365-page-images/p354.png
p378
aVhttp://www.gutenberg.org/files/27365/27365-page-images/p355.png
p379
aVhttp://www.gutenberg.org/files/27365/27365-page-images/p356.png
p380
aVhttp://www.gutenberg.org/files/27365/27365-page-images/p357.png
p381
aVhttp://www.gutenberg.org/files/27365/27365-page-images/p358.png
p382
aVhttp://www.gutenberg.org/files/27365/27365-page-images/p359.png
p383
aVhttp://www.gutenberg.org/files/27365/27365-page-images/p360.png
p384
aVhttp://www.gutenberg.org/files/27365/27365-page-images/p361.png
p385
asS'language_code'
p386
Veng
p387
sS'images'
p388
(lp389
Vhttps://upload.wikimedia.org/wikipedia/en/1/1a/Wells_TalesSpaceTime%281st_edition%29.jpg
p390
asS'id'
p391
I51
sS'category'
p392
VText
p393
sS'genres'
p394
(lp395
sS'copyright'
p396
VPublic domain in the USA.
p397
sS'title'
p398
VTales of Space and Time
p399
sS'wikipedia'
p400
(dp401
S'url'
p402
Vhttps://en.wikipedia.org/wiki/Tales_of_Space_and_Time
p403
sS'found'
p404
I01
sS'year'
p405
I-1
ssS'published_in'
p406
NsS'average_rating'
p407
F3.84
sS'rating_count'
p408
I339
sS'content_available'
p409
I00
sS'goodreads'
p410
(dp411
g402
Vhttps://www.goodreads.com/book/show/3497718-tales-of-space-and-time
p412
sg404
I01
sg405
I1899
ssS'similar_books'
p413
(lp414
VMosses from an Old Manse
p415
aVNebula Award Stories
p416
aVThe James Tiptree Award Anthology 1: Sex, the Future, & Chocolate Chip Cookies
p417
aVCitizen In Space
p418
aVWizards' Worlds
p419
aVBite Me! A Vampire Farce
p420
aVHistory Lesson (The Collected Stories of Arthur C. Clarke, #1)
p421
aVExtras (The Human Division, #14)
p422
aVBeyond Lies the Wub
p423
aVOperation Chaos (Operation Otherworld, #1)
p424
aVHereticus
p425
aVFifty-One Tales
p426
aVLightspeed Magazine, June 2015: Queers Destroy Science Fiction! Special Issue
p427
aVThe Crimson Fairy Book
p428
aVTarzan Series (Tarzan, #1-8)
p429
aVMetropolis
p430
aVThe Portable Poe
p431
aVThe Night Of Knives
p432
asS'description'
p433
VA collection of three short stories and two novellas written between 1897 and 1898. All the stories had first been published in various monthly periodicals and this was the first volume to collect these stories.<br /><br />contains<br />"The Crystal Egg" <br />"The Star" <br />"A Story of the Stone Age" <br />"A Story of the Days To Come"<br />"The Man Who Could Work Miracles"
p434
sS'gutenberg'
p435
(dp436
g402
Vhttp://www.gutenberg.org/ebooks/27365
p437
sS'num'
p438
I27365
ssS'authors'
p439
(lp440
I1
asS'isbn13'
p441
V9780836941661
p442
sS'language'
p443
VEnglish
p444
sS'countries'
p445
(lp446
I1
asS'release_date'
p447
S'2008-11-30T00:00:00'
p448
sS'author'
p449
I1
sS'original_title'
p450
VTales of Space and Time
p451
sS'summary'
p452
VTales of Space and Time is a fantasy and science fiction collection of three short stories and two novellas written by the English author H. G. Wells between 1897 and 1898. It was first published by Doubleday & McClure Co. in 1899. All the stories had first been published in various monthly periodicals and this was the first volume to collect these stories.
p453
sS'classes'
p454
(lp455
Vto-read
p456
aVcurrently-reading
p457
aVscience-fiction
p458
aVsci-fi
p459
aVclassics
p460
aVshort-stories
p461
aVfiction
p462
aVkindle
p463
aVebook
p464
aVebooks
p465
aVowned
p466
aVclassic
p467
aVfantasy
p468
aVscifi
p469
aVh-g-wells
p470
aVe-books
p471
aVown-ebook
p472
aVbritish-literature
p473
aVsf
p474
aVbritain
p475
aVspace
p476
aVnovels
p477
aVaudiobook
p478
aVanthology
p479
aVtime-travel
p480
aVe-book
p481
aVsci-fi-fantasy
p482
aVamerican
p483
aVromance
p484
aVanthologies
p485
aVamazon-library
p486
aVclassic-literature
p487
aVebooks-kindle
p488
aV1890-s
p489
aVseason2
p490
aVto-read-owned
p491
aVown-read-someday
p492
aV2017-reading
p493
aV19th-century-lit
p494
aVliterature-short-stories
p495
aVliterature-science-fiction
p496
aVfind-e-book
p497
aVfiction-to-read
p498
aVadventure
p499
aVgolden-deer-must-reads
p500
aVamazon
p501
aVhg-wells
p502
aVclassics-tbr
p503
aVgoogle-play-books
p504
aVin-english
p505
aV19th-century-fiction
p506
aVtrillion-year-spree-recs
p507
aVpublic-domain
p508
aVprehistory
p509
aVgutenberg
p510
aVenglish-literature
p511
aVdigital
p512
aVcollections
p513
aVcollected
p514
aVnew
p515
aVunfinished-to-read-later
p516
aVkate
p517
aVowned-unread
p518
aVown-kindle
p519
aVdigital-copy
p520
aVhave-mobi
p521
aVhave-epub
p522
aVown-not-read
p523
aVphone
p524
aVread-this
p525
aVreading-list
p526
aVowned-pending-kindle-free-ebook
p527
aVold-sci-fi
p528
aVowned-as-ebook
p529
aVa-moon-reader
p530
aViown
p531
aVshort-story-collection
p532
aVfree-kindle-download-via-amazon
p533
aVfiction-kindle
p534
aVbooks-owned
p535
aVfinal-frontier
p536
aV3-i-have-not-read
p537
aVz_fiction
p538
aVx_collection
p539
aVwo_scifi
p540
aVw_uk_geo-vic
p541
aVlater
p542
aVsub
p543
aValready-dl
p544
aV19th-c-1860-1899
p545
aVnext-ix
p546
aV000src-f-30-09-3-and
p547
aV19th-c
p548
aVgave-up-on
p549
aVstories
p550
aVscrbd
p551
aVnovellas
p552
aVkindle-to-read
p553
aVi-own-this
p554
aVcalibre-library
p555
asS'loc_class'
p556
VPR: Language and Literatures: English literature
p557
sS'n_authors'
p558
I1
sb.