ccopy_reg
_reconstructor
p0
(cdataset.Book
Book
p1
c__builtin__
object
p2
Ntp3
Rp4
(dp5
S'content_name'
p6
V23930.txt.utf-8
p7
sS'isbn'
p8
NsS'year'
p9
I1962
sS'author_name'
p10
VRobert J. Martin
p11
sS'images_urls'
p12
(lp13
sS'language_code'
p14
Veng
p15
sS'images'
p16
(lp17
sS'id'
p18
I932
sS'category'
p19
VText
p20
sS'genres'
p21
(lp22
sS'copyright'
p23
VPublic domain in the USA.
p24
sS'title'
p25
VBeyond Pandora
p26
sS'wikipedia'
p27
(dp28
S'found'
p29
I00
ssS'average_rating'
p30
F3.54
sS'rating_count'
p31
I31
sS'content_available'
p32
I01
sS'goodreads'
p33
(dp34
S'url'
p35
Vhttps://www.goodreads.com/book/show/11925017-beyond-pandora
p36
sg29
I01
sS'year'
p37
I1962
ssS'similar_books'
p38
(lp39
sS'description'
p40
VShort Story, Science Fiction, Post-1930<br /><br />The ideal way to deal with a pest\u2014any menace\u2014is,<br />of course, to make it useful to you....<br /><br />Free download, all ebook formats.
p41
sS'gutenberg'
p42
(dp43
g35
Vhttp://www.gutenberg.org/ebooks/23930
p44
sS'num'
p45
I23930
ssS'authors'
p46
(lp47
I282
asS'pages'
p48
I13
sS'isbn13'
p49
NsS'language'
p50
VEnglish
p51
sS'countries'
p52
(lp53
I3
asS'release_date'
p54
S'2007-12-20T00:00:00'
p55
sS'author'
p56
I282
sS'content_cleaned'
p57
I01
sS'classes'
p58
(lp59
Vto-read
p60
aVscience-fiction
p61
aVsci-fi
p62
aVjunk
p63
aVaudio
p64
aVshort-stories
p65
aVaudio-books
p66
aVaudiobooks
p67
aVshort-story
p68
aVnovellas-poems-shorts
p69
aVfiction
p70
aV0-anthologies-storeis-novellas
p71
aVaudio-obtained
p72
aVread-in-2014
p73
aVfree
p74
aV000-short-story
p75
aV13
p76
aVmartin-robert-j
p77
aVtype-short-story
p78
aVaudio-obtained-ss
p79
aV01-free
p80
aV00-short-story
p81
asS'loc_class'
p82
VPS: Language and Literatures: American and Canadian literature
p83
sS'n_authors'
p84
I1
sb.