ccopy_reg
_reconstructor
p0
(cdataset.Book
Book
p1
c__builtin__
object
p2
Ntp3
Rp4
(dp5
S'content_name'
p6
V26010.txt.utf-8
p7
sS'isbn'
p8
NsS'year'
p9
I2008
sS'author_name'
p10
VLee Tarbell
p11
sS'images_urls'
p12
(lp13
Vhttp://www.gutenberg.org/files/26010/26010-h/images/ill-1.png
p14
aVhttp://www.gutenberg.org/files/26010/26010-h/images/ill-2.png
p15
aVhttp://www.gutenberg.org/files/26010/26010-page-images/p074.png
p16
aVhttp://www.gutenberg.org/files/26010/26010-page-images/p075-image.png
p17
aVhttp://www.gutenberg.org/files/26010/26010-page-images/p075.png
p18
aVhttp://www.gutenberg.org/files/26010/26010-page-images/p076.png
p19
aVhttp://www.gutenberg.org/files/26010/26010-page-images/p077.png
p20
aVhttp://www.gutenberg.org/files/26010/26010-page-images/p078.png
p21
aVhttp://www.gutenberg.org/files/26010/26010-page-images/p079.png
p22
aVhttp://www.gutenberg.org/files/26010/26010-page-images/p080.png
p23
aVhttp://www.gutenberg.org/files/26010/26010-page-images/p081.png
p24
aVhttp://www.gutenberg.org/files/26010/26010-page-images/p082.png
p25
aVhttp://www.gutenberg.org/files/26010/26010-page-images/p083.png
p26
aVhttp://www.gutenberg.org/files/26010/26010-page-images/p084.png
p27
aVhttp://www.gutenberg.org/files/26010/26010-page-images/p085.png
p28
aVhttp://www.gutenberg.org/files/26010/26010-page-images/p086.png
p29
aVhttp://www.gutenberg.org/files/26010/26010-page-images/p087.png
p30
aVhttp://www.gutenberg.org/files/26010/26010-page-images/p088.png
p31
aVhttp://www.gutenberg.org/files/26010/26010-page-images/p089.png
p32
aVhttp://www.gutenberg.org/files/26010/26010-page-images/p090.png
p33
aVhttp://www.gutenberg.org/files/26010/26010-page-images/p091.png
p34
aVhttp://www.gutenberg.org/files/26010/26010-page-images/p092.png
p35
aVhttp://www.gutenberg.org/files/26010/26010-page-images/p093.png
p36
aVhttp://www.gutenberg.org/files/26010/26010-page-images/p094.png
p37
aVhttp://www.gutenberg.org/files/26010/26010-page-images/p095.png
p38
aVhttp://www.gutenberg.org/files/26010/26010-page-images/p096.png
p39
aVhttp://www.gutenberg.org/files/26010/26010-page-images/p097.png
p40
aVhttp://www.gutenberg.org/files/26010/26010-page-images/p098.png
p41
aVhttp://www.gutenberg.org/files/26010/26010-page-images/p099.png
p42
aVhttp://www.gutenberg.org/files/26010/26010-page-images/p100.png
p43
aVhttp://www.gutenberg.org/files/26010/26010-page-images/p101.png
p44
aVhttp://www.gutenberg.org/files/26010/26010-page-images/p102.png
p45
aVhttp://www.gutenberg.org/files/26010/26010-page-images/p103.png
p46
aVhttp://www.gutenberg.org/files/26010/26010-page-images/p104.png
p47
aVhttp://www.gutenberg.org/files/26010/26010-page-images/p105.png
p48
aVhttp://www.gutenberg.org/files/26010/26010-page-images/p106.png
p49
aVhttp://www.gutenberg.org/files/26010/26010-page-images/p107.png
p50
aVhttp://www.gutenberg.org/files/26010/26010-page-images/p108.png
p51
aVhttp://www.gutenberg.org/files/26010/26010-page-images/p109.png
p52
aVhttp://www.gutenberg.org/files/26010/26010-page-images/p110.png
p53
aVhttp://www.gutenberg.org/files/26010/26010-page-images/p111.png
p54
aVhttp://www.gutenberg.org/files/26010/26010-page-images/p112.png
p55
aVhttp://www.gutenberg.org/files/26010/26010-page-images/p113.png
p56
aVhttp://www.gutenberg.org/files/26010/26010-page-images/p114.png
p57
aVhttp://www.gutenberg.org/files/26010/26010-page-images/p115.png
p58
aVhttp://www.gutenberg.org/files/26010/26010-page-images/p116.png
p59
aVhttp://www.gutenberg.org/files/26010/26010-page-images/p117.png
p60
aVhttp://www.gutenberg.org/files/26010/26010-page-images/p118.png
p61
aVhttp://www.gutenberg.org/files/26010/26010-page-images/p119.png
p62
aVhttp://www.gutenberg.org/files/26010/26010-page-images/p120.png
p63
aVhttp://www.gutenberg.org/files/26010/26010-page-images/p121.png
p64
aVhttp://www.gutenberg.org/files/26010/26010-page-images/p122.png
p65
aVhttp://www.gutenberg.org/files/26010/26010-page-images/p123.png
p66
aVhttp://www.gutenberg.org/files/26010/26010-page-images/p124.png
p67
aVhttp://www.gutenberg.org/files/26010/26010-page-images/p125.png
p68
aVhttp://www.gutenberg.org/files/26010/26010-page-images/p126.png
p69
aVhttp://www.gutenberg.org/files/26010/26010-page-images/p127.png
p70
aVhttp://www.gutenberg.org/files/26010/26010-page-images/p128.png
p71
aVhttp://www.gutenberg.org/files/26010/26010-page-images/p129.png
p72
asS'language_code'
p73
NsS'images'
p74
(lp75
sS'id'
p76
I961
sS'category'
p77
VText
p78
sS'genres'
p79
(lp80
sS'copyright'
p81
VPublic domain in the USA.
p82
sS'title'
p83
VValley of the Croen
p84
sS'wikipedia'
p85
(dp86
S'found'
p87
I00
ssS'average_rating'
p88
F0.0
sS'rating_count'
p89
I0
sS'content_available'
p90
I01
sS'goodreads'
p91
(dp92
S'url'
p93
Vhttps://www.goodreads.com/book/show/5954742-valley-of-the-croen
p94
sg87
I01
sS'year'
p95
I2008
ssS'similar_books'
p96
(lp97
sS'description'
p98
VLee Tarbell's "Valley of the Croen" brought headline news to the pages of "Amazing Stories" magazine the year it was published, 1949. Korea was on the brink of war. And people claimed to see flying saucers all over, the result of pilot Kenneth Arnold's history-making report of silvery disks in the sky over Mount Rainier in Washington state. Tarbell combines these elements -- and more -- in the tale of an Indiana Jones-like adventurer, Carl Keele, on the hunt for a hidden valley in Korea . "Unknown people, virgin forest, beautiful women and plenty of gold," he muses. "Sounds too good to be true," and sure enough, The complications include a war among alien races, mole-men, insect armies, the world in peril, and the deadliest risk of all: The poor guy's dilemma in choosing which of two stunning visitors from space to marry. Each is a curvy argument that flying saucers should visit the earth more often. Keele can only hope the legends about Zoorph magic are true, in a story that brings back all the gosh-wow of a bygone and bug-eyed era of science fiction.
p99
sS'format'
p100
NsS'gutenberg'
p101
(dp102
g93
Vhttp://www.gutenberg.org/ebooks/26010
p103
sS'num'
p104
I26010
ssS'authors'
p105
(lp106
I295
asS'isbn13'
p107
NsS'language'
p108
VEnglish
p109
sS'countries'
p110
(lp111
I3
asS'release_date'
p112
S'2008-07-08T00:00:00'
p113
sS'author'
p114
I295
sS'content_cleaned'
p115
I01
sS'classes'
p116
(lp117
Vcurrently-reading
p118
aVto-read
p119
aVfantasy
p120
aVadventure
p121
asS'loc_class'
p122
VPS: Language and Literatures: American and Canadian literature
p123
sS'n_authors'
p124
I1
sb.