ccopy_reg
_reconstructor
p0
(cdataset.Book
Book
p1
c__builtin__
object
p2
Ntp3
Rp4
(dp5
S'similar_books'
p6
(lp7
sS'genres'
p8
(lp9
sS'author'
p10
I302
sS'countries'
p11
(lp12
I2
asS'year'
p13
I1979
sS'title'
p14
VGalaxy Magazine June 1979
p15
sS'cover'
p16
Vhttps://ia600207.us.archive.org/BookReader/BookReaderImages.php?zip=/6/items/Galaxy_v39n10_1979-07/Galaxy_v39n10_1979-07_jp2.zip&file=Galaxy_v39n10_1979-07_jp2/Galaxy_v39n10_1979-07_0000.jp2&scale=0&rotate=0
p17
sS'cover_art'
p18
S'http://www.isfdb.org/wiki/images/6/61/GALJUNJUL79.jpg'
p19
sS'author_name'
p20
VGalaxy Magazine
p21
sS'images_urls'
p22
(lp23
sS'authors'
p24
(lp25
I890
aI891
aI892
aI326
aI312
aI893
aI767
aI894
aI895
aI896
aI854
aI40
aI897
aI658
aI376
aI596
aI302
asS'images'
p26
(lp27
sS'id'
p28
I1215
sS'contents'
p29
(lp30
(dp31
g10
I890
sg14
VStar Warriors (Part 1 of 2)
p32
sa(dp33
g10
I890
sg14
VStar Warriors (Part 1 of 2) [2]
p34
sa(dp35
g10
I890
sg14
VStar Warriors (Part 1 of 2) [3]
p36
sa(dp37
g10
I890
sg14
VStar Warriors (Part 1 of 2) [4]
p38
sa(dp39
g10
I891
sg14
VThe Psychic
p40
sa(dp41
g10
I892
sg14
VJem (Part 3 of 5)
p42
sa(dp43
g10
I892
sg14
VJem (Part 3 of 5) [2]
p44
sa(dp45
g10
I326
sg14
VWhen the Metal Eaters Came
p46
sa(dp47
g10
I326
sg14
VBeneath the Bermuda Triangle
p48
sa(dp49
g10
I326
sg14
VShowcase (Galaxy, June-July 1979)
p50
sa(dp51
g10
I326
sg14
VAbout Our Contributors (Galaxy, June-July 1979)
p52
sa(dp53
g10
I312
sg14
VEditorial (Galaxy, June-July 1979)
p54
sa(dp55
g10
I326
sg14
VGalaxy Forecast (Galaxy, June-July 1979)
p56
sa(dp57
g10
I893
sg14
VScience Fiction Hotline (Galaxy, June-July 1979)
p58
sa(dp59
g10
I767
sg14
VGalaxy Bookshelf (Galaxy, June-July 1979)
p60
sa(dp61
g10
I326
sg14
VLetters (Galaxy, June-July 1979)
p62
sa(dp63
g10
I894
sg14
VStatement of Policy (Galaxy, June-July 1979)
p64
sa(dp65
g10
I895
sg14
VThe Psychic
p66
sa(dp67
g10
I896
sg14
VBeneath the Bermuda Triangle
p68
sa(dp69
g10
I854
sg14
VStar Warriors (Part 1 of 2)
p70
sa(dp71
g10
I40
sg14
VJem (Part 3 of 5)
p72
sa(dp73
g10
I897
sg14
VThe-Super-Duper-Make-Your-Own-Ba
p74
sa(dp75
g10
I658
sg14
VFemworld
p76
sa(dp77
g10
I376
sg14
VAn End to Crime
p78
sa(dp79
g10
I596
sg14
VWhen the Metal Eaters Came
p80
sasb.