ccopy_reg
_reconstructor
p0
(cdataset.Book
Book
p1
c__builtin__
object
p2
Ntp3
Rp4
(dp5
S'similar_books'
p6
(lp7
sS'genres'
p8
(lp9
sS'author'
p10
I302
sS'countries'
p11
(lp12
I2
asS'year'
p13
I1960
sS'title'
p14
VGalaxy Magazine October 1960
p15
sS'cover'
p16
Vhttps://ia601307.us.archive.org/BookReader/BookReaderImages.php?zip=/14/items/Galaxy_v19n01_1960-10/Galaxy_v19n01_1960-10_jp2.zip&file=Galaxy_v19n01_1960-10_jp2/Galaxy_v19n01_1960-10_0000.jp2&scale=0&rotate=0
p17
sS'cover_art'
p18
S'http://www.isfdb.org/wiki/images/6/6b/GALOCT1960.jpg'
p19
sS'author_name'
p20
VGalaxy Magazine
p21
sS'images_urls'
p22
(lp23
sS'authors'
p24
(lp25
I419
aI506
aI519
aI553
aI556
aI305
aI339
aI483
aI326
aI179
aI558
aI105
aI166
aI284
aI211
aI278
aI251
aI401
aI315
aI302
asS'images'
p26
(lp27
sS'id'
p28
I1081
sS'contents'
p29
(lp30
(dp31
g10
I419
sg14
VWorld in a Bottle
p32
sa(dp33
g10
I419
sg14
VWorld in a Bottle [2]
p34
sa(dp35
g10
I419
sg14
VWorld in a Bottle [3]
p36
sa(dp37
g10
I506
sg14
VThe Hills of Home
p38
sa(dp39
g10
I506
sg14
VThe Hills of Home [2]
p40
sa(dp41
g10
I519
sg14
VBeach Scene
p42
sa(dp43
g10
I553
sg14
VThe Imitation of Earth
p44
sa(dp45
g10
I419
sg14
VCry Snooker
p46
sa(dp47
g10
I519
sg14
VThe Stentorii Luggage
p48
sa(dp49
g10
I519
sg14
VThe Stentorii Luggage [2]
p50
sa(dp51
g10
I519
sg14
VThe Stentorii Luggage [3]
p52
sa(dp53
g10
I506
sg14
VA Fall of Glass
p54
sa(dp55
g10
I556
sg14
VThe Hours Are Good
p56
sa(dp57
g10
I419
sg14
VThe Immortals
p58
sa(dp59
g10
I419
sg14
VThe Immortals [2]
p60
sa(dp61
g10
I419
sg14
VThe Immortals [3]
p62
sa(dp63
g10
I305
sg14
VNotes
p64
sa(dp65
g10
I339
sg14
VFor Your Information: The Air On the Moon
p66
sa(dp67
g10
I483
sg14
VGalaxy's 5 Star Shelf (Galaxy, October 1960)
p68
sa(dp69
g10
I326
sg14
VForecast (Galaxy, October 1960)
p70
sa(dp71
g10
I179
sg14
VWorld in a Bottle
p72
sa(dp73
g10
I558
sg14
VThe Stentorii Luggage
p74
sa(dp75
g10
I105
sg14
VThe Immortals
p76
sa(dp77
g10
I166
sg14
VThe Hills of Home
p78
sa(dp79
g10
I284
sg14
VBeach Scene
p80
sa(dp81
g10
I211
sg14
VThe Imitation of Earth
p82
sa(dp83
g10
I278
sg14
VCry Snooker
p84
sa(dp85
g10
I251
sg14
VA Fall of Glass
p86
sa(dp87
g10
I401
sg14
VOrigins of the Galactic Short-Snorter
p88
sa(dp89
g10
I315
sg14
VThe Hours Are Good
p90
sasb.