ccopy_reg
_reconstructor
p0
(cdataset.Book
Book
p1
c__builtin__
object
p2
Ntp3
Rp4
(dp5
S'content_name'
p6
V28698.txt.utf-8
p7
sS'isbn'
p8
NsS'year'
p9
I1954
sS'author_name'
p10
VPhilip K. Dick
p11
sS'images_urls'
p12
(lp13
Vhttp://www.gutenberg.org/files/28698/28698-h/images/001.png
p14
asS'language_code'
p15
Veng
p16
sS'images'
p17
(lp18
sS'id'
p19
I34
sS'category'
p20
VText
p21
sS'genres'
p22
(lp23
sS'copyright'
p24
VPublic domain in the USA.
p25
sS'title'
p26
VThe Crystal Crypt
p27
sS'wikipedia'
p28
(dp29
S'found'
p30
I00
ssS'average_rating'
p31
F3.51
sS'rating_count'
p32
I675
sS'content_available'
p33
I01
sS'goodreads'
p34
(dp35
S'url'
p36
Vhttps://www.goodreads.com/book/show/6456323-the-crystal-crypt
p37
sg30
I01
sS'year'
p38
I1954
ssS'similar_books'
p39
(lp40
VYouth
p41
aVSpecimen 313
p42
aVThe Big Trip Up Yonder by Kurt Vonnegut, Science Fiction, Literary
p43
aVThe Last Joy
p44
aVSignposts in a Strange Land: Essays
p45
aVSourland
p46
aVThe Pistoleer
p47
aVTight Little Stitches on a Dead Man's Back
p48
aVInvaders from the Infinite
p49
aVEureka: A Prose Poem
p50
aVThe Wild Girls
p51
aVTitans, Young Justice: Graduation Day
p52
aVPlanet of the Damned
p53
aVOther Earths
p54
aVLetters
p55
aVCode of the Lifemaker (Code of the Lifemaker, #1)
p56
aVPurgatory (Star Wars: Lost Tribe of the Sith, #5)
p57
aVHi I'm a Social Disease: Horror Stories
p58
asS'description'
p59
NsS'format'
p60
NsS'gutenberg'
p61
(dp62
g36
Vhttp://www.gutenberg.org/ebooks/28698
p63
sS'num'
p64
I28698
ssS'authors'
p65
(lp66
I8
asS'isbn13'
p67
NsS'language'
p68
VEnglish
p69
sS'release_date'
p70
S'2009-05-06T00:00:00'
p71
sS'author'
p72
I8
sS'content_cleaned'
p73
I01
sS'classes'
p74
(lp75
Vcurrently-reading
p76
aVto-read
p77
aVshort-stories
p78
aVphilip-k-dick
p79
aVscifi
p80
aVclassics
p81
aVebook
p82
aVkindle
p83
aVfantasy
p84
aVowned
p85
aVaudiobooks
p86
aVsci-fi-fantasy
p87
aVsf
p88
aVshort-story
p89
aVread-2013
p90
aVnook
p91
aVe-books
p92
aVscience-fiction
p93
aVbooks
p94
aVkindle-books-i-own
p95
aValiens
p96
aVfantasy-sci-fi
p97
aVshorts
p98
aVowned-books
p99
aVamazon
p100
aVkindle-books
p101
aVaudiobook
p102
aVibooks
p103
aVown-it
p104
aVsuspense
p105
aVfavorites
p106
aVaudio-books
p107
aVscifi-fantasy
p108
aVenglish
p109
aVin-english
p110
aV2017-read
p111
aVvintage
p112
aVfiction-speculative
p113
aVserial-reader
p114
aVclassic-american-literature
p115
aVscience-fiction-shelf
p116
aVfiction
p117
aVto-read-short-story
p118
aVon-kindle
p119
aVread-in-2017
p120
aVebook-short-stories
p121
aVamerican
p122
aVfantascienza
p123
aV2000
p124
aVroman
p125
aV04-format-ebook
p126
aV02-origin-american
p127
aV01-genre-short-stories
p128
aV01-genre-scifi
p129
aV20th-c-amer
p130
aVmy-books
p131
aVundgrad-15-17-tamu
p132
aVi-own
p133
aVdid-not-want-to-finish
p134
aVdick-philip
p135
aVunder-100-pages
p136
aVlibrary-book
p137
aVfuture
p138
aVe-shelf
p139
aVnovella
p140
aV2016-aty-challenge
p141
aVon-librivox-web-site
p142
aVshort-fiction
p143
aVnew
p144
aVkindle-to-read
p145
aVunited-states
p146
aV2016-read
p147
aVnext-on-deck
p148
aV2016readingchallenge
p149
aVown-kindle
p150
aVfree-kindle
p151
aVnot-read
p152
aVto-read-low-priority
p153
aVread-2016
p154
aVread-short-stories
p155
aV2016-book-challenge
p156
aVg-authors
p157
aVfree-stuff
p158
aVmoon-reader
p159
aVz_fiction
p160
aVx_shortstory
p161
aVp-k-d
p162
aVdystopian
p163
aVpkd
p164
aVpkd-project-2015
p165
aV2015-book-challenge
p166
aVloc-kindle
p167
aVauthor-male
p168
aVanthologies-and-short-stories
p169
aVnot-started
p170
aVw_us_modern
p171
aVbooks-that-i-have
p172
aVearly-mid-1900s
p173
aVbooks-i-reviewed
p174
aVusa
p175
asS'loc_class'
p176
VPS: Language and Literatures: American and Canadian literature
p177
sS'n_authors'
p178
I1
sb.