ccopy_reg
_reconstructor
p0
(cdataset.Book
Book
p1
c__builtin__
object
p2
Ntp3
Rp4
(dp5
S'content_name'
p6
V22881.txt.utf-8
p7
sS'isbn'
p8
NsS'year'
p9
I1963
sS'author_name'
p10
VAlan Edward Nourse
p11
sS'images_urls'
p12
(lp13
Vhttp://www.gutenberg.org/files/22881/22881-page-images/p106.png
p14
aVhttp://www.gutenberg.org/files/22881/22881-page-images/p107.png
p15
aVhttp://www.gutenberg.org/files/22881/22881-page-images/p108.png
p16
aVhttp://www.gutenberg.org/files/22881/22881-page-images/p109.png
p17
aVhttp://www.gutenberg.org/files/22881/22881-page-images/p110.png
p18
aVhttp://www.gutenberg.org/files/22881/22881-page-images/p111.png
p19
aVhttp://www.gutenberg.org/files/22881/22881-page-images/p112.png
p20
aVhttp://www.gutenberg.org/files/22881/22881-page-images/p113.png
p21
aVhttp://www.gutenberg.org/files/22881/22881-page-images/p114.png
p22
aVhttp://www.gutenberg.org/files/22881/22881-page-images/p115.png
p23
aVhttp://www.gutenberg.org/files/22881/22881-page-images/p116.png
p24
aVhttp://www.gutenberg.org/files/22881/22881-page-images/p117.png
p25
asS'language_code'
p26
NsS'images'
p27
(lp28
sS'id'
p29
I902
sS'category'
p30
VText
p31
sS'genres'
p32
(lp33
sS'copyright'
p34
VPublic domain in the USA.
p35
sS'title'
p36
VMy Friend Bobby
p37
sS'wikipedia'
p38
(dp39
S'url'
p40
Vhttps://en.wikipedia.org/wiki/Christina_Alberta%27s_Father
p41
sS'found'
p42
I01
sS'year'
p43
I-1
ssS'published_in'
p44
NsS'average_rating'
p45
F3.0
sS'rating_count'
p46
I8
sS'content_available'
p47
I01
sS'goodreads'
p48
(dp49
g40
Vhttps://www.goodreads.com/book/show/9113639-my-friend-bobby
p50
sg42
I01
sg43
I1963
ssS'similar_books'
p51
(lp52
sS'description'
p53
NsS'format'
p54
Vebook
p55
sS'gutenberg'
p56
(dp57
g40
Vhttp://www.gutenberg.org/ebooks/22881
p58
sS'num'
p59
I22881
ssS'authors'
p60
(lp61
I108
asS'isbn13'
p62
NsS'language'
p63
VEnglish
p64
sS'country'
p65
I1
sS'release_date'
p66
S'2007-10-03T00:00:00'
p67
sS'author'
p68
I108
sS'original_title'
p69
VChristina Alberta's Father
p70
sS'summary'
p71
VChristina Alberta's Father (1925) is a novel by H. G. Wells set in London and environs in 1920\u20131922 with two protagonists: Albert Edward Preemby and his daughter, Christina Alberta.\u000aStarting off as a seemingly light-hearted novel of social realism, highlighting the class system of contemporary society, much like he did in Kipps, Wells soon lambasts the then-current state of mental health legislation and of asylums, before ending the novel with the characters discussing feminism and the conflict between individual independence and being a willing part of a greater society. With the title character of the father dying of pneumonia after rescue from a mental hospital, and his daughter Christina Albert refusing to marry her love interest Bobby Roothers (after candidly admitting to him that she is no longer a virgin), the expected happy ending does not occur. Perhaps due to its descent into open didacticism, the novel was not one of Wells' most successful or popular.
p72
sS'content_cleaned'
p73
I01
sS'classes'
p74
(lp75
Vto-read
p76
aVrandoms
p77
aVshort-story
p78
aV14
p79
aValan-e-nourse
p80
aVtype-short-story
p81
aVscience-fiction
p82
asS'loc_class'
p83
VPS: Language and Literatures: American and Canadian literature
p84
sS'n_authors'
p85
I1
sb.