ccopy_reg
_reconstructor
p0
(cdataset.Book
Book
p1
c__builtin__
object
p2
Ntp3
Rp4
(dp5
S'content_name'
p6
V22332.txt.utf-8
p7
sS'isbn'
p8
V1434401561
p9
sS'year'
p10
I1959
sS'author_name'
p11
VRandall Garrett
p12
sS'images_urls'
p13
(lp14
sS'language_code'
p15
Veng
p16
sS'images'
p17
(lp18
sS'id'
p19
I194
sS'category'
p20
VText
p21
sS'genres'
p22
(lp23
sS'copyright'
p24
VPublic domain in the USA.
p25
sS'title'
p26
VBrain Twister
p27
sS'wikipedia'
p28
(dp29
S'found'
p30
I00
ssS'average_rating'
p31
F3.42
sS'rating_count'
p32
I85
sS'content_available'
p33
I01
sS'goodreads'
p34
(dp35
S'url'
p36
Vhttps://www.goodreads.com/book/show/2538457.Brain_Twister
p37
sg30
I01
sS'year'
p38
I1959
ssS'similar_books'
p39
(lp40
VThe Whole Man
p41
aVThe Pirates of Ersatz
p42
aVDavy
p43
aVThe Planet Buyer
p44
aVThe Enemy Stars
p45
aVStar Light
p46
aVPlanet of the Damned
p47
aVWho?
p48
aVThe Butterfly Kid
p49
aVDay of the Minotaur
p50
aVImmortality, Inc.
p51
aVDark Universe
p52
aVPast Master
p53
aVTime Is the Simplest Thing
p54
aVToo Many Magicians (Lord Darcy, #2)
p55
aVSea Siege
p56
aVSkylark DuQuesne (Skylark #4)
p57
aVBlind Voices
p58
asS'description'
p59
V"Mark Phillips" was the pseudonym of two well-known science fiction writers: Randall Garrett and Laurence M. Janifer. Their joint pen-name, derived from their middle names (Philip and Mark), was coined soon after their original meeting, at a science-fiction convention. Both men were drunk at the time, which explains a good deal, and only one ever sobered up. A matter for constant contention between the collaborators was which one. They collaborated for some years, and devised an interesting method of work: Mr. Garrett handled the verbs, the adverbs and the interjections, Mr. Janifer the nouns, pronouns, and adjectives. Conjunctions are a matter of joint decision, and in the case of a tie, the entire game was replayed at Fenway Park, Boston, the following year. Regardless of who wrote what, Brain Twister is a highly enjoyable novel about spies and telepathy, as only two great writers could have conceived it!
p60
sS'format'
p61
VPaperback
p62
sS'gutenberg'
p63
(dp64
g36
Vhttp://www.gutenberg.org/ebooks/22332
p65
sS'num'
p66
I22332
ssS'authors'
p67
(lp68
I49
aI64
asS'pages'
p69
I128
sS'isbn13'
p70
V9781434401564
p71
sS'language'
p72
VEnglish
p73
sS'release_date'
p74
S'2007-08-16T00:00:00'
p75
sS'author'
p76
I49
sS'content_cleaned'
p77
I01
sS'classes'
p78
(lp79
Vto-read
p80
aVcurrently-reading
p81
aVscience-fiction
p82
aVfiction
p83
aVmystery
p84
aVmy-ebooks
p85
aVebooks
p86
aVhugo-nominees
p87
aVhugo-nominee
p88
aVsf
p89
aVseries
p90
aVkindle
p91
aVsci-fi
p92
aVmight-read
p93
aVhugo-nominated
p94
aVhugo
p95
aVscifi-fantasy
p96
aVread-in-2013
p97
aVenglish
p98
aVvintage
p99
aVpublic-domain-science-fiction
p100
aVdetective
p101
aVhugo-award-nominee
p102
aVunread
p103
aVaudiobook
p104
aVhugo-award
p105
aVlistened-to-audio-book-vibrivox
p106
aVcollaboration
p107
aVhugo-award-winners-and-nominees
p108
aVunsorted-read
p109
aVmy-collection
p110
aVtbr-ltr-pre-2k
p111
aVhugo-nebula-plus-nominations
p112
aVpiled-up-ready-to-read
p113
aVaudiobooks
p114
aVdefault
p115
aVsounds-interesting
p116
aVhugo-winners-and-nominees
p117
aVwant-to-read-hugo
p118
aVmy-self
p119
aVown-audiobook
p120
aVpnr-uf-sf-read
p121
aVnal-al-2-read
p122
aVhugo-nominee-1960
p123
aVto-read-sf
p124
aVfantacy
p125
aVpg-13
p126
aVparanormal
p127
aVcold-war
p128
aVphillip-k-dick-scifi
p129
aVother
p130
aVnook-59-sci-fi-classics
p131
aVown-kindle
p132
aVbooks-i-own
p133
aVshelved
p134
aVshort-reads
p135
aVproject-gutenberg
p136
aVhugo-queue
p137
aVcollection
p138
aVfiction-series
p139
aVfantasy
p140
aVnot-in-library
p141
aVi-have-need-to-read
p142
aVsf-nominees
p143
aV100-200
p144
aVfiction-mystery
p145
aVwomen
p146
aVto-read-20th-sf
p147
aVspeculative-fiction
p148
aVseries-first-in
p149
aVpsionics
p150
aVmistakes
p151
aVjuvenile
p152
aVgirls
p153
aVcomputer
p154
aVaward-nominee-hugo
p155
aV20_sf-and-fantasy-novels
p156
aV20_kindle_books
p157
aV2014-reading-list
p158
aVhugo-nebula
p159
aV2a
p160
aVspec-fic-sci-fi
p161
aVspec-fic-awd-hugo-nom
p162
aVspec-fic
p163
aVfeedbooks-com
p164
aVnook
p165
aVj-to-read
p166
aVebook-to-read
p167
aVhugo-novel-finalist
p168
aVromance-romantic
p169
aVmystery-thriller
p170
aVhumor
p171
aVfuturistic
p172
aVei-suom
p173
aVsci-fi-fantasy
p174
aVz-hugo-nominee
p175
aVeasy-read
p176
aVcrime
p177
aVhugo-awards
p178
aVbook-smart
p179
asS'loc_class'
p180
VPS: Language and Literatures: American and Canadian literature
p181
sS'n_authors'
p182
I2
sb.