ccopy_reg
_reconstructor
p0
(cdataset.Book
Book
p1
c__builtin__
object
p2
Ntp3
Rp4
(dp5
S'content_name'
p6
V32651.txt.utf-8
p7
sS'isbn'
p8
NsS'year'
p9
I1953
sS'author_name'
p10
VIrving E. Cox
p11
sS'images_urls'
p12
(lp13
Vhttp://www.gutenberg.org/files/32651/32651-h/images/cover.jpg
p14
aVhttp://www.gutenberg.org/files/32651/32651-h/images/illus.jpg
p15
asS'language_code'
p16
NsS'images'
p17
(lp18
sS'id'
p19
I478
sS'category'
p20
VText
p21
sS'plot'
p22
VThe main character is a young girl named Jeanette, who is adopted by evangelists from the Elim Pentecostal Church. She believes she is destined to become a missionary. The book depicts religious enthusiasm as an exploration of the power of love. As an adolescent, Jeanette finds herself attracted to another girl, and her mother's group of religious friends subject her and her partner to exorcisms.
p23
sS'genres'
p24
(lp25
sS'copyright'
p26
VPublic domain in the USA.
p27
sS'title'
p28
VAdolescents Only
p29
sS'wikipedia'
p30
(dp31
S'url'
p32
Vhttps://en.wikipedia.org/wiki/Oranges_Are_Not_the_Only_Fruit
p33
sS'found'
p34
I01
sS'year'
p35
I-1
ssS'published_in'
p36
NsS'average_rating'
p37
F3.67
sS'rating_count'
p38
I7
sS'content_available'
p39
I01
sS'cover_art_url'
p40
S'http://www.gutenberg.org/cache/epub/32651/pg32651.cover.medium.jpg'
p41
sS'goodreads'
p42
(dp43
g32
Vhttps://www.goodreads.com/book/show/12492875-adolescents-only
p44
sg34
I01
sg35
I2010
ssS'similar_books'
p45
(lp46
sS'description'
p47
NsS'format'
p48
NsS'gutenberg'
p49
(dp50
g32
Vhttp://www.gutenberg.org/ebooks/32651
p51
sS'num'
p52
I32651
ssS'authors'
p53
(lp54
I160
asS'isbn13'
p55
NsS'language'
p56
VEnglish
p57
sS'countries'
p58
(lp59
I1
asS'release_date'
p60
S'2010-06-02T00:00:00'
p61
sS'author'
p62
I160
sS'original_title'
p63
VOranges Are Not the Only Fruit
p64
sS'summary'
p65
VOranges Are Not the Only Fruit is a novel by Jeanette Winterson published in 1985, which she subsequently adapted into a BBC television drama of the same name. It is a coming-of-age story about a lesbian girl who grows up in an English Pentecostal community. Key themes of the book include transition from youth to adulthood, complex family relationships, same sex relationships, and religion.\u000aIn England and Wales, it has been included on both GCSE and A Level curriculums, such as the OCR English Literature A Level, Literature Post 1900.
p66
sS'content_cleaned'
p67
I01
sS'classes'
p68
(lp69
Vto-read
p70
aVscience-fiction
p71
aV21st-century-lit
p72
aVebook-epub
p73
aVnovella
p74
aVbooks
p75
aVowned
p76
aVentertainment
p77
aVgot-it
p78
asS'loc_class'
p79
VPS: Language and Literatures: American and Canadian literature
p80
sS'n_authors'
p81
I1
sb.