ccopy_reg
_reconstructor
p0
(cdataset.Book
Book
p1
c__builtin__
object
p2
Ntp3
Rp4
(dp5
S'content_name'
p6
V20553.txt.utf-8
p7
sS'isbn'
p8
V2819937098
p9
sS'year'
p10
I1931
sS'author_name'
p11
VRobert H. Wilson
p12
sS'images_urls'
p13
(lp14
Vhttp://www.gutenberg.org/files/20553/20553-h/images/img1.jpg
p15
asS'language_code'
p16
NsS'id'
p17
I534
sS'category'
p18
VText
p19
sS'genres'
p20
(lp21
sS'copyright'
p22
VPublic domain in the USA.
p23
sS'title'
p24
VOut Around Rigel
p25
sS'wikipedia'
p26
(dp27
S'found'
p28
I00
ssS'average_rating'
p29
F3.19
sS'rating_count'
p30
I25
sS'content_available'
p31
I01
sS'goodreads'
p32
(dp33
S'url'
p34
Vhttps://www.goodreads.com/book/show/11323260-out-around-rigel
p35
sS'found'
p36
I01
sS'year'
p37
I2010
ssS'similar_books'
p38
(lp39
sS'description'
p40
NsS'gutenberg'
p41
(dp42
g34
Vhttp://www.gutenberg.org/ebooks/20553
p43
sS'num'
p44
I20553
ssS'authors'
p45
(lp46
I175
asS'isbn13'
p47
V9782819937098
p48
sS'language'
p49
VEnglish
p50
sS'countries'
p51
(lp52
I3
asS'release_date'
p53
S'2007-02-10T00:00:00'
p54
sS'author'
p55
I175
sS'content_cleaned'
p56
I01
sS'classes'
p57
(lp58
Vscience-fiction
p59
aVto-read
p60
aVaudio
p61
aVaudiobooks
p62
aV16
p63
aVshort-story
p64
aVcalibre
p65
aVnovellas-poems-shorts
p66
aVfiction
p67
aVsci-fi
p68
aVtype-short-story
p69
asS'loc_class'
p70
VPS: Language and Literatures: American and Canadian literature
p71
sS'n_authors'
p72
I1
sb.