ccopy_reg
_reconstructor
p0
(cdataset.Book
Book
p1
c__builtin__
object
p2
Ntp3
Rp4
(dp5
S'similar_books'
p6
(lp7
sS'genres'
p8
(lp9
sS'author'
p10
I302
sS'countries'
p11
(lp12
I2
asS'year'
p13
I1953
sS'title'
p14
VGalaxy Magazine June 1953
p15
sS'cover'
p16
Vhttps://ia601305.us.archive.org/BookReader/BookReaderImages.php?zip=/13/items/Galaxy_v06n03_1953-06/Galaxy_v06n03_1953-06_jp2.zip&file=Galaxy_v06n03_1953-06_jp2/Galaxy_v06n03_1953-06_0000.jp2&scale=0&rotate=0
p17
sS'cover_art'
p18
S'http://www.isfdb.org/wiki/images/8/82/MLO4312.jpg'
p19
sS'author_name'
p20
VGalaxy Magazine
p21
sS'images_urls'
p22
(lp23
sS'authors'
p24
(lp25
I363
aI430
aI417
aI305
aI339
aI326
aI340
aI384
aI8
aI393
aI228
aI23
aI136
aI217
aI302
asS'images'
p26
(lp27
sS'id'
p28
I1005
sS'contents'
p29
(lp30
(dp31
g10
I363
sg14
VTangle Hold
p32
sa(dp33
g10
I363
sg14
VTangle Hold [2]
p34
sa(dp35
g10
I363
sg14
VTangle Hold [3]
p36
sa(dp37
g10
I430
sg14
VThe Water Eater
p38
sa(dp39
g10
I363
sg14
VWarm
p40
sa(dp41
g10
I363
sg14
VFirst Lady
p42
sa(dp43
g10
I363
sg14
VFirst Lady [2]
p44
sa(dp45
g10
I363
sg14
VFirst Lady [3]
p46
sa(dp47
g10
I363
sg14
VWe Don't Want Any Trouble
p48
sa(dp49
g10
I417
sg14
VIf You Were the Only&Mdash;
p50
sa(dp51
g10
I363
sg14
VColony
p52
sa(dp53
g10
I363
sg14
VColony [2]
p54
sa(dp55
g10
I363
sg14
VColony [3]
p56
sa(dp57
g10
I305
sg14
VOf All Things
p58
sa(dp59
g10
I339
sg14
VFor Your Information: The Intractable Prime Number
p60
sa(dp61
g10
I326
sg14
VForecast (Galaxy, June 1953)
p62
sa(dp63
g10
I340
sg14
VGalaxy's 5 Star Shelf (Galaxy, June 1953)
p64
sa(dp65
g10
I384
sg14
VFirst Lady
p66
sa(dp67
g10
I8
sg14
VColony
p68
sa(dp69
g10
I393
sg14
VTangle Hold
p70
sa(dp71
g10
I228
sg14
VThe Water Eater
p72
sa(dp73
g10
I23
sg14
VWarm
p74
sa(dp75
g10
I136
sg14
VWe Don't Want Any Trouble
p76
sa(dp77
g10
I217
sg14
VIf You Were the Only&Mdash;
p78
sasb.