ccopy_reg
_reconstructor
p0
(cdataset.Book
Book
p1
c__builtin__
object
p2
Ntp3
Rp4
(dp5
S'content_name'
p6
V29503.txt.utf-8
p7
sS'isbn'
p8
NsS'year'
p9
I1958
sS'author_name'
p10
VFrederik Pohl
p11
sS'images_urls'
p12
(lp13
Vhttp://www.gutenberg.org/files/29503/29503-h/images/001.png
p14
aVhttp://www.gutenberg.org/files/29503/29503-h/images/002-1.jpg
p15
aVhttp://www.gutenberg.org/files/29503/29503-h/images/002-2.jpg
p16
asS'language_code'
p17
NsS'id'
p18
I497
sS'category'
p19
VText
p20
sS'genres'
p21
(lp22
sS'copyright'
p23
VPublic domain in the USA.
p24
sS'title'
p25
VThe Hated
p26
sS'wikipedia'
p27
(dp28
S'found'
p29
I00
ssS'average_rating'
p30
F4.03
sS'rating_count'
p31
I35
sS'content_available'
p32
I01
sS'goodreads'
p33
(dp34
S'url'
p35
S'https://www.goodreads.com/book/show/10385194-the-hated'
p36
sS'found'
p37
I01
ssS'similar_books'
p38
(lp39
sS'description'
p40
VThis work has been previously published and carefully edited by humans to be read digitally on your eReader. Please enjoy this historical and classic work. All of our titles are only 99 cents and are formatted to work with the Nook. Also, if it is an illustrated work, you will be able to see all of the original images. This makes them the best quality classic works available for the lowest price. So enjoy this classic work as if it were the original book!
p41
sS'gutenberg'
p42
(dp43
S'url'
p44
Vhttp://www.gutenberg.org/ebooks/29503
p45
sS'num'
p46
I29503
ssS'authors'
p47
(lp48
I40
asS'isbn13'
p49
V2940012579294
p50
sS'language'
p51
VEnglish
p52
sS'countries'
p53
(lp54
I2
asS'release_date'
p55
S'2009-07-24T00:00:00'
p56
sS'author'
p57
I40
sS'cover'
p58
Vhttps://images.gr-assets.com/books/1447717640l/10385194.jpg
p59
sS'content_cleaned'
p60
I01
sS'classes'
p61
(lp62
Vto-read
p63
aVscience-fiction
p64
aVsci-fi
p65
aVkindle
p66
aVshort-stories
p67
aVebook
p68
aVebooks-owned
p69
aVbooks-owned
p70
aVaudiobooks
p71
aVowned
p72
aVowned-pending-kindle-free-ebook
p73
aVz_fiction
p74
aVx_shortstory
p75
aVwo_scifi
p76
aVw_us_modern
p77
aVcalibre
p78
aVshort-story
p79
aVfavorites
p80
aVearly-mid-1900s
p81
aVbooks-i-reviewed
p82
aVbooks-i-recommend
p83
aVbought_amazon_bek
p84
aV15
p85
aVebook-kindle-own
p86
aVebooks
p87
aVcurrently-reading
p88
aVamazon
p89
aVeb-other
p90
aVeb
p91
aVe-reader
p92
aVsciencefiction
p93
aVfrederik-pohl
p94
aVpsychology
p95
aVmind
p96
aVmars
p97
aVscifi
p98
aVtype-short-story
p99
aVaudio-books
p100
asS'loc_class'
p101
VPS: Language and Literatures: American and Canadian literature
p102
sS'n_authors'
p103
I1
sb.