ccopy_reg
_reconstructor
p0
(cdataset.Book
Book
p1
c__builtin__
object
p2
Ntp3
Rp4
(dp5
S'content_name'
p6
V32026.txt.utf-8
p7
sS'isbn'
p8
NsS'year'
p9
I1958
sS'author_name'
p10
VClifford D. Simak
p11
sS'images_urls'
p12
(lp13
Vhttp://www.gutenberg.org/files/32026/32026-h/images/cover.jpg
p14
aVhttp://www.gutenberg.org/files/32026/32026-h/images/image_001.jpg
p15
aVhttp://www.gutenberg.org/files/32026/32026-h/images/image_002.jpg
p16
aVhttp://www.gutenberg.org/files/32026/32026-h/images/image_003.jpg
p17
aVhttp://www.gutenberg.org/files/32026/32026-h/images/image_a.jpg
p18
aVhttp://www.gutenberg.org/files/32026/32026-h/images/image_d.jpg
p19
aVhttp://www.gutenberg.org/files/32026/32026-h/images/image_f.jpg
p20
aVhttp://www.gutenberg.org/files/32026/32026-h/images/image_h.jpg
p21
aVhttp://www.gutenberg.org/files/32026/32026-h/images/image_h1.jpg
p22
aVhttp://www.gutenberg.org/files/32026/32026-h/images/image_i.jpg
p23
aVhttp://www.gutenberg.org/files/32026/32026-h/images/image_i1.jpg
p24
aVhttp://www.gutenberg.org/files/32026/32026-h/images/image_j.jpg
p25
aVhttp://www.gutenberg.org/files/32026/32026-h/images/image_l.jpg
p26
aVhttp://www.gutenberg.org/files/32026/32026-h/images/image_n.jpg
p27
aVhttp://www.gutenberg.org/files/32026/32026-h/images/image_n1.jpg
p28
aVhttp://www.gutenberg.org/files/32026/32026-h/images/image_p.jpg
p29
aVhttp://www.gutenberg.org/files/32026/32026-h/images/image_s.jpg
p30
aVhttp://www.gutenberg.org/files/32026/32026-h/images/image_t.jpg
p31
aVhttp://www.gutenberg.org/files/32026/32026-h/images/image_t1.jpg
p32
aVhttp://www.gutenberg.org/files/32026/32026-h/images/image_w.jpg
p33
asS'language_code'
p34
Veng
p35
sS'id'
p36
I200
sS'category'
p37
VText
p38
sS'genres'
p39
(lp40
sS'copyright'
p41
VPublic domain in the USA.
p42
sS'title'
p43
VThe World That Couldn't Be
p44
sS'wikipedia'
p45
(dp46
S'found'
p47
I00
ssS'average_rating'
p48
F3.77
sS'rating_count'
p49
I72
sS'content_available'
p50
I01
sS'cover_art_url'
p51
S'http://www.gutenberg.org/cache/epub/32026/pg32026.cover.medium.jpg'
p52
sS'goodreads'
p53
(dp54
S'url'
p55
Vhttps://www.goodreads.com/book/show/9675485-the-world-that-couldn-t-be
p56
sS'found'
p57
I01
sS'year'
p58
I1958
ssS'similar_books'
p59
(lp60
sS'description'
p61
NsS'gutenberg'
p62
(dp63
g55
Vhttp://www.gutenberg.org/ebooks/32026
p64
sS'num'
p65
I32026
ssS'authors'
p66
(lp67
I56
asS'isbn13'
p68
NsS'language'
p69
VEnglish
p70
sS'countries'
p71
(lp72
I2
asS'release_date'
p73
S'2010-04-17T00:00:00'
p74
sS'author'
p75
I56
sS'cover'
p76
Vhttps://s.gr-assets.com/assets/nophoto/book/111x148-bcc042a9c91a29c1d680899eff700a03.png
p77
sS'content_cleaned'
p78
I01
sS'classes'
p79
(lp80
Vto-read
p81
aVscience-fiction
p82
aVcurrently-reading
p83
aVkindle
p84
aVsci-fi
p85
aVfavorites
p86
aVe-book
p87
aVaudiobooks
p88
aVhave-book
p89
aVshort
p90
aVinternet-archive
p91
aVebook
p92
aV4-stars
p93
aVshort-stories
p94
aVfiction
p95
aVaudiobooks-read
p96
aV20th-century-lit
p97
aVin-google-drive-to-read
p98
aVecology
p99
aVsci-fi-classics
p100
aVclassic-science-fiction
p101
aVshort-story
p102
aVnovellas
p103
aVreviewed
p104
aVaudio-obtained-ss
p105
aV15
p106
aVe-books
p107
aVaudio-books
p108
aVfeedbooks-com
p109
aVsci-fi-or-speculative
p110
aVsf
p111
aVsearching-for
p112
aVmds-audio
p113
aVnovelettes
p114
aVaudiobooks-to-read
p115
aVaudio-obtained-lvss
p116
aVneed-to-get-2
p117
aVto-read-owned
p118
asS'loc_class'
p119
VPS: Language and Literatures: American and Canadian literature
p120
sS'n_authors'
p121
I1
sb.