ccopy_reg
_reconstructor
p0
(cdataset.Book
Book
p1
c__builtin__
object
p2
Ntp3
Rp4
(dp5
S'content_name'
p6
V23930.txt.utf-8
p7
sS'isbn'
p8
NsS'year'
p9
I1962
sS'author_name'
p10
VRobert J. Martin
p11
sS'images_urls'
p12
(lp13
sS'language_code'
p14
Veng
p15
sS'images'
p16
(lp17
sS'id'
p18
I932
sS'category'
p19
VText
p20
sS'genres'
p21
(lp22
sS'copyright'
p23
VPublic domain in the USA.
p24
sS'title'
p25
VBeyond Pandora
p26
sS'wikipedia'
p27
(dp28
S'found'
p29
I00
ssS'average_rating'
p30
F3.54
sS'rating_count'
p31
I31
sS'content_available'
p32
I01
sS'goodreads'
p33
(dp34
S'url'
p35
Vhttps://www.goodreads.com/book/show/11925017-beyond-pandora
p36
sg29
I01
sS'year'
p37
I1962
ssS'similar_books'
p38
(lp39
sS'description'
p40
VShort Story, Science Fiction, Post-1930<br /><br />The ideal way to deal with a pest\u2014any menace\u2014is,<br />of course, to make it useful to you....<br /><br />Free download, all ebook formats.
p41
sS'format'
p42
Vebook
p43
sS'gutenberg'
p44
(dp45
g35
Vhttp://www.gutenberg.org/ebooks/23930
p46
sS'num'
p47
I23930
ssS'authors'
p48
(lp49
I282
asS'pages'
p50
I13
sS'isbn13'
p51
NsS'language'
p52
VEnglish
p53
sS'country'
p54
I3
sS'release_date'
p55
S'2007-12-20T00:00:00'
p56
sS'author'
p57
I282
sS'content_cleaned'
p58
I01
sS'classes'
p59
(lp60
Vto-read
p61
aVscience-fiction
p62
aVsci-fi
p63
aVjunk
p64
aVaudio
p65
aVshort-stories
p66
aVaudio-books
p67
aVaudiobooks
p68
aVshort-story
p69
aVnovellas-poems-shorts
p70
aVfiction
p71
aV0-anthologies-storeis-novellas
p72
aVaudio-obtained
p73
aVread-in-2014
p74
aVfree
p75
aV000-short-story
p76
aV13
p77
aVmartin-robert-j
p78
aVtype-short-story
p79
aVaudio-obtained-ss
p80
aV01-free
p81
aV00-short-story
p82
asS'loc_class'
p83
VPS: Language and Literatures: American and Canadian literature
p84
sS'n_authors'
p85
I1
sb.