ccopy_reg
_reconstructor
p0
(cdataset.Book
Book
p1
c__builtin__
object
p2
Ntp3
Rp4
(dp5
S'content_name'
p6
V49651.txt.utf-8
p7
sS'isbn'
p8
V0352395508
p9
sS'year'
p10
I1953
sS'author_name'
p11
VE. E. Smith
p12
sS'images_urls'
p13
(lp14
Vhttp://www.gutenberg.org/files/49651/49651-h/images/cover.jpg
p15
aVhttp://www.gutenberg.org/files/49651/49651-h/images/illus1.jpg
p16
aVhttp://www.gutenberg.org/files/49651/49651-h/images/illus2.jpg
p17
aVhttp://www.gutenberg.org/files/49651/49651-h/images/illus3.jpg
p18
asS'language_code'
p19
Veng
p20
sS'images'
p21
(lp22
sS'id'
p23
I173
sS'category'
p24
VText
p25
sS'genres'
p26
(lp27
sS'copyright'
p28
VPublic domain in the USA.
p29
sS'title'
p30
VTedric
p31
sS'wikipedia'
p32
(dp33
S'found'
p34
I00
ssS'average_rating'
p35
F3.21
sS'rating_count'
p36
I76
sS'content_available'
p37
I01
sS'cover_art_url'
p38
S'http://www.gutenberg.org/cache/epub/49651/pg49651.cover.medium.jpg'
p39
sS'goodreads'
p40
(dp41
S'url'
p42
Vhttps://www.goodreads.com/book/show/1874492.Lord_Tedric
p43
sg34
I01
sS'year'
p44
I1978
ssS'similar_books'
p45
(lp46
VEyes of Amber and Other Stories
p47
aVMarune: Alastor 933
p48
aVMasters Of The Pit Or Barbarians Of Mars (Michael Kane, Vol. 3)
p49
aVThe Day the Martians Came
p50
aVThe Possessors
p51
aVThe Daleth Effect
p52
aVThe Infinite Battle
p53
aVInvaders from Earth
p54
aVThe Dragon Lensman (Second Stage Lensman Trilogy, #1)
p55
aVBattlestar Galactica 3: The Tombs of Kobol (Battlestar Galactica, #3)
p56
aV\u0422\u0443\u043c\u0430\u043d\u043d\u043e\u0441\u0442\u044c \u0410\u043d\u0434\u0440\u043e\u043c\u0435\u0434\u044b
p57
aVThe Changing Land
p58
aVReal Business of IT: How CIOs Create and Communicate Value
p59
aVExpository Thoughts on the Gospels: 4 Volumes
p60
aVThe Ambassador
p61
aVO Filho de Thor - Volume 2 (Saga das Ilhas Brilhantes, #1.2)
p62
asS'description'
p63
NsS'format'
p64
VMass Market Paperback
p65
sS'gutenberg'
p66
(dp67
g42
Vhttp://www.gutenberg.org/ebooks/49651
p68
sS'num'
p69
I49651
ssS'authors'
p70
(lp71
I14
asS'pages'
p72
I159
sS'isbn13'
p73
V9780352395504
p74
sS'language'
p75
VEnglish
p76
sS'countries'
p77
(lp78
I2
asS'release_date'
p79
S'2015-08-08T00:00:00'
p80
sS'author'
p81
I14
sS'content_cleaned'
p82
I01
sS'classes'
p83
(lp84
Vto-read
p85
aVsci-fi
p86
aVscience-fiction
p87
aVowned
p88
aVdefault
p89
aVspace-opera
p90
aVto-read-jd
p91
aVchecked
p92
aVcurrently-reading
p93
aVficcao-cientifica
p94
aVread70s
p95
aVsf
p96
aVto-buy
p97
aVon-going-series
p98
aVsf-to-read
p99
aVcase-1-shelf-3
p100
aVpersonal-collection
p101
aVnot-read
p102
aVbrussels
p103
aVee-doc-smith
p104
aVfc
p105
aVkindle
p106
aVclassic-science-fiction
p107
aV2016-readin-list
p108
aVdoc-ee-smith
p109
aVaudiobooks
p110
aVgolden-age-sf
p111
aVz-owned-books
p112
aVrick-s-books
p113
aV2016-challenge-oldish
p114
aVbuy-to-read
p115
aVlibrivox
p116
aVowned-but-unread
p117
aVincomplete-series
p118
aVsff
p119
aVreading1
p120
aVgordon-eklund
p121
aVe-e-doc-smith
p122
aVeklund-gordon
p123
aVtg-books
p124
aVfantasy-sci-fi
p125
aVsifi
p126
aVpaperback
p127
aVsci-fi-europa-america
p128
aVin-portuguese
p129
aValeixo
p130
aVowned-books
p131
aVian-s-books
p132
aVfantasy
p133
aVwrong-covers-or-info
p134
aVisbn-check
p135
aVsci-fi-read
p136
aVfict-sci-fi
p137
aVread-in-2010
p138
aVsci-fi-books
p139
aVnot-available-at-library
p140
aVcheck
p141
aVsf-tbr
p142
asS'loc_class'
p143
S''
p144
sS'n_authors'
p145
I1
sb.