ccopy_reg
_reconstructor
p0
(cdataset.Book
Book
p1
c__builtin__
object
p2
Ntp3
Rp4
(dp5
S'content_name'
p6
V31583.txt.utf-8
p7
sS'isbn'
p8
NsS'year'
p9
I1956
sS'author_name'
p10
VEvelyn E. Smith
p11
sS'images_urls'
p12
(lp13
Vhttp://www.gutenberg.org/files/31583/31583-h/images/cover.jpg
p14
aVhttp://www.gutenberg.org/files/31583/31583-h/images/image1.jpg
p15
aVhttp://www.gutenberg.org/files/31583/31583-h/images/image2.jpg
p16
aVhttp://www.gutenberg.org/files/31583/31583-h/images/image3.jpg
p17
aVhttp://www.gutenberg.org/files/31583/31583-h/images/image4.jpg
p18
aVhttp://www.gutenberg.org/files/31583/31583-h/images/image5.jpg
p19
asS'language_code'
p20
Veng
p21
sS'id'
p22
I514
sS'category'
p23
VText
p24
sS'genres'
p25
(lp26
sS'copyright'
p27
VPublic domain in the USA.
p28
sS'title'
p29
VThe Venus Trap
p30
sS'wikipedia'
p31
(dp32
S'found'
p33
I00
ssS'average_rating'
p34
F3.7
sS'rating_count'
p35
I13
sS'content_available'
p36
I01
sS'cover_art_url'
p37
S'http://www.gutenberg.org/cache/epub/31583/pg31583.cover.medium.jpg'
p38
sS'goodreads'
p39
(dp40
S'url'
p41
S'https://www.goodreads.com/book/show/20527676-the-venus-trap'
p42
sS'found'
p43
I01
ssS'similar_books'
p44
(lp45
sS'description'
p46
V"What's the matter, darling?" James asked anxiously. "Don't you like the planet?"<br /><br />"Oh, I love the planet," Phyllis said. "It's beautiful."<br /><br />It was. The blue--really blue--grass, blue-violet shrubbery and, loveliest of all, the great golden tree with sapphire leaves and pale pink blossoms, instead of looking alien, resembled nothing so much as a fairy-tale version of Earth.<br /><br />Even the fragrance that filled the atmosphere was completely delightful to Terrestrial nostrils -- which was unusual, for most other planets, no matter how well adapted for colonization otherwise, tended, from the human viewpoint, anyway, to stink. Not that they were not colonized nevertheless, for the population of Earth was expanding at too great a rate to permit merely olfactory considerations to rule out an otherwise suitable planet. This particular group of settlers had been lucky, indeed.<br /><br />One thing Man never counted on to take along into space with him was the Eternal Triangle -- especially a true-blue triangle like this!
p47
sS'gutenberg'
p48
(dp49
S'url'
p50
Vhttp://www.gutenberg.org/ebooks/31583
p51
sS'num'
p52
I31583
ssS'authors'
p53
(lp54
I172
asS'isbn13'
p55
NsS'language'
p56
VEnglish
p57
sS'countries'
p58
(lp59
I2
asS'release_date'
p60
S'2010-03-10T00:00:00'
p61
sS'author'
p62
I172
sS'cover'
p63
Vhttps://s.gr-assets.com/assets/nophoto/book/111x148-bcc042a9c91a29c1d680899eff700a03.png
p64
sS'content_cleaned'
p65
I01
sS'classes'
p66
(lp67
Vto-read
p68
aVcurrently-reading
p69
aVscience-fiction
p70
aVunder-050-pages
p71
aVfree-from-amazon
p72
aVsci-fi
p73
aV15
p74
aVnope
p75
aVscience
p76
aVgeneral
p77
aVfiction
p78
aVfantasy
p79
asS'loc_class'
p80
VPS: Language and Literatures: American and Canadian literature
p81
sS'n_authors'
p82
I1
sb.