ccopy_reg
_reconstructor
p0
(cdataset.Book
Book
p1
c__builtin__
object
p2
Ntp3
Rp4
(dp5
S'content_name'
p6
V29205.txt.utf-8
p7
sS'isbn'
p8
NsS'year'
p9
I1957
sS'author_name'
p10
VLyn Venable
p11
sS'images_urls'
p12
(lp13
sS'language_code'
p14
Ven-US
p15
sS'id'
p16
I844
sS'category'
p17
VText
p18
sS'genres'
p19
(lp20
sS'copyright'
p21
VPublic domain in the USA.
p22
sS'title'
p23
VGrove of the Unborn
p24
sS'wikipedia'
p25
(dp26
S'found'
p27
I00
ssS'average_rating'
p28
F2.83
sS'rating_count'
p29
I11
sS'content_available'
p30
I01
sS'goodreads'
p31
(dp32
S'url'
p33
Vhttps://www.goodreads.com/book/show/12654634-grove-of-the-unborn
p34
sS'found'
p35
I01
sS'year'
p36
I1957
ssS'similar_books'
p37
(lp38
sS'description'
p39
VBheel still stood on the patio, transfixed...
p40
sS'gutenberg'
p41
(dp42
g33
Vhttp://www.gutenberg.org/ebooks/29205
p43
sS'num'
p44
I29205
ssS'authors'
p45
(lp46
I203
asS'pages'
p47
I22
sS'isbn13'
p48
NsS'language'
p49
VEnglish
p50
sS'countries'
p51
(lp52
I3
asS'release_date'
p53
S'2009-06-22T00:00:00'
p54
sS'author'
p55
I203
sS'content_cleaned'
p56
I01
sS'classes'
p57
(lp58
Vscience-fiction
p59
aVshort-story
p60
aVfiction
p61
aVsfbywomen
p62
aVsf
p63
aVscifi-and-horror
p64
aVchallenge-oldish
p65
aVanthos-shorts
p66
aVto-read
p67
aVtype-short-story
p68
aV2014-challenge-oldish
p69
asS'loc_class'
p70
VPS: Language and Literatures: American and Canadian literature
p71
sS'n_authors'
p72
I1
sb.