ccopy_reg
_reconstructor
p0
(cdataset.Book
Book
p1
c__builtin__
object
p2
Ntp3
Rp4
(dp5
S'content_name'
p6
V29139.txt.utf-8
p7
sS'isbn'
p8
V3655277083
p9
sS'year'
p10
I1957
sS'author_name'
p11
VM. A. Cummings
p12
sS'images_urls'
p13
(lp14
Vhttp://www.gutenberg.org/files/29139/29139-h/images/001-1.jpg
p15
aVhttp://www.gutenberg.org/files/29139/29139-h/images/001-2.jpg
p16
asS'language_code'
p17
NsS'id'
p18
I799
sS'category'
p19
VText
p20
sS'genres'
p21
(lp22
sS'copyright'
p23
VPublic domain in the USA.
p24
sS'title'
p25
VNo Pets Allowed
p26
sS'wikipedia'
p27
(dp28
S'found'
p29
I00
ssS'average_rating'
p30
F2.9
sS'rating_count'
p31
I16
sS'content_available'
p32
I01
sS'goodreads'
p33
(dp34
S'url'
p35
Vhttps://www.goodreads.com/book/show/12671844-no-pets-allowed
p36
sS'found'
p37
I01
sS'year'
p38
I2010
ssS'similar_books'
p39
(lp40
sS'description'
p41
NsS'gutenberg'
p42
(dp43
g35
Vhttp://www.gutenberg.org/ebooks/29139
p44
sS'num'
p45
I29139
ssS'authors'
p46
(lp47
I253
asS'isbn13'
p48
V9783655277089
p49
sS'language'
p50
VEnglish
p51
sS'countries'
p52
(lp53
I2
asS'release_date'
p54
S'2009-06-17T00:00:00'
p55
sS'author'
p56
I253
sS'cover'
p57
Vhttps://s.gr-assets.com/assets/nophoto/book/111x148-bcc042a9c91a29c1d680899eff700a03.png
p58
sS'content_cleaned'
p59
I01
sS'classes'
p60
(lp61
Vto-read
p62
aVfiction
p63
aVshort-story
p64
aVscience-fiction
p65
aVsci-fi
p66
aVvintage-sf
p67
aVaudiobooks
p68
aVsfbywomen
p69
aVsf
p70
aVunder-100-readers
p71
aVshort-stories
p72
aVtype-short-story
p73
aVspiiiiiicccccce
p74
asS'loc_class'
p75
VPS: Language and Literatures: American and Canadian literature
p76
sS'n_authors'
p77
I1
sb.