ccopy_reg
_reconstructor
p0
(cdataset.Book
Book
p1
c__builtin__
object
p2
Ntp3
Rp4
(dp5
S'content_name'
p6
V30816.txt.utf-8
p7
sS'isbn'
p8
NsS'year'
p9
I1963
sS'author_name'
p10
S'Seaton McKettrig'
p11
sS'images_urls'
p12
(lp13
Vhttp://www.gutenberg.org/files/30816/30816-h/images/image_001.jpg
p14
aVhttp://www.gutenberg.org/files/30816/30816-h/images/image_002.jpg
p15
aVhttp://www.gutenberg.org/files/30816/30816-h/images/image_003.jpg
p16
asS'language_code'
p17
NsS'id'
p18
I449
sS'category'
p19
VText
p20
sS'genres'
p21
(lp22
sS'copyright'
p23
VPublic domain in the USA.
p24
sS'title'
p25
S'A World by the Tale'
p26
sS'wikipedia'
p27
(dp28
S'found'
p29
I00
ssS'average_rating'
p30
F3.97
sS'rating_count'
p31
I0
sS'content_available'
p32
I01
sS'goodreads'
p33
(dp34
S'url'
p35
S'https://www.goodreads.com/book/show/33383041-a-world-by-the-tale'
p36
sS'found'
p37
I01
ssS'similar_books'
p38
(lp39
sS'description'
p40
NsS'gutenberg'
p41
(dp42
S'url'
p43
Vhttp://www.gutenberg.org/ebooks/30816
p44
sS'num'
p45
I30816
ssS'authors'
p46
(lp47
I300
asS'isbn13'
p48
NsS'language'
p49
VEnglish
p50
sS'countries'
p51
(lp52
I3
asS'release_date'
p53
S'2009-12-31T00:00:00'
p54
sS'author'
p55
I152
sS'content_cleaned'
p56
I01
sS'classes'
p57
(lp58
Vunknown-publication-dates
p59
aVto-read
p60
asS'loc_class'
p61
VPS: Language and Literatures: American and Canadian literature
p62
sS'n_authors'
p63
I1
sb.