ccopy_reg
_reconstructor
p0
(cdataset.Book
Book
p1
c__builtin__
object
p2
Ntp3
Rp4
(dp5
S'content_name'
p6
V23509.txt.utf-8
p7
sS'isbn'
p8
NsS'year'
p9
I1941
sS'author_name'
p10
VF. E. Hardart
p11
sS'images_urls'
p12
(lp13
Vhttp://www.gutenberg.org/files/23509/23509-h/images/img01.png
p14
aVhttp://www.gutenberg.org/files/23509/23509-page-images/p082.png
p15
aVhttp://www.gutenberg.org/files/23509/23509-page-images/p083.png
p16
aVhttp://www.gutenberg.org/files/23509/23509-page-images/p084.png
p17
aVhttp://www.gutenberg.org/files/23509/23509-page-images/p085.png
p18
aVhttp://www.gutenberg.org/files/23509/23509-page-images/p086.png
p19
aVhttp://www.gutenberg.org/files/23509/23509-page-images/p087.png
p20
aVhttp://www.gutenberg.org/files/23509/23509-page-images/p088.png
p21
aVhttp://www.gutenberg.org/files/23509/23509-page-images/p089.png
p22
asS'language_code'
p23
Veng
p24
sS'id'
p25
I906
sS'category'
p26
VText
p27
sS'genres'
p28
(lp29
sS'copyright'
p30
VPublic domain in the USA.
p31
sS'title'
p32
VThe Beast of Space
p33
sS'wikipedia'
p34
(dp35
S'found'
p36
I00
ssS'average_rating'
p37
F3.11
sS'rating_count'
p38
I19
sS'content_available'
p39
I01
sS'goodreads'
p40
(dp41
S'url'
p42
Vhttps://www.goodreads.com/book/show/6328987-the-beast-of-space
p43
sS'found'
p44
I01
sS'year'
p45
I1941
ssS'similar_books'
p46
(lp47
sS'description'
p48
NsS'gutenberg'
p49
(dp50
g42
Vhttp://www.gutenberg.org/ebooks/23509
p51
sS'num'
p52
I23509
ssS'authors'
p53
(lp54
I276
asS'isbn13'
p55
NsS'language'
p56
VEnglish
p57
sS'countries'
p58
(lp59
I3
asS'release_date'
p60
S'2007-11-16T00:00:00'
p61
sS'author'
p62
I276
sS'cover'
p63
Vhttps://s.gr-assets.com/assets/nophoto/book/111x148-bcc042a9c91a29c1d680899eff700a03.png
p64
sS'content_cleaned'
p65
I01
sS'classes'
p66
(lp67
Vto-read
p68
aVshort-story
p69
aVowned
p70
aVshort-stories
p71
aVsci-fi
p72
aV20th-century-lit
p73
aVebooks
p74
aVpg
p75
aVsfbywomen
p76
aVsf
p77
aVdisabilitystudies
p78
aVunread
p79
aVe-books-to-read
p80
aVaudio-obtained
p81
aV1940s
p82
aVhave-in-audio
p83
aVscifi-and-horror
p84
aVadventure-suspense
p85
aVcurrently-reading
p86
aVtype-short-story
p87
aVaudio-obtained-ss
p88
asS'loc_class'
p89
VPS: Language and Literatures: American and Canadian literature
p90
sS'n_authors'
p91
I1
sb.