ccopy_reg
_reconstructor
p0
(cdataset.Book
Book
p1
c__builtin__
object
p2
Ntp3
Rp4
(dp5
S'similar_books'
p6
(lp7
sS'genres'
p8
(lp9
sS'author'
p10
I302
sS'countries'
p11
(lp12
I2
asS'year'
p13
I1955
sS'title'
p14
VGalaxy Magazine November 1955
p15
sS'cover'
p16
Vhttps://ia600202.us.archive.org/BookReader/BookReaderImages.php?zip=/35/items/Galaxy_v11n02_1955-11/Galaxy_v11n02_1955-11_jp2.zip&file=Galaxy_v11n02_1955-11_jp2/Galaxy_v11n02_1955-11_0000.jp2&scale=0&rotate=0
p17
sS'cover_art'
p18
S'http://www.isfdb.org/wiki/images/f/fa/GALNOV55.jpg'
p19
sS'author_name'
p20
VGalaxy Magazine
p21
sS'images_urls'
p22
(lp23
sS'authors'
p24
(lp25
I363
aI480
aI481
aI482
aI402
aI305
aI339
aI483
aI326
aI8
aI40
aI136
aI484
aI485
aI23
aI302
asS'images'
p26
(lp27
sS'id'
p28
I1034
sS'contents'
p29
(lp30
(dp31
g10
I363
sg14
VThe Ties of Earth (Part 1 of 2)
p32
sa(dp33
g10
I363
sg14
VThe Ties of Earth (Part 1 of 2) [2]
p34
sa(dp35
g10
I363
sg14
VThe Ties of Earth (Part 1 of 2) [3]
p36
sa(dp37
g10
I480
sg14
VThe Semantic War
p38
sa(dp39
g10
I363
sg14
VAutofac
p40
sa(dp41
g10
I363
sg14
VAutofac [2]
p42
sa(dp43
g10
I363
sg14
VAutofac [3]
p44
sa(dp45
g10
I481
sg14
VCause of Death
p46
sa(dp47
g10
I482
sg14
VWarrior's Return
p48
sa(dp49
g10
I402
sg14
VWith Redfern On Capella Xii
p50
sa(dp51
g10
I402
sg14
VWith Redfern On Capella Xii [2]
p52
sa(dp53
g10
I402
sg14
VWith Redfern On Capella Xii [3]
p54
sa(dp55
g10
I305
sg14
VWho'll Be Around?
p56
sa(dp57
g10
I339
sg14
VFor Your Information (Galaxy Science Fiction, November 1955)
p58
sa(dp59
g10
I483
sg14
VGalaxy's 5 Star Shelf (Galaxy, November 1955)
p60
sa(dp61
g10
I326
sg14
VForecast (Galaxy, November 1955)
p62
sa(dp63
g10
I8
sg14
VAutofac
p64
sa(dp65
g10
I40
sg14
VWith Redfern On Capella Xii
p66
sa(dp67
g10
I136
sg14
VThe Ties of Earth (Part 1 of 2)
p68
sa(dp69
g10
I484
sg14
VThe Semantic War
p70
sa(dp71
g10
I485
sg14
VCause of Death
p72
sa(dp73
g10
I23
sg14
VWarrior's Return
p74
sasb.