ccopy_reg
_reconstructor
p0
(cdataset.Book
Book
p1
c__builtin__
object
p2
Ntp3
Rp4
(dp5
S'content_name'
p6
V26536.txt.utf-8
p7
sS'isbn'
p8
NsS'year'
p9
I2015
sS'author_name'
p10
VEdgar Pangborn
p11
sS'images_urls'
p12
(lp13
Vhttp://www.gutenberg.org/files/26536/26536-h/images/illus-76.jpg
p14
aVhttp://www.gutenberg.org/files/26536/26536-page-images/p0074.png
p15
aVhttp://www.gutenberg.org/files/26536/26536-page-images/p0075.png
p16
aVhttp://www.gutenberg.org/files/26536/26536-page-images/p0076-image1.png
p17
aVhttp://www.gutenberg.org/files/26536/26536-page-images/p0077.png
p18
aVhttp://www.gutenberg.org/files/26536/26536-page-images/p0078.png
p19
aVhttp://www.gutenberg.org/files/26536/26536-page-images/p0079.png
p20
aVhttp://www.gutenberg.org/files/26536/26536-page-images/p0080.png
p21
asS'language_code'
p22
Veng
p23
sS'images'
p24
(lp25
sS'id'
p26
I760
sS'category'
p27
VText
p28
sS'genres'
p29
(lp30
sS'copyright'
p31
VPublic domain in the USA.
p32
sS'title'
p33
VThe Good Neighbors
p34
sS'wikipedia'
p35
(dp36
S'found'
p37
I00
ssS'average_rating'
p38
F3.33
sS'rating_count'
p39
I37645
sS'content_available'
p40
I01
sS'goodreads'
p41
(dp42
S'url'
p43
Vhttps://www.goodreads.com/book/show/25837341-the-good-neighbor
p44
sg37
I01
sS'year'
p45
I2015
ssS'similar_books'
p46
(lp47
VCrooked Little Lies
p48
aVA Dark Lure
p49
aVEverything Burns
p50
aVYounger
p51
aVOrchids and Stone
p52
aVThe Burned Bridges of Ward, Nebraska
p53
aVImplicated
p54
aVLife and Other Near-Death Experiences
p55
aVThe Prettiest One
p56
aVMemoirs of a Bad Dog
p57
aVIt Isn't Cheating if He's Dead
p58
aVIt Had to Be Him (It Had to Be #1)
p59
aVCold Black Earth
p60
aVTerms of Use
p61
aVLong Knives
p62
aVIntrusion
p63
aVWreckage
p64
aVBeneath The Surface
p65
asS'description'
p66
V<b>From a phenomenal new voice in suspense fiction comes a book that will forever change the way you look at the people closest to you\u2026</b><br /><br />Shadow Cove, Washington, is the kind of town everyone dreams about\u2014quaint streets, lush forests, good neighbors. That\u2019s what Sarah thinks as she settles into life with her new husband, Dr. Johnny McDonald. But all too soon she discovers an undercurrent of deception. And one October evening when Johnny is away, sudden tragedy destroys Sarah\u2019s happiness.<br /><br />Dazed and stricken with grief, she and Johnny begin to rebuild their shattered lives. As she picks up the pieces of her broken home, Sarah discovers a shocking secret that forces her to doubt everything she thought was true\u2014about her neighbors, her friends, and even her marriage. With each stunning revelation, Sarah must ask herself, <i>Can we ever really know the ones we love?</i>
p67
sS'format'
p68
NsS'gutenberg'
p69
(dp70
g43
Vhttp://www.gutenberg.org/ebooks/26536
p71
sS'num'
p72
I26536
ssS'authors'
p73
(lp74
I132
asS'isbn13'
p75
NsS'language'
p76
VEnglish
p77
sS'release_date'
p78
S'2008-09-05T00:00:00'
p79
sS'author'
p80
I132
sS'content_cleaned'
p81
I01
sS'classes'
p82
(lp83
Vcurrently-reading
p84
aVto-read
p85
aVkindle
p86
aVfiction
p87
aVmystery
p88
aVkindle-first
p89
aVthriller
p90
aVread-in-2015
p91
aVsuspense
p92
aVmystery-thriller
p93
aVkindle-unlimited
p94
aVbook-club
p95
aVread-2015
p96
aVkindle-books
p97
aVread-in-2016
p98
aVcrime
p99
aVowned
p100
aVread-2016
p101
aVbooks-i-own
p102
aV2015-reads
p103
aV2015-books
p104
aVon-kindle
p105
aVnetgalley
p106
aVpsychological-thriller
p107
aVdrama
p108
aVe-books
p109
aVcontemporary
p110
aVsuspense-thriller
p111
aV2016-books
p112
aVmysteries
p113
aV2015-read
p114
aVon-my-kindle
p115
aVmystery-suspense
p116
aVadult
p117
aVaudiobook
p118
aVthriller-suspense
p119
aVe-book
p120
aVown-kindle
p121
aV2016-read
p122
aVaudible
p123
aVto-buy
p124
aV2016-reads
p125
aVromance
p126
aVfavorites
p127
aVthrillers
p128
aV2016-reading-challenge
p129
aVfinished
p130
aVa-j-banner
p131
aVamazon
p132
aV2015-books-read
p133
aVstand-alone
p134
aVdnf
p135
aVbooks-read-in-2015
p136
aVowned-books
p137
aVfirst-reads
p138
aVread-in-2017
p139
aVread-2017
p140
aVborrowed
p141
aVabandoned
p142
aVmurder
p143
aVnovels
p144
aV2015-reading-challenge
p145
aVmystery-thriller-suspense
p146
aVpsychological-thrillers
p147
aVmystery-suspense-thriller
p148
aVebook
p149
aVmurder-mystery
p150
aVkindle-library
p151
aVarc
p152
aVcontemporary-fiction
p153
aVthriller-mystery
p154
aVmeh
p155
aVadult-fiction
p156
aVcrime-mystery
p157
aVown-on-kindle
p158
aVmaybe
p159
aVkindle-first-books
p160
aVkindle-owned
p161
aVwish-list
p162
aVebooks
p163
aVdefault
p164
aV2016-books-read
p165
aV2016-challenge
p166
aVbookclub
p167
aVlibrary
p168
aVdid-not-finish
p169
aVmystery-crime
p170
aVbook-club-books
p171
aV2015-challenge
p172
aVfreebies
p173
aVmarriage
p174
aVcrime-thriller
p175
aVown-to-read
p176
aVto-read-kindle
p177
aVmy-books
p178
aVkindle-free
p179
aVbooks-i-have
p180
aVamazon-first
p181
aVkindle-ebooks
p182
aVfree
p183
asS'loc_class'
p184
VPS: Language and Literatures: American and Canadian literature
p185
sS'n_authors'
p186
I1
sb.