ccopy_reg
_reconstructor
p0
(cdataset.Book
Book
p1
c__builtin__
object
p2
Ntp3
Rp4
(dp5
S'content_name'
p6
V20919.txt.utf-8
p7
sS'isbn'
p8
V1434499995
p9
sS'year'
p10
I1960
sS'author_name'
p11
VRobert Sheckley
p12
sS'images_urls'
p13
(lp14
Vhttp://www.gutenberg.org/files/20919/20919-page-images/c001.png
p15
aVhttp://www.gutenberg.org/files/20919/20919-page-images/c002.png
p16
aVhttp://www.gutenberg.org/files/20919/20919-page-images/f001.png
p17
aVhttp://www.gutenberg.org/files/20919/20919-page-images/f002.png
p18
aVhttp://www.gutenberg.org/files/20919/20919-page-images/f003.png
p19
aVhttp://www.gutenberg.org/files/20919/20919-page-images/f004.png
p20
aVhttp://www.gutenberg.org/files/20919/20919-page-images/f005.png
p21
aVhttp://www.gutenberg.org/files/20919/20919-page-images/p001.png
p22
aVhttp://www.gutenberg.org/files/20919/20919-page-images/p002.png
p23
aVhttp://www.gutenberg.org/files/20919/20919-page-images/p003.png
p24
aVhttp://www.gutenberg.org/files/20919/20919-page-images/p004.png
p25
aVhttp://www.gutenberg.org/files/20919/20919-page-images/p005.png
p26
aVhttp://www.gutenberg.org/files/20919/20919-page-images/p006.png
p27
aVhttp://www.gutenberg.org/files/20919/20919-page-images/p007.png
p28
aVhttp://www.gutenberg.org/files/20919/20919-page-images/p008.png
p29
aVhttp://www.gutenberg.org/files/20919/20919-page-images/p009.png
p30
aVhttp://www.gutenberg.org/files/20919/20919-page-images/p010.png
p31
aVhttp://www.gutenberg.org/files/20919/20919-page-images/p011.png
p32
aVhttp://www.gutenberg.org/files/20919/20919-page-images/p012.png
p33
aVhttp://www.gutenberg.org/files/20919/20919-page-images/p013.png
p34
aVhttp://www.gutenberg.org/files/20919/20919-page-images/p014.png
p35
aVhttp://www.gutenberg.org/files/20919/20919-page-images/p015.png
p36
aVhttp://www.gutenberg.org/files/20919/20919-page-images/p016.png
p37
aVhttp://www.gutenberg.org/files/20919/20919-page-images/p017.png
p38
aVhttp://www.gutenberg.org/files/20919/20919-page-images/p018.png
p39
aVhttp://www.gutenberg.org/files/20919/20919-page-images/p019.png
p40
aVhttp://www.gutenberg.org/files/20919/20919-page-images/p020.png
p41
aVhttp://www.gutenberg.org/files/20919/20919-page-images/p021.png
p42
aVhttp://www.gutenberg.org/files/20919/20919-page-images/p022.png
p43
aVhttp://www.gutenberg.org/files/20919/20919-page-images/p023.png
p44
aVhttp://www.gutenberg.org/files/20919/20919-page-images/p024.png
p45
aVhttp://www.gutenberg.org/files/20919/20919-page-images/p025.png
p46
aVhttp://www.gutenberg.org/files/20919/20919-page-images/p026.png
p47
aVhttp://www.gutenberg.org/files/20919/20919-page-images/p027.png
p48
aVhttp://www.gutenberg.org/files/20919/20919-page-images/p028.png
p49
aVhttp://www.gutenberg.org/files/20919/20919-page-images/p029.png
p50
aVhttp://www.gutenberg.org/files/20919/20919-page-images/p030.png
p51
aVhttp://www.gutenberg.org/files/20919/20919-page-images/p031.png
p52
aVhttp://www.gutenberg.org/files/20919/20919-page-images/p032.png
p53
aVhttp://www.gutenberg.org/files/20919/20919-page-images/p033.png
p54
aVhttp://www.gutenberg.org/files/20919/20919-page-images/p034.png
p55
aVhttp://www.gutenberg.org/files/20919/20919-page-images/p035.png
p56
aVhttp://www.gutenberg.org/files/20919/20919-page-images/p036.png
p57
aVhttp://www.gutenberg.org/files/20919/20919-page-images/p037.png
p58
aVhttp://www.gutenberg.org/files/20919/20919-page-images/p038.png
p59
aVhttp://www.gutenberg.org/files/20919/20919-page-images/p039.png
p60
aVhttp://www.gutenberg.org/files/20919/20919-page-images/p040.png
p61
aVhttp://www.gutenberg.org/files/20919/20919-page-images/p041.png
p62
aVhttp://www.gutenberg.org/files/20919/20919-page-images/p042.png
p63
aVhttp://www.gutenberg.org/files/20919/20919-page-images/p043.png
p64
aVhttp://www.gutenberg.org/files/20919/20919-page-images/p044.png
p65
aVhttp://www.gutenberg.org/files/20919/20919-page-images/p045.png
p66
aVhttp://www.gutenberg.org/files/20919/20919-page-images/p046.png
p67
aVhttp://www.gutenberg.org/files/20919/20919-page-images/p047.png
p68
aVhttp://www.gutenberg.org/files/20919/20919-page-images/p048.png
p69
aVhttp://www.gutenberg.org/files/20919/20919-page-images/p049.png
p70
aVhttp://www.gutenberg.org/files/20919/20919-page-images/p050.png
p71
aVhttp://www.gutenberg.org/files/20919/20919-page-images/p051.png
p72
aVhttp://www.gutenberg.org/files/20919/20919-page-images/p052.png
p73
aVhttp://www.gutenberg.org/files/20919/20919-page-images/p053.png
p74
aVhttp://www.gutenberg.org/files/20919/20919-page-images/p054.png
p75
aVhttp://www.gutenberg.org/files/20919/20919-page-images/p055.png
p76
aVhttp://www.gutenberg.org/files/20919/20919-page-images/p056.png
p77
aVhttp://www.gutenberg.org/files/20919/20919-page-images/p057.png
p78
aVhttp://www.gutenberg.org/files/20919/20919-page-images/p058.png
p79
aVhttp://www.gutenberg.org/files/20919/20919-page-images/p059.png
p80
aVhttp://www.gutenberg.org/files/20919/20919-page-images/p060.png
p81
aVhttp://www.gutenberg.org/files/20919/20919-page-images/p061.png
p82
aVhttp://www.gutenberg.org/files/20919/20919-page-images/p062.png
p83
aVhttp://www.gutenberg.org/files/20919/20919-page-images/p063.png
p84
aVhttp://www.gutenberg.org/files/20919/20919-page-images/p064.png
p85
aVhttp://www.gutenberg.org/files/20919/20919-page-images/p065.png
p86
aVhttp://www.gutenberg.org/files/20919/20919-page-images/p066.png
p87
aVhttp://www.gutenberg.org/files/20919/20919-page-images/p067.png
p88
aVhttp://www.gutenberg.org/files/20919/20919-page-images/p068.png
p89
aVhttp://www.gutenberg.org/files/20919/20919-page-images/p069.png
p90
aVhttp://www.gutenberg.org/files/20919/20919-page-images/p070.png
p91
aVhttp://www.gutenberg.org/files/20919/20919-page-images/p071.png
p92
aVhttp://www.gutenberg.org/files/20919/20919-page-images/p072.png
p93
aVhttp://www.gutenberg.org/files/20919/20919-page-images/p073.png
p94
aVhttp://www.gutenberg.org/files/20919/20919-page-images/p074.png
p95
aVhttp://www.gutenberg.org/files/20919/20919-page-images/p075.png
p96
aVhttp://www.gutenberg.org/files/20919/20919-page-images/p076.png
p97
aVhttp://www.gutenberg.org/files/20919/20919-page-images/p077.png
p98
aVhttp://www.gutenberg.org/files/20919/20919-page-images/p078.png
p99
aVhttp://www.gutenberg.org/files/20919/20919-page-images/p079.png
p100
aVhttp://www.gutenberg.org/files/20919/20919-page-images/p080.png
p101
aVhttp://www.gutenberg.org/files/20919/20919-page-images/p081.png
p102
aVhttp://www.gutenberg.org/files/20919/20919-page-images/p082.png
p103
aVhttp://www.gutenberg.org/files/20919/20919-page-images/p083.png
p104
aVhttp://www.gutenberg.org/files/20919/20919-page-images/p084.png
p105
aVhttp://www.gutenberg.org/files/20919/20919-page-images/p085.png
p106
aVhttp://www.gutenberg.org/files/20919/20919-page-images/p086.png
p107
aVhttp://www.gutenberg.org/files/20919/20919-page-images/p087.png
p108
aVhttp://www.gutenberg.org/files/20919/20919-page-images/p088.png
p109
aVhttp://www.gutenberg.org/files/20919/20919-page-images/p089.png
p110
aVhttp://www.gutenberg.org/files/20919/20919-page-images/p090.png
p111
aVhttp://www.gutenberg.org/files/20919/20919-page-images/p091.png
p112
aVhttp://www.gutenberg.org/files/20919/20919-page-images/p092.png
p113
aVhttp://www.gutenberg.org/files/20919/20919-page-images/p093.png
p114
aVhttp://www.gutenberg.org/files/20919/20919-page-images/p094.png
p115
aVhttp://www.gutenberg.org/files/20919/20919-page-images/p095.png
p116
aVhttp://www.gutenberg.org/files/20919/20919-page-images/p096.png
p117
aVhttp://www.gutenberg.org/files/20919/20919-page-images/p097.png
p118
aVhttp://www.gutenberg.org/files/20919/20919-page-images/p098.png
p119
aVhttp://www.gutenberg.org/files/20919/20919-page-images/p099.png
p120
aVhttp://www.gutenberg.org/files/20919/20919-page-images/p100.png
p121
aVhttp://www.gutenberg.org/files/20919/20919-page-images/p101.png
p122
aVhttp://www.gutenberg.org/files/20919/20919-page-images/p102.png
p123
aVhttp://www.gutenberg.org/files/20919/20919-page-images/p103.png
p124
aVhttp://www.gutenberg.org/files/20919/20919-page-images/p104.png
p125
aVhttp://www.gutenberg.org/files/20919/20919-page-images/p105.png
p126
aVhttp://www.gutenberg.org/files/20919/20919-page-images/p106.png
p127
aVhttp://www.gutenberg.org/files/20919/20919-page-images/p107.png
p128
aVhttp://www.gutenberg.org/files/20919/20919-page-images/p108.png
p129
aVhttp://www.gutenberg.org/files/20919/20919-page-images/p109.png
p130
aVhttp://www.gutenberg.org/files/20919/20919-page-images/p110.png
p131
aVhttp://www.gutenberg.org/files/20919/20919-page-images/p111.png
p132
aVhttp://www.gutenberg.org/files/20919/20919-page-images/p112.png
p133
aVhttp://www.gutenberg.org/files/20919/20919-page-images/p113.png
p134
aVhttp://www.gutenberg.org/files/20919/20919-page-images/p114.png
p135
aVhttp://www.gutenberg.org/files/20919/20919-page-images/p115.png
p136
aVhttp://www.gutenberg.org/files/20919/20919-page-images/p116.png
p137
aVhttp://www.gutenberg.org/files/20919/20919-page-images/p117.png
p138
aVhttp://www.gutenberg.org/files/20919/20919-page-images/p118.png
p139
aVhttp://www.gutenberg.org/files/20919/20919-page-images/p119.png
p140
aVhttp://www.gutenberg.org/files/20919/20919-page-images/p120.png
p141
aVhttp://www.gutenberg.org/files/20919/20919-page-images/p121.png
p142
aVhttp://www.gutenberg.org/files/20919/20919-page-images/p122.png
p143
aVhttp://www.gutenberg.org/files/20919/20919-page-images/p123.png
p144
aVhttp://www.gutenberg.org/files/20919/20919-page-images/p124.png
p145
aVhttp://www.gutenberg.org/files/20919/20919-page-images/p125.png
p146
aVhttp://www.gutenberg.org/files/20919/20919-page-images/p126.png
p147
aVhttp://www.gutenberg.org/files/20919/20919-page-images/p127.png
p148
aVhttp://www.gutenberg.org/files/20919/20919-page-images/p128.png
p149
aVhttp://www.gutenberg.org/files/20919/20919-page-images/p129.png
p150
aVhttp://www.gutenberg.org/files/20919/20919-page-images/p130.png
p151
aVhttp://www.gutenberg.org/files/20919/20919-page-images/p131.png
p152
aVhttp://www.gutenberg.org/files/20919/20919-page-images/p132.png
p153
aVhttp://www.gutenberg.org/files/20919/20919-page-images/p133.png
p154
aVhttp://www.gutenberg.org/files/20919/20919-page-images/p134.png
p155
aVhttp://www.gutenberg.org/files/20919/20919-page-images/p135.png
p156
aVhttp://www.gutenberg.org/files/20919/20919-page-images/p136.png
p157
aVhttp://www.gutenberg.org/files/20919/20919-page-images/p137.png
p158
aVhttp://www.gutenberg.org/files/20919/20919-page-images/p138.png
p159
aVhttp://www.gutenberg.org/files/20919/20919-page-images/p139.png
p160
aVhttp://www.gutenberg.org/files/20919/20919-page-images/p140.png
p161
aVhttp://www.gutenberg.org/files/20919/20919-page-images/p141.png
p162
aVhttp://www.gutenberg.org/files/20919/20919-page-images/p142.png
p163
aVhttp://www.gutenberg.org/files/20919/20919-page-images/p143.png
p164
aVhttp://www.gutenberg.org/files/20919/20919-page-images/p144.png
p165
aVhttp://www.gutenberg.org/files/20919/20919-page-images/p145.png
p166
aVhttp://www.gutenberg.org/files/20919/20919-page-images/p146.png
p167
aVhttp://www.gutenberg.org/files/20919/20919-page-images/p147.png
p168
aVhttp://www.gutenberg.org/files/20919/20919-page-images/p148.png
p169
aVhttp://www.gutenberg.org/files/20919/20919-page-images/p149.png
p170
aVhttp://www.gutenberg.org/files/20919/20919-page-images/p150.png
p171
aVhttp://www.gutenberg.org/files/20919/20919-page-images/p151.png
p172
aVhttp://www.gutenberg.org/files/20919/20919-page-images/p152.png
p173
aVhttp://www.gutenberg.org/files/20919/20919-page-images/p153.png
p174
aVhttp://www.gutenberg.org/files/20919/20919-page-images/p154.png
p175
aVhttp://www.gutenberg.org/files/20919/20919-page-images/p155.png
p176
aVhttp://www.gutenberg.org/files/20919/20919-page-images/p156.png
p177
aVhttp://www.gutenberg.org/files/20919/20919-page-images/p157.png
p178
aVhttp://www.gutenberg.org/files/20919/20919-page-images/p158.png
p179
aVhttp://www.gutenberg.org/files/20919/20919-page-images/p159.png
p180
aVhttp://www.gutenberg.org/files/20919/20919-page-images/p160.png
p181
aVhttp://www.gutenberg.org/files/20919/20919-page-images/p161.png
p182
aVhttp://www.gutenberg.org/files/20919/20919-page-images/p162.png
p183
aVhttp://www.gutenberg.org/files/20919/20919-page-images/p163.png
p184
aVhttp://www.gutenberg.org/files/20919/20919-page-images/p164.png
p185
aVhttp://www.gutenberg.org/files/20919/20919-page-images/p165.png
p186
aVhttp://www.gutenberg.org/files/20919/20919-page-images/p166.png
p187
aVhttp://www.gutenberg.org/files/20919/20919-page-images/p167.png
p188
aVhttp://www.gutenberg.org/files/20919/20919-page-images/p168.png
p189
aVhttp://www.gutenberg.org/files/20919/20919-page-images/p169.png
p190
aVhttp://www.gutenberg.org/files/20919/20919-page-images/p170.png
p191
aVhttp://www.gutenberg.org/files/20919/20919-page-images/p171.png
p192
aVhttp://www.gutenberg.org/files/20919/20919-page-images/p172.png
p193
aVhttp://www.gutenberg.org/files/20919/20919-page-images/p173.png
p194
aVhttp://www.gutenberg.org/files/20919/20919-page-images/p174.png
p195
aVhttp://www.gutenberg.org/files/20919/20919-page-images/p175.png
p196
aVhttp://www.gutenberg.org/files/20919/20919-page-images/p176.png
p197
aVhttp://www.gutenberg.org/files/20919/20919-page-images/p177.png
p198
aVhttp://www.gutenberg.org/files/20919/20919-page-images/p178.png
p199
aVhttp://www.gutenberg.org/files/20919/20919-page-images/p179.png
p200
aVhttp://www.gutenberg.org/files/20919/20919-page-images/p180.png
p201
aVhttp://www.gutenberg.org/files/20919/20919-page-images/p181.png
p202
aVhttp://www.gutenberg.org/files/20919/20919-page-images/p182.png
p203
aVhttp://www.gutenberg.org/files/20919/20919-page-images/p183.png
p204
aVhttp://www.gutenberg.org/files/20919/20919-page-images/p184.png
p205
aVhttp://www.gutenberg.org/files/20919/20919-page-images/p185.png
p206
aVhttp://www.gutenberg.org/files/20919/20919-page-images/p186.png
p207
aVhttp://www.gutenberg.org/files/20919/20919-page-images/p187.png
p208
aVhttp://www.gutenberg.org/files/20919/20919-page-images/p188.png
p209
aVhttp://www.gutenberg.org/files/20919/20919-page-images/p189.png
p210
aVhttp://www.gutenberg.org/files/20919/20919-page-images/p190.png
p211
aVhttp://www.gutenberg.org/files/20919/20919-page-images/p191.png
p212
aVhttp://www.gutenberg.org/files/20919/20919-page-images/p192.png
p213
aVhttp://www.gutenberg.org/files/20919/20919-page-images/p193.png
p214
aVhttp://www.gutenberg.org/files/20919/20919-page-images/p194.png
p215
aVhttp://www.gutenberg.org/files/20919/20919-page-images/p195.png
p216
aVhttp://www.gutenberg.org/files/20919/20919-page-images/p196.png
p217
aVhttp://www.gutenberg.org/files/20919/20919-page-images/p197.png
p218
aVhttp://www.gutenberg.org/files/20919/20919-page-images/p198.png
p219
aVhttp://www.gutenberg.org/files/20919/20919-page-images/p199.png
p220
aVhttp://www.gutenberg.org/files/20919/20919-page-images/p200.png
p221
aVhttp://www.gutenberg.org/files/20919/20919-page-images/p201.png
p222
aVhttp://www.gutenberg.org/files/20919/20919-page-images/p202.png
p223
aVhttp://www.gutenberg.org/files/20919/20919-page-images/p203.png
p224
aVhttp://www.gutenberg.org/files/20919/20919-page-images/p204.png
p225
asS'language_code'
p226
NsS'images'
p227
(lp228
Vhttps://upload.wikimedia.org/wikipedia/en/1/18/The_Status_Civilization.jpg
p229
aVhttps://upload.wikimedia.org/wikipedia/commons/a/a0/Sfbook.png
p230
asS'id'
p231
I166
sS'category'
p232
VText
p233
sS'plot'
p234
VEarth is a uniform, weakly structured, utopian society based on the mutual trust and conformity of its citizens. It is sleepy and stagnant, developing neither socially nor technologically. Its striking social stability is maintained by robots brainwashing children in "closed classes." The ideologies of both Earth and Omega resemble one another, differing only in words. On Omega, the citizens worship Evil (always capitalized) in a cult dedicated to an entity called The Black One. On Earth, the world religion is an amalgam of all the "good" aspects of previous Earth religions. Its institution is the Church of the Spirit of Mankind Incarnate.\u000aAs Barrent comes closer to the truth about the reasons for his incarceration, his Omegan consciousness conflicts with his subconsciousness which was programmed in the closed classes by the robots when he was a child. The subsequent psychological struggle is played out by repeating all of the previous fights and battles which Barrent experienced throughout the book, eventually making clear the vision (or "skrenning") which the mutant girl on Omega foresaw of Barrent's death.
p235
sS'genres'
p236
(lp237
sS'copyright'
p238
VPublic domain in the USA.
p239
sS'title'
p240
VThe Status Civilization
p241
sS'wikipedia'
p242
(dp243
S'url'
p244
S'https://en.wikipedia.org/wiki/The_Status_Civilization'
p245
sS'found'
p246
I01
sS'year'
p247
I-1
ssS'published_in'
p248
NsS'average_rating'
p249
F3.94
sS'rating_count'
p250
I1220
sS'publisher_in'
p251
NsS'content_available'
p252
I01
sS'goodreads'
p253
(dp254
g244
Vhttps://www.goodreads.com/book/show/668645.The_Status_Civilization
p255
sg246
I01
sg247
I1960
ssS'similar_books'
p256
(lp257
VThey Walked Like Men
p258
aVThe Great Explosion
p259
aVFury
p260
aVQuatermass
p261
aVTo Marry Medusa
p262
aVThe Shield of Time (Time Patrol, #5)
p263
aVDeathworld 1
p264
aVThe Reproductive System
p265
aVThe Humanoids (Humanoids #1)
p266
aVThe Stochastic Man
p267
aVFinal Blackout: A Futuristic War Novel
p268
aVThe Voyage of the Space Beagle
p269
aVIsaac Asimov Presents The Great SF Stories 1: 1939
p270
aVWhat Mad Universe
p271
aVNight Walk
p272
aVThe Paradox Men
p273
aV\u0417\u0432\u0451\u0437\u0434\u043d\u0430\u044f \u0442\u0435\u043d\u044c (\u0417\u0432\u0451\u0437\u0434\u043d\u044b\u0439 \u043b\u0430\u0431\u0438\u0440\u0438\u043d\u0442, #2)
p274
aVThe Forgotten Planet
p275
asS'description'
p276
VWill Barrent had no memory of his crime . . . but he found himself shipped across space to a brutal prison-planet. On Omega, his only chance to advance himself -- and stay alive -- is to commit an endless series of violent crimes. The average inmate's life expectancy from time of arrival is three years. Can Barrett survive, escape, and return to Earth to clear his name?
p277
sS'format'
p278
VPaperback
p279
sS'gutenberg'
p280
(dp281
g244
Vhttp://www.gutenberg.org/ebooks/20919
p282
sS'num'
p283
I20919
ssS'authors'
p284
(lp285
I23
asS'pages'
p286
I132
sS'publisher'
p287
NsS'isbn13'
p288
V9781434499998
p289
sS'language'
p290
VEnglish
p291
sS'countries'
p292
(lp293
I2
asS'release_date'
p294
S'2007-03-28T00:00:00'
p295
sS'author'
p296
I23
sS'original_title'
p297
VThe Status Civilization
p298
sS'summary'
p299
VThe Status Civilization is a science fiction novel by Robert Sheckley, first published in 1960.\u000aThe Status Civilization concerns Will Barrent, a man who finds himself, without memory of any crime or, indeed, of his previous life, being shipped across space to the planet Omega.\u000aOmega, used to imprison extreme offenders, has a hierarchical society of extreme brutality, where the only way to advance (and avoid dying) is to commit an endless series of crimes. The average life expectancy from time of arrival on Omega is three years. The story concerns Barrent's attempt to survive, escape, and return to Earth to clear himself of the accusations against him.
p300
sS'content_cleaned'
p301
I01
sS'classes'
p302
(lp303
Vto-read
p304
aVscience-fiction
p305
aVsci-fi
p306
aVfiction
p307
aVcurrently-reading
p308
aVfavorites
p309
aVsf
p310
aVdystopia
p311
aVscifi
p312
aVowned
p313
aVdefault
p314
aVfantascienza
p315
aVsci-fi-fantasy
p316
aVkindle
p317
aVurania-collezione
p318
aVenglish
p319
aVhumor
p320
aVfantastyka
p321
aVfantasy
p322
aVaudiobooks
p323
aVebooks
p324
aVnovella
p325
aVthriller
p326
aVsf-fantasy
p327
aVdystopian
p328
aVlibrivox
p329
aVnovels
p330
aVscifi-fantasy
p331
aVadventure
p332
aVcrime
p333
aVscience-fiction-fantasy
p334
aVread-in-2015
p335
aVnot-read
p336
aVlow-likelihood-of-reading
p337
aVprison-planet
p338
aVpaperback
p339
aVebook-kindle
p340
aVread-in-2013
p341
aVnovel
p342
aVto-read_novel
p343
aVaudiobook
p344
aVaudio-version
p345
aVebook
p346
aVowned-kindle
p347
aVadult
p348
aVsf-f
p349
aVpublic-domain-science-fiction
p350
aVe-book
p351
aVmy-ebooks
p352
aVamerican
p353
aVprisoners-and-escapes
p354
aVowned-ebooks
p355
aVin-english
p356
aVinventory
p357
aVhave-but-not-read
p358
aV\u0440\u0443\u0441\u0441\u043a\u0438\u0439
p359
aV00-to-read-01
p360
aVcalibre
p361
aVku
p362
aVhighly-recommended
p363
aVfunny
p364
aVleisure
p365
aVbruna-sf-serie
p366
aV20th-century-lit
p367
aV\u0444\u0430\u043d\u0442\u0430\u0441\u0442\u0438\u043a\u0430
p368
aVthrill
p369
aVbuy-read
p370
aVkafkaesque
p371
aVfresh-weird-creative-plot
p372
aVa-owned
p373
aVa-ebook
p374
aV4-stars
p375
aVshelf-s-authors
p376
aVgenre-syfi-fan-horr
p377
aVsci-fi-single
p378
aVbeletria
p379
aVrussian
p380
aVread-before-1996
p381
aVamazon-free
p382
aVokunacak
p383
aVurania-s
p384
aVall-ebooks
p385
aVfree-ebook
p386
aVown-kindle
p387
aVdigital
p388
aVamazon-com
p389
aVstosik
p390
aVl-en
p391
aVfrom-usa
p392
aVin-bundles
p393
aVdropbox
p394
aVdystopia-and-utopia
p395
aVwell-maybe
p396
aVelimde-olanlar
p397
aVdon-t-own
p398
aVauthor-male
p399
aVfiction-english
p400
aV1-todd-to-read
p401
aVfic_classics_1950s-modern
p402
aVamerican-literature
p403
asS'loc_class'
p404
VPS: Language and Literatures: American and Canadian literature
p405
sS'cover_artist'
p406
NsS'n_authors'
p407
I1
sb.