ccopy_reg
_reconstructor
p0
(cdataset.Book
Book
p1
c__builtin__
object
p2
Ntp3
Rp4
(dp5
S'content_name'
p6
V30458.txt.utf-8
p7
sS'isbn'
p8
NsS'year'
p9
I1962
sS'author_name'
p10
VJames H. Schmitz
p11
sS'images_urls'
p12
(lp13
Vhttp://www.gutenberg.org/files/30458/30458-h/images/image_001.jpg
p14
aVhttp://www.gutenberg.org/files/30458/30458-h/images/image_002.jpg
p15
aVhttp://www.gutenberg.org/files/30458/30458-h/images/image_003.jpg
p16
aVhttp://www.gutenberg.org/files/30458/30458-h/images/image_004.jpg
p17
aVhttp://www.gutenberg.org/files/30458/30458-h/images/image_005.jpg
p18
asS'language_code'
p19
NsS'id'
p20
I828
sS'category'
p21
VText
p22
sS'genres'
p23
(lp24
sS'copyright'
p25
VPublic domain in the USA.
p26
sS'title'
p27
VNovice
p28
sS'wikipedia'
p29
(dp30
S'found'
p31
I00
ssS'average_rating'
p32
F4.14
sS'rating_count'
p33
I14
sS'content_available'
p34
I01
sS'goodreads'
p35
(dp36
S'url'
p37
S'https://www.goodreads.com/book/show/19409558-novice'
p38
sS'found'
p39
I01
ssS'similar_books'
p40
(lp41
sS'description'
p42
NsS'gutenberg'
p43
(dp44
S'url'
p45
Vhttp://www.gutenberg.org/ebooks/30458
p46
sS'num'
p47
I30458
ssS'authors'
p48
(lp49
I136
asS'isbn13'
p50
NsS'language'
p51
VEnglish
p52
sS'countries'
p53
(lp54
I2
asS'release_date'
p55
S'2009-11-12T00:00:00'
p56
sS'author'
p57
I136
sS'cover'
p58
Vhttps://s.gr-assets.com/assets/nophoto/book/111x148-bcc042a9c91a29c1d680899eff700a03.png
p59
sS'content_cleaned'
p60
I01
sS'classes'
p61
(lp62
Vto-read
p63
aVscience-fiction
p64
asS'loc_class'
p65
VPS: Language and Literatures: American and Canadian literature
p66
sS'n_authors'
p67
I1
sb.