ccopy_reg
_reconstructor
p0
(cdataset.Book
Book
p1
c__builtin__
object
p2
Ntp3
Rp4
(dp5
S'content_name'
p6
V21638.txt.utf-8
p7
sS'isbn'
p8
NsS'year'
p9
I1930
sS'author_name'
p10
VRay Cummings
p11
sS'images_urls'
p12
(lp13
Vhttp://www.gutenberg.org/files/21638/21638-h/images/cover.jpg
p14
aVhttp://www.gutenberg.org/files/21638/21638-page-images/f001.png
p15
aVhttp://www.gutenberg.org/files/21638/21638-page-images/f002.png
p16
aVhttp://www.gutenberg.org/files/21638/21638-page-images/f003.png
p17
aVhttp://www.gutenberg.org/files/21638/21638-page-images/f004.png
p18
aVhttp://www.gutenberg.org/files/21638/21638-page-images/f005.png
p19
aVhttp://www.gutenberg.org/files/21638/21638-page-images/f006.png
p20
aVhttp://www.gutenberg.org/files/21638/21638-page-images/f007.png
p21
aVhttp://www.gutenberg.org/files/21638/21638-page-images/p001.png
p22
aVhttp://www.gutenberg.org/files/21638/21638-page-images/p002.png
p23
aVhttp://www.gutenberg.org/files/21638/21638-page-images/p003.png
p24
aVhttp://www.gutenberg.org/files/21638/21638-page-images/p004.png
p25
aVhttp://www.gutenberg.org/files/21638/21638-page-images/p005.png
p26
aVhttp://www.gutenberg.org/files/21638/21638-page-images/p006.png
p27
aVhttp://www.gutenberg.org/files/21638/21638-page-images/p007.png
p28
aVhttp://www.gutenberg.org/files/21638/21638-page-images/p008.png
p29
aVhttp://www.gutenberg.org/files/21638/21638-page-images/p009.png
p30
aVhttp://www.gutenberg.org/files/21638/21638-page-images/p010.png
p31
aVhttp://www.gutenberg.org/files/21638/21638-page-images/p011.png
p32
aVhttp://www.gutenberg.org/files/21638/21638-page-images/p012.png
p33
aVhttp://www.gutenberg.org/files/21638/21638-page-images/p013.png
p34
aVhttp://www.gutenberg.org/files/21638/21638-page-images/p014.png
p35
aVhttp://www.gutenberg.org/files/21638/21638-page-images/p015.png
p36
aVhttp://www.gutenberg.org/files/21638/21638-page-images/p016.png
p37
aVhttp://www.gutenberg.org/files/21638/21638-page-images/p017.png
p38
aVhttp://www.gutenberg.org/files/21638/21638-page-images/p018.png
p39
aVhttp://www.gutenberg.org/files/21638/21638-page-images/p019.png
p40
aVhttp://www.gutenberg.org/files/21638/21638-page-images/p020.png
p41
aVhttp://www.gutenberg.org/files/21638/21638-page-images/p021.png
p42
aVhttp://www.gutenberg.org/files/21638/21638-page-images/p022.png
p43
aVhttp://www.gutenberg.org/files/21638/21638-page-images/p023.png
p44
aVhttp://www.gutenberg.org/files/21638/21638-page-images/p024.png
p45
aVhttp://www.gutenberg.org/files/21638/21638-page-images/p025.png
p46
aVhttp://www.gutenberg.org/files/21638/21638-page-images/p026.png
p47
aVhttp://www.gutenberg.org/files/21638/21638-page-images/p027.png
p48
aVhttp://www.gutenberg.org/files/21638/21638-page-images/p028.png
p49
aVhttp://www.gutenberg.org/files/21638/21638-page-images/p029.png
p50
aVhttp://www.gutenberg.org/files/21638/21638-page-images/p030.png
p51
aVhttp://www.gutenberg.org/files/21638/21638-page-images/p031.png
p52
aVhttp://www.gutenberg.org/files/21638/21638-page-images/p032.png
p53
aVhttp://www.gutenberg.org/files/21638/21638-page-images/p033.png
p54
aVhttp://www.gutenberg.org/files/21638/21638-page-images/p034.png
p55
aVhttp://www.gutenberg.org/files/21638/21638-page-images/p035.png
p56
aVhttp://www.gutenberg.org/files/21638/21638-page-images/p036.png
p57
aVhttp://www.gutenberg.org/files/21638/21638-page-images/p037.png
p58
aVhttp://www.gutenberg.org/files/21638/21638-page-images/p038.png
p59
aVhttp://www.gutenberg.org/files/21638/21638-page-images/p039.png
p60
aVhttp://www.gutenberg.org/files/21638/21638-page-images/p040.png
p61
aVhttp://www.gutenberg.org/files/21638/21638-page-images/p041.png
p62
aVhttp://www.gutenberg.org/files/21638/21638-page-images/p042.png
p63
aVhttp://www.gutenberg.org/files/21638/21638-page-images/p043.png
p64
aVhttp://www.gutenberg.org/files/21638/21638-page-images/p044.png
p65
aVhttp://www.gutenberg.org/files/21638/21638-page-images/p045.png
p66
aVhttp://www.gutenberg.org/files/21638/21638-page-images/p046.png
p67
aVhttp://www.gutenberg.org/files/21638/21638-page-images/p047.png
p68
aVhttp://www.gutenberg.org/files/21638/21638-page-images/p048.png
p69
aVhttp://www.gutenberg.org/files/21638/21638-page-images/p049.png
p70
aVhttp://www.gutenberg.org/files/21638/21638-page-images/p050.png
p71
aVhttp://www.gutenberg.org/files/21638/21638-page-images/p051.png
p72
aVhttp://www.gutenberg.org/files/21638/21638-page-images/p052.png
p73
aVhttp://www.gutenberg.org/files/21638/21638-page-images/p053.png
p74
aVhttp://www.gutenberg.org/files/21638/21638-page-images/p054.png
p75
aVhttp://www.gutenberg.org/files/21638/21638-page-images/p055.png
p76
aVhttp://www.gutenberg.org/files/21638/21638-page-images/p056.png
p77
aVhttp://www.gutenberg.org/files/21638/21638-page-images/p057.png
p78
aVhttp://www.gutenberg.org/files/21638/21638-page-images/p058.png
p79
aVhttp://www.gutenberg.org/files/21638/21638-page-images/p059.png
p80
aVhttp://www.gutenberg.org/files/21638/21638-page-images/p060.png
p81
aVhttp://www.gutenberg.org/files/21638/21638-page-images/p061.png
p82
aVhttp://www.gutenberg.org/files/21638/21638-page-images/p062.png
p83
aVhttp://www.gutenberg.org/files/21638/21638-page-images/p063.png
p84
aVhttp://www.gutenberg.org/files/21638/21638-page-images/p064.png
p85
aVhttp://www.gutenberg.org/files/21638/21638-page-images/p065.png
p86
aVhttp://www.gutenberg.org/files/21638/21638-page-images/p066.png
p87
aVhttp://www.gutenberg.org/files/21638/21638-page-images/p067.png
p88
aVhttp://www.gutenberg.org/files/21638/21638-page-images/p068.png
p89
aVhttp://www.gutenberg.org/files/21638/21638-page-images/p069.png
p90
aVhttp://www.gutenberg.org/files/21638/21638-page-images/p070.png
p91
aVhttp://www.gutenberg.org/files/21638/21638-page-images/p071.png
p92
aVhttp://www.gutenberg.org/files/21638/21638-page-images/p072.png
p93
aVhttp://www.gutenberg.org/files/21638/21638-page-images/p073.png
p94
aVhttp://www.gutenberg.org/files/21638/21638-page-images/p074.png
p95
aVhttp://www.gutenberg.org/files/21638/21638-page-images/p075.png
p96
aVhttp://www.gutenberg.org/files/21638/21638-page-images/p076.png
p97
aVhttp://www.gutenberg.org/files/21638/21638-page-images/p077.png
p98
aVhttp://www.gutenberg.org/files/21638/21638-page-images/p078.png
p99
aVhttp://www.gutenberg.org/files/21638/21638-page-images/p079.png
p100
aVhttp://www.gutenberg.org/files/21638/21638-page-images/p080.png
p101
aVhttp://www.gutenberg.org/files/21638/21638-page-images/p081.png
p102
aVhttp://www.gutenberg.org/files/21638/21638-page-images/p082.png
p103
aVhttp://www.gutenberg.org/files/21638/21638-page-images/p083.png
p104
aVhttp://www.gutenberg.org/files/21638/21638-page-images/p084.png
p105
aVhttp://www.gutenberg.org/files/21638/21638-page-images/p085.png
p106
aVhttp://www.gutenberg.org/files/21638/21638-page-images/p086.png
p107
aVhttp://www.gutenberg.org/files/21638/21638-page-images/p087.png
p108
aVhttp://www.gutenberg.org/files/21638/21638-page-images/p088.png
p109
aVhttp://www.gutenberg.org/files/21638/21638-page-images/p089.png
p110
aVhttp://www.gutenberg.org/files/21638/21638-page-images/p090.png
p111
aVhttp://www.gutenberg.org/files/21638/21638-page-images/p091.png
p112
aVhttp://www.gutenberg.org/files/21638/21638-page-images/p092.png
p113
aVhttp://www.gutenberg.org/files/21638/21638-page-images/p093.png
p114
aVhttp://www.gutenberg.org/files/21638/21638-page-images/p094.png
p115
aVhttp://www.gutenberg.org/files/21638/21638-page-images/p095.png
p116
aVhttp://www.gutenberg.org/files/21638/21638-page-images/p096.png
p117
aVhttp://www.gutenberg.org/files/21638/21638-page-images/p097.png
p118
aVhttp://www.gutenberg.org/files/21638/21638-page-images/p098.png
p119
aVhttp://www.gutenberg.org/files/21638/21638-page-images/p099.png
p120
aVhttp://www.gutenberg.org/files/21638/21638-page-images/p100.png
p121
aVhttp://www.gutenberg.org/files/21638/21638-page-images/p101.png
p122
aVhttp://www.gutenberg.org/files/21638/21638-page-images/p102.png
p123
aVhttp://www.gutenberg.org/files/21638/21638-page-images/p103.png
p124
aVhttp://www.gutenberg.org/files/21638/21638-page-images/p104.png
p125
aVhttp://www.gutenberg.org/files/21638/21638-page-images/p105.png
p126
aVhttp://www.gutenberg.org/files/21638/21638-page-images/p106.png
p127
aVhttp://www.gutenberg.org/files/21638/21638-page-images/p107.png
p128
aVhttp://www.gutenberg.org/files/21638/21638-page-images/p108.png
p129
aVhttp://www.gutenberg.org/files/21638/21638-page-images/p109.png
p130
aVhttp://www.gutenberg.org/files/21638/21638-page-images/p110.png
p131
aVhttp://www.gutenberg.org/files/21638/21638-page-images/p111.png
p132
aVhttp://www.gutenberg.org/files/21638/21638-page-images/p112.png
p133
aVhttp://www.gutenberg.org/files/21638/21638-page-images/p113.png
p134
aVhttp://www.gutenberg.org/files/21638/21638-page-images/p114.png
p135
aVhttp://www.gutenberg.org/files/21638/21638-page-images/p115.png
p136
aVhttp://www.gutenberg.org/files/21638/21638-page-images/p116.png
p137
aVhttp://www.gutenberg.org/files/21638/21638-page-images/p117.png
p138
aVhttp://www.gutenberg.org/files/21638/21638-page-images/p118.png
p139
aVhttp://www.gutenberg.org/files/21638/21638-page-images/p119.png
p140
aVhttp://www.gutenberg.org/files/21638/21638-page-images/p120.png
p141
aVhttp://www.gutenberg.org/files/21638/21638-page-images/p121.png
p142
aVhttp://www.gutenberg.org/files/21638/21638-page-images/p122.png
p143
aVhttp://www.gutenberg.org/files/21638/21638-page-images/p123.png
p144
aVhttp://www.gutenberg.org/files/21638/21638-page-images/p124.png
p145
aVhttp://www.gutenberg.org/files/21638/21638-page-images/p125.png
p146
aVhttp://www.gutenberg.org/files/21638/21638-page-images/p126.png
p147
aVhttp://www.gutenberg.org/files/21638/21638-page-images/p127.png
p148
aVhttp://www.gutenberg.org/files/21638/21638-page-images/p128.png
p149
aVhttp://www.gutenberg.org/files/21638/21638-page-images/p129.png
p150
aVhttp://www.gutenberg.org/files/21638/21638-page-images/p130.png
p151
aVhttp://www.gutenberg.org/files/21638/21638-page-images/p131.png
p152
aVhttp://www.gutenberg.org/files/21638/21638-page-images/p132.png
p153
aVhttp://www.gutenberg.org/files/21638/21638-page-images/p133.png
p154
aVhttp://www.gutenberg.org/files/21638/21638-page-images/p134.png
p155
aVhttp://www.gutenberg.org/files/21638/21638-page-images/p135.png
p156
aVhttp://www.gutenberg.org/files/21638/21638-page-images/p136.png
p157
aVhttp://www.gutenberg.org/files/21638/21638-page-images/p137.png
p158
aVhttp://www.gutenberg.org/files/21638/21638-page-images/p138.png
p159
aVhttp://www.gutenberg.org/files/21638/21638-page-images/p139.png
p160
aVhttp://www.gutenberg.org/files/21638/21638-page-images/p140.png
p161
aVhttp://www.gutenberg.org/files/21638/21638-page-images/p141.png
p162
aVhttp://www.gutenberg.org/files/21638/21638-page-images/p142.png
p163
aVhttp://www.gutenberg.org/files/21638/21638-page-images/p143.png
p164
aVhttp://www.gutenberg.org/files/21638/21638-page-images/p144.png
p165
aVhttp://www.gutenberg.org/files/21638/21638-page-images/p145.png
p166
aVhttp://www.gutenberg.org/files/21638/21638-page-images/p146.png
p167
aVhttp://www.gutenberg.org/files/21638/21638-page-images/p147.png
p168
aVhttp://www.gutenberg.org/files/21638/21638-page-images/p148.png
p169
aVhttp://www.gutenberg.org/files/21638/21638-page-images/p149.png
p170
aVhttp://www.gutenberg.org/files/21638/21638-page-images/p150.png
p171
aVhttp://www.gutenberg.org/files/21638/21638-page-images/p151.png
p172
aVhttp://www.gutenberg.org/files/21638/21638-page-images/p152.png
p173
aVhttp://www.gutenberg.org/files/21638/21638-page-images/p153.png
p174
aVhttp://www.gutenberg.org/files/21638/21638-page-images/p154.png
p175
aVhttp://www.gutenberg.org/files/21638/21638-page-images/p155.png
p176
aVhttp://www.gutenberg.org/files/21638/21638-page-images/p156.png
p177
aVhttp://www.gutenberg.org/files/21638/21638-page-images/p157.png
p178
aVhttp://www.gutenberg.org/files/21638/21638-page-images/p158.png
p179
aVhttp://www.gutenberg.org/files/21638/21638-page-images/p159.png
p180
aVhttp://www.gutenberg.org/files/21638/21638-page-images/p160.png
p181
aVhttp://www.gutenberg.org/files/21638/21638-page-images/p161.png
p182
aVhttp://www.gutenberg.org/files/21638/21638-page-images/p162.png
p183
aVhttp://www.gutenberg.org/files/21638/21638-page-images/p163.png
p184
aVhttp://www.gutenberg.org/files/21638/21638-page-images/p164.png
p185
aVhttp://www.gutenberg.org/files/21638/21638-page-images/p165.png
p186
aVhttp://www.gutenberg.org/files/21638/21638-page-images/p166.png
p187
aVhttp://www.gutenberg.org/files/21638/21638-page-images/p167.png
p188
aVhttp://www.gutenberg.org/files/21638/21638-page-images/p168.png
p189
aVhttp://www.gutenberg.org/files/21638/21638-page-images/p169.png
p190
aVhttp://www.gutenberg.org/files/21638/21638-page-images/p170.png
p191
aVhttp://www.gutenberg.org/files/21638/21638-page-images/p171.png
p192
aVhttp://www.gutenberg.org/files/21638/21638-page-images/p172.png
p193
aVhttp://www.gutenberg.org/files/21638/21638-page-images/p173.png
p194
aVhttp://www.gutenberg.org/files/21638/21638-page-images/p174.png
p195
aVhttp://www.gutenberg.org/files/21638/21638-page-images/p175.png
p196
aVhttp://www.gutenberg.org/files/21638/21638-page-images/p176.png
p197
aVhttp://www.gutenberg.org/files/21638/21638-page-images/p177.png
p198
aVhttp://www.gutenberg.org/files/21638/21638-page-images/p178.png
p199
aVhttp://www.gutenberg.org/files/21638/21638-page-images/p179.png
p200
aVhttp://www.gutenberg.org/files/21638/21638-page-images/p180.png
p201
aVhttp://www.gutenberg.org/files/21638/21638-page-images/p181.png
p202
aVhttp://www.gutenberg.org/files/21638/21638-page-images/p182.png
p203
aVhttp://www.gutenberg.org/files/21638/21638-page-images/p183.png
p204
aVhttp://www.gutenberg.org/files/21638/21638-page-images/p184.png
p205
aVhttp://www.gutenberg.org/files/21638/21638-page-images/p185.png
p206
aVhttp://www.gutenberg.org/files/21638/21638-page-images/p186.png
p207
aVhttp://www.gutenberg.org/files/21638/21638-page-images/p187.png
p208
aVhttp://www.gutenberg.org/files/21638/21638-page-images/p188.png
p209
aVhttp://www.gutenberg.org/files/21638/21638-page-images/p189.png
p210
aVhttp://www.gutenberg.org/files/21638/21638-page-images/p190.png
p211
aVhttp://www.gutenberg.org/files/21638/21638-page-images/p191.png
p212
aVhttp://www.gutenberg.org/files/21638/21638-page-images/p192.png
p213
aVhttp://www.gutenberg.org/files/21638/21638-page-images/p193.png
p214
aVhttp://www.gutenberg.org/files/21638/21638-page-images/p194.png
p215
aVhttp://www.gutenberg.org/files/21638/21638-page-images/p195.png
p216
aVhttp://www.gutenberg.org/files/21638/21638-page-images/p196.png
p217
aVhttp://www.gutenberg.org/files/21638/21638-page-images/p197.png
p218
aVhttp://www.gutenberg.org/files/21638/21638-page-images/p198.png
p219
aVhttp://www.gutenberg.org/files/21638/21638-page-images/p199.png
p220
aVhttp://www.gutenberg.org/files/21638/21638-page-images/p200.png
p221
aVhttp://www.gutenberg.org/files/21638/21638-page-images/p201.png
p222
aVhttp://www.gutenberg.org/files/21638/21638-page-images/p202.png
p223
aVhttp://www.gutenberg.org/files/21638/21638-page-images/p203.png
p224
aVhttp://www.gutenberg.org/files/21638/21638-page-images/p204.png
p225
aVhttp://www.gutenberg.org/files/21638/21638-page-images/p205.png
p226
aVhttp://www.gutenberg.org/files/21638/21638-page-images/p206.png
p227
aVhttp://www.gutenberg.org/files/21638/21638-page-images/p207.png
p228
aVhttp://www.gutenberg.org/files/21638/21638-page-images/p208.png
p229
aVhttp://www.gutenberg.org/files/21638/21638-page-images/p209.png
p230
aVhttp://www.gutenberg.org/files/21638/21638-page-images/p210.png
p231
aVhttp://www.gutenberg.org/files/21638/21638-page-images/p211.png
p232
aVhttp://www.gutenberg.org/files/21638/21638-page-images/p212.png
p233
aVhttp://www.gutenberg.org/files/21638/21638-page-images/p213.png
p234
aVhttp://www.gutenberg.org/files/21638/21638-page-images/p214.png
p235
aVhttp://www.gutenberg.org/files/21638/21638-page-images/p215.png
p236
aVhttp://www.gutenberg.org/files/21638/21638-page-images/p216.png
p237
aVhttp://www.gutenberg.org/files/21638/21638-page-images/p217.png
p238
aVhttp://www.gutenberg.org/files/21638/21638-page-images/p218.png
p239
aVhttp://www.gutenberg.org/files/21638/21638-page-images/p219.png
p240
aVhttp://www.gutenberg.org/files/21638/21638-page-images/p220.png
p241
aVhttp://www.gutenberg.org/files/21638/21638-page-images/p221.png
p242
aVhttp://www.gutenberg.org/files/21638/21638-page-images/p222.png
p243
aVhttp://www.gutenberg.org/files/21638/21638-page-images/p223.png
p244
aVhttp://www.gutenberg.org/files/21638/21638-page-images/p224.png
p245
aVhttp://www.gutenberg.org/files/21638/21638-page-images/p225.png
p246
aVhttp://www.gutenberg.org/files/21638/21638-page-images/p226.png
p247
aVhttp://www.gutenberg.org/files/21638/21638-page-images/p227.png
p248
aVhttp://www.gutenberg.org/files/21638/21638-page-images/p228.png
p249
aVhttp://www.gutenberg.org/files/21638/21638-page-images/p229.png
p250
aVhttp://www.gutenberg.org/files/21638/21638-page-images/p230.png
p251
aVhttp://www.gutenberg.org/files/21638/21638-page-images/p231.png
p252
aVhttp://www.gutenberg.org/files/21638/21638-page-images/p232.png
p253
aVhttp://www.gutenberg.org/files/21638/21638-page-images/p233.png
p254
aVhttp://www.gutenberg.org/files/21638/21638-page-images/p234.png
p255
aVhttp://www.gutenberg.org/files/21638/21638-page-images/p235.png
p256
aVhttp://www.gutenberg.org/files/21638/21638-page-images/p236.png
p257
aVhttp://www.gutenberg.org/files/21638/21638-page-images/p237.png
p258
aVhttp://www.gutenberg.org/files/21638/21638-page-images/p238.png
p259
aVhttp://www.gutenberg.org/files/21638/21638-page-images/p239.png
p260
aVhttp://www.gutenberg.org/files/21638/21638-page-images/p240.png
p261
aVhttp://www.gutenberg.org/files/21638/21638-page-images/p241.png
p262
aVhttp://www.gutenberg.org/files/21638/21638-page-images/p242.png
p263
aVhttp://www.gutenberg.org/files/21638/21638-page-images/p243.png
p264
aVhttp://www.gutenberg.org/files/21638/21638-page-images/p244.png
p265
aVhttp://www.gutenberg.org/files/21638/21638-page-images/p245.png
p266
aVhttp://www.gutenberg.org/files/21638/21638-page-images/p246.png
p267
aVhttp://www.gutenberg.org/files/21638/21638-page-images/p247.png
p268
aVhttp://www.gutenberg.org/files/21638/21638-page-images/p248.png
p269
aVhttp://www.gutenberg.org/files/21638/21638-page-images/p249.png
p270
aVhttp://www.gutenberg.org/files/21638/21638-page-images/p250.png
p271
aVhttp://www.gutenberg.org/files/21638/21638-page-images/p251.png
p272
aVhttp://www.gutenberg.org/files/21638/21638-page-images/p252.png
p273
aVhttp://www.gutenberg.org/files/21638/21638-page-images/p253.png
p274
aVhttp://www.gutenberg.org/files/21638/21638-page-images/p254.png
p275
aVhttp://www.gutenberg.org/files/21638/21638-page-images/p255.png
p276
aVhttp://www.gutenberg.org/files/21638/21638-page-images/p256.png
p277
aVhttp://www.gutenberg.org/files/21638/21638-page-images/p257.png
p278
aVhttp://www.gutenberg.org/files/21638/21638-page-images/p258.png
p279
aVhttp://www.gutenberg.org/files/21638/21638-page-images/p259.png
p280
aVhttp://www.gutenberg.org/files/21638/21638-page-images/p260.png
p281
aVhttp://www.gutenberg.org/files/21638/21638-page-images/p261.png
p282
aVhttp://www.gutenberg.org/files/21638/21638-page-images/p262.png
p283
aVhttp://www.gutenberg.org/files/21638/21638-page-images/p263.png
p284
aVhttp://www.gutenberg.org/files/21638/21638-page-images/p264.png
p285
aVhttp://www.gutenberg.org/files/21638/21638-page-images/p265.png
p286
aVhttp://www.gutenberg.org/files/21638/21638-page-images/p266.png
p287
aVhttp://www.gutenberg.org/files/21638/21638-page-images/p267.png
p288
aVhttp://www.gutenberg.org/files/21638/21638-page-images/p268.png
p289
aVhttp://www.gutenberg.org/files/21638/21638-page-images/p269.png
p290
aVhttp://www.gutenberg.org/files/21638/21638-page-images/p270.png
p291
aVhttp://www.gutenberg.org/files/21638/21638-page-images/p271.png
p292
aVhttp://www.gutenberg.org/files/21638/21638-page-images/p272.png
p293
aVhttp://www.gutenberg.org/files/21638/21638-page-images/p273.png
p294
aVhttp://www.gutenberg.org/files/21638/21638-page-images/p274.png
p295
aVhttp://www.gutenberg.org/files/21638/21638-page-images/p275.png
p296
aVhttp://www.gutenberg.org/files/21638/21638-page-images/p276.png
p297
aVhttp://www.gutenberg.org/files/21638/21638-page-images/p277.png
p298
aVhttp://www.gutenberg.org/files/21638/21638-page-images/p278.png
p299
aVhttp://www.gutenberg.org/files/21638/21638-page-images/p279.png
p300
aVhttp://www.gutenberg.org/files/21638/21638-page-images/p280.png
p301
aVhttp://www.gutenberg.org/files/21638/21638-page-images/p281.png
p302
aVhttp://www.gutenberg.org/files/21638/21638-page-images/p282.png
p303
aVhttp://www.gutenberg.org/files/21638/21638-page-images/p283.png
p304
aVhttp://www.gutenberg.org/files/21638/21638-page-images/p284.png
p305
aVhttp://www.gutenberg.org/files/21638/21638-page-images/p285.png
p306
aVhttp://www.gutenberg.org/files/21638/21638-page-images/p286.png
p307
aVhttp://www.gutenberg.org/files/21638/21638-page-images/p287.png
p308
aVhttp://www.gutenberg.org/files/21638/21638-page-images/p288.png
p309
aVhttp://www.gutenberg.org/files/21638/21638-page-images/p289.png
p310
aVhttp://www.gutenberg.org/files/21638/21638-page-images/p290.png
p311
aVhttp://www.gutenberg.org/files/21638/21638-page-images/p291.png
p312
aVhttp://www.gutenberg.org/files/21638/21638-page-images/p292.png
p313
aVhttp://www.gutenberg.org/files/21638/21638-page-images/p293.png
p314
aVhttp://www.gutenberg.org/files/21638/21638-page-images/p294.png
p315
aVhttp://www.gutenberg.org/files/21638/21638-page-images/p295.png
p316
aVhttp://www.gutenberg.org/files/21638/21638-page-images/p296.png
p317
aVhttp://www.gutenberg.org/files/21638/21638-page-images/p297.png
p318
aVhttp://www.gutenberg.org/files/21638/21638-page-images/p298.png
p319
aVhttp://www.gutenberg.org/files/21638/21638-page-images/p299.png
p320
aVhttp://www.gutenberg.org/files/21638/21638-page-images/p300.png
p321
aVhttp://www.gutenberg.org/files/21638/21638-page-images/p301.png
p322
aVhttp://www.gutenberg.org/files/21638/21638-page-images/p302.png
p323
aVhttp://www.gutenberg.org/files/21638/21638-page-images/p303.png
p324
aVhttp://www.gutenberg.org/files/21638/21638-page-images/p304.png
p325
aVhttp://www.gutenberg.org/files/21638/21638-page-images/p305.png
p326
aVhttp://www.gutenberg.org/files/21638/21638-page-images/p306.png
p327
aVhttp://www.gutenberg.org/files/21638/21638-page-images/p307.png
p328
aVhttp://www.gutenberg.org/files/21638/21638-page-images/p308.png
p329
aVhttp://www.gutenberg.org/files/21638/21638-page-images/p309.png
p330
aVhttp://www.gutenberg.org/files/21638/21638-page-images/p310.png
p331
aVhttp://www.gutenberg.org/files/21638/21638-page-images/p311.png
p332
aVhttp://www.gutenberg.org/files/21638/21638-page-images/p312.png
p333
aVhttp://www.gutenberg.org/files/21638/21638-page-images/p313.png
p334
aVhttp://www.gutenberg.org/files/21638/21638-page-images/p314.png
p335
aVhttp://www.gutenberg.org/files/21638/21638-page-images/p315.png
p336
aVhttp://www.gutenberg.org/files/21638/21638-page-images/p316.png
p337
aVhttp://www.gutenberg.org/files/21638/21638-page-images/p317.png
p338
aVhttp://www.gutenberg.org/files/21638/21638-page-images/p318.png
p339
aVhttp://www.gutenberg.org/files/21638/21638-page-images/p319.png
p340
aVhttp://www.gutenberg.org/files/21638/21638-page-images/p320.png
p341
aVhttp://www.gutenberg.org/files/21638/21638-page-images/p321.png
p342
aVhttp://www.gutenberg.org/files/21638/21638-page-images/p322.png
p343
aVhttp://www.gutenberg.org/files/21638/21638-page-images/p323.png
p344
aVhttp://www.gutenberg.org/files/21638/21638-page-images/p324.png
p345
aVhttp://www.gutenberg.org/files/21638/21638-page-images/p325.png
p346
aVhttp://www.gutenberg.org/files/21638/21638-page-images/p326.png
p347
aVhttp://www.gutenberg.org/files/21638/21638-page-images/p327.png
p348
aVhttp://www.gutenberg.org/files/21638/21638-page-images/p328.png
p349
aVhttp://www.gutenberg.org/files/21638/21638-page-images/p329.png
p350
aVhttp://www.gutenberg.org/files/21638/21638-page-images/p330.png
p351
aVhttp://www.gutenberg.org/files/21638/21638-page-images/p331.png
p352
aVhttp://www.gutenberg.org/files/21638/21638-page-images/p332.png
p353
aVhttp://www.gutenberg.org/files/21638/21638-page-images/p333.png
p354
aVhttp://www.gutenberg.org/files/21638/21638-page-images/p334.png
p355
aVhttp://www.gutenberg.org/files/21638/21638-page-images/p335.png
p356
aVhttp://www.gutenberg.org/files/21638/21638-page-images/p336.png
p357
aVhttp://www.gutenberg.org/files/21638/21638-page-images/p337.png
p358
aVhttp://www.gutenberg.org/files/21638/21638-page-images/p338.png
p359
aVhttp://www.gutenberg.org/files/21638/21638-page-images/p339.png
p360
aVhttp://www.gutenberg.org/files/21638/21638-page-images/p340.png
p361
aVhttp://www.gutenberg.org/files/21638/21638-page-images/p341.png
p362
aVhttp://www.gutenberg.org/files/21638/21638-page-images/p342.png
p363
aVhttp://www.gutenberg.org/files/21638/21638-page-images/p343.png
p364
aVhttp://www.gutenberg.org/files/21638/21638-page-images/p344.png
p365
aVhttp://www.gutenberg.org/files/21638/21638-page-images/p345.png
p366
asS'language_code'
p367
NsS'images'
p368
(lp369
sS'id'
p370
I764
sS'category'
p371
VText
p372
sS'genres'
p373
(lp374
sS'copyright'
p375
VPublic domain in the USA.
p376
sS'title'
p377
VTarrano the Conqueror
p378
sS'wikipedia'
p379
(dp380
S'found'
p381
I00
ssS'average_rating'
p382
F3.31
sS'rating_count'
p383
I8
sS'content_available'
p384
I01
sS'cover_art_url'
p385
S'http://www.gutenberg.org/cache/epub/21638/pg21638.cover.medium.jpg'
p386
sS'goodreads'
p387
(dp388
S'url'
p389
Vhttps://www.goodreads.com/book/show/6217780-tarrano-the-conqueror
p390
sg381
I01
sS'year'
p391
I1930
ssS'similar_books'
p392
(lp393
sS'description'
p394
NsS'gutenberg'
p395
(dp396
g389
Vhttp://www.gutenberg.org/ebooks/21638
p397
sS'num'
p398
I21638
ssS'authors'
p399
(lp400
I71
asS'isbn13'
p401
NsS'language'
p402
VEnglish
p403
sS'countries'
p404
(lp405
I2
asS'release_date'
p406
S'2007-05-29T00:00:00'
p407
sS'author'
p408
I71
sS'content_cleaned'
p409
I01
sS'classes'
p410
(lp411
Vto-read
p412
aVcurrently-reading
p413
aVscience-fiction
p414
aVsci-fi
p415
aVaudiobooks
p416
aVunknown-genre
p417
aVsf-fantasy
p418
aVfeedbooks-com
p419
aVowned
p420
aVfantasy-science-fiction
p421
aVkindle
p422
aVfiction
p423
aVclassic-lit
p424
aVcollected-classics
p425
aVarch-villain
p426
asS'loc_class'
p427
VPS: Language and Literatures: American and Canadian literature
p428
sS'n_authors'
p429
I1
sb.