ccopy_reg
_reconstructor
p0
(cdataset.Book
Book
p1
c__builtin__
object
p2
Ntp3
Rp4
(dp5
S'similar_books'
p6
(lp7
sS'genres'
p8
(lp9
sS'author'
p10
I302
sS'countries'
p11
(lp12
I2
asS'year'
p13
I1977
sS'title'
p14
VGalaxy Magazine December 1977
p15
sS'cover'
p16
Vhttps://ia600201.us.archive.org/BookReader/BookReaderImages.php?zip=/20/items/Galaxy_v39n01_1978-01/Galaxy_v39n01_1978-01_jp2.zip&file=Galaxy_v39n01_1978-01_jp2/Galaxy_v39n01_1978-01_0000.jp2&scale=0&rotate=0
p17
sS'cover_art'
p18
S'http://www.isfdb.org/wiki/images/c/c4/GALDECJAN77.jpg'
p19
sS'author_name'
p20
VGalaxy Magazine
p21
sS'images_urls'
p22
(lp23
sS'authors'
p24
(lp25
I848
aI849
aI842
aI850
aI326
aI734
aI843
aI767
aI844
aI714
aI591
aI851
aI852
aI853
aI854
aI302
asS'images'
p26
(lp27
sS'id'
p28
I1207
sS'contents'
p29
(lp30
(dp31
g10
I848
sg14
VShowcase (Galaxy, December 1977-January 1978)
p32
sa(dp33
g10
I849
sg14
VMemo to the Leader
p34
sa(dp35
g10
I849
sg14
VMemo to the Leader [2]
p36
sa(dp37
g10
I849
sg14
VMemo to the Leader [3]
p38
sa(dp39
g10
I849
sg14
VMemo to the Leader [4]
p40
sa(dp41
g10
I849
sg14
VMemo to the Leader [5]
p42
sa(dp43
g10
I849
sg14
VThe Road to God
p44
sa(dp45
g10
I849
sg14
VThe Road to God [2]
p46
sa(dp47
g10
I842
sg14
VCome Again
p48
sa(dp49
g10
I850
sg14
VThe Courts of Chaos (Part 2 of 3)
p50
sa(dp51
g10
I850
sg14
VThe Courts of Chaos (Part 2 of 3) [2]
p52
sa(dp53
g10
I850
sg14
VThe Courts of Chaos (Part 2 of 3) [3]
p54
sa(dp55
g10
I850
sg14
VThe Courts of Chaos (Part 2 of 3) [4]
p56
sa(dp57
g10
I850
sg14
VThe Courts of Chaos (Part 2 of 3) [5]
p58
sa(dp59
g10
I326
sg14
VJohn Henry and the Ultra-Media Experience Machine
p60
sa(dp61
g10
I842
sg14
VWith Clean Hands
p62
sa(dp63
g10
I842
sg14
VWith Clean Hands [2]
p64
sa(dp65
g10
I734
sg14
VE. F. Schumacher, Rip
p66
sa(dp67
g10
I843
sg14
VGalaxy Bookshelf (Galaxy, December 1977-January 1978)
p68
sa(dp69
g10
I767
sg14
VThe Alien Viewpoint (Galaxy, December 1977-January 1978)
p70
sa(dp71
g10
I844
sg14
VDirections (Galaxy, December 1977-January 1978)
p72
sa(dp73
g10
I326
sg14
VStatement of Ownership (Galaxy, December 1977-January 1978) (Circulation: 81,035)
p74
sa(dp75
g10
I714
sg14
VMemo to the Leader
p76
sa(dp77
g10
I591
sg14
VThe Courts of Chaos (Part 2 of 3)
p78
sa(dp79
g10
I851
sg14
VThe Road to God
p80
sa(dp81
g10
I852
sg14
VCome Again
p82
sa(dp83
g10
I853
sg14
VJohn Henry and the Ultra-Media Experience Machine
p84
sa(dp85
g10
I854
sg14
VWith Clean Hands
p86
sasb.