ccopy_reg
_reconstructor
p0
(cdataset.Book
Book
p1
c__builtin__
object
p2
Ntp3
Rp4
(dp5
S'content_name'
p6
V51126.txt.utf-8
p7
sS'isbn'
p8
V1530358396
p9
sS'year'
p10
I1955
sS'author_name'
p11
VEvelyn E. Smith
p12
sS'images_urls'
p13
(lp14
Vhttp://www.gutenberg.org/files/51126/51126-h/images/cover.jpg
p15
aVhttp://www.gutenberg.org/files/51126/51126-h/images/illus1.jpg
p16
aVhttp://www.gutenberg.org/files/51126/51126-h/images/illus2.jpg
p17
aVhttp://www.gutenberg.org/files/51126/51126-h/images/illus3.jpg
p18
aVhttp://www.gutenberg.org/files/51126/51126-h/images/illus4.jpg
p19
asS'language_code'
p20
NsS'id'
p21
I653
sS'category'
p22
VText
p23
sS'genres'
p24
(lp25
sS'copyright'
p26
VPublic domain in the USA.
p27
sS'title'
p28
VThe Princess and the Physicist
p29
sS'wikipedia'
p30
(dp31
S'found'
p32
I00
ssS'average_rating'
p33
F4.0
sS'rating_count'
p34
I0
sS'content_available'
p35
I01
sS'cover_art_url'
p36
S'http://www.gutenberg.org/cache/epub/51126/pg51126.cover.medium.jpg'
p37
sS'goodreads'
p38
(dp39
S'url'
p40
Vhttps://www.goodreads.com/book/show/29464285-the-princess-and-the-physicist
p41
sS'found'
p42
I01
sS'year'
p43
I-1
ssS'similar_books'
p44
(lp45
sS'description'
p46
VThe Princess and the Physicist A Science Fiction Novelette First published in "Galaxy Science Fiction" June 1955. Evelyn E. Smith (25 July 1922 - 4 July 2000) was an American writer and crossword puzzle compiler. During the 1950s, she regularly published-under her real name-short stories and novelettes in magazines like Galaxy Science Fiction and Fantastic Universe. These range from post-apocalyptic satires, such as "The Last of the Spode" and "The Hardest Bargain," to "BAXBR/DAXBR," where she explores the dangers of Martian crossword puzzles. Smith also wrote four science fiction novels, which chiefly deal with questions of gender identity and, like all of her work, are characterized by their wit and humor.
p47
sS'gutenberg'
p48
(dp49
g40
Vhttp://www.gutenberg.org/ebooks/51126
p50
sS'num'
p51
I51126
ssS'authors'
p52
(lp53
I172
asS'pages'
p54
I30
sS'isbn13'
p55
V9781530358397
p56
sS'language'
p57
VEnglish
p58
sS'countries'
p59
(lp60
I2
asS'release_date'
p61
S'2016-02-04T00:00:00'
p62
sS'author'
p63
I172
sS'content_cleaned'
p64
I01
sS'classes'
p65
(lp66
sS'loc_class'
p67
S''
p68
sS'n_authors'
p69
I1
sb.