ccopy_reg
_reconstructor
p0
(cdataset.Book
Book
p1
c__builtin__
object
p2
Ntp3
Rp4
(dp5
S'content_name'
p6
V28030.txt.utf-8
p7
sS'isbn'
p8
V365526660X
p9
sS'year'
p10
I1957
sS'author_name'
p11
VHenry Slesar
p12
sS'images_urls'
p13
(lp14
Vhttp://www.gutenberg.org/files/28030/28030-h/images/001.png
p15
aVhttp://www.gutenberg.org/files/28030/28030-page-images/p0001-image1.png
p16
aVhttp://www.gutenberg.org/files/28030/28030-page-images/p0051.png
p17
aVhttp://www.gutenberg.org/files/28030/28030-page-images/p0052.png
p18
aVhttp://www.gutenberg.org/files/28030/28030-page-images/p0053.png
p19
asS'language_code'
p20
NsS'images'
p21
(lp22
sS'id'
p23
I172
sS'category'
p24
VText
p25
sS'genres'
p26
(lp27
sS'copyright'
p28
VPublic domain in the USA.
p29
sS'title'
p30
VReluctant Genius
p31
sS'wikipedia'
p32
(dp33
S'found'
p34
I00
ssS'average_rating'
p35
F3.1
sS'rating_count'
p36
I13
sS'content_available'
p37
I01
sS'goodreads'
p38
(dp39
S'url'
p40
Vhttps://www.goodreads.com/book/show/12219464-reluctant-genius
p41
sg34
I01
sS'year'
p42
I1957
ssS'similar_books'
p43
(lp44
sS'description'
p45
VIt is said that Life crawled up from the slime of the sea-bottoms and became Man because of inherent greatness bred into him before the dawn of time. But perhaps this urge was not as formless as we think.<br /><br />note: very short story
p46
sS'gutenberg'
p47
(dp48
g40
Vhttp://www.gutenberg.org/ebooks/28030
p49
sS'num'
p50
I28030
ssS'authors'
p51
(lp52
I59
asS'isbn13'
p53
V9783655266601
p54
sS'language'
p55
VEnglish
p56
sS'countries'
p57
(lp58
I2
asS'release_date'
p59
S'2009-02-09T00:00:00'
p60
sS'author'
p61
I59
sS'content_cleaned'
p62
I01
sS'classes'
p63
(lp64
Vto-read
p65
aVscience-fiction
p66
aVjunk
p67
aVowned
p68
aVsci-fi
p69
aVshould-try-to-read
p70
aVshort-story
p71
aVaudio-obtained-lvss
p72
aVwant-to-read-have-copy
p73
aVmy-ebooks
p74
aVmy-library
p75
aVtype-short-story
p76
aVaudio-obtained-ss
p77
asS'loc_class'
p78
VPS: Language and Literatures: American and Canadian literature
p79
sS'n_authors'
p80
I1
sb.