ccopy_reg
_reconstructor
p0
(cdataset.Book
Book
p1
c__builtin__
object
p2
Ntp3
Rp4
(dp5
S'similar_books'
p6
(lp7
sS'genres'
p8
(lp9
sS'author'
p10
I302
sS'countries'
p11
(lp12
I2
asS'year'
p13
I1955
sS'title'
p14
VGalaxy Magazine September 1955
p15
sS'cover'
p16
Vhttps://ia600206.us.archive.org/BookReader/BookReaderImages.php?zip=/12/items/Galaxy_v10n06_1955-09/Galaxy_v10n06_1955-09_jp2.zip&file=Galaxy_v10n06_1955-09_jp2/Galaxy_v10n06_1955-09_0000.jp2&scale=0&rotate=0
p17
sS'cover_art'
p18
S'http://www.isfdb.org/wiki/images/b/b8/MLO4383.jpg'
p19
sS'author_name'
p20
VGalaxy Magazine
p21
sS'images_urls'
p22
(lp23
sS'authors'
p24
(lp25
I363
aI427
aI419
aI402
aI474
aI433
aI305
aI339
aI326
aI340
aI161
aI122
aI40
aI23
aI193
aI393
aI302
asS'images'
p26
(lp27
sS'id'
p28
I1032
sS'contents'
p29
(lp30
(dp31
S'title'
p32
VLittle Orphan Android
p33
sS'author'
p34
I363
sa(dp35
g32
VLittle Orphan Android [2]
p36
sg34
I363
sa(dp37
g32
VLittle Orphan Android [3]
p38
sg34
I363
sa(dp39
g32
VHunting Problem
p40
sg34
I427
sa(dp41
g32
VOne for the Books
p42
sg34
I419
sa(dp43
g32
VThe Freelancer
p44
sg34
I402
sa(dp45
g32
VEnd As a World
p46
sg34
I474
sa(dp47
g32
VPreferred Risk (Part 4 of 4)
p48
sg34
I433
sa(dp49
g32
VPreferred Risk (Part 4 of 4) [2]
p50
sg34
I433
sa(dp51
g32
VPreferred Risk (Part 4 of 4) [3]
p52
sg34
I433
sa(dp53
g32
VPreferred Risk (Part 4 of 4) [4]
p54
sg34
I433
sa(dp55
g32
VFall List
p56
sg34
I305
sa(dp57
g32
VFor Your Information: Unveiling the Mystery Planet
p58
sg34
I339
sa(dp59
g32
VForecast (Galaxy, September 1955)
p60
sg34
I326
sa(dp61
g32
VGalaxy's 5 Star Shelf (Galaxy, September 1955)
p62
sg34
I340
sa(dp63
g32
VLittle Orphan Android
p64
sg34
I161
sa(dp65
g32
VOne for the Books
p66
sg34
I122
sa(dp67
g32
VPreferred Risk (Part 4 of 4)
p68
sg34
I40
sa(dp69
g32
VHunting Problem
p70
sg34
I23
sa(dp71
g32
VThe Freelancer
p72
sg34
I193
sa(dp73
g32
VEnd As a World
p74
sg34
I393
sasb.