ccopy_reg
_reconstructor
p0
(cdataset.Book
Book
p1
c__builtin__
object
p2
Ntp3
Rp4
(dp5
S'similar_books'
p6
(lp7
sS'genres'
p8
(lp9
sS'author'
p10
I918
sS'countries'
p11
(lp12
I2
asS'year'
p13
I1972
sS'title'
p14
VIF Magazine September 1972
p15
sS'cover'
p16
Vhttps://ia800200.us.archive.org/BookReader/BookReaderImages.php?zip=/32/items/1972-10_IF/1972-10_IF_jp2.zip&file=1972-10_IF_jp2/1972-10_IF_0000.jp2&scale=0&rotate=0
p17
sS'cover_art'
p18
S'http://www.isfdb.org/wiki/images/9/9a/WOFIFSEPOCT1972.jpg'
p19
sS'author_name'
p20
VIF Magazine
p21
sS'images_urls'
p22
(lp23
sS'authors'
p24
(lp25
I499
aI326
aI570
aI667
aI356
aI478
aI1221
aI698
aI1208
aI696
aI918
asS'images'
p26
(lp27
sS'id'
p28
I1379
sS'contents'
p29
(lp30
(dp31
g10
I499
sg14
VGods On Olympus
p32
sa(dp33
g10
I326
sg14
VThe Emoman
p34
sa(dp35
g10
I570
sg14
VBlack Ba
p36
sa(dp37
g10
I326
sg14
VFreezeout
p38
sa(dp39
g10
I326
sg14
VUnderbelly
p40
sa(dp41
g10
I326
sg14
VThe Book of Rack the Healer (Part 2 of 2)
p42
sa(dp43
g10
I667
sg14
VHue and Cry (If, September-October 1972)
p44
sa(dp45
g10
I326
sg14
VSf Calendar (If, September-October 1972)
p46
sa(dp47
g10
I356
sg14
VReading Room (If, September-October 1972)
p48
sa(dp49
g10
I478
sg14
VGods On Olympus
p50
sa(dp51
g10
I1221
sg14
VThe Book of Rack the Healer (Part 2 of 2)
p52
sa(dp53
g10
I698
sg14
VThe Emoman
p54
sa(dp55
g10
I1208
sg14
VFreezeout
p56
sa(dp57
g10
I696
sg14
VUnderbelly
p58
sasb.