ccopy_reg
_reconstructor
p0
(cdataset.Book
Book
p1
c__builtin__
object
p2
Ntp3
Rp4
(dp5
S'content_name'
p6
V50884.txt.utf-8
p7
sS'isbn'
p8
V1530359376
p9
sS'year'
p10
I2002
sS'author_name'
p11
VRoger D. Aycock
p12
sS'images_urls'
p13
(lp14
Vhttp://www.gutenberg.org/files/50884/50884-h/images/cover.jpg
p15
aVhttp://www.gutenberg.org/files/50884/50884-h/images/illus.jpg
p16
asS'language_code'
p17
NsS'id'
p18
I672
sS'category'
p19
VText
p20
sS'genres'
p21
(lp22
sS'copyright'
p23
VPublic domain in the USA.
p24
sS'title'
p25
VToday is Forever
p26
sS'wikipedia'
p27
(dp28
S'found'
p29
I00
ssS'average_rating'
p30
F4.05
sS'rating_count'
p31
I1
sS'content_available'
p32
I01
sS'cover_art_url'
p33
S'http://www.gutenberg.org/cache/epub/50884/pg50884.cover.medium.jpg'
p34
sS'goodreads'
p35
(dp36
S'url'
p37
S'https://www.goodreads.com/book/show/29447231-today-is-forever'
p38
sS'found'
p39
I01
ssS'similar_books'
p40
(lp41
sS'description'
p42
VThis collection of literature attempts to compile many of the classic works that have stood the test of time and offer them at a reduced, affordable price, in an attractive volume so that everyone can enjoy them.
p43
sS'gutenberg'
p44
(dp45
S'url'
p46
Vhttp://www.gutenberg.org/ebooks/50884
p47
sS'num'
p48
I50884
ssS'authors'
p49
(lp50
I162
asS'pages'
p51
I30
sS'isbn13'
p52
V9781530359370
p53
sS'language'
p54
VEnglish
p55
sS'countries'
p56
(lp57
I2
asS'release_date'
p58
S'2016-01-09T00:00:00'
p59
sS'author'
p60
I162
sS'content_cleaned'
p61
I01
sS'classes'
p62
(lp63
sS'loc_class'
p64
S''
p65
sS'n_authors'
p66
I1
sb.