ccopy_reg
_reconstructor
p0
(cdataset.Book
Book
p1
c__builtin__
object
p2
Ntp3
Rp4
(dp5
S'similar_books'
p6
(lp7
sS'genres'
p8
(lp9
sS'author'
p10
I918
sS'countries'
p11
(lp12
I2
asS'year'
p13
I1959
sS'title'
p14
VIF Magazine February 1959
p15
sS'cover'
p16
Vhttps://ia800206.us.archive.org/BookReader/BookReaderImages.php?zip=/28/items/1959-02_IF/1959-02_IF_jp2.zip&file=1959-02_IF_jp2/1959-02_IF_0000.jp2&scale=0&rotate=0
p17
sS'cover_art'
p18
S'http://www.isfdb.org/wiki/images/c/c9/WOFIFFEB1959.jpg'
p19
sS'author_name'
p20
VIF Magazine
p21
sS'images_urls'
p22
(lp23
sS'authors'
p24
(lp25
I326
aI956
aI363
aI204
aI32
aI25
aI569
aI91
aI1046
aI609
aI182
aI423
aI596
aI1048
aI479
aI918
asS'images'
p26
(lp27
sS'id'
p28
I1267
sS'contents'
p29
(lp30
(dp31
g10
I326
sg14
VPipe Dream
p32
sa(dp33
g10
I956
sg14
VThe Wind People
p34
sa(dp35
g10
I363
sg14
VThe Man Who Tasted Ashes
p36
sa(dp37
g10
I363
sg14
VLove and Moondogs
p38
sa(dp39
g10
I956
sg14
VThe Last Days of L.A.
p40
sa(dp41
g10
I326
sg14
VVirgin Ground
p42
sa(dp43
g10
I363
sg14
VDiscipline
p44
sa(dp45
g10
I326
sg14
VStar of Rebirth
p46
sa(dp47
g10
I363
sg14
VNo, No, Not Rogov!
p48
sa(dp49
g10
I204
sg14
VIn the Balance (If, February 1959)
p50
sa(dp51
g10
I32
sg14
VPipe Dream
p52
sa(dp53
g10
I25
sg14
VThe Wind People
p54
sa(dp55
g10
I569
sg14
VThe Good Work
p56
sa(dp57
g10
I91
sg14
VThe Man Who Tasted Ashes
p58
sa(dp59
g10
I1046
sg14
VLove and Moondogs
p60
sa(dp61
g10
I609
sg14
VThe Last Days of L.A.
p62
sa(dp63
g10
I182
sg14
VVirgin Ground
p64
sa(dp65
g10
I423
sg14
VDiscipline
p66
sa(dp67
g10
I596
sg14
VIn the Jag-Whiffing Service
p68
sa(dp69
g10
I1048
sg14
VStar of Rebirth
p70
sa(dp71
g10
I479
sg14
VNo, No, Not Rogov!
p72
sasb.