ccopy_reg
_reconstructor
p0
(cdataset.Book
Book
p1
c__builtin__
object
p2
Ntp3
Rp4
(dp5
S'similar_books'
p6
(lp7
sS'genres'
p8
(lp9
sS'author'
p10
I918
sS'countries'
p11
(lp12
I2
asS'year'
p13
I1972
sS'title'
p14
VIF Magazine March 1972
p15
sS'cover'
p16
Vhttps://ia600202.us.archive.org/BookReader/BookReaderImages.php?zip=/22/items/1972-04_IF/1972-04_IF_jp2.zip&file=1972-04_IF_jp2/1972-04_IF_0000.jp2&scale=0&rotate=0
p17
sS'cover_art'
p18
S'http://www.isfdb.org/wiki/images/5/59/WOFIFMARAPR1972.jpg'
p19
sS'author_name'
p20
VIF Magazine
p21
sS'images_urls'
p22
(lp23
sS'authors'
p24
(lp25
I499
aI667
aI326
aI356
aI16
aI3
aI635
aI1219
aI596
aI45
aI918
asS'images'
p26
(lp27
sS'id'
p28
I1376
sS'contents'
p29
(lp30
(dp31
g10
I499
sg14
VThe Gods Themselves (Part 2 of 3)
p32
sa(dp33
g10
I499
sg14
VThe Stainless Steel Rat's Return
p34
sa(dp35
g10
I499
sg14
VOne and One Are Two
p36
sa(dp37
g10
I499
sg14
VTwo Suns for the King
p38
sa(dp39
g10
I499
sg14
VPatterns of Chaos (Part 2 of 3)
p40
sa(dp41
g10
I499
sg14
VThe Old Switcheroo
p42
sa(dp43
g10
I667
sg14
VHue and Cry (If, March-April 1972)
p44
sa(dp45
g10
I326
sg14
VSf Calendar (If, March-April 1972)
p46
sa(dp47
g10
I356
sg14
VReading Room (If, March-April 1972)
p48
sa(dp49
g10
I16
sg14
VThe Stainless Steel Rat's Return
p50
sa(dp51
g10
I3
sg14
VThe Gods Themselves (Part 2 of 3)
p52
sa(dp53
g10
I635
sg14
VPatterns of Chaos (Part 2 of 3)
p54
sa(dp55
g10
I1219
sg14
VOne and One Are Two
p56
sa(dp57
g10
I596
sg14
VTwo Suns for the King
p58
sa(dp59
g10
I45
sg14
VThe Old Switcheroo
p60
sasb.