ccopy_reg
_reconstructor
p0
(cdataset.Book
Book
p1
c__builtin__
object
p2
Ntp3
Rp4
(dp5
S'content_name'
p6
V29140.txt.utf-8
p7
sS'isbn'
p8
V0521427061
p9
sS'year'
p10
I1940
sS'author_name'
p11
VArthur Feldman
p12
sS'images_urls'
p13
(lp14
Vhttp://www.gutenberg.org/files/29140/29140-h/images/001.png
p15
aVhttp://www.gutenberg.org/files/29140/29140-h/images/002-1.jpg
p16
aVhttp://www.gutenberg.org/files/29140/29140-h/images/002-2.jpg
p17
asS'language_code'
p18
Ven-US
p19
sS'images'
p20
(lp21
sS'id'
p22
I551
sS'category'
p23
VText
p24
sS'genres'
p25
(lp26
sS'copyright'
p27
VPublic domain in the USA.
p28
sS'title'
p29
VThe Mathematicians
p30
sS'wikipedia'
p31
(dp32
S'found'
p33
I00
ssS'average_rating'
p34
F3.92
sS'rating_count'
p35
I3442
sS'content_available'
p36
I01
sS'goodreads'
p37
(dp38
S'url'
p39
Vhttps://www.goodreads.com/book/show/154060.A_Mathematician_s_Apology
p40
sg33
I01
sS'year'
p41
I1940
ssS'similar_books'
p42
(lp43
VLetters to a Young Mathematician (Art of Mentoring)
p44
aVThe Mathematical Experience
p45
aVPrincipia Mathematica to '56 (Mathematical Library)
p46
aVThe Man Who Loved Only Numbers: The Story of  Paul Erd\u0151s and the Search for Mathematical Truth
p47
aVPrime Obsession: Bernhard Riemann and the Greatest Unsolved Problem in Mathematics
p48
aVMen of Mathematics
p49
aVWhat Is Mathematics?: An Elementary Approach to Ideas and Methods
p50
aVJourney through Genius: The Great Theorems of Mathematics
p51
aVThe Man Who Knew Infinity: A Life of the Genius Ramanujan
p52
aVe: the Story of a Number
p53
aVThe Princeton Companion to Mathematics
p54
aVAn Imaginary Tale: The Story of the Square Root of Minus One
p55
aVOn Growth and Form
p56
aVProofs from THE BOOK
p57
aVAdventures of a Mathematician
p58
aVHow to Solve It: A New Aspect of Mathematical Method
p59
aVMathematical Thought from Ancient to Modern Times
p60
aVA Mathematician's Lament: How School Cheats Us Out of Our Most Fascinating and Imaginative Art Form
p61
asS'description'
p62
VWritten in 1940 as his mathematical powers were declining, G.H. Hardy's apology offers an engaging account of the thoughts of a man known for his eccentricities as well as his brilliance in mathematics.
p63
sS'format'
p64
VPaperback
p65
sS'gutenberg'
p66
(dp67
g39
Vhttp://www.gutenberg.org/ebooks/29140
p68
sS'num'
p69
I29140
ssS'authors'
p70
(lp71
I184
asS'pages'
p72
I153
sS'isbn13'
p73
V9780521427067
p74
sS'language'
p75
VEnglish
p76
sS'countries'
p77
(lp78
I3
asS'release_date'
p79
S'2009-06-17T00:00:00'
p80
sS'author'
p81
I184
sS'content_cleaned'
p82
I01
sS'classes'
p83
(lp84
Vto-read
p85
aVmathematics
p86
aVnon-fiction
p87
aVmath
p88
aVscience
p89
aVcurrently-reading
p90
aVphilosophy
p91
aVbiography
p92
aVmaths
p93
aVnonfiction
p94
aVmemoir
p95
aVfavorites
p96
aVhistory
p97
aVessays
p98
aVowned
p99
aVautobiography
p100
aVpopular-science
p101
aVebook
p102
aVto-buy
p103
aVbiographies
p104
aVscience-math
p105
aVbiography-memoir
p106
aVbritish
p107
aVclassics
p108
aVbooks-i-own
p109
aVdefault
p110
aVebooks
p111
aVenglish
p112
aVlibrary
p113
aVmath-science
p114
aVsaggi
p115
aVto-read-non-fiction
p116
aVkindle
p117
aVsciences
p118
aVmemoirs
p119
aVliterature
p120
aVread-in-2016
p121
aVabandoned
p122
aVmath-books
p123
aVre-read
p124
aVmatematicas
p125
aVmaths-science
p126
aVpopular-mathematics
p127
aVread-in-2013
p128
aVscience-mathematics
p129
aVmath-logic
p130
aVmath-and-science
p131
aVscience-and-math
p132
aVessay
p133
aVpopular-math
p134
aVwish-list
p135
aVbacklog
p136
aVgeneral
p137
aVmi-biblioteca
p138
aVwant-to-read
p139
aV100-to-200
p140
aVread-in-english
p141
aVconsider-reading
p142
aVscience-and-mathematics
p143
aVscienza
p144
aVaesthetics
p145
aVunread
p146
aVuk
p147
aVread-in-2014
p148
aVscience-and-maths
p149
aVscience-philosophy
p150
aVwiskunde
p151
aVbought
p152
aVgreat-books
p153
aVmy-library
p154
aVmy-books
p155
aVdid-not-finish
p156
aVhistory-of-science
p157
aVacademic
p158
aVe-book
p159
aVapologia
p160
aVkindle-books
p161
aVphysics
p162
aVit-wikipedia
p163
aVto-read-maybe
p164
aVphysics-math
p165
aVpop-math
p166
aVnonfic
p167
aVfavourites
p168
aVscience-maths
p169
aVnot-owned
p170
aVpop-science
p171
aVto-get
p172
aVfiction
p173
aVengland
p174
aVmathematicians
p175
aV1940s
p176
aVphilosophy-of-mathematics
p177
aVbio
p178
aVmaybe-to-read
p179
aVauto-biography
p180
aVto-read-nonfiction
p181
aVfav
p182
aVmeth
p183
aVon-my-kindle
p184
asS'loc_class'
p185
VPS: Language and Literatures: American and Canadian literature
p186
sS'n_authors'
p187
I1
sb.