ccopy_reg
_reconstructor
p0
(cdataset.Book
Book
p1
c__builtin__
object
p2
Ntp3
Rp4
(dp5
S'similar_books'
p6
(lp7
sS'genres'
p8
(lp9
sS'author'
p10
I302
sS'countries'
p11
(lp12
I2
asS'year'
p13
I1978
sS'title'
p14
VGalaxy Magazine February 1978
p15
sS'cover'
p16
Vhttps://ia600202.us.archive.org/BookReader/BookReaderImages.php?zip=/1/items/Galaxy_v39n02_1978-02/Galaxy_v39n02_1978-02_jp2.zip&file=Galaxy_v39n02_1978-02_jp2/Galaxy_v39n02_1978-02_0000.jp2&scale=0&rotate=0
p17
sS'cover_art'
p18
S'http://www.isfdb.org/wiki/images/b/b8/GALFEB78.jpg'
p19
sS'author_name'
p20
VGalaxy Magazine
p21
sS'images_urls'
p22
(lp23
sS'authors'
p24
(lp25
I842
aI849
aI855
aI844
aI734
aI843
aI856
aI857
aI591
aI858
aI859
aI302
asS'images'
p26
(lp27
sS'id'
p28
I1208
sS'contents'
p29
(lp30
(dp31
g10
I842
sg14
VThe Faded Sun: Kesrith (Part 1 of 4)
p32
sa(dp33
g10
I842
sg14
VThe Faded Sun: Kesrith (Part 1 of 4) [2]
p34
sa(dp35
g10
I842
sg14
VThe Faded Sun: Kesrith (Part 1 of 4) [3]
p36
sa(dp37
g10
I842
sg14
VThe Faded Sun: Kesrith (Part 1 of 4) [4]
p38
sa(dp39
g10
I842
sg14
VThe Faded Sun: Kesrith (Part 1 of 4) [5]
p40
sa(dp41
g10
I842
sg14
VThe Faded Sun: Kesrith (Part 1 of 4) [6]
p42
sa(dp43
g10
I849
sg14
VThe Nothing Spot
p44
sa(dp45
g10
I849
sg14
VWriter's Block
p46
sa(dp47
g10
I849
sg14
VWriter's Block [2]
p48
sa(dp49
g10
I855
sg14
VThe Courts of Chaos (Part 3 of 3)
p50
sa(dp51
g10
I855
sg14
VThe Courts of Chaos (Part 3 of 3) [2]
p52
sa(dp53
g10
I855
sg14
VThe Courts of Chaos (Part 3 of 3) [3]
p54
sa(dp55
g10
I855
sg14
VThe Courts of Chaos (Part 3 of 3) [4]
p56
sa(dp57
g10
I855
sg14
VThe Courts of Chaos (Part 3 of 3) [5]
p58
sa(dp59
g10
I849
sg14
VDeath's Dimensions
p60
sa(dp61
g10
I849
sg14
VDeath's Dimensions [2]
p62
sa(dp63
g10
I842
sg14
VShowcase (Galaxy, February 1978)
p64
sa(dp65
g10
I844
sg14
VImagination and Evolution
p66
sa(dp67
g10
I734
sg14
VRapping Out the Space Industries
p68
sa(dp69
g10
I843
sg14
VGalaxy Bookshelf (Galaxy, February 1978)
p70
sa(dp71
g10
I844
sg14
VDirections (Galaxy, February 1978)
p72
sa(dp73
g10
I856
sg14
VWriter's Block
p74
sa(dp75
g10
I857
sg14
VThe Faded Sun: Kesrith (Part 1 of 4)
p76
sa(dp77
g10
I591
sg14
VThe Courts of Chaos (Part 3 of 3)
p78
sa(dp79
g10
I858
sg14
VThe Nothing Spot
p80
sa(dp81
g10
I859
sg14
VDeath's Dimensions
p82
sasb.