ccopy_reg
_reconstructor
p0
(cdataset.Book
Book
p1
c__builtin__
object
p2
Ntp3
Rp4
(dp5
S'content_name'
p6
V2509.txt.utf-8
p7
sS'isbn'
p8
V1419168665
p9
sS'year'
p10
I1962
sS'author_name'
p11
VJesse F. Bone
p12
sS'images_urls'
p13
(lp14
sS'language_code'
p15
NsS'images'
p16
(lp17
sS'id'
p18
I530
sS'category'
p19
VText
p20
sS'genres'
p21
(lp22
sS'copyright'
p23
VPublic domain in the USA.
p24
sS'title'
p25
VThe Lani People
p26
sS'wikipedia'
p27
(dp28
S'found'
p29
I00
ssS'average_rating'
p30
F3.54
sS'rating_count'
p31
I39
sS'content_available'
p32
I01
sS'goodreads'
p33
(dp34
S'url'
p35
Vhttps://www.goodreads.com/book/show/272093.The_Lani_People
p36
sg29
I01
sS'year'
p37
I1962
ssS'similar_books'
p38
(lp39
sS'description'
p40
VThey exported the Lani to every planet in the galaxy. Who wants to be bothered by a woman when you can get a whole harem of Lani so cheap? All Lani are exactly like women with one minor "addition". All happy only in the natural naked state. All expertly trained to make a man feel like a god. You specify pedigree - Say Silver Dawn out of White Magic for a platinum-blonde model, or you can take your pick from the adoring herd. The Lani People is the startling story of a planet that applied new scientific knowledge to techniques of breeding, and came up with a system that revolutionized society.
p41
sS'format'
p42
NsS'gutenberg'
p43
(dp44
g35
Vhttp://www.gutenberg.org/ebooks/2509
p45
sS'num'
p46
I2509
ssS'authors'
p47
(lp48
I68
asS'isbn13'
p49
V9781419168666
p50
sS'language'
p51
VEnglish
p52
sS'countries'
p53
(lp54
I2
asS'release_date'
p55
S'2001-02-01T00:00:00'
p56
sS'author'
p57
I68
sS'content_cleaned'
p58
I00
sS'classes'
p59
(lp60
Vto-read
p61
aVscience-fiction
p62
aVfiction
p63
aVcurrently-reading
p64
aVowned
p65
aVsf-fantasy
p66
aVluitingh-sf
p67
aVmaybe
p68
aVscifi-new-wave-1960-1979
p69
aVscifi
p70
aVdid-not-keep
p71
aVproject-gutenberg
p72
aVsf
p73
aV1-owning
p74
aVinlibrary
p75
aVmy-collection
p76
aVfeedbooks-com
p77
aVspace
p78
aVreligion
p79
aVpsychics
p80
aVpolitics
p81
aVhard-sci-fi
p82
aVcyberpunk
p83
aVbad-future
p84
aValiens
p85
aVliterary
p86
aVmight-read-someday
p87
aVhave-e-book
p88
aVto-acquire
p89
aVfantasy_science-fiction
p90
aVwill_not_read_only_release
p91
aVdutch_language
p92
aVbookcrossing
p93
aVsci-fi---fantasy
p94
aVunfiltered
p95
aVsf-space-opera
p96
aVsf-alien-planets-and-societies
p97
aVnot-read
p98
aVbaird-mcclintock
p99
aVpublic-domain
p100
aVbone-jesse-franklin
p101
asS'loc_class'
p102
VPS: Language and Literatures: American and Canadian literature
p103
sS'n_authors'
p104
I1
sb.