ccopy_reg
_reconstructor
p0
(cdataset.Book
Book
p1
c__builtin__
object
p2
Ntp3
Rp4
(dp5
S'content_name'
p6
V23535.txt.utf-8
p7
sS'isbn'
p8
NsS'year'
p9
I1951
sS'author_name'
p10
VBenjamin Ferris
p11
sS'images_urls'
p12
(lp13
Vhttp://www.gutenberg.org/files/23535/23535-h/images/illus.jpg
p14
aVhttp://www.gutenberg.org/files/23535/23535-page-images/p080-image.png
p15
aVhttp://www.gutenberg.org/files/23535/23535-page-images/p080.png
p16
aVhttp://www.gutenberg.org/files/23535/23535-page-images/p081.png
p17
aVhttp://www.gutenberg.org/files/23535/23535-page-images/p082.png
p18
aVhttp://www.gutenberg.org/files/23535/23535-page-images/p083.png
p19
aVhttp://www.gutenberg.org/files/23535/23535-page-images/p084.png
p20
aVhttp://www.gutenberg.org/files/23535/23535-page-images/p085a.png
p21
aVhttp://www.gutenberg.org/files/23535/23535-page-images/p085b.png
p22
aVhttp://www.gutenberg.org/files/23535/23535-page-images/p086a.png
p23
aVhttp://www.gutenberg.org/files/23535/23535-page-images/p086b.png
p24
aVhttp://www.gutenberg.org/files/23535/23535-page-images/p087a.png
p25
aVhttp://www.gutenberg.org/files/23535/23535-page-images/p087b.png
p26
aVhttp://www.gutenberg.org/files/23535/23535-page-images/p088a.png
p27
aVhttp://www.gutenberg.org/files/23535/23535-page-images/p088b.png
p28
aVhttp://www.gutenberg.org/files/23535/23535-page-images/p089a.png
p29
aVhttp://www.gutenberg.org/files/23535/23535-page-images/p089b.png
p30
asS'language_code'
p31
NsS'images'
p32
(lp33
sS'id'
p34
I671
sS'category'
p35
VText
p36
sS'genres'
p37
(lp38
sS'copyright'
p39
VPublic domain in the USA.
p40
sS'title'
p41
VThe Invaders
p42
sS'wikipedia'
p43
(dp44
S'found'
p45
I00
ssS'average_rating'
p46
F4.0
sS'rating_count'
p47
I11
sS'content_available'
p48
I01
sS'goodreads'
p49
(dp50
S'url'
p51
S'https://www.goodreads.com/book/show/12218893-the-invaders'
p52
sS'found'
p53
I01
ssS'similar_books'
p54
(lp55
sS'description'
p56
NsS'gutenberg'
p57
(dp58
S'url'
p59
Vhttp://www.gutenberg.org/ebooks/23535
p60
sS'num'
p61
I23535
ssS'authors'
p62
(lp63
I223
asS'isbn13'
p64
V2940012047625
p65
sS'language'
p66
VEnglish
p67
sS'countries'
p68
(lp69
I3
asS'release_date'
p70
S'2007-11-18T00:00:00'
p71
sS'author'
p72
I223
sS'cover'
p73
Vhttps://s.gr-assets.com/assets/nophoto/book/111x148-bcc042a9c91a29c1d680899eff700a03.png
p74
sS'content_cleaned'
p75
I01
sS'classes'
p76
(lp77
Vscience-fiction
p78
aVsci-fi
p79
aVz_fiction
p80
aVx_shortstory
p81
aVwo_scifi
p82
aVw_us_late
p83
aVshort-story
p84
aVshort-stories
p85
aVcurrently-reading
p86
aVtype-short-story
p87
asS'loc_class'
p88
VPS: Language and Literatures: American and Canadian literature
p89
sS'n_authors'
p90
I1
sb.