ccopy_reg
_reconstructor
p0
(cdataset.Book
Book
p1
c__builtin__
object
p2
Ntp3
Rp4
(dp5
S'similar_books'
p6
(lp7
sS'genres'
p8
(lp9
sS'author'
p10
I302
sS'countries'
p11
(lp12
I2
asS'year'
p13
I1951
sS'title'
p14
VGalaxy Magazine June 1951
p15
sS'cover'
p16
Vhttps://ia601308.us.archive.org/BookReader/BookReaderImages.php?zip=/2/items/Galaxy_v02n03_1951-06/Galaxy_v02n03_1951-06_jp2.zip&file=Galaxy_v02n03_1951-06_jp2/Galaxy_v02n03_1951-06_0000.jp2&scale=0&rotate=0
p17
sS'cover_art'
p18
S'http://www.isfdb.org/wiki/images/9/91/GALJUN1951.jpg'
p19
sS'author_name'
p20
VGalaxy Magazine
p21
sS'images_urls'
p22
(lp23
sS'authors'
p24
(lp25
I355
aI336
aI351
aI363
aI305
aI340
aI132
aI204
aI51
aI194
aI326
aI302
asS'images'
p26
(lp27
sS'id'
p28
I981
sS'contents'
p29
(lp30
(dp31
S'title'
p32
VHunt the Hunter
p33
sS'author'
p34
I355
sa(dp35
g32
VAngel's Egg
p36
sg34
I336
sa(dp37
g32
VAngel's Egg [2]
p38
sg34
I336
sa(dp39
g32
VAngel's Egg [3]
p40
sg34
I336
sa(dp41
g32
VDon't Live in the Past
p42
sg34
I351
sa(dp43
g32
VDon't Live in the Past [2]
p44
sg34
I351
sa(dp45
g32
VDon't Live in the Past [3]
p46
sg34
I351
sa(dp47
g32
VDon't Live in the Past [4]
p48
sg34
I351
sa(dp49
g32
VDon't Live in the Past [5]
p50
sg34
I351
sa(dp51
g32
VMars Child (Part 2 of 3)
p52
sg34
I363
sa(dp53
g32
VMars Child (Part 2 of 3) [2]
p54
sg34
I363
sa(dp55
g32
VMars Child (Part 2 of 3) [3]
p56
sg34
I363
sa(dp57
g32
VMars Child (Part 2 of 3) [4]
p58
sg34
I363
sa(dp59
g32
VMars Child (Part 2 of 3) [5]
p60
sg34
I363
sa(dp61
g32
VMars Child (Part 2 of 3) [6]
p62
sg34
I363
sa(dp63
g32
VLooking Forward
p64
sg34
I305
sa(dp65
g32
VGalaxy's Five Star Shelf (Galaxy, June 1951)
p66
sg34
I340
sa(dp67
g32
VAngel's Egg
p68
sg34
I132
sa(dp69
g32
VDon't Live in the Past
p70
sg34
I204
sa(dp71
g32
VMars Child (Part 2 of 3)
p72
sg34
I51
sa(dp73
g32
VHunt the Hunter
p74
sg34
I194
sa(dp75
g32
VNext Month's Contents Page (Galaxy, June 1951)
p76
sg34
I326
sasb.