ccopy_reg
_reconstructor
p0
(cdataset.Book
Book
p1
c__builtin__
object
p2
Ntp3
Rp4
(dp5
S'content_name'
p6
V32359.txt.utf-8
p7
sS'isbn'
p8
NsS'year'
p9
I1952
sS'author_name'
p10
VRobert Moore Williams
p11
sS'images_urls'
p12
(lp13
Vhttp://www.gutenberg.org/files/32359/32359-h/images/001.jpg
p14
aVhttp://www.gutenberg.org/files/32359/32359-h/images/002.jpg
p15
aVhttp://www.gutenberg.org/files/32359/32359-h/images/cover.jpg
p16
asS'language_code'
p17
NsS'id'
p18
I911
sS'category'
p19
VText
p20
sS'genres'
p21
(lp22
sS'copyright'
p23
VPublic domain in the USA.
p24
sS'title'
p25
VSinister Paradise
p26
sS'wikipedia'
p27
(dp28
S'found'
p29
I00
ssS'average_rating'
p30
F3.65
sS'rating_count'
p31
I0
sS'content_available'
p32
I01
sS'cover_art_url'
p33
S'http://www.gutenberg.org/cache/epub/32359/pg32359.cover.medium.jpg'
p34
sS'goodreads'
p35
(dp36
S'url'
p37
S'https://www.goodreads.com/book/show/10083445-sinister-paradise'
p38
sS'found'
p39
I01
ssS'similar_books'
p40
(lp41
sS'description'
p42
NsS'gutenberg'
p43
(dp44
S'url'
p45
Vhttp://www.gutenberg.org/ebooks/32359
p46
sS'num'
p47
I32359
ssS'authors'
p48
(lp49
I135
asS'isbn13'
p50
NsS'language'
p51
VEnglish
p52
sS'countries'
p53
(lp54
I2
asS'release_date'
p55
S'2010-05-13T00:00:00'
p56
sS'author'
p57
I135
sS'cover'
p58
Vhttps://s.gr-assets.com/assets/nophoto/book/111x148-bcc042a9c91a29c1d680899eff700a03.png
p59
sS'content_cleaned'
p60
I01
sS'classes'
p61
(lp62
Vto-read
p63
aVowned
p64
aVshelved-tbr
p65
aVlit-usa
p66
aVbooks
p67
aVebooks
p68
aVeb-other
p69
aVeb
p70
aVsci-fi
p71
aVclassic-sci-fi
p72
asS'loc_class'
p73
VPS: Language and Literatures: American and Canadian literature
p74
sS'n_authors'
p75
I1
sb.