ccopy_reg
_reconstructor
p0
(cdataset.Book
Book
p1
c__builtin__
object
p2
Ntp3
Rp4
(dp5
S'content_name'
p6
V18753.txt.utf-8
p7
sS'isbn'
p8
NsS'year'
p9
I1953
sS'author_name'
p10
VCarey Rockwell
p11
sS'images_urls'
p12
(lp13
Vhttp://www.gutenberg.org/files/18753/18753-h/images/001.jpg
p14
aVhttp://www.gutenberg.org/files/18753/18753-h/images/002.jpg
p15
aVhttp://www.gutenberg.org/files/18753/18753-h/images/006-1.jpg
p16
aVhttp://www.gutenberg.org/files/18753/18753-h/images/057-1.jpg
p17
aVhttp://www.gutenberg.org/files/18753/18753-h/images/062-1.jpg
p18
aVhttp://www.gutenberg.org/files/18753/18753-h/images/069-1.jpg
p19
aVhttp://www.gutenberg.org/files/18753/18753-h/images/075-1.jpg
p20
aVhttp://www.gutenberg.org/files/18753/18753-h/images/082-1.jpg
p21
aVhttp://www.gutenberg.org/files/18753/18753-h/images/083-1.jpg
p22
aVhttp://www.gutenberg.org/files/18753/18753-h/images/090-1.jpg
p23
aVhttp://www.gutenberg.org/files/18753/18753-h/images/1-14.jpg
p24
aVhttp://www.gutenberg.org/files/18753/18753-h/images/1-15.jpg
p25
aVhttp://www.gutenberg.org/files/18753/18753-h/images/1-33.jpg
p26
aVhttp://www.gutenberg.org/files/18753/18753-h/images/1-39.jpg
p27
aVhttp://www.gutenberg.org/files/18753/18753-h/images/1-46.jpg
p28
aVhttp://www.gutenberg.org/files/18753/18753-h/images/102-1.jpg
p29
aVhttp://www.gutenberg.org/files/18753/18753-h/images/117-1.jpg
p30
aVhttp://www.gutenberg.org/files/18753/18753-h/images/119-1.jpg
p31
aVhttp://www.gutenberg.org/files/18753/18753-h/images/126-1.jpg
p32
aVhttp://www.gutenberg.org/files/18753/18753-h/images/127-1.jpg
p33
aVhttp://www.gutenberg.org/files/18753/18753-h/images/135-1.jpg
p34
aVhttp://www.gutenberg.org/files/18753/18753-h/images/138-1.jpg
p35
aVhttp://www.gutenberg.org/files/18753/18753-h/images/143-1.jpg
p36
aVhttp://www.gutenberg.org/files/18753/18753-h/images/149-1.jpg
p37
aVhttp://www.gutenberg.org/files/18753/18753-h/images/155-1.jpg
p38
aVhttp://www.gutenberg.org/files/18753/18753-h/images/158-1.jpg
p39
aVhttp://www.gutenberg.org/files/18753/18753-h/images/166-1.jpg
p40
aVhttp://www.gutenberg.org/files/18753/18753-h/images/171-1.jpg
p41
aVhttp://www.gutenberg.org/files/18753/18753-h/images/177-1.jpg
p42
aVhttp://www.gutenberg.org/files/18753/18753-h/images/183-1.jpg
p43
aVhttp://www.gutenberg.org/files/18753/18753-h/images/185-1.jpg
p44
aVhttp://www.gutenberg.org/files/18753/18753-h/images/192-1.jpg
p45
aVhttp://www.gutenberg.org/files/18753/18753-h/images/210-1.jpg
p46
aVhttp://www.gutenberg.org/files/18753/18753-h/images/211-1.jpg
p47
aVhttp://www.gutenberg.org/files/18753/18753-h/images/223-1.jpg
p48
asS'language_code'
p49
NsS'images'
p50
(lp51
sS'id'
p52
I362
sS'category'
p53
VText
p54
sS'genres'
p55
(lp56
sS'copyright'
p57
VPublic domain in the USA.
p58
sS'title'
p59
VThe Space Pioneers
p60
sS'wikipedia'
p61
(dp62
S'found'
p63
I00
ssS'average_rating'
p64
F3.49
sS'rating_count'
p65
I41
sS'content_available'
p66
I01
sS'goodreads'
p67
(dp68
S'url'
p69
Vhttps://www.goodreads.com/book/show/6440031-the-space-pioneers
p70
sg63
I01
sS'year'
p71
I1953
ssS'similar_books'
p72
(lp73
sS'description'
p74
NsS'format'
p75
NsS'gutenberg'
p76
(dp77
g69
Vhttp://www.gutenberg.org/ebooks/18753
p78
sS'num'
p79
I18753
ssS'authors'
p80
(lp81
I118
asS'isbn13'
p82
NsS'language'
p83
VEnglish
p84
sS'countries'
p85
(lp86
I2
asS'release_date'
p87
S'2006-07-04T00:00:00'
p88
sS'author'
p89
I118
sS'content_cleaned'
p90
I01
sS'classes'
p91
(lp92
Vto-read
p93
aVsci-fi
p94
aVscience-fiction
p95
aVebook-epub
p96
aVshelved
p97
aVread_2016
p98
aVscience-fiction-fantasy
p99
aVfiction
p100
aVchildren-ya
p101
aV16
p102
aVe-book
p103
aVsf-hard
p104
aVtemporary-storage
p105
aVnook
p106
aVyoung-and-ya
p107
aVfeedbooks-com
p108
aVsf
p109
aVcurrently-reading
p110
aVya-books
p111
aVsci-fi-fantasy
p112
aV2013-books-read
p113
aVin-calibre
p114
aVyounger-days
p115
aVyoung-adult
p116
asS'loc_class'
p117
VPZ: Language and Literatures: Juvenile belles lettres
p118
sS'n_authors'
p119
I1
sb.