ccopy_reg
_reconstructor
p0
(cdataset.Book
Book
p1
c__builtin__
object
p2
Ntp3
Rp4
(dp5
S'content_name'
p6
V32004.txt.utf-8
p7
sS'isbn'
p8
NsS'year'
p9
I1958
sS'author_name'
p10
VFrederik Pohl
p11
sS'images_urls'
p12
(lp13
Vhttp://www.gutenberg.org/files/32004/32004-h/images/cover-sm.jpg
p14
aVhttp://www.gutenberg.org/files/32004/32004-h/images/cover.jpg
p15
aVhttp://www.gutenberg.org/files/32004/32004-h/images/illo1-left.png
p16
aVhttp://www.gutenberg.org/files/32004/32004-h/images/illo1-right.png
p17
aVhttp://www.gutenberg.org/files/32004/32004-h/images/illo1-sm.jpg
p18
aVhttp://www.gutenberg.org/files/32004/32004-h/images/illo2-sm.jpg
p19
aVhttp://www.gutenberg.org/files/32004/32004-h/images/illo2.jpg
p20
aVhttp://www.gutenberg.org/files/32004/32004-h/images/illo3-left.jpg
p21
aVhttp://www.gutenberg.org/files/32004/32004-h/images/illo3-right.jpg
p22
aVhttp://www.gutenberg.org/files/32004/32004-h/images/illo3.jpg
p23
asS'language_code'
p24
NsS'id'
p25
I326
sS'category'
p26
VText
p27
sS'genres'
p28
(lp29
sS'copyright'
p30
VPublic domain in the USA.
p31
sS'title'
p32
VThe Knights of Arthur
p33
sS'wikipedia'
p34
(dp35
S'found'
p36
I00
ssS'average_rating'
p37
F3.31
sS'rating_count'
p38
I49
sS'content_available'
p39
I01
sS'cover_art_url'
p40
S'http://www.gutenberg.org/cache/epub/32004/pg32004.cover.medium.jpg'
p41
sS'goodreads'
p42
(dp43
S'url'
p44
Vhttps://www.goodreads.com/book/show/8407667-the-knights-of-arthur
p45
sS'found'
p46
I01
sS'year'
p47
I1958
ssS'similar_books'
p48
(lp49
sS'description'
p50
VThere was three of us -- I mean if you count Arthur. We split up to avoid attracting attention. Engdahl just came in over the big bridge, but I had Arthur with me so I had to come the long way around.<br /><br />When I registered at the desk, I said I was from Chicago. You know how it is. If you say you're from Philadelphia, it's like saying you're from St. Louis or Detroit -- I mean "nobody" lives in Philadelphia any more. Shows how things change. A couple years ago, Philadelphia was all the fashion. But not now, and I wanted to make a good impression.<br /><br />I even tipped the bellboy a hundred and fifty dollars. I said: "Do me a favor. I've got my baggage booby-trapped --"<br /><br />"Natch," he said, only mildly impressed by the bill and a half, even less impressed by me.
p51
sS'gutenberg'
p52
(dp53
g44
Vhttp://www.gutenberg.org/ebooks/32004
p54
sS'num'
p55
I32004
ssS'authors'
p56
(lp57
I40
asS'pages'
p58
I48
sS'isbn13'
p59
NsS'language'
p60
VEnglish
p61
sS'countries'
p62
(lp63
I2
asS'release_date'
p64
S'2010-04-16T00:00:00'
p65
sS'author'
p66
I40
sS'content_cleaned'
p67
I01
sS'classes'
p68
(lp69
Vto-read
p70
aVscience-fiction
p71
aVebooks
p72
aVshort-stories
p73
aVfiction
p74
aVsci-fi
p75
aVunder-100-pages
p76
aVaudiobook
p77
aVebook
p78
aVcalibre
p79
aVfrederick-pohl
p80
aVbooks-i-own
p81
aVsf-short-stories-anthologies
p82
aVkindle
p83
aVpulp
p84
aVpost-apocalyptic
p85
aVamerican-literature
p86
aVto-read-short-stories
p87
aVowned
p88
aVaudio-books-read
p89
aV3-stars
p90
aVaudiobooks
p91
aVowned-pending-kindle-free-ebook
p92
aVz_fiction
p93
aVx_shortstory
p94
aVw_us_modern
p95
aVfinished-sci-fi-speculative-fiction
p96
aVbought_amazon_bek
p97
aV15
p98
aVebook-kindle-own
p99
aVaudio-book
p100
aVcurrently-reading
p101
aVshort-stories-and-novellas
p102
aVon-disk
p103
aVamazon
p104
aVracconto
p105
aVapocalyptic-dystopian-spec-fic
p106
aV2013-reads
p107
aVread-2013
p108
aVsf
p109
aVhave-ebook
p110
aVproject-gutenberg
p111
aVenglisch
p112
aVgenre
p113
aVfrederik-pohl
p114
aVfictionwise
p115
aVto-read-owned
p116
asS'loc_class'
p117
VPS: Language and Literatures: American and Canadian literature
p118
sS'n_authors'
p119
I1
sb.