ccopy_reg
_reconstructor
p0
(cdataset.Book
Book
p1
c__builtin__
object
p2
Ntp3
Rp4
(dp5
S'isbn'
p6
NsS'year'
p7
I2013
sS'author_name'
p8
VFrank Herbert
p9
sS'images_urls'
p10
(lp11
Vhttp://www.gutenberg.org/files/23210/23210-h/images/illu1.jpg
p12
aVhttp://www.gutenberg.org/files/23210/23210-h/images/illu1_th.jpg
p13
aVhttp://www.gutenberg.org/files/23210/23210-h/images/illu2.jpg
p14
aVhttp://www.gutenberg.org/files/23210/23210-h/images/illu2_th.jpg
p15
aVhttp://www.gutenberg.org/files/23210/23210-h/images/illu3.jpg
p16
aVhttp://www.gutenberg.org/files/23210/23210-h/images/illu3_th.jpg
p17
aVhttp://www.gutenberg.org/files/23210/23210-h/images/initial.jpg
p18
aVhttp://www.gutenberg.org/files/23210/23210-page-images/p100-image.png
p19
aVhttp://www.gutenberg.org/files/23210/23210-page-images/p100.png
p20
aVhttp://www.gutenberg.org/files/23210/23210-page-images/p101.png
p21
aVhttp://www.gutenberg.org/files/23210/23210-page-images/p102.png
p22
aVhttp://www.gutenberg.org/files/23210/23210-page-images/p103.png
p23
aVhttp://www.gutenberg.org/files/23210/23210-page-images/p104.png
p24
aVhttp://www.gutenberg.org/files/23210/23210-page-images/p105.png
p25
aVhttp://www.gutenberg.org/files/23210/23210-page-images/p106.png
p26
aVhttp://www.gutenberg.org/files/23210/23210-page-images/p107.png
p27
aVhttp://www.gutenberg.org/files/23210/23210-page-images/p108-image.png
p28
aVhttp://www.gutenberg.org/files/23210/23210-page-images/p108.png
p29
aVhttp://www.gutenberg.org/files/23210/23210-page-images/p109-image.png
p30
aVhttp://www.gutenberg.org/files/23210/23210-page-images/p109.png
p31
aVhttp://www.gutenberg.org/files/23210/23210-page-images/p110.png
p32
aVhttp://www.gutenberg.org/files/23210/23210-page-images/p111.png
p33
aVhttp://www.gutenberg.org/files/23210/23210-page-images/p112.png
p34
aVhttp://www.gutenberg.org/files/23210/23210-page-images/p113.png
p35
aVhttp://www.gutenberg.org/files/23210/23210-page-images/p114.png
p36
aVhttp://www.gutenberg.org/files/23210/23210-page-images/p115.png
p37
asS'language_code'
p38
Veng
p39
sS'images'
p40
(lp41
sS'id'
p42
I257
sS'category'
p43
VText
p44
sS'genres'
p45
(lp46
sS'copyright'
p47
VPublic domain in the USA.
p48
sS'title'
p49
VMissing Link
p50
sS'wikipedia'
p51
(dp52
S'url'
p53
Vhttps://en.wikipedia.org/wiki/The_Collected_Stories_of_Frank_Herbert
p54
sS'found'
p55
I01
sS'year'
p56
I-1
ssS'published_in'
p57
NsS'average_rating'
p58
F4.21
sS'rating_count'
p59
I8832
sS'content_available'
p60
I00
sS'goodreads'
p61
(dp62
g53
Vhttps://www.goodreads.com/book/show/18717917-the-missing-link
p63
sg55
I01
sg56
I2013
ssS'similar_books'
p64
(lp65
VCloak and Dagger (The IMA, #1)
p66
aVBullet to the Heart (No Mercy, #1)
p67
aVCatch (Assassins #1)
p68
aVLast Hit (Hitman, #1)
p69
aVFallen (Blood & Roses, #4)
p70
aVEdge of Obsession (SKALS, #3)
p71
aVEnslaved by the Ocean (Criminals of the Ocean, #1)
p72
aVThe Devil's Revenge (The Devil's Eyes, #2)
p73
aVThe End of Games (The Single Lady Spy, #2)
p74
aVSurviving Raine (Surviving Raine, #1)
p75
aVMobster's Girl (Mobster, #1)
p76
aVBrutally Beautiful (Beautiful, #1)
p77
aVThe Dark Light of Day (The Dark Light of Day, #1)
p78
aVFor Fallon (Chicago Syndicate, #1)
p79
aVReviving Izabel (In the Company of Killers, #2)
p80
aVOverflow (Carpino, #1)
p81
aVSpin (Corruption, #1)
p82
asS'description'
p83
VWarning: This book contains violence, excessive language, and strong sexual content. It's intended to be read by mature audiences. <br /><br />Part one of a two part series. <br /><br />There are three things Lily Evans immediately notices about her new neighbor, Jay Lincoln. The first is his monstrous size, the second is the malicious way he glares at her, and thirdly, but most importantly, the three scars that mark his right eye. She knows the smart thing to do is stay away, but she has never met or seen anyone like him. The more time she spends with this frightening yet captivating man, the harder it becomes. He can make her hairs stand on end but he also has a sweetness to him that tugs at her heart. Soon she finds herself merged into his world full of murder, revenge, and deceit.<br /><br />New Adult Romance
p84
sS'format'
p85
VKindle Edition
p86
sS'gutenberg'
p87
(dp88
g53
Vhttp://www.gutenberg.org/ebooks/23210
p89
sS'num'
p90
I23210
ssS'authors'
p91
(lp92
I63
asS'pages'
p93
I330
sS'isbn13'
p94
NsS'language'
p95
VEnglish
p96
sS'country'
p97
I2
sS'release_date'
p98
S'2007-10-27T00:00:00'
p99
sS'author'
p100
I63
sS'original_title'
p101
VThe Collected Stories of Frank Herbert
p102
sS'summary'
p103
VThe Collected Stories of Frank Herbert is the sixth, and first posthumous, anthology of short science fiction stories by American author Frank Herbert, released by Tor Books on November 18, 2014.
p104
sS'classes'
p105
(lp106
Vto-read
p107
aVfavorites
p108
aVcurrently-reading
p109
aVromance
p110
aVseries
p111
aVnew-adult
p112
aVromantic-suspense
p113
aVsuspense
p114
aVkindle
p115
aValpha-male
p116
aVcontemporary
p117
aVcontemporary-romance
p118
aVdnf
p119
aVmafia
p120
aVdark
p121
aVerotica
p122
aVcrime
p123
aVbad-boy
p124
aVcliffhanger
p125
aVkindle-unlimited
p126
aVmob
p127
aVmystery
p128
aVfreebie
p129
aVfavourites
p130
aVbad-boys
p131
aVfreebies
p132
aVmaybe
p133
aValpha
p134
aVread-in-2014
p135
aVsteamy
p136
aVaction
p137
aVread-2014
p138
aValpha-males
p139
aVassassin
p140
aVabuse
p141
aVadult
p142
aVthriller
p143
aV5-stars
p144
aVerotic-romance
p145
aV4-stars
p146
aVaction-packed
p147
aVangst
p148
aVebook
p149
aVfree
p150
aVj-m-sevilla
p151
aVdid-not-finish
p152
aVhitman
p153
aVangsty
p154
aVdark-romance
p155
aVmystery-suspense
p156
aVrevenge
p157
aVmafia-mob
p158
aVfavorite
p159
aVebooks
p160
aVon-kindle
p161
aVamazon
p162
aVkindle-freebie
p163
aVe-book
p164
aVkidnapped
p165
aVassassins
p166
aVfavs
p167
aVboring
p168
aVpart-of-series
p169
aVviolence
p170
aVfav
p171
aVfriends-to-lovers
p172
aV2014-read
p173
aVdidn-t-finish
p174
aVdrama
p175
aVkindle-freebies
p176
aVlendable
p177
aVlove
p178
aVerotic
p179
aVkindle-books
p180
aVmust-read
p181
aVowned-books
p182
aVtortured-hero
p183
aVpart-of-a-series
p184
aVsuspense-romance
p185
aVbook-boyfriends
p186
aVfirst-in-series
p187
aVbooks-i-own
p188
aVfavorite-series
p189
aVloved
p190
aVbadass
p191
aVromance-suspense
p192
aVmafia-romance
p193
aVcliff-hanger
p194
aVku
p195
aVread-in-2015
p196
aVdownloaded
p197
aVunfinished
p198
aVna
p199
aVdeath
p200
aVkidnapping
p201
aVloved-it
p202
aVall-time-favorites
p203
aVbook-boyfriend
p204
aValpha-hero
p205
aVmy-favorites
p206
asS'loc_class'
p207
VPS: Language and Literatures: American and Canadian literature
p208
sS'n_authors'
p209
I1
sb.