ccopy_reg
_reconstructor
p0
(cdataset.Book
Book
p1
c__builtin__
object
p2
Ntp3
Rp4
(dp5
S'similar_books'
p6
(lp7
sS'genres'
p8
(lp9
sS'author'
p10
I302
sS'countries'
p11
(lp12
I2
asS'year'
p13
I1967
sS'title'
p14
VGalaxy Magazine February 1967
p15
sS'cover'
p16
Vhttps://ia800200.us.archive.org/BookReader/BookReaderImages.php?zip=/5/items/Galaxy_v25n03_1967-02/Galaxy_v25n03_1967-02_jp2.zip&file=Galaxy_v25n03_1967-02_jp2/Galaxy_v25n03_1967-02_0000.jp2&scale=0&rotate=0
p17
sS'cover_art'
p18
S'http://www.isfdb.org/wiki/images/7/7b/GALFEB67.jpg'
p19
sS'author_name'
p20
VGalaxy Magazine
p21
sS'images_urls'
p22
(lp23
sS'authors'
p24
(lp25
I499
aI615
aI545
aI40
aI339
aI326
aI91
aI217
aI602
aI89
aI8
aI158
aI81
aI74
aI608
aI302
asS'images'
p26
(lp27
sS'id'
p28
I1116
sS'contents'
p29
(lp30
(dp31
g10
I499
sg14
VOur Man in Peking
p32
sa(dp33
g10
I499
sg14
VOur Man in Peking [2]
p34
sa(dp35
g10
I499
sg14
VOur Man in Peking [3]
p36
sa(dp37
g10
I499
sg14
VOur Man in Peking [4]
p38
sa(dp39
g10
I615
sg14
VThey Hilariated When I Hyperspaced for Earth
p40
sa(dp41
g10
I615
sg14
VThey Hilariated When I Hyperspaced for Earth [2]
p42
sa(dp43
g10
I615
sg14
VThey Hilariated When I Hyperspaced for Earth [3]
p44
sa(dp45
g10
I615
sg14
VThey Hilariated When I Hyperspaced for Earth [4]
p46
sa(dp47
g10
I545
sg14
VThe Palace of Love (Part 3 of 3)
p48
sa(dp49
g10
I545
sg14
VThe Palace of Love (Part 3 of 3) [2]
p50
sa(dp51
g10
I40
sg14
VMore About Being Bad
p52
sa(dp53
g10
I339
sg14
VFor Your Information: Who Invented the Crossbow?
p54
sa(dp55
g10
I326
sg14
VForecast (Galaxy, February 1967)
p56
sa(dp57
g10
I91
sg14
VGalaxy Bookshelf (Galaxy, February 1967)
p58
sa(dp59
g10
I217
sg14
VThey Hilariated When I Hyperspaced for Earth
p60
sa(dp61
g10
I602
sg14
VOur Man in Peking
p62
sa(dp63
g10
I89
sg14
VThe Palace of Love (Part 3 of 3)
p64
sa(dp65
g10
I8
sg14
VReturn Match
p66
sa(dp67
g10
I158
sg14
VThe Last Filibuster
p68
sa(dp69
g10
I81
sg14
VThe Trojan Bombardment
p70
sa(dp71
g10
I74
sg14
VThus We Frustrate Charlemagne
p72
sa(dp73
g10
I608
sg14
VThe Discovery of the Nullitron
p74
sasb.