ccopy_reg
_reconstructor
p0
(cdataset.Book
Book
p1
c__builtin__
object
p2
Ntp3
Rp4
(dp5
S'similar_books'
p6
(lp7
sS'genres'
p8
(lp9
sS'author'
p10
I302
sS'countries'
p11
(lp12
I2
asS'year'
p13
I1963
sS'title'
p14
VGalaxy Magazine August 1963
p15
sS'cover'
p16
Vhttps://ia600209.us.archive.org/BookReader/BookReaderImages.php?zip=/3/items/Galaxy_v21n06_1963-08/Galaxy_v21n06_1963-08_jp2.zip&file=Galaxy_v21n06_1963-08_jp2/Galaxy_v21n06_1963-08_0000.jp2&scale=0&rotate=0
p17
sS'cover_art'
p18
S'http://www.isfdb.org/wiki/images/3/34/GALAUG1963.jpg'
p19
sS'author_name'
p20
VGalaxy Magazine
p21
sS'images_urls'
p22
(lp23
sS'authors'
p24
(lp25
I497
aI519
aI551
aI581
aI556
aI40
aI339
aI326
aI341
aI583
aI56
aI70
aI143
aI356
aI50
aI192
aI302
asS'images'
p26
(lp27
sS'id'
p28
I1096
sS'contents'
p29
(lp30
(dp31
S'title'
p32
VHot Planet
p33
sS'author'
p34
I497
sa(dp35
g32
VHot Planet [2]
p36
sg34
I497
sa(dp37
g32
VHot Planet [3]
p38
sg34
I497
sa(dp39
g32
VHot Planet [4]
p40
sg34
I497
sa(dp41
g32
VThe Great Nebraska Sea
p42
sg34
I519
sa(dp43
g32
VThe Great Nebraska Sea [2]
p44
sg34
I519
sa(dp45
g32
VThe Great Nebraska Sea [3]
p46
sg34
I519
sa(dp47
g32
VThe Great Nebraska Sea [4]
p48
sg34
I519
sa(dp49
g32
VThe Problem Makers
p50
sg34
I551
sa(dp51
g32
VThe Problem Makers [2]
p52
sg34
I551
sa(dp53
g32
VThe Pain Peddlers
p54
sg34
I581
sa(dp55
g32
VHere Gather the Stars (Part 2 of 2)
p56
sg34
I519
sa(dp57
g32
VHere Gather the Stars (Part 2 of 2) [2]
p58
sg34
I519
sa(dp59
g32
VHere Gather the Stars (Part 2 of 2) [3]
p60
sg34
I519
sa(dp61
g32
VHere Gather the Stars (Part 2 of 2) [4]
p62
sg34
I519
sa(dp63
g32
VThe Birds of Lorrane
p64
sg34
I556
sa(dp65
g32
VThe Birds of Lorrane [2]
p66
sg34
I556
sa(dp67
g32
VSpacewar, 1963
p68
sg34
I40
sa(dp69
g32
VFor Your Information (Galaxy, August 1963)
p70
sg34
I339
sa(dp71
g32
VForecast (Galaxy, August 1963)
p72
sg34
I326
sa(dp73
g32
VGalaxy's 5 Star Shelf: The Immense and the Outrageous
p74
sg34
I341
sa(dp75
g32
VThe Problem Makers
p76
sg34
I583
sa(dp77
g32
VHere Gather the Stars (Part 2 of 2)
p78
sg34
I56
sa(dp79
g32
VHot Planet
p80
sg34
I70
sa(dp81
g32
VThe Great Nebraska Sea
p82
sg34
I143
sa(dp83
g32
VEarthbound
p84
sg34
I356
sa(dp85
g32
VThe Pain Peddlers
p86
sg34
I50
sa(dp87
g32
VThe Birds of Lorrane
p88
sg34
I192
sasb.