ccopy_reg
_reconstructor
p0
(cdataset.Book
Book
p1
c__builtin__
object
p2
Ntp3
Rp4
(dp5
S'content_name'
p6
V51867.txt.utf-8
p7
sS'isbn'
p8
NsS'year'
p9
I1961
sS'author_name'
p10
VEvelyn E. Smith
p11
sS'images_urls'
p12
(lp13
Vhttp://www.gutenberg.org/files/51867/51867-h/images/cover.jpg
p14
aVhttp://www.gutenberg.org/files/51867/51867-h/images/illus1.jpg
p15
aVhttp://www.gutenberg.org/files/51867/51867-h/images/illus2.jpg
p16
aVhttp://www.gutenberg.org/files/51867/51867-h/images/illus3.jpg
p17
aVhttp://www.gutenberg.org/files/51867/51867-h/images/illus4.jpg
p18
aVhttp://www.gutenberg.org/files/51867/51867-h/images/illus5.jpg
p19
asS'language_code'
p20
NsS'images'
p21
(lp22
sS'id'
p23
I516
sS'category'
p24
VText
p25
sS'plot'
p26
VWhen the Viking 1 space probe lands on Minerva in 1976 it takes a picture of a native Minervan wielding a primitive tool, thus proving the existence of intelligent life on other worlds.\u000aThe main action of the story involves separate American and Soviet missions, who both pay lip service to non-interference with Minervan society, but in the course of their research, the teams' respective political ideologies inevitably come to the fore. This leads the teams and their commanders back home to use the Minervans in a transparent analogy to Third World/Cold War proxy conflicts on Earth. One of the Americans saves the life of a female Minervan after she gives birth. Eventually Minervans get their hands on high tech items like steel hatchets, rubber rafts, and finally AK-74s, which severely disrupt their way of life.
p27
sS'genres'
p28
(lp29
sS'copyright'
p30
VPublic domain in the USA.
p31
sS'title'
p32
VSentry Of The Sky
p33
sS'wikipedia'
p34
(dp35
S'url'
p36
Vhttps://en.wikipedia.org/wiki/A_World_of_Difference_(novel)
p37
sS'found'
p38
I01
sS'year'
p39
I-1
ssS'published_in'
p40
NsS'average_rating'
p41
F0.0
sS'rating_count'
p42
I0
sS'content_available'
p43
I01
sS'cover_art_url'
p44
S'http://www.gutenberg.org/cache/epub/51867/pg51867.cover.medium.jpg'
p45
sS'goodreads'
p46
(dp47
g36
Vhttps://www.goodreads.com/book/show/32908448-sentry-of-the-sky
p48
sg38
I01
sg39
I-1
ssS'similar_books'
p49
(lp50
sS'description'
p51
NsS'format'
p52
NsS'gutenberg'
p53
(dp54
g36
Vhttp://www.gutenberg.org/ebooks/51867
p55
sS'num'
p56
I51867
ssS'authors'
p57
(lp58
I172
asS'isbn13'
p59
NsS'language'
p60
VEnglish
p61
sS'countries'
p62
(lp63
I2
asS'release_date'
p64
S'2016-04-26T00:00:00'
p65
sS'author'
p66
I172
sS'original_title'
p67
VA World of Difference (novel)
p68
sS'summary'
p69
VA World of Difference is a 1990 science fiction novel by Harry Turtledove.\u000a\u000a
p70
sS'content_cleaned'
p71
I01
sS'classes'
p72
(lp73
Vto-read
p74
aVunknown-publication-dates
p75
aVfree-from-amazon
p76
asS'loc_class'
p77
S''
p78
sS'n_authors'
p79
I1
sb.