ccopy_reg
_reconstructor
p0
(cdataset.Book
Book
p1
c__builtin__
object
p2
Ntp3
Rp4
(dp5
S'content_name'
p6
V24558.txt.utf-8
p7
sS'isbn'
p8
NsS'year'
p9
I1962
sS'author_name'
p10
VJames H. Schmitz
p11
sS'images_urls'
p12
(lp13
Vhttp://www.gutenberg.org/files/24558/24558-h/images/001.png
p14
aVhttp://www.gutenberg.org/files/24558/24558-h/images/002.png
p15
aVhttp://www.gutenberg.org/files/24558/24558-h/images/003.png
p16
asS'language_code'
p17
NsS'id'
p18
I860
sS'category'
p19
VText
p20
sS'genres'
p21
(lp22
sS'copyright'
p23
VPublic domain in the USA.
p24
sS'title'
p25
VWatch the Sky
p26
sS'wikipedia'
p27
(dp28
S'found'
p29
I00
ssS'average_rating'
p30
F3.46
sS'rating_count'
p31
I4
sS'content_available'
p32
I01
sS'goodreads'
p33
(dp34
S'url'
p35
S'https://www.goodreads.com/book/show/10197389-watch-the-sky'
p36
sS'found'
p37
I01
ssS'similar_books'
p38
(lp39
sS'description'
p40
VThis work has been previously published and carefully edited by humans to be read digitally on your eReader. Please enjoy this historical and classic work. All of our titles are only 99 cents and are formatted to work with the Nook. Also, if it is an illustrated work, you will be able to see all of the original images. This makes them the best quality classic works available for the lowest price. So enjoy this classic work as if it were the original book!
p41
sS'gutenberg'
p42
(dp43
S'url'
p44
Vhttp://www.gutenberg.org/ebooks/24558
p45
sS'num'
p46
I24558
ssS'authors'
p47
(lp48
I136
asS'isbn13'
p49
V2940011992216
p50
sS'language'
p51
VEnglish
p52
sS'countries'
p53
(lp54
I2
asS'release_date'
p55
S'2008-02-09T00:00:00'
p56
sS'author'
p57
I136
sS'content_cleaned'
p58
I01
sS'classes'
p59
(lp60
Vto-read
p61
aVsf
p62
aVscience-fiction
p63
aV1960s-1970s-sf-silver-age
p64
aVshort-stories-novellas
p65
aVe-book
p66
asS'loc_class'
p67
VPS: Language and Literatures: American and Canadian literature
p68
sS'n_authors'
p69
I1
sb.