ccopy_reg
_reconstructor
p0
(cdataset.Book
Book
p1
c__builtin__
object
p2
Ntp3
Rp4
(dp5
S'content_name'
p6
V29989.txt.utf-8
p7
sS'isbn'
p8
NsS'year'
p9
I1961
sS'author_name'
p10
VH. B. Fyfe
p11
sS'images_urls'
p12
(lp13
Vhttp://www.gutenberg.org/files/29989/29989-h/images/image_001.jpg
p14
aVhttp://www.gutenberg.org/files/29989/29989-h/images/image_i.jpg
p15
asS'language_code'
p16
NsS'id'
p17
I733
sS'category'
p18
VText
p19
sS'genres'
p20
(lp21
sS'copyright'
p22
VPublic domain in the USA.
p23
sS'title'
p24
VThe Outbreak of Peace
p25
sS'wikipedia'
p26
(dp27
S'found'
p28
I00
ssS'average_rating'
p29
F5.0
sS'rating_count'
p30
I3
sS'content_available'
p31
I01
sS'goodreads'
p32
(dp33
S'url'
p34
S'https://www.goodreads.com/book/show/24750300-the-outbreak-of-peace'
p35
sS'found'
p36
I01
ssS'similar_books'
p37
(lp38
sS'description'
p39
NsS'gutenberg'
p40
(dp41
S'url'
p42
Vhttp://www.gutenberg.org/ebooks/29989
p43
sS'num'
p44
I29989
ssS'authors'
p45
(lp46
I94
asS'isbn13'
p47
NsS'language'
p48
VEnglish
p49
sS'countries'
p50
(lp51
I2
asS'release_date'
p52
S'2009-09-14T00:00:00'
p53
sS'author'
p54
I94
sS'cover'
p55
Vhttps://s.gr-assets.com/assets/nophoto/book/111x148-bcc042a9c91a29c1d680899eff700a03.png
p56
sS'content_cleaned'
p57
I01
sS'classes'
p58
(lp59
Vto-read
p60
aVfree-from-amazon
p61
aVclassic
p62
aVcurrently-reading
p63
asS'loc_class'
p64
VPS: Language and Literatures: American and Canadian literature
p65
sS'n_authors'
p66
I1
sb.