ccopy_reg
_reconstructor
p0
(cdataset.Book
Book
p1
c__builtin__
object
p2
Ntp3
Rp4
(dp5
S'content_name'
p6
V51194.txt.utf-8
p7
sS'isbn'
p8
V0263720039
p9
sS'year'
p10
I1951
sS'author_name'
p11
VWilliam Campbell Gault
p12
sS'images_urls'
p13
(lp14
Vhttp://www.gutenberg.org/files/51194/51194-h/images/cover.jpg
p15
aVhttp://www.gutenberg.org/files/51194/51194-h/images/illus1.jpg
p16
aVhttp://www.gutenberg.org/files/51194/51194-h/images/illus2.jpg
p17
aVhttp://www.gutenberg.org/files/51194/51194-h/images/illus3.jpg
p18
aVhttp://www.gutenberg.org/files/51194/51194-h/images/illus4.jpg
p19
aVhttp://www.gutenberg.org/files/51194/51194-h/images/illus5.jpg
p20
asS'language_code'
p21
Veng
p22
sS'images'
p23
(lp24
sS'id'
p25
I666
sS'category'
p26
VText
p27
sS'genres'
p28
(lp29
sS'copyright'
p30
VPublic domain in the USA.
p31
sS'title'
p32
VMade to Measure
p33
sS'wikipedia'
p34
(dp35
S'found'
p36
I00
ssS'average_rating'
p37
F2.5
sS'rating_count'
p38
I14
sS'content_available'
p39
I01
sS'cover_art_url'
p40
S'http://www.gutenberg.org/cache/epub/51194/pg51194.cover.medium.jpg'
p41
sS'goodreads'
p42
(dp43
S'url'
p44
Vhttps://www.goodreads.com/book/show/13502043-wife-made-to-measure
p45
sg36
I01
sS'year'
p46
I1976
ssS'similar_books'
p47
(lp48
sS'description'
p49
VJocelyn had been more or less bullied into marrying Simon Wadebridge, although she had never doubted her feelings for him.<br /><br />It was Simon's feelings for her that made her uneasy -- and his feelings for all the other beautiful women in his life.
p50
sS'format'
p51
VPaperback
p52
sS'gutenberg'
p53
(dp54
g44
Vhttp://www.gutenberg.org/ebooks/51194
p55
sS'num'
p56
I51194
ssS'authors'
p57
(lp58
I218
asS'pages'
p59
I186
sS'isbn13'
p60
V9780263720039
p61
sS'language'
p62
VEnglish
p63
sS'countries'
p64
(lp65
I2
asS'release_date'
p66
S'2016-02-12T00:00:00'
p67
sS'author'
p68
I218
sS'content_cleaned'
p69
I01
sS'classes'
p70
(lp71
Vto-read
p72
aVmarriage-of-convenience
p73
aVromance
p74
aVolder-harlequin
p75
aVvintage
p76
aVscenes-from-a-marriage
p77
aVblack-library-on-line
p78
aVangst-by-misunderstanding-lies
p79
aVangst-by-male-chauvinist
p80
aVbought
p81
aVharlequin-romance
p82
aVdnf
p83
aVread-1998
p84
aVadd-2012-read
p85
aVboss-employee-relationship
p86
asS'loc_class'
p87
S''
p88
sS'n_authors'
p89
I1
sb.