ccopy_reg
_reconstructor
p0
(cdataset.Book
Book
p1
c__builtin__
object
p2
Ntp3
Rp4
(dp5
S'content_name'
p6
V22966.txt.utf-8
p7
sS'isbn'
p8
NsS'year'
p9
I1962
sS'author_name'
p10
VHarry Harrison
p11
sS'images_urls'
p12
(lp13
Vhttp://www.gutenberg.org/files/22966/22966-h/images/001.png
p14
aVhttp://www.gutenberg.org/files/22966/22966-h/images/002.png
p15
aVhttp://www.gutenberg.org/files/22966/22966-h/images/003.png
p16
aVhttp://www.gutenberg.org/files/22966/22966-page-images/p056.png
p17
aVhttp://www.gutenberg.org/files/22966/22966-page-images/p057.png
p18
aVhttp://www.gutenberg.org/files/22966/22966-page-images/p058.png
p19
aVhttp://www.gutenberg.org/files/22966/22966-page-images/p059.png
p20
aVhttp://www.gutenberg.org/files/22966/22966-page-images/p060-image.png
p21
aVhttp://www.gutenberg.org/files/22966/22966-page-images/p060.png
p22
aVhttp://www.gutenberg.org/files/22966/22966-page-images/p061.png
p23
asS'language_code'
p24
NsS'images'
p25
(lp26
sS'id'
p27
I210
sS'category'
p28
VText
p29
sS'genres'
p30
(lp31
sS'copyright'
p32
VPublic domain in the USA.
p33
sS'title'
p34
VToy Shop
p35
sS'wikipedia'
p36
(dp37
S'found'
p38
I00
ssS'average_rating'
p39
F3.38
sS'rating_count'
p40
I90
sS'content_available'
p41
I01
sS'goodreads'
p42
(dp43
S'url'
p44
Vhttps://www.goodreads.com/book/show/6382690-toy-shop
p45
sg38
I01
sS'year'
p46
I2009
ssS'similar_books'
p47
(lp48
sS'description'
p49
NsS'gutenberg'
p50
(dp51
g44
Vhttp://www.gutenberg.org/ebooks/22966
p52
sS'num'
p53
I22966
ssS'authors'
p54
(lp55
I16
asS'pages'
p56
I18
sS'isbn13'
p57
NsS'language'
p58
VEnglish
p59
sS'countries'
p60
(lp61
I2
asS'release_date'
p62
S'2007-10-12T00:00:00'
p63
sS'author'
p64
I16
sS'cover'
p65
Vhttps://s.gr-assets.com/assets/nophoto/book/111x148-bcc042a9c91a29c1d680899eff700a03.png
p66
sS'content_cleaned'
p67
I01
sS'classes'
p68
(lp69
Vto-read
p70
aVscience-fiction
p71
aVsci-fi
p72
aVshort-stories
p73
aVshort-story
p74
aVfiction
p75
aVkindle
p76
aVshort
p77
aVcurrently-reading
p78
aVebook
p79
aVscifi
p80
aVscience-fiction-shelf
p81
aVfiction-without_romantic
p82
aVfiction-fantastic
p83
aVfavorite
p84
aVcompleted-books
p85
aV0-50pgs
p86
aVnook
p87
aVbp
p88
aVshort-fiction
p89
aVkindle-freebie
p90
aVshort-stories-or-novellas
p91
aVread-in-2011
p92
aV4-stories
p93
aVyoutube-audiobooks
p94
aV7-audiobook
p95
aVnot-owned
p96
aVaudio
p97
aVnarration
p98
aVaudiobooks
p99
aVbek_purc_amz_0
p100
aVhow-kindle
p101
aVaudio-obtained-lvss
p102
aVaudio-books-read
p103
aV3-stars
p104
aVother
p105
aVnook-59-sci-fi-classics
p106
aVscifi-and-horror
p107
aVscience-ficton
p108
aVebooks
p109
aVamazon
p110
aVfeedbooks-com
p111
aV2014-short-stories
p112
aVnot-read
p113
aVgenre-short-stories
p114
aVgenre-science-fiction
p115
aVe-reader
p116
aVfreebie
p117
aVharry-harrison
p118
aVaudiobook
p119
aVfantasy
p120
aVownebook
p121
aVtype-short-story
p122
aVaudio-obtained-ss
p123
aV3-novals
p124
asS'loc_class'
p125
VPS: Language and Literatures: American and Canadian literature
p126
sS'n_authors'
p127
I1
sb.