ccopy_reg
_reconstructor
p0
(cdataset.Book
Book
p1
c__builtin__
object
p2
Ntp3
Rp4
(dp5
S'content_name'
p6
V29579.txt.utf-8
p7
sS'isbn'
p8
NsS'year'
p9
I1953
sS'author_name'
p10
VRobert Sheckley
p11
sS'images_urls'
p12
(lp13
Vhttp://www.gutenberg.org/files/29579/29579-h/images/001.png
p14
aVhttp://www.gutenberg.org/files/29579/29579-h/images/002.png
p15
aVhttp://www.gutenberg.org/files/29579/29579-h/images/003.png
p16
aVhttp://www.gutenberg.org/files/29579/29579-h/images/004.png
p17
aVhttp://www.gutenberg.org/files/29579/29579-h/images/005.png
p18
aVhttp://www.gutenberg.org/files/29579/29579-h/images/006-1.jpg
p19
aVhttp://www.gutenberg.org/files/29579/29579-h/images/006-2.jpg
p20
asS'language_code'
p21
Veng
p22
sS'id'
p23
I187
sS'category'
p24
VText
p25
sS'genres'
p26
(lp27
sS'copyright'
p28
VPublic domain in the USA.
p29
sS'title'
p30
VWatchbird
p31
sS'wikipedia'
p32
(dp33
S'found'
p34
I00
ssS'average_rating'
p35
F4.14
sS'rating_count'
p36
I138
sS'content_available'
p37
I01
sS'goodreads'
p38
(dp39
S'url'
p40
Vhttps://www.goodreads.com/book/show/6681108-watchbird
p41
sS'found'
p42
I01
sS'year'
p43
I1990
ssS'similar_books'
p44
(lp45
VThe Death Clock
p46
aVThe Disintegration Machine (Professor Challenger, #5)
p47
aVThe Wind Has Teeth Tonight: A Gwennie Story (The Heartland Trilogy #0.5)
p48
aVReal Lies
p49
aVThe Souls of the Ships
p50
aVPigeons from Hell
p51
aVThe Marching Morons
p52
aVRag and Bone
p53
aVProfession
p54
aVSelected from Dark They Were and Golden-Eyed
p55
aVPoet Anderson: The Dream Walker
p56
aVOtto Von Trapezoid and the Empress of Thieves
p57
aVThe Dreadful Fate of Jonathan York: A Yarn for the Strange at Heart
p58
aVDiary of an AssCan: A Mark Watney Short Story (The Martian, #0.5)
p59
aVFree Five: Flash Fiction
p60
aVSword of Lies
p61
aVA Circle Of Iron (Eldernost, #1)
p62
aVWhat the Dead Fear
p63
asS'description'
p64
VStrange how often the Millennium has been at hand. The idea is peace on Earth, see, and the way to do it is by figuring out angles.
p65
sS'gutenberg'
p66
(dp67
g40
Vhttp://www.gutenberg.org/ebooks/29579
p68
sS'num'
p69
I29579
ssS'authors'
p70
(lp71
I23
asS'isbn13'
p72
NsS'language'
p73
VEnglish
p74
sS'countries'
p75
(lp76
I2
asS'release_date'
p77
S'2009-08-02T00:00:00'
p78
sS'author'
p79
I23
sS'cover'
p80
Vhttps://s.gr-assets.com/assets/nophoto/book/111x148-bcc042a9c91a29c1d680899eff700a03.png
p81
sS'content_cleaned'
p82
I01
sS'classes'
p83
(lp84
Vto-read
p85
aVscience-fiction
p86
aVshort-stories
p87
aVsci-fi
p88
aVfiction
p89
aVsci-fi-fantasy
p90
aVamerican
p91
aVfantasy
p92
aVebooks
p93
aVclassics
p94
aVfavorites
p95
aVreviewed
p96
aVsf
p97
aVsf-fantasy
p98
aVaudiobook
p99
aV20th-century-lit
p100
aVaudiobooks-read
p101
aV3-stars
p102
aVthere-should-be-a-band
p103
aVshort-stories-novellas
p104
aVkindle
p105
aVcrime-whodunits
p106
aVcomedy-satire
p107
aVscifi
p108
aVunowned
p109
aVhumor
p110
aVaudiobooks
p111
aVneed
p112
aV\u10e1\u10d0\u10e8\u10e3\u10d0\u10da\u10dd-\u10e4\u10d0\u10dc\u10e2\u10d0\u10e1\u10e2\u10d8\u10d9\u10d0
p113
aVread-in-2016
p114
aVsampled-and-liked
p115
aVmainstream
p116
aV\u10e4\u10d0\u10dc\u10e2\u10d0\u10e1\u10e2\u10d8\u10d9\u10d0-\u10e4\u10d4\u10dc\u10e2\u10d4\u10d6\u10d8-\u10e1\u10d0\u10d8\u10e4\u10d0\u10d8-\u10d4\u10e2\u10ea
p117
aVdystopian
p118
aVlooking-for
p119
aVshort-story
p120
aVfood-for-thought
p121
aVbooks-i-reviewed
p122
aVbooks-i-recommend
p123
aV\u10e0\u10e9\u10d4\u10e3\u10da\u10d8-\u10db\u10dd\u10d7\u10ee\u10e0\u10dd\u10d1\u10d4\u10d1\u10d8
p124
aVfavorite-sci-fi
p125
aVlibrivox
p126
aVthe-end-of-the-world
p127
aVdystopia
p128
aVaudio-books
p129
aVaudio-obtained
p130
aVread-in-my-50s
p131
aVliked-it
p132
aVto-read-sci-fi
p133
aVread-in-2014
p134
aVg
p135
aVeb-other
p136
aVeb
p137
aVbellow_100_ratings
p138
aVfiction-sf
p139
aVrobert-sheckley
p140
aVseen-movie
p141
aVhorror-thriller-etc
p142
aVin-ru
p143
aVaround-the-usa
p144
aVto-read-owned
p145
aVsci-fi-and-horror
p146
aVshort-read
p147
aVe-book
p148
aVaudio-book
p149
aVenglish-american
p150
aVfantasy-utopia-magic
p151
aV\u10e4\u10d0\u10dc\u10e2\u10d0\u10e1\u10e2\u10d8\u10d9\u10d0
p152
aVaudiobooks-to-read
p153
aVaudio-obtained-lvss
p154
aVto-read-own
p155
aV2013-reads
p156
aVaaaaaaaa
p157
asS'loc_class'
p158
VPS: Language and Literatures: American and Canadian literature
p159
sS'n_authors'
p160
I1
sb.