ccopy_reg
_reconstructor
p0
(cdataset.Book
Book
p1
c__builtin__
object
p2
Ntp3
Rp4
(dp5
S'content_name'
p6
V23868.txt.utf-8
p7
sS'isbn'
p8
NsS'year'
p9
I1959
sS'author_name'
p10
VC. C. Beck
p11
sS'images_urls'
p12
(lp13
Vhttp://www.gutenberg.org/files/23868/23868-h/images/001.png
p14
aVhttp://www.gutenberg.org/files/23868/23868-h/images/002.png
p15
aVhttp://www.gutenberg.org/files/23868/23868-page-images/p135-image.png
p16
aVhttp://www.gutenberg.org/files/23868/23868-page-images/p135.png
p17
aVhttp://www.gutenberg.org/files/23868/23868-page-images/p136.png
p18
aVhttp://www.gutenberg.org/files/23868/23868-page-images/p137.png
p19
aVhttp://www.gutenberg.org/files/23868/23868-page-images/p138.png
p20
aVhttp://www.gutenberg.org/files/23868/23868-page-images/p139.png
p21
asS'language_code'
p22
NsS'images'
p23
(lp24
sS'id'
p25
I569
sS'category'
p26
VText
p27
sS'genres'
p28
(lp29
sS'copyright'
p30
VPublic domain in the USA.
p31
sS'title'
p32
VVanishing Point
p33
sS'wikipedia'
p34
(dp35
S'found'
p36
I00
ssS'average_rating'
p37
F3.9
sS'rating_count'
p38
I25
sS'content_available'
p39
I01
sS'goodreads'
p40
(dp41
S'url'
p42
S'https://www.goodreads.com/book/show/9774746-vanishing-point'
p43
sS'found'
p44
I01
ssS'similar_books'
p45
(lp46
sS'description'
p47
NsS'gutenberg'
p48
(dp49
S'url'
p50
Vhttp://www.gutenberg.org/ebooks/23868
p51
sS'num'
p52
I23868
ssS'authors'
p53
(lp54
I189
asS'isbn13'
p55
NsS'language'
p56
VEnglish
p57
sS'countries'
p58
(lp59
I2
asS'release_date'
p60
S'2007-12-15T00:00:00'
p61
sS'author'
p62
I189
sS'cover'
p63
Vhttps://s.gr-assets.com/assets/nophoto/book/111x148-bcc042a9c91a29c1d680899eff700a03.png
p64
sS'content_cleaned'
p65
I01
sS'classes'
p66
(lp67
Vscience-fiction
p68
aVaudiobooks
p69
aVto-read
p70
aVaudiobook
p71
aVlibrivox-short-story-collection-046
p72
aVshort-story
p73
aVaudio-obtained-lvss
p74
aV14
p75
aVa-adquirir-mesmo
p76
aVread-in-2013
p77
aVsci-fi
p78
aVtype-short-story
p79
aVaudio-obtained-ss
p80
asS'loc_class'
p81
VPS: Language and Literatures: American and Canadian literature
p82
sS'n_authors'
p83
I1
sb.