ccopy_reg
_reconstructor
p0
(cdataset.Book
Book
p1
c__builtin__
object
p2
Ntp3
Rp4
(dp5
S'content_name'
p6
V18861.txt.utf-8
p7
sS'isbn'
p8
V1428049061
p9
sS'year'
p10
I1951
sS'author_name'
p11
VH. Beam Piper
p12
sS'images_urls'
p13
(lp14
Vhttp://www.gutenberg.org/files/18861/18861-h/images/image_01.jpg
p15
aVhttp://www.gutenberg.org/files/18861/18861-h/images/image_02.jpg
p16
aVhttp://www.gutenberg.org/files/18861/18861-h/images/image_03.jpg
p17
aVhttp://www.gutenberg.org/files/18861/18861-h/images/image_04.jpg
p18
aVhttp://www.gutenberg.org/files/18861/18861-h/images/image_05.jpg
p19
aVhttp://www.gutenberg.org/files/18861/18861-h/images/image_06.jpg
p20
aVhttp://www.gutenberg.org/files/18861/18861-h/images/image_07.jpg
p21
asS'language_code'
p22
NsS'id'
p23
I467
sS'category'
p24
VText
p25
sS'genres'
p26
(lp27
sS'copyright'
p28
VPublic domain in the USA.
p29
sS'title'
p30
VTemple Trouble
p31
sS'wikipedia'
p32
(dp33
S'found'
p34
I00
ssS'average_rating'
p35
F3.55
sS'rating_count'
p36
I72
sS'content_available'
p37
I01
sS'goodreads'
p38
(dp39
S'url'
p40
Vhttps://www.goodreads.com/book/show/1440164.Temple_Trouble
p41
sS'found'
p42
I01
sS'year'
p43
I1957
ssS'similar_books'
p44
(lp45
sS'description'
p46
V[...]hereditary nobility on his breast, and carried a sigma-ray needler in a belt holster. "Were you waiting long, gentlemen?" Stranor Sleth asked. "I was holding Sunset Sacrifice up in the temple." "No, we just got here," Brannad Klav said. "This is Verkan Vall, Mavrad of Nerros, special assistant to Chief Tortha of the Paratime Police, Stranor Sleth, our resident agent here."[...].
p47
sS'format'
p48
NsS'gutenberg'
p49
(dp50
g40
Vhttp://www.gutenberg.org/ebooks/18861
p51
sS'num'
p52
I18861
ssS'authors'
p53
(lp54
I19
asS'isbn13'
p55
V9781428049062
p56
sS'language'
p57
VEnglish
p58
sS'countries'
p59
(lp60
I2
asS'release_date'
p61
S'2006-07-18T00:00:00'
p62
sS'author'
p63
I19
sS'content_cleaned'
p64
I01
sS'classes'
p65
(lp66
Vto-read
p67
aVscience-fiction
p68
aVsci-fi
p69
aVkindle
p70
aVcurrently-reading
p71
aVsf
p72
aVfiction
p73
aVshort-stories
p74
aVsi-fi
p75
aVscifi
p76
aValternate-history
p77
aVtime-travel
p78
aVh-beam-piper
p79
aVshort-story
p80
aVgalaktyka-gutenberga
p81
aVaudio
p82
aVaudiobooks
p83
aVowned-pending-kindle-free-ebook
p84
aVown-audiobook
p85
aVto-check-out
p86
aV15
p87
aVshort_stories
p88
aVthe-real-stuff
p89
aVon-disk
p90
aV2014-short-stories
p91
aVsf-challenge
p92
aVscience-fiction-alt-history
p93
aVto-buy
p94
aVe-books
p95
aVacquired
p96
aVin-anthology
p97
aVfavorite-authors
p98
aVebook
p99
aVmy-library
p100
aVsci-fi-or-speculative
p101
aVnovella
p102
aVpulp
p103
aVpolice
p104
aVparatime
p105
aVgenre-
p106
aVedition
p107
aVonline
p108
aVfree
p109
aVliterary
p110
aVmodern
p111
aV-
p112
aVstories
p113
aVshort
p114
aVgeneral
p115
aVclassic-lit
p116
aVcollected-classics
p117
aVbooks-on-kindle
p118
aVownebook
p119
aVpdfs
p120
asS'loc_class'
p121
VPS: Language and Literatures: American and Canadian literature
p122
sS'n_authors'
p123
I1
sb.