ccopy_reg
_reconstructor
p0
(cdataset.Book
Book
p1
c__builtin__
object
p2
Ntp3
Rp4
(dp5
S'similar_books'
p6
(lp7
sS'genres'
p8
(lp9
sS'author'
p10
I302
sS'countries'
p11
(lp12
I2
asS'year'
p13
I1960
sS'title'
p14
VGalaxy Magazine October 1960
p15
sS'cover'
p16
Vhttps://ia601307.us.archive.org/BookReader/BookReaderImages.php?zip=/14/items/Galaxy_v19n01_1960-10/Galaxy_v19n01_1960-10_jp2.zip&file=Galaxy_v19n01_1960-10_jp2/Galaxy_v19n01_1960-10_0000.jp2&scale=0&rotate=0
p17
sS'cover_art'
p18
S'http://www.isfdb.org/wiki/images/6/6b/GALOCT1960.jpg'
p19
sS'author_name'
p20
VGalaxy Magazine
p21
sS'images_urls'
p22
(lp23
sS'authors'
p24
(lp25
I419
aI506
aI519
aI553
aI556
aI305
aI339
aI483
aI326
aI179
aI558
aI105
aI166
aI284
aI211
aI278
aI251
aI401
aI315
aI302
asS'images'
p26
(lp27
sS'id'
p28
I1081
sS'contents'
p29
(lp30
(dp31
S'title'
p32
VWorld in a Bottle
p33
sS'author'
p34
I419
sa(dp35
g32
VWorld in a Bottle [2]
p36
sg34
I419
sa(dp37
g32
VWorld in a Bottle [3]
p38
sg34
I419
sa(dp39
g32
VThe Hills of Home
p40
sg34
I506
sa(dp41
g32
VThe Hills of Home [2]
p42
sg34
I506
sa(dp43
g32
VBeach Scene
p44
sg34
I519
sa(dp45
g32
VThe Imitation of Earth
p46
sg34
I553
sa(dp47
g32
VCry Snooker
p48
sg34
I419
sa(dp49
g32
VThe Stentorii Luggage
p50
sg34
I519
sa(dp51
g32
VThe Stentorii Luggage [2]
p52
sg34
I519
sa(dp53
g32
VThe Stentorii Luggage [3]
p54
sg34
I519
sa(dp55
g32
VA Fall of Glass
p56
sg34
I506
sa(dp57
g32
VThe Hours Are Good
p58
sg34
I556
sa(dp59
g32
VThe Immortals
p60
sg34
I419
sa(dp61
g32
VThe Immortals [2]
p62
sg34
I419
sa(dp63
g32
VThe Immortals [3]
p64
sg34
I419
sa(dp65
g32
VNotes
p66
sg34
I305
sa(dp67
g32
VFor Your Information: The Air On the Moon
p68
sg34
I339
sa(dp69
g32
VGalaxy's 5 Star Shelf (Galaxy, October 1960)
p70
sg34
I483
sa(dp71
g32
VForecast (Galaxy, October 1960)
p72
sg34
I326
sa(dp73
g32
VWorld in a Bottle
p74
sg34
I179
sa(dp75
g32
VThe Stentorii Luggage
p76
sg34
I558
sa(dp77
g32
VThe Immortals
p78
sg34
I105
sa(dp79
g32
VThe Hills of Home
p80
sg34
I166
sa(dp81
g32
VBeach Scene
p82
sg34
I284
sa(dp83
g32
VThe Imitation of Earth
p84
sg34
I211
sa(dp85
g32
VCry Snooker
p86
sg34
I278
sa(dp87
g32
VA Fall of Glass
p88
sg34
I251
sa(dp89
g32
VOrigins of the Galactic Short-Snorter
p90
sg34
I401
sa(dp91
g32
VThe Hours Are Good
p92
sg34
I315
sasb.