ccopy_reg
_reconstructor
p0
(cdataset.Book
Book
p1
c__builtin__
object
p2
Ntp3
Rp4
(dp5
S'content_name'
p6
V29768.txt.utf-8
p7
sS'isbn'
p8
V1540360857
p9
sS'year'
p10
I-1
sS'author_name'
p11
VVarious
p12
sS'images_urls'
p13
(lp14
Vhttp://www.gutenberg.org/files/29768/29768-h/images/cover.jpg
p15
aVhttp://www.gutenberg.org/files/29768/29768-h/images/image_001.jpg
p16
aVhttp://www.gutenberg.org/files/29768/29768-h/images/image_002.jpg
p17
aVhttp://www.gutenberg.org/files/29768/29768-h/images/image_003.jpg
p18
aVhttp://www.gutenberg.org/files/29768/29768-h/images/image_004.jpg
p19
aVhttp://www.gutenberg.org/files/29768/29768-h/images/image_005.jpg
p20
aVhttp://www.gutenberg.org/files/29768/29768-h/images/image_006.jpg
p21
aVhttp://www.gutenberg.org/files/29768/29768-h/images/image_007.jpg
p22
aVhttp://www.gutenberg.org/files/29768/29768-h/images/image_008.jpg
p23
aVhttp://www.gutenberg.org/files/29768/29768-h/images/image_009.jpg
p24
aVhttp://www.gutenberg.org/files/29768/29768-h/images/image_010.jpg
p25
aVhttp://www.gutenberg.org/files/29768/29768-h/images/image_011.jpg
p26
aVhttp://www.gutenberg.org/files/29768/29768-h/images/image_012.jpg
p27
aVhttp://www.gutenberg.org/files/29768/29768-h/images/image_013.jpg
p28
aVhttp://www.gutenberg.org/files/29768/29768-h/images/image_014.jpg
p29
aVhttp://www.gutenberg.org/files/29768/29768-h/images/image_015.jpg
p30
aVhttp://www.gutenberg.org/files/29768/29768-h/images/image_016.jpg
p31
aVhttp://www.gutenberg.org/files/29768/29768-h/images/image_017.jpg
p32
aVhttp://www.gutenberg.org/files/29768/29768-h/images/image_a.jpg
p33
aVhttp://www.gutenberg.org/files/29768/29768-h/images/image_a1.jpg
p34
aVhttp://www.gutenberg.org/files/29768/29768-h/images/image_b.jpg
p35
aVhttp://www.gutenberg.org/files/29768/29768-h/images/image_b1.jpg
p36
aVhttp://www.gutenberg.org/files/29768/29768-h/images/image_c.jpg
p37
aVhttp://www.gutenberg.org/files/29768/29768-h/images/image_e.jpg
p38
aVhttp://www.gutenberg.org/files/29768/29768-h/images/image_e1.jpg
p39
aVhttp://www.gutenberg.org/files/29768/29768-h/images/image_f.jpg
p40
aVhttp://www.gutenberg.org/files/29768/29768-h/images/image_g.jpg
p41
aVhttp://www.gutenberg.org/files/29768/29768-h/images/image_g1.jpg
p42
aVhttp://www.gutenberg.org/files/29768/29768-h/images/image_h.jpg
p43
aVhttp://www.gutenberg.org/files/29768/29768-h/images/image_i.jpg
p44
aVhttp://www.gutenberg.org/files/29768/29768-h/images/image_i1.jpg
p45
aVhttp://www.gutenberg.org/files/29768/29768-h/images/image_j.jpg
p46
aVhttp://www.gutenberg.org/files/29768/29768-h/images/image_k.jpg
p47
aVhttp://www.gutenberg.org/files/29768/29768-h/images/image_l.jpg
p48
aVhttp://www.gutenberg.org/files/29768/29768-h/images/image_m.jpg
p49
aVhttp://www.gutenberg.org/files/29768/29768-h/images/image_n.jpg
p50
aVhttp://www.gutenberg.org/files/29768/29768-h/images/image_n1.jpg
p51
aVhttp://www.gutenberg.org/files/29768/29768-h/images/image_o.jpg
p52
aVhttp://www.gutenberg.org/files/29768/29768-h/images/image_o1.jpg
p53
aVhttp://www.gutenberg.org/files/29768/29768-h/images/image_p.jpg
p54
aVhttp://www.gutenberg.org/files/29768/29768-h/images/image_r.jpg
p55
aVhttp://www.gutenberg.org/files/29768/29768-h/images/image_s.jpg
p56
aVhttp://www.gutenberg.org/files/29768/29768-h/images/image_s1.jpg
p57
aVhttp://www.gutenberg.org/files/29768/29768-h/images/image_t.jpg
p58
aVhttp://www.gutenberg.org/files/29768/29768-h/images/image_t1.jpg
p59
aVhttp://www.gutenberg.org/files/29768/29768-h/images/image_w.jpg
p60
aVhttp://www.gutenberg.org/files/29768/29768-h/images/image_w1.jpg
p61
aVhttp://www.gutenberg.org/files/29768/29768-h/images/image_y1.jpg
p62
asS'language_code'
p63
NsS'images'
p64
(lp65
sS'id'
p66
I71
sS'category'
p67
VText
p68
sS'genres'
p69
(lp70
sS'copyright'
p71
VPublic domain in the USA.
p72
sS'title'
p73
VAstounding Stories of Super-Science, August 1930
p74
sS'wikipedia'
p75
(dp76
S'url'
p77
Vhttps://en.wikipedia.org/wiki/Science_Fiction_of_the_Thirties
p78
sS'found'
p79
I01
sS'year'
p80
I-1
ssS'published_in'
p81
NsS'average_rating'
p82
F4.0
sS'rating_count'
p83
I1
sS'content_available'
p84
I01
sS'cover_art_url'
p85
S'http://www.gutenberg.org/cache/epub/29768/pg29768.cover.medium.jpg'
p86
sS'goodreads'
p87
(dp88
g77
Vhttps://www.goodreads.com/book/show/32963764-astounding-stories-of-super-science-august-1930
p89
sg79
I01
sg80
I-1
ssS'similar_books'
p90
(lp91
sS'description'
p92
VThe Planet of Dread by R. F. Starzl -- The Lord of Space by Victor Rousseau -- The Second Satellite by Edmond Hamilton -- Silver Dome by Harl Vincent -- Earth, The Marauder by Arthur J. Burks -- Murder Madness by Murray Leinster -- The Flying City by H. Thompson Rich Show Excerpt THE PLANET OF DREAD by R. F. STARZL A Stupid Blunder--and Mark Forepaugh Faces a Lifetime of Castaway Loneliness in the Savage Welter of the Planet Inra's Monster-ridden Jungles. THE LORD OF SPACE by VICTOR ROUSSEAU A Black Caesar Had Arisen on Eros--and All Earth Trembled at His Distant Menace. THE SECOND SATELLITE by EDMOND HAMILTON Earth-men War on Frog-vampires for the Emancipation of the Human Cows of Earth's Second Satellite. (A Novelet.) SILVER DOME by HARL VINCENT In Her Deep-buried Kingdom of Theros, Phaestra Reveals the Amazing Secret of the Silver Dome. EARTH, THE MARAUDER by ARTHUR J. BURKS Deep in the Gnome-infested Tunnels of the Moon, Sarka and Jaska Are Brought to Luar the Radiant Goddess Against Whose Minions the Marauding Earth Had Struck in Vain. (Part Two of a Three-Part Novel.) MURDER MADNESS by MURRAY LEINSTER Bell Has Fought through Tremendous Obstacles to Find and Kill The Master, Whose Diabolical Poison Makes Murder-mad Snakes of the Hands; and, as He Faces the Monster at Last--His Own Hands Start to Writhe! (Conclusion.) THE FLYING CITY by H. THOMPSON RICH From Space Came Cor's Disc-city of Vada--Its Mighty, Age-old Engines Weakening--Its Horde of Dwarfs Hungry for the Earth!
p93
sS'format'
p94
VPaperback
p95
sS'gutenberg'
p96
(dp97
g77
Vhttp://www.gutenberg.org/ebooks/29768
p98
sS'num'
p99
I29768
ssS'authors'
p100
(lp101
I17
asS'isbn13'
p102
V9781540360854
p103
sS'language'
p104
VEnglish
p105
sS'country'
p106
I2
sS'release_date'
p107
S'2009-08-23T00:00:00'
p108
sS'author'
p109
I17
sS'original_title'
p110
VScience Fiction of the Thirties
p111
sS'summary'
p112
VScience Fiction of the Thirties is an anthology of science fiction short stories edited by Damon Knight. It was first published in hardcover by Bobbs-Merrill in January 1976; a book club edition was issued simultaneously by the same publisher together with the Science Fiction Book Club, and a trade paperback edition by Avon Books in March 1977.\u000aThe book collects eighteen tales by various authors originally published in the 1930s and exemplifying American magazine science fiction of that decade, together with a foreword and three essays on the period by the editor, and a bibliography. The stories were originally published in Astounding Stories and Amazing Stories, the premier science fiction magazines of the time. The book reproduces period illustrations that accompanied the stories' original appearances by H. W. Wesso, Leo Morey, Paul Orban, Howard V. Brown, Elliott Dold, Jr., Thompson, and Charles Schneeman.
p113
sS'content_cleaned'
p114
I01
sS'classes'
p115
(lp116
Vshort-stories
p117
aVsci-fi
p118
asS'loc_class'
p119
VPN: Language and Literatures: Literature: General, Criticism, Collections
p120
sS'n_authors'
p121
I1
sb.