ccopy_reg
_reconstructor
p0
(cdataset.Book
Book
p1
c__builtin__
object
p2
Ntp3
Rp4
(dp5
S'similar_books'
p6
(lp7
sS'genres'
p8
(lp9
sS'author'
p10
I302
sS'countries'
p11
(lp12
I2
asS'year'
p13
I1968
sS'title'
p14
VGalaxy Magazine August 1968
p15
sS'cover'
p16
Vhttps://ia600200.us.archive.org/BookReader/BookReaderImages.php?zip=/28/items/Galaxy_v27n01_1968-08/Galaxy_v27n01_1968-08_jp2.zip&file=Galaxy_v27n01_1968-08_jp2/Galaxy_v27n01_1968-08_0000.jp2&scale=0&rotate=0
p17
sS'cover_art'
p18
S'http://www.isfdb.org/wiki/images/d/d8/GALAUG68.jpg'
p19
sS'author_name'
p20
VGalaxy Magazine
p21
sS'images_urls'
p22
(lp23
sS'authors'
p24
(lp25
I615
aI626
aI499
aI611
aI624
aI40
aI339
aI91
aI326
aI69
aI204
aI32
aI50
aI629
aI631
aI302
asS'images'
p26
(lp27
sS'id'
p28
I1124
sS'contents'
p29
(lp30
(dp31
S'title'
p32
VAmong the Bad Baboons
p33
sS'author'
p34
I615
sa(dp35
g32
VAmong the Bad Baboons [2]
p36
sg34
I615
sa(dp37
g32
VAmong the Bad Baboons [3]
p38
sg34
I615
sa(dp39
g32
VAmong the Bad Baboons [4]
p40
sg34
I615
sa(dp41
g32
VGoing Down Smooth
p42
sg34
I626
sa(dp43
g32
VGoing Down Smooth [2]
p44
sg34
I626
sa(dp45
g32
VA Specter Is Haunting Texas (Part 2 of 3)
p46
sg34
I499
sa(dp47
g32
VA Specter Is Haunting Texas (Part 2 of 3) [2]
p48
sg34
I499
sa(dp49
g32
VA Specter Is Haunting Texas (Part 2 of 3) [3]
p50
sg34
I499
sa(dp51
g32
VA Specter Is Haunting Texas (Part 2 of 3) [4]
p52
sg34
I499
sa(dp53
g32
VA Specter Is Haunting Texas (Part 2 of 3) [5]
p54
sg34
I499
sa(dp55
g32
VA Specter Is Haunting Texas (Part 2 of 3) [6]
p56
sg34
I499
sa(dp57
g32
VA Specter Is Haunting Texas (Part 2 of 3) [7]
p58
sg34
I499
sa(dp59
g32
VThe Time Trawlers
p60
sg34
I611
sa(dp61
g32
VThe Time Trawlers [2]
p62
sg34
I611
sa(dp63
g32
VThe Time Trawlers [3]
p64
sg34
I611
sa(dp65
g32
VThe Star Below
p66
sg34
I499
sa(dp67
g32
VThe Star Below [2]
p68
sg34
I499
sa(dp69
g32
VHemeac
p70
sg34
I624
sa(dp71
g32
VTony Boucher
p72
sg34
I40
sa(dp73
g32
VFor Your Information: In Australia, the Rain ...
p74
sg34
I339
sa(dp75
g32
VGalaxy Bookshelf (Galaxy, August 1968)
p76
sg34
I91
sa(dp77
g32
VGalaxy's Stars (Galaxy, August 1968)
p78
sg34
I326
sa(dp79
g32
VForecast (Galaxy, August 1968)
p80
sg34
I326
sa(dp81
g32
VAmong the Bad Baboons
p82
sg34
I69
sa(dp83
g32
VThe Star Below
p84
sg34
I204
sa(dp85
g32
VA Specter Is Haunting Texas (Part 2 of 3)
p86
sg34
I32
sa(dp87
g32
VGoing Down Smooth
p88
sg34
I50
sa(dp89
g32
VThe Time Trawlers
p90
sg34
I629
sa(dp91
g32
VHemeac
p92
sg34
I631
sasb.