ccopy_reg
_reconstructor
p0
(cdataset.Book
Book
p1
c__builtin__
object
p2
Ntp3
Rp4
(dp5
S'content_name'
p6
V31948.txt.utf-8
p7
sS'isbn'
p8
NsS'year'
p9
I1952
sS'author_name'
p10
VRobert Moore Williams
p11
sS'images_urls'
p12
(lp13
Vhttp://www.gutenberg.org/files/31948/31948-h/images/cover.jpg
p14
aVhttp://www.gutenberg.org/files/31948/31948-h/images/illus.jpg
p15
asS'language_code'
p16
NsS'images'
p17
(lp18
sS'id'
p19
I779
sS'category'
p20
VText
p21
sS'genres'
p22
(lp23
sS'copyright'
p24
VPublic domain in the USA.
p25
sS'title'
p26
VThompson's Cat
p27
sS'wikipedia'
p28
(dp29
S'found'
p30
I00
ssS'average_rating'
p31
F2.75
sS'rating_count'
p32
I3
sS'content_available'
p33
I01
sS'cover_art_url'
p34
S'http://www.gutenberg.org/cache/epub/31948/pg31948.cover.medium.jpg'
p35
sS'goodreads'
p36
(dp37
S'url'
p38
Vhttps://www.goodreads.com/book/show/8708751-thompson-s-cat
p39
sg30
I01
sS'year'
p40
I1952
ssS'similar_books'
p41
(lp42
sS'description'
p43
VThe weird, invisible insect depopulated an entire planet. Now it was felling Thompson's crew as his ship hurtled toward the sun ... certain death for all, including the disease carrier. Forgottenin the panic was Buster, Thompson's wise cat.
p44
sS'format'
p45
NsS'gutenberg'
p46
(dp47
g38
Vhttp://www.gutenberg.org/ebooks/31948
p48
sS'num'
p49
I31948
ssS'authors'
p50
(lp51
I135
asS'isbn13'
p52
NsS'language'
p53
VEnglish
p54
sS'release_date'
p55
S'2010-04-11T00:00:00'
p56
sS'author'
p57
I135
sS'content_cleaned'
p58
I01
sS'classes'
p59
(lp60
Vto-read
p61
aVe-shelf
p62
aVowned-pending-kindle-free-ebook
p63
aVshort-fiction-8
p64
aVsci-fi
p65
aVclassic-sci-fi
p66
aVshort-fiction
p67
asS'loc_class'
p68
VPS: Language and Literatures: American and Canadian literature
p69
sS'n_authors'
p70
I1
sb.