ccopy_reg
_reconstructor
p0
(cdataset.Book
Book
p1
c__builtin__
object
p2
Ntp3
Rp4
(dp5
S'similar_books'
p6
(lp7
sS'genres'
p8
(lp9
sS'author'
p10
I302
sS'countries'
p11
(lp12
I2
asS'year'
p13
I1951
sS'title'
p14
VGalaxy Magazine February 1951
p15
sS'cover'
p16
Vhttps://ia801309.us.archive.org/BookReader/BookReaderImages.php?zip=/4/items/Galaxy_v01n05_1951-02/Galaxy_v01n05_1951-02_jp2.zip&file=Galaxy_v01n05_1951-02_jp2/Galaxy_v01n05_1951-02_0000.jp2&scale=0&rotate=0
p17
sS'cover_art'
p18
S'http://www.isfdb.org/wiki/images/4/41/GALFEB1951.jpg'
p19
sS'author_name'
p20
VGalaxy Magazine
p21
sS'images_urls'
p22
(lp23
sS'authors'
p24
(lp25
I352
aI342
aI336
aI346
aI355
aI348
aI305
aI340
aI18
aI3
aI356
aI247
aI56
aI354
aI302
asS'images'
p26
(lp27
sS'id'
p28
I978
sS'contents'
p29
(lp30
(dp31
g10
I352
sg14
VThe Fireman
p32
sa(dp33
g10
I352
sg14
VThe Fireman [2]
p34
sa(dp35
g10
I352
sg14
VThe Fireman [3]
p36
sa(dp37
g10
I352
sg14
VThe Fireman [4]
p38
sa(dp39
g10
I342
sg14
V... And It Comes Out Here
p40
sa(dp41
g10
I342
sg14
V... And It Comes Out Here [2]
p42
sa(dp43
g10
I336
sg14
VThe Protector
p44
sa(dp45
g10
I346
sg14
VSecond Childhood
p46
sa(dp47
g10
I346
sg14
VSecond Childhood [2]
p48
sa(dp49
g10
I355
sg14
VTwo Weeks in August
p50
sa(dp51
g10
I348
sg14
VTyrann (Part 2 of 3)
p52
sa(dp53
g10
I348
sg14
VTyrann (Part 2 of 3) [2]
p54
sa(dp55
g10
I348
sg14
VTyrann (Part 2 of 3) [3]
p56
sa(dp57
g10
I348
sg14
VTyrann (Part 2 of 3) [4]
p58
sa(dp59
g10
I305
sg14
VYardstick for Science Fiction
p60
sa(dp61
g10
I340
sg14
VGalaxy's Five-Star Shelf (Galaxy, February 1951)
p62
sa(dp63
g10
I18
sg14
VThe Fireman
p64
sa(dp65
g10
I3
sg14
VTyrann (Part 2 of 3)
p66
sa(dp67
g10
I356
sg14
V... And It Comes Out Here
p68
sa(dp69
g10
I247
sg14
VThe Protector
p70
sa(dp71
g10
I56
sg14
VSecond Childhood
p72
sa(dp73
g10
I354
sg14
VTwo Weeks in August
p74
sasb.