ccopy_reg
_reconstructor
p0
(cdataset.Book
Book
p1
c__builtin__
object
p2
Ntp3
Rp4
(dp5
S'content_name'
p6
V51296.txt.utf-8
p7
sS'isbn'
p8
V006757520X
p9
sS'year'
p10
I1956
sS'author_name'
p11
VStephen Marlowe
p12
sS'images_urls'
p13
(lp14
Vhttp://www.gutenberg.org/files/51296/51296-h/images/cover.jpg
p15
aVhttp://www.gutenberg.org/files/51296/51296-h/images/illus1.jpg
p16
aVhttp://www.gutenberg.org/files/51296/51296-h/images/illus2.jpg
p17
asS'language_code'
p18
NsS'images'
p19
(lp20
sS'id'
p21
I752
sS'category'
p22
VText
p23
sS'genres'
p24
(lp25
sS'copyright'
p26
VPublic domain in the USA.
p27
sS'title'
p28
VThe Sense of Wonder
p29
sS'wikipedia'
p30
(dp31
S'found'
p32
I00
ssS'average_rating'
p33
F4.4
sS'rating_count'
p34
I905
sS'content_available'
p35
I01
sS'cover_art_url'
p36
S'http://www.gutenberg.org/cache/epub/51296/pg51296.cover.medium.jpg'
p37
sS'goodreads'
p38
(dp39
S'url'
p40
Vhttps://www.goodreads.com/book/show/27344.The_Sense_of_Wonder
p41
sg32
I01
sS'year'
p42
I1956
ssS'similar_books'
p43
(lp44
VThe Geography of Childhood: Why Children Need Wild Places (Concord Library)
p45
aVEarth in Mind: On Education, Environment, and the Human Prospect
p46
aVBiophilia
p47
aVKeeping a Nature Journal: Discover a Whole New Way of Seeing the World Around You
p48
aVEcological Literacy: Educating Our Children for a Sustainable World
p49
aVSettled in the Wild: Notes from the Edge of Town
p50
aVDawn Light: Dancing with Cranes and Other Ways to Start the Day
p51
aVBeyond Ecophobia: Reclaiming the Heart in Nature Education (Nature Literacy Series, Vol. 1) (Nature Literacy)
p52
aVWild Comfort: The Solace of Nature
p53
aVRachel Carson: Witness for Nature
p54
aVRaising Elijah: Protecting Our Children in an Age of Environmental Crisis
p55
aVAmerican Earth: Environmental Writing Since Thoreau
p56
aVThe Long-Legged House
p57
aVTrespass: Living at the Edge of the Promised Land
p58
aVSpineless
p59
aVWeb of Life: Weaving the Values That Sustain Us
p60
aVStaying Alive: Women, Ecology and Development
p61
aVUncommon Ground: Rethinking the Human Place in Nature
p62
asS'description'
p63
VFirst published more than three decades ago, this reissue of Rachel Carson's award-winning classic brings her unique vision to a new generation of readers. Stunning new photographs by Nick Kelsh beautifully complement Carson's intimate account of adventures with her young nephew, Roger, as they enjoy walks along the rocky coast of Maine and through dense forests and open fields, observing wildlife, strange plants, moonlight and storm clouds, and listening to the "living music" of insects in the underbrush. "If a child is to keep alive his inborn sense of wonder." Writes Carson, "he needs the companionship of at least one adult who can share it, rediscovering with him the joy, excitement and mystery of the world we live in." <em>The Sense of Wonder</em> is a refreshing antidote to indifference and a guide to capturing the simple power of discovery that Carson views as essential to life.<br /><br />In her insightful new introduction, Linda Lear remembers Rachel Carson's groundbreaking achievements in the context of the legendary environmentalist's personal commitment to introducing young and old to the miracles of nature.<br /><br />Kelsh's lush photographs inspire sensual, tactile reactions: masses of leaves floating in a puddle are just waiting to be scooped up and examined more closely. An image of a narrow path through the trees evokes the earthy scent of the woods after a summer rain. Close-ups of mosses and miniature lichen fantasy-lands will spark innocent'as well as more jaded'imaginations. Like a curious child studying things underfoot and within reach, Kelsh's camera is drawn to patterns in nature that too often elude hurried adults'a stand of beech trees in the springtime, patches of melting snow and the ripples from a pebble tossed into a slow-moving stream.<br /><br /><em>The Sense of Wonder</em> is a timeless volume that will be passed on from children to grandchildren, as treasured as the memory of an early-morning walk when the song of a whippoorwill was heard as if for the first time.
p64
sS'format'
p65
VHardcover
p66
sS'gutenberg'
p67
(dp68
g40
Vhttp://www.gutenberg.org/ebooks/51296
p69
sS'num'
p70
I51296
ssS'authors'
p71
(lp72
I79
asS'pages'
p73
I112
sS'isbn13'
p74
V9780067575208
p75
sS'language'
p76
VEnglish
p77
sS'countries'
p78
(lp79
I2
asS'release_date'
p80
S'2016-02-24T00:00:00'
p81
sS'author'
p82
I79
sS'content_cleaned'
p83
I01
sS'classes'
p84
(lp85
Vto-read
p86
aVnon-fiction
p87
aVnature
p88
aVscience
p89
aVcurrently-reading
p90
aVfavorites
p91
aVenvironment
p92
aVparenting
p93
aVnonfiction
p94
aVecology
p95
aVeducation
p96
aVto-read-non-fiction
p97
aVchildren
p98
aVnature-writing
p99
aVmemoir
p100
aVfamily
p101
aVaudible
p102
aVbrainpickings
p103
aVkids
p104
aVaudiobook
p105
aVnatural-history
p106
aVoutdoors
p107
aVscience-nature
p108
aVchildrens
p109
aVinspirational
p110
aVaudio
p111
aVessays
p112
aVlibrary
p113
aVclassics
p114
aVaudiobooks
p115
aVspirituality
p116
aVkindle
p117
aVbiology
p118
aVphilosophy
p119
aVpicture-books
p120
aVyear-2015
p121
aVadult-non-fiction
p122
aVnature-outdoors
p123
aVsense-of-place
p124
aVrachel-carson
p125
aVto-buy
p126
aVscience-and-nature
p127
aVwish-list
p128
aVwonder
p129
aVto-read-nonfiction
p130
aVcompleted-2012
p131
aVread-in-2012
p132
aVfiction
p133
aVsustainability
p134
aVenvironmental
p135
aVpoetry
p136
aVnaturalism
p137
aVbiography-memoir
p138
aVchildren-s
p139
aVsci-nature
p140
aVparenting-teaching
p141
aVmother-culture
p142
aVadd-to-spreadsheet
p143
aVshort
p144
aVpublic-library
p145
aVdeleted-books
p146
aVcleared
p147
aVnature-environment-nonfiction
p148
aVbooktubeathon-2017
p149
aVgo-hug-a-tree
p150
aVin-the-cue
p151
aV2017-modern-mrs-darcy-challenge
p152
aVmind
p153
aVstay-with-me
p154
aVmemoir-bio
p155
aV50-states
p156
aVbest-science-books
p157
aV2017-possible-books
p158
aVnon-fiction-general
p159
aVensayo
p160
aVjones
p161
aVinlib
p162
aVted-summer-reading-list-2017
p163
aVnature-beauties
p164
aVtravels
p165
aVmindfulness
p166
aVbeing-science-pop-psych
p167
aVted-recommendations
p168
aVaudiobook-hoopla
p169
aVkids-nonfiction
p170
aVsummer-reading
p171
aVbiography
p172
aVsciences
p173
aVwild-child
p174
aVwalking
p175
aVladies
p176
aVduch-i-emocja
p177
aVwomen-authors
p178
aVhave-to
p179
aV500s
p180
aVpregnancy-parenting
p181
aVoutdoor-women
p182
aVgreat-women
p183
aVsimple-life
p184
aVthinking-like-a-mountain
p185
asS'loc_class'
p186
S''
p187
sS'n_authors'
p188
I1
sb.