ccopy_reg
_reconstructor
p0
(cdataset.Book
Book
p1
c__builtin__
object
p2
Ntp3
Rp4
(dp5
S'content_name'
p6
V27645.txt.utf-8
p7
sS'isbn'
p8
NsS'year'
p9
I1961
sS'author_name'
p10
VHenry Hasse
p11
sS'images_urls'
p12
(lp13
Vhttp://www.gutenberg.org/files/27645/27645-h/images/001.png
p14
aVhttp://www.gutenberg.org/files/27645/27645-h/images/002.png
p15
aVhttp://www.gutenberg.org/files/27645/27645-page-images/p0059-image1.png
p16
aVhttp://www.gutenberg.org/files/27645/27645-page-images/p0059.png
p17
aVhttp://www.gutenberg.org/files/27645/27645-page-images/p0060.png
p18
aVhttp://www.gutenberg.org/files/27645/27645-page-images/p0061.png
p19
aVhttp://www.gutenberg.org/files/27645/27645-page-images/p0062.png
p20
aVhttp://www.gutenberg.org/files/27645/27645-page-images/p0063.png
p21
aVhttp://www.gutenberg.org/files/27645/27645-page-images/p0064.png
p22
aVhttp://www.gutenberg.org/files/27645/27645-page-images/p0065.png
p23
aVhttp://www.gutenberg.org/files/27645/27645-page-images/p0066.png
p24
aVhttp://www.gutenberg.org/files/27645/27645-page-images/p0067-image1.png
p25
aVhttp://www.gutenberg.org/files/27645/27645-page-images/p0068.png
p26
aVhttp://www.gutenberg.org/files/27645/27645-page-images/p0069.png
p27
aVhttp://www.gutenberg.org/files/27645/27645-page-images/p0070.png
p28
aVhttp://www.gutenberg.org/files/27645/27645-page-images/p0071.png
p29
aVhttp://www.gutenberg.org/files/27645/27645-page-images/p0072.png
p30
aVhttp://www.gutenberg.org/files/27645/27645-page-images/p0073.png
p31
aVhttp://www.gutenberg.org/files/27645/27645-page-images/p0074.png
p32
aVhttp://www.gutenberg.org/files/27645/27645-page-images/p0075.png
p33
asS'language_code'
p34
NsS'images'
p35
(lp36
sS'id'
p37
I737
sS'category'
p38
VText
p39
sS'genres'
p40
(lp41
sS'copyright'
p42
VPublic domain in the USA.
p43
sS'title'
p44
VThe Beginning
p45
sS'wikipedia'
p46
(dp47
S'found'
p48
I00
ssS'average_rating'
p49
F3.89
sS'rating_count'
p50
I8
sS'content_available'
p51
I01
sS'goodreads'
p52
(dp53
S'url'
p54
S'https://www.goodreads.com/book/show/6458858-the-beginning'
p55
sS'found'
p56
I01
ssS'similar_books'
p57
(lp58
sS'description'
p59
VRelentlessly, a narrative as old as time drives forward to a climax as old as man--and points a finger as grim as Death.
p60
sS'gutenberg'
p61
(dp62
S'url'
p63
Vhttp://www.gutenberg.org/ebooks/27645
p64
sS'num'
p65
I27645
ssS'authors'
p66
(lp67
I239
asS'isbn13'
p68
NsS'language'
p69
VEnglish
p70
sS'countries'
p71
(lp72
I2
asS'release_date'
p73
S'2008-12-28T00:00:00'
p74
sS'author'
p75
I239
sS'content_cleaned'
p76
I01
sS'classes'
p77
(lp78
Vto-read
p79
aVscience-fiction
p80
aVfree-from-amazon
p81
aVclassic
p82
aV21st-century-lit
p83
aVcurrently-reading
p84
aVshelf-h-authors
p85
aVgenre-syfi-fan-horr
p86
aVaudiobooks
p87
aVshort-story
p88
aVaudio-obtained
p89
aV15
p90
aVx
p91
aVtype-short-story
p92
aVaudio-obtained-ss
p93
asS'loc_class'
p94
VPS: Language and Literatures: American and Canadian literature
p95
sS'n_authors'
p96
I1
sb.