ccopy_reg
_reconstructor
p0
(cdataset.Book
Book
p1
c__builtin__
object
p2
Ntp3
Rp4
(dp5
S'content_name'
p6
V51498.txt.utf-8
p7
sS'isbn'
p8
V1507864604
p9
sS'year'
p10
I2015
sS'author_name'
p11
VPatrick Fahy
p12
sS'images_urls'
p13
(lp14
Vhttp://www.gutenberg.org/files/51498/51498-h/images/cover.jpg
p15
aVhttp://www.gutenberg.org/files/51498/51498-h/images/illus1.jpg
p16
aVhttp://www.gutenberg.org/files/51498/51498-h/images/illus2.jpg
p17
asS'language_code'
p18
Veng
p19
sS'images'
p20
(lp21
sS'id'
p22
I817
sS'category'
p23
VText
p24
sS'genres'
p25
(lp26
sS'copyright'
p27
VPublic domain in the USA.
p28
sS'title'
p29
VBad Memory
p30
sS'wikipedia'
p31
(dp32
S'found'
p33
I00
ssS'average_rating'
p34
F4.2
sS'rating_count'
p35
I10
sS'content_available'
p36
I01
sS'cover_art_url'
p37
S'http://www.gutenberg.org/cache/epub/51498/pg51498.cover.medium.jpg'
p38
sS'goodreads'
p39
(dp40
S'url'
p41
Vhttps://www.goodreads.com/book/show/27636802-bad-memories
p42
sg33
I01
sS'year'
p43
I2015
ssS'similar_books'
p44
(lp45
VLost World (Sirens, #2)
p46
aVMy Magic Scarf
p47
aVThe Kingdom of Blood and Snow (The Age of Blood and Snow, #1)
p48
aVWayward Soul
p49
aVSunset at Lake Crane (Livingston Valley, #1)
p50
aVThe Bargain
p51
aVDoodle Artist - Peaceful Patterns
p52
aVTrouble Finding Blondie
p53
aVLight & Dark: The Awakening of the Mageknight (Light & Dark, #1)
p54
aVAll We Have Lost
p55
aVMuse (Tales of Silver Downs, #1)
p56
aVBloodVault (The Dantonville Legacy #3)
p57
aVDeath By Trombone (Pismawallops PTA, #2)
p58
aVDarkhaven (Darkhaven, #1)
p59
aVField of Glass
p60
aVSmoke and Mirrors (The Gifted, #1)
p61
aVGrace Me With Your Presents
p62
aVLazarus Code (First Family Saga, #1)
p63
asS'description'
p64
VThey didn't believe John Miller at the asylum that he didn't do it, and they sure as hell didn't believe him when more bodies showed up. Get the book to see if John Miller lives or dies and does he get his life and career back?
p65
sS'format'
p66
VPaperback
p67
sS'gutenberg'
p68
(dp69
g41
Vhttp://www.gutenberg.org/ebooks/51498
p70
sS'num'
p71
I51498
ssS'authors'
p72
(lp73
I260
asS'pages'
p74
I236
sS'isbn13'
p75
V9781507864609
p76
sS'language'
p77
VEnglish
p78
sS'countries'
p79
(lp80
I3
asS'release_date'
p81
S'2016-03-19T00:00:00'
p82
sS'author'
p83
I260
sS'content_cleaned'
p84
I01
sS'classes'
p85
(lp86
Vto-read
p87
aVmystery-suspense
p88
aVcrime-thrillers
p89
aVstandalones
p90
aVgoodreads-giveaways
p91
aVgiveaways
p92
aVbooks-won
p93
aVwant-to-buy
p94
aVnovels
p95
aVgiveaway-books
p96
aVbooks
p97
aVcurrently-reading
p98
asS'loc_class'
p99
S''
p100
sS'n_authors'
p101
I1
sb.