ccopy_reg
_reconstructor
p0
(cdataset.Book
Book
p1
c__builtin__
object
p2
Ntp3
Rp4
(dp5
S'content_name'
p6
V33934.txt.utf-8
p7
sS'isbn'
p8
NsS'year'
p9
I1953
sS'author_name'
p10
VKris Neville
p11
sS'images_urls'
p12
(lp13
Vhttp://www.gutenberg.org/files/33934/33934-h/images/coversheknewshewascoming.jpg
p14
aVhttp://www.gutenberg.org/files/33934/33934-h/images/page003.png
p15
asS'language_code'
p16
Veng
p17
sS'images'
p18
(lp19
sS'id'
p20
I580
sS'category'
p21
VText
p22
sS'genres'
p23
(lp24
sS'copyright'
p25
VPublic domain in the USA.
p26
sS'title'
p27
VShe Knew He Was Coming
p28
sS'wikipedia'
p29
(dp30
S'found'
p31
I00
ssS'average_rating'
p32
F2.5
sS'rating_count'
p33
I1
sS'content_available'
p34
I01
sS'cover_art_url'
p35
S'http://www.gutenberg.org/cache/epub/33934/pg33934.cover.medium.jpg'
p36
sS'goodreads'
p37
(dp38
S'url'
p39
Vhttps://www.goodreads.com/book/show/11383186-she-knew-he-was-coming
p40
sg31
I01
sS'year'
p41
I2011
ssS'similar_books'
p42
(lp43
sS'description'
p44
NsS'gutenberg'
p45
(dp46
g39
Vhttp://www.gutenberg.org/ebooks/33934
p47
sS'num'
p48
I33934
ssS'authors'
p49
(lp50
I194
asS'isbn13'
p51
V2940012172891
p52
sS'language'
p53
VEnglish
p54
sS'countries'
p55
(lp56
I2
asS'release_date'
p57
S'2010-10-11T00:00:00'
p58
sS'author'
p59
I194
sS'cover'
p60
Vhttps://images.gr-assets.com/books/1380895387l/11383186.jpg
p61
sS'content_cleaned'
p62
I01
sS'classes'
p63
(lp64
Vcurrently-reading
p65
aVowned-pending-kindle-free-ebook
p66
aVto-read
p67
aVscifi
p68
asS'loc_class'
p69
VPS: Language and Literatures: American and Canadian literature
p70
sS'n_authors'
p71
I1
sb.