ccopy_reg
_reconstructor
p0
(cdataset.Book
Book
p1
c__builtin__
object
p2
Ntp3
Rp4
(dp5
S'content_name'
p6
V24913.txt.utf-8
p7
sS'isbn'
p8
NsS'year'
p9
I1949
sS'author_name'
p10
VS. M. Tenneshaw
p11
sS'images_urls'
p12
(lp13
Vhttp://www.gutenberg.org/files/24913/24913-h/images/001.png
p14
aVhttp://www.gutenberg.org/files/24913/24913-h/images/002-1.jpg
p15
aVhttp://www.gutenberg.org/files/24913/24913-h/images/002-2.jpg
p16
asS'language_code'
p17
NsS'id'
p18
I291
sS'category'
p19
VText
p20
sS'genres'
p21
(lp22
sS'copyright'
p23
VPublic domain in the USA.
p24
sS'title'
p25
VThe Monster
p26
sS'wikipedia'
p27
(dp28
S'found'
p29
I00
ssS'average_rating'
p30
F4.36
sS'rating_count'
p31
I5
sS'content_available'
p32
I01
sS'goodreads'
p33
(dp34
S'url'
p35
S'https://www.goodreads.com/book/show/19278052-the-monster'
p36
sS'found'
p37
I01
ssS'similar_books'
p38
(lp39
sS'description'
p40
NsS'gutenberg'
p41
(dp42
S'url'
p43
Vhttp://www.gutenberg.org/ebooks/24913
p44
sS'num'
p45
I24913
ssS'authors'
p46
(lp47
I93
asS'isbn13'
p48
NsS'language'
p49
VEnglish
p50
sS'countries'
p51
(lp52
I2
asS'release_date'
p53
S'2008-03-25T00:00:00'
p54
sS'author'
p55
I93
sS'cover'
p56
Vhttps://s.gr-assets.com/assets/nophoto/book/111x148-bcc042a9c91a29c1d680899eff700a03.png
p57
sS'content_cleaned'
p58
I01
sS'classes'
p59
(lp60
Vto-read
p61
aVsci-fi
p62
aV21st-century-lit
p63
aVshorts
p64
aVhorror
p65
asS'loc_class'
p66
VPS: Language and Literatures: American and Canadian literature
p67
sS'n_authors'
p68
I1
sb.