ccopy_reg
_reconstructor
p0
(cdataset.Book
Book
p1
c__builtin__
object
p2
Ntp3
Rp4
(dp5
S'content_name'
p6
V32079.txt.utf-8
p7
sS'isbn'
p8
NsS'year'
p9
I1954
sS'author_name'
p10
VEd M. Clinton
p11
sS'images_urls'
p12
(lp13
Vhttp://www.gutenberg.org/files/32079/32079-h/images/cover.jpg
p14
aVhttp://www.gutenberg.org/files/32079/32079-h/images/image_001.jpg
p15
aVhttp://www.gutenberg.org/files/32079/32079-h/images/image_b.jpg
p16
aVhttp://www.gutenberg.org/files/32079/32079-h/images/image_g.jpg
p17
aVhttp://www.gutenberg.org/files/32079/32079-h/images/image_l.jpg
p18
aVhttp://www.gutenberg.org/files/32079/32079-h/images/image_m.jpg
p19
aVhttp://www.gutenberg.org/files/32079/32079-h/images/image_t.jpg
p20
aVhttp://www.gutenberg.org/files/32079/32079-h/images/image_w.jpg
p21
asS'language_code'
p22
NsS'id'
p23
I702
sS'category'
p24
VText
p25
sS'genres'
p26
(lp27
sS'copyright'
p28
VPublic domain in the USA.
p29
sS'title'
p30
VThe Small World of M-75
p31
sS'wikipedia'
p32
(dp33
S'found'
p34
I00
ssS'average_rating'
p35
F3.0
sS'rating_count'
p36
I3
sS'content_available'
p37
I01
sS'cover_art_url'
p38
S'http://www.gutenberg.org/cache/epub/32079/pg32079.cover.medium.jpg'
p39
sS'goodreads'
p40
(dp41
S'url'
p42
Vhttps://www.goodreads.com/book/show/20811397-the-small-world-of-m-75
p43
sS'found'
p44
I01
sS'year'
p45
I2011
ssS'similar_books'
p46
(lp47
sS'description'
p48
NsS'gutenberg'
p49
(dp50
g42
Vhttp://www.gutenberg.org/ebooks/32079
p51
sS'num'
p52
I32079
ssS'authors'
p53
(lp54
I231
asS'isbn13'
p55
NsS'language'
p56
VEnglish
p57
sS'countries'
p58
(lp59
I2
asS'release_date'
p60
S'2010-04-21T00:00:00'
p61
sS'author'
p62
I231
sS'cover'
p63
Vhttps://s.gr-assets.com/assets/nophoto/book/111x148-bcc042a9c91a29c1d680899eff700a03.png
p64
sS'content_cleaned'
p65
I01
sS'classes'
p66
(lp67
Vshort-stories
p68
aVto-read
p69
aVscience-fiction
p70
aV21st-century-lit
p71
aVsci-fi
p72
aVfiction
p73
aVfantastical-worlds
p74
aV15
p75
aV1950s
p76
asS'loc_class'
p77
VPS: Language and Literatures: American and Canadian literature
p78
sS'n_authors'
p79
I1
sb.