ccopy_reg
_reconstructor
p0
(cdataset.Book
Book
p1
c__builtin__
object
p2
Ntp3
Rp4
(dp5
S'content_name'
p6
V22527.txt.utf-8
p7
sS'isbn'
p8
V8132018036
p9
sS'year'
p10
I1931
sS'author_name'
p11
VRay Cummings
p12
sS'images_urls'
p13
(lp14
Vhttp://www.gutenberg.org/files/22527/22527-page-images/f001.png
p15
aVhttp://www.gutenberg.org/files/22527/22527-page-images/f002.png
p16
aVhttp://www.gutenberg.org/files/22527/22527-page-images/f003.png
p17
aVhttp://www.gutenberg.org/files/22527/22527-page-images/f004.png
p18
aVhttp://www.gutenberg.org/files/22527/22527-page-images/p005.png
p19
aVhttp://www.gutenberg.org/files/22527/22527-page-images/p006.png
p20
aVhttp://www.gutenberg.org/files/22527/22527-page-images/p007.png
p21
aVhttp://www.gutenberg.org/files/22527/22527-page-images/p008.png
p22
aVhttp://www.gutenberg.org/files/22527/22527-page-images/p009.png
p23
aVhttp://www.gutenberg.org/files/22527/22527-page-images/p010.png
p24
aVhttp://www.gutenberg.org/files/22527/22527-page-images/p011.png
p25
aVhttp://www.gutenberg.org/files/22527/22527-page-images/p012.png
p26
aVhttp://www.gutenberg.org/files/22527/22527-page-images/p013.png
p27
aVhttp://www.gutenberg.org/files/22527/22527-page-images/p014.png
p28
aVhttp://www.gutenberg.org/files/22527/22527-page-images/p015.png
p29
aVhttp://www.gutenberg.org/files/22527/22527-page-images/p016.png
p30
aVhttp://www.gutenberg.org/files/22527/22527-page-images/p017.png
p31
aVhttp://www.gutenberg.org/files/22527/22527-page-images/p018.png
p32
aVhttp://www.gutenberg.org/files/22527/22527-page-images/p019.png
p33
aVhttp://www.gutenberg.org/files/22527/22527-page-images/p020.png
p34
aVhttp://www.gutenberg.org/files/22527/22527-page-images/p021.png
p35
aVhttp://www.gutenberg.org/files/22527/22527-page-images/p022.png
p36
aVhttp://www.gutenberg.org/files/22527/22527-page-images/p023.png
p37
aVhttp://www.gutenberg.org/files/22527/22527-page-images/p024.png
p38
aVhttp://www.gutenberg.org/files/22527/22527-page-images/p025.png
p39
aVhttp://www.gutenberg.org/files/22527/22527-page-images/p026.png
p40
aVhttp://www.gutenberg.org/files/22527/22527-page-images/p027.png
p41
aVhttp://www.gutenberg.org/files/22527/22527-page-images/p028.png
p42
aVhttp://www.gutenberg.org/files/22527/22527-page-images/p029.png
p43
aVhttp://www.gutenberg.org/files/22527/22527-page-images/p030.png
p44
aVhttp://www.gutenberg.org/files/22527/22527-page-images/p031.png
p45
aVhttp://www.gutenberg.org/files/22527/22527-page-images/p032.png
p46
aVhttp://www.gutenberg.org/files/22527/22527-page-images/p033.png
p47
aVhttp://www.gutenberg.org/files/22527/22527-page-images/p034.png
p48
aVhttp://www.gutenberg.org/files/22527/22527-page-images/p035.png
p49
aVhttp://www.gutenberg.org/files/22527/22527-page-images/p036.png
p50
aVhttp://www.gutenberg.org/files/22527/22527-page-images/p037.png
p51
aVhttp://www.gutenberg.org/files/22527/22527-page-images/p038.png
p52
aVhttp://www.gutenberg.org/files/22527/22527-page-images/p039.png
p53
aVhttp://www.gutenberg.org/files/22527/22527-page-images/p040.png
p54
aVhttp://www.gutenberg.org/files/22527/22527-page-images/p041.png
p55
aVhttp://www.gutenberg.org/files/22527/22527-page-images/p042.png
p56
aVhttp://www.gutenberg.org/files/22527/22527-page-images/p043.png
p57
aVhttp://www.gutenberg.org/files/22527/22527-page-images/p044.png
p58
aVhttp://www.gutenberg.org/files/22527/22527-page-images/p045.png
p59
aVhttp://www.gutenberg.org/files/22527/22527-page-images/p046.png
p60
aVhttp://www.gutenberg.org/files/22527/22527-page-images/p047.png
p61
aVhttp://www.gutenberg.org/files/22527/22527-page-images/p048.png
p62
aVhttp://www.gutenberg.org/files/22527/22527-page-images/p049.png
p63
aVhttp://www.gutenberg.org/files/22527/22527-page-images/p050.png
p64
aVhttp://www.gutenberg.org/files/22527/22527-page-images/p051.png
p65
aVhttp://www.gutenberg.org/files/22527/22527-page-images/p052.png
p66
aVhttp://www.gutenberg.org/files/22527/22527-page-images/p053.png
p67
aVhttp://www.gutenberg.org/files/22527/22527-page-images/p054.png
p68
aVhttp://www.gutenberg.org/files/22527/22527-page-images/p055.png
p69
aVhttp://www.gutenberg.org/files/22527/22527-page-images/p056.png
p70
aVhttp://www.gutenberg.org/files/22527/22527-page-images/p057.png
p71
aVhttp://www.gutenberg.org/files/22527/22527-page-images/p058.png
p72
aVhttp://www.gutenberg.org/files/22527/22527-page-images/p059.png
p73
aVhttp://www.gutenberg.org/files/22527/22527-page-images/p060.png
p74
aVhttp://www.gutenberg.org/files/22527/22527-page-images/p061.png
p75
aVhttp://www.gutenberg.org/files/22527/22527-page-images/p062.png
p76
aVhttp://www.gutenberg.org/files/22527/22527-page-images/p063.png
p77
aVhttp://www.gutenberg.org/files/22527/22527-page-images/p064.png
p78
aVhttp://www.gutenberg.org/files/22527/22527-page-images/p065.png
p79
aVhttp://www.gutenberg.org/files/22527/22527-page-images/p066.png
p80
aVhttp://www.gutenberg.org/files/22527/22527-page-images/p067.png
p81
aVhttp://www.gutenberg.org/files/22527/22527-page-images/p068.png
p82
aVhttp://www.gutenberg.org/files/22527/22527-page-images/p069.png
p83
aVhttp://www.gutenberg.org/files/22527/22527-page-images/p070.png
p84
aVhttp://www.gutenberg.org/files/22527/22527-page-images/p071.png
p85
aVhttp://www.gutenberg.org/files/22527/22527-page-images/p072.png
p86
aVhttp://www.gutenberg.org/files/22527/22527-page-images/p073.png
p87
aVhttp://www.gutenberg.org/files/22527/22527-page-images/p074.png
p88
aVhttp://www.gutenberg.org/files/22527/22527-page-images/p075.png
p89
aVhttp://www.gutenberg.org/files/22527/22527-page-images/p076.png
p90
aVhttp://www.gutenberg.org/files/22527/22527-page-images/p077.png
p91
aVhttp://www.gutenberg.org/files/22527/22527-page-images/p078.png
p92
aVhttp://www.gutenberg.org/files/22527/22527-page-images/p079.png
p93
aVhttp://www.gutenberg.org/files/22527/22527-page-images/p080.png
p94
aVhttp://www.gutenberg.org/files/22527/22527-page-images/p081.png
p95
aVhttp://www.gutenberg.org/files/22527/22527-page-images/p082.png
p96
aVhttp://www.gutenberg.org/files/22527/22527-page-images/p083.png
p97
aVhttp://www.gutenberg.org/files/22527/22527-page-images/p084.png
p98
aVhttp://www.gutenberg.org/files/22527/22527-page-images/p085.png
p99
aVhttp://www.gutenberg.org/files/22527/22527-page-images/p086.png
p100
aVhttp://www.gutenberg.org/files/22527/22527-page-images/p087.png
p101
aVhttp://www.gutenberg.org/files/22527/22527-page-images/p088.png
p102
aVhttp://www.gutenberg.org/files/22527/22527-page-images/p089.png
p103
aVhttp://www.gutenberg.org/files/22527/22527-page-images/p090.png
p104
aVhttp://www.gutenberg.org/files/22527/22527-page-images/p091.png
p105
aVhttp://www.gutenberg.org/files/22527/22527-page-images/p092.png
p106
aVhttp://www.gutenberg.org/files/22527/22527-page-images/p093.png
p107
aVhttp://www.gutenberg.org/files/22527/22527-page-images/p094.png
p108
aVhttp://www.gutenberg.org/files/22527/22527-page-images/p095.png
p109
asS'language_code'
p110
NsS'images'
p111
(lp112
sS'id'
p113
I466
sS'category'
p114
VText
p115
sS'genres'
p116
(lp117
sS'copyright'
p118
VPublic domain in the USA.
p119
sS'title'
p120
VBeyond the Vanishing Point
p121
sS'wikipedia'
p122
(dp123
S'found'
p124
I00
ssS'average_rating'
p125
F3.15
sS'rating_count'
p126
I13
sS'content_available'
p127
I01
sS'goodreads'
p128
(dp129
S'url'
p130
Vhttps://www.goodreads.com/book/show/6217782-beyond-the-vanishing-point
p131
sg124
I01
sS'year'
p132
I1931
ssS'similar_books'
p133
(lp134
sS'description'
p135
NsS'format'
p136
NsS'gutenberg'
p137
(dp138
g130
Vhttp://www.gutenberg.org/ebooks/22527
p139
sS'num'
p140
I22527
ssS'authors'
p141
(lp142
I71
asS'isbn13'
p143
V9788132018032
p144
sS'language'
p145
VEnglish
p146
sS'release_date'
p147
S'2007-09-06T00:00:00'
p148
sS'author'
p149
I71
sS'content_cleaned'
p150
I01
sS'classes'
p151
(lp152
Vto-read
p153
aVscience-fiction
p154
aVsf
p155
aVcurrently-reading
p156
aVnook
p157
aV20th-century-lit
p158
aVsci-fi
p159
aVshelf-c-authors
p160
aVpending-placement
p161
aVpc-kindle
p162
aVshort
p163
aVkindle
p164
aVfiction
p165
aVebook-kindle-own
p166
aVunknown-genre
p167
aVtaggare
p168
aVfeedbooks-com
p169
aVclassics
p170
aVscifi-fantasy
p171
aVscifi
p172
aVowned
p173
aVfantasy-science-fiction
p174
asS'loc_class'
p175
VPS: Language and Literatures: American and Canadian literature
p176
sS'n_authors'
p177
I1
sb.