ccopy_reg
_reconstructor
p0
(cdataset.Book
Book
p1
c__builtin__
object
p2
Ntp3
Rp4
(dp5
S'content_name'
p6
V32026.txt.utf-8
p7
sS'isbn'
p8
NsS'year'
p9
I1958
sS'author_name'
p10
VClifford D. Simak
p11
sS'images_urls'
p12
(lp13
Vhttp://www.gutenberg.org/files/32026/32026-h/images/cover.jpg
p14
aVhttp://www.gutenberg.org/files/32026/32026-h/images/image_001.jpg
p15
aVhttp://www.gutenberg.org/files/32026/32026-h/images/image_002.jpg
p16
aVhttp://www.gutenberg.org/files/32026/32026-h/images/image_003.jpg
p17
aVhttp://www.gutenberg.org/files/32026/32026-h/images/image_a.jpg
p18
aVhttp://www.gutenberg.org/files/32026/32026-h/images/image_d.jpg
p19
aVhttp://www.gutenberg.org/files/32026/32026-h/images/image_f.jpg
p20
aVhttp://www.gutenberg.org/files/32026/32026-h/images/image_h.jpg
p21
aVhttp://www.gutenberg.org/files/32026/32026-h/images/image_h1.jpg
p22
aVhttp://www.gutenberg.org/files/32026/32026-h/images/image_i.jpg
p23
aVhttp://www.gutenberg.org/files/32026/32026-h/images/image_i1.jpg
p24
aVhttp://www.gutenberg.org/files/32026/32026-h/images/image_j.jpg
p25
aVhttp://www.gutenberg.org/files/32026/32026-h/images/image_l.jpg
p26
aVhttp://www.gutenberg.org/files/32026/32026-h/images/image_n.jpg
p27
aVhttp://www.gutenberg.org/files/32026/32026-h/images/image_n1.jpg
p28
aVhttp://www.gutenberg.org/files/32026/32026-h/images/image_p.jpg
p29
aVhttp://www.gutenberg.org/files/32026/32026-h/images/image_s.jpg
p30
aVhttp://www.gutenberg.org/files/32026/32026-h/images/image_t.jpg
p31
aVhttp://www.gutenberg.org/files/32026/32026-h/images/image_t1.jpg
p32
aVhttp://www.gutenberg.org/files/32026/32026-h/images/image_w.jpg
p33
asS'language_code'
p34
Veng
p35
sS'images'
p36
(lp37
sS'id'
p38
I200
sS'category'
p39
VText
p40
sS'genres'
p41
(lp42
sS'copyright'
p43
VPublic domain in the USA.
p44
sS'title'
p45
VThe World That Couldn't Be
p46
sS'wikipedia'
p47
(dp48
S'url'
p49
Vhttps://en.wikipedia.org/wiki/Bloodchild_and_Other_Stories
p50
sS'found'
p51
I01
sS'year'
p52
I-1
ssS'published_in'
p53
NsS'average_rating'
p54
F3.77
sS'rating_count'
p55
I72
sS'content_available'
p56
I01
sS'cover_art_url'
p57
S'http://www.gutenberg.org/cache/epub/32026/pg32026.cover.medium.jpg'
p58
sS'goodreads'
p59
(dp60
g49
Vhttps://www.goodreads.com/book/show/9675485-the-world-that-couldn-t-be
p61
sg51
I01
sg52
I1958
ssS'similar_books'
p62
(lp63
sS'description'
p64
NsS'format'
p65
NsS'gutenberg'
p66
(dp67
g49
Vhttp://www.gutenberg.org/ebooks/32026
p68
sS'num'
p69
I32026
ssS'authors'
p70
(lp71
I56
asS'isbn13'
p72
NsS'language'
p73
VEnglish
p74
sS'release_date'
p75
S'2010-04-17T00:00:00'
p76
sS'author'
p77
I56
sS'original_title'
p78
VBloodchild and Other Stories
p79
sS'summary'
p80
VBloodchild and Other Stories is the only collection of science fiction stories and essays by American writer Octavia E. Butler. Each story and essay features an afterword by Butler. "Bloodchild", the title story, won the Hugo Award and Nebula Award.\u000aOriginally published in 1995, the 2005 expanded edition contains two additional stories: "Amnesty" and "The Book of Martha".
p81
sS'content_cleaned'
p82
I01
sS'classes'
p83
(lp84
Vto-read
p85
aVscience-fiction
p86
aVcurrently-reading
p87
aVkindle
p88
aVsci-fi
p89
aVfavorites
p90
aVe-book
p91
aVaudiobooks
p92
aVhave-book
p93
aVshort
p94
aVinternet-archive
p95
aVebook
p96
aV4-stars
p97
aVshort-stories
p98
aVfiction
p99
aVaudiobooks-read
p100
aV20th-century-lit
p101
aVin-google-drive-to-read
p102
aVecology
p103
aVsci-fi-classics
p104
aVclassic-science-fiction
p105
aVshort-story
p106
aVnovellas
p107
aVreviewed
p108
aVaudio-obtained-ss
p109
aV15
p110
aVe-books
p111
aVaudio-books
p112
aVfeedbooks-com
p113
aVsci-fi-or-speculative
p114
aVsf
p115
aVsearching-for
p116
aVmds-audio
p117
aVnovelettes
p118
aVaudiobooks-to-read
p119
aVaudio-obtained-lvss
p120
aVneed-to-get-2
p121
aVto-read-owned
p122
asS'loc_class'
p123
VPS: Language and Literatures: American and Canadian literature
p124
sS'n_authors'
p125
I1
sb.