ccopy_reg
_reconstructor
p0
(cdataset.Book
Book
p1
c__builtin__
object
p2
Ntp3
Rp4
(dp5
S'similar_books'
p6
(lp7
sS'genres'
p8
(lp9
sS'author'
p10
I302
sS'countries'
p11
(lp12
I2
asS'year'
p13
I1966
sS'title'
p14
VGalaxy Magazine April 1966
p15
sS'cover'
p16
Vhttps://ia600203.us.archive.org/BookReader/BookReaderImages.php?zip=/0/items/Galaxy_v24n04_1966-04/Galaxy_v24n04_1966-04_jp2.zip&file=Galaxy_v24n04_1966-04_jp2/Galaxy_v24n04_1966-04_0000.jp2&scale=0&rotate=0
p17
sS'cover_art'
p18
S'http://www.isfdb.org/wiki/images/5/51/GALAPR66.jpg'
p19
sS'author_name'
p20
VGalaxy Magazine
p21
sS'images_urls'
p22
(lp23
sS'authors'
p24
(lp25
I499
aI545
aI519
aI40
aI91
aI326
aI339
aI50
aI63
aI89
aI32
aI609
aI142
aI81
aI610
aI302
asS'images'
p26
(lp27
sS'id'
p28
I1111
sS'contents'
p29
(lp30
(dp31
S'title'
p32
VThe Last Castle
p33
sS'author'
p34
I499
sa(dp35
g32
VThe Last Castle [2]
p36
sg34
I499
sa(dp37
g32
VThe Last Castle [3]
p38
sg34
I499
sa(dp39
g32
VThe Last Castle [4]
p40
sg34
I499
sa(dp41
g32
VThe Last Castle [5]
p42
sg34
I499
sa(dp43
g32
VLazarus Come Forth!
p44
sg34
I545
sa(dp45
g32
VLazarus Come Forth! [2]
p46
sg34
I545
sa(dp47
g32
VLazarus Come Forth! [3]
p48
sg34
I545
sa(dp49
g32
VLazarus Come Forth! [4]
p50
sg34
I545
sa(dp51
g32
VThe Primitives
p52
sg34
I519
sa(dp53
g32
VThe Primitives [2]
p54
sg34
I519
sa(dp55
g32
VThe Primitives [3]
p56
sg34
I519
sa(dp57
g32
VTwenty-Seven Inches of Moonshine
p58
sg34
I499
sa(dp59
g32
VTwenty-Seven Inches of Moonshine [2]
p60
sg34
I499
sa(dp61
g32
VTwenty-Seven Inches of Moonshine [3]
p62
sg34
I499
sa(dp63
g32
VTwenty-Seven Inches of Moonshine [4]
p64
sg34
I499
sa(dp65
g32
VTwenty-Seven Inches of Moonshine [5]
p66
sg34
I499
sa(dp67
g32
VWhere the Jobs Go
p68
sg34
I40
sa(dp69
g32
VGalaxy Bookshelf (Galaxy, April 1966)
p70
sg34
I91
sa(dp71
g32
VForecast (Galaxy, April 1966)
p72
sg34
I326
sa(dp73
g32
VStatement of Ownership (Galaxy, April 1966) (Circulation:73,610)
p74
sg34
I326
sa(dp75
g32
VFor Your Information: The Re-Designed Solar System
p76
sg34
I339
sa(dp77
g32
VLazarus Come Forth!
p78
sg34
I50
sa(dp79
g32
VThe Primitives
p80
sg34
I63
sa(dp81
g32
VThe Last Castle
p82
sg34
I89
sa(dp83
g32
VThe Crystal Prison
p84
sg34
I32
sa(dp85
g32
VThe Night Before
p86
sg34
I609
sa(dp87
g32
VBig Business
p88
sg34
I142
sa(dp89
g32
VDevise and Conquer
p90
sg34
I81
sa(dp91
g32
VTwenty-Seven Inches of Moonshine
p92
sg34
I610
sasb.