ccopy_reg
_reconstructor
p0
(cdataset.Book
Book
p1
c__builtin__
object
p2
Ntp3
Rp4
(dp5
S'content_name'
p6
V51361.txt.utf-8
p7
sS'isbn'
p8
V0143035304
p9
sS'year'
p10
I2004
sS'author_name'
p11
VRobert Silverberg
p12
sS'images_urls'
p13
(lp14
Vhttp://www.gutenberg.org/files/51361/51361-h/images/cover.jpg
p15
aVhttp://www.gutenberg.org/files/51361/51361-h/images/illus1.jpg
p16
aVhttp://www.gutenberg.org/files/51361/51361-h/images/illus2.jpg
p17
aVhttp://www.gutenberg.org/files/51361/51361-h/images/illus3.jpg
p18
asS'language_code'
p19
Ven-US
p20
sS'images'
p21
(lp22
sS'id'
p23
I256
sS'category'
p24
VText
p25
sS'genres'
p26
(lp27
sS'copyright'
p28
VPublic domain in the USA.
p29
sS'title'
p30
VBirds of a Feather
p31
sS'wikipedia'
p32
(dp33
S'found'
p34
I00
ssS'average_rating'
p35
F3.95
sS'rating_count'
p36
I18390
sS'content_available'
p37
I01
sS'cover_art_url'
p38
S'http://www.gutenberg.org/cache/epub/51361/pg51361.cover.medium.jpg'
p39
sS'goodreads'
p40
(dp41
S'url'
p42
Vhttps://www.goodreads.com/book/show/83083.Birds_of_a_Feather
p43
sg34
I01
sS'year'
p44
I2004
ssS'similar_books'
p45
(lp46
VAn Impartial Witness (Bess Crawford, #2)
p47
aVThe Twelve Clues of Christmas (Her Royal Spyness Mysteries, #6)
p48
aVHis Majesty's Hope (Maggie Hope Mystery, #3)
p49
aVShoulder the Sky (World War I, #2)
p50
aVJustice Hall (Mary Russell, #6)
p51
asS'description'
p52
VIt is the spring of 1930, and Maisie has been hired to find a runaway heiress. When three of the heiress's old friends are found dead, Maisie must race to find out who would want to kill these seemingly respectable young women before it's too late. As Maisie investigates, she discovers that the answers lie in the unforgettable agony of the Great War.
p53
sS'format'
p54
NsS'gutenberg'
p55
(dp56
g42
Vhttp://www.gutenberg.org/ebooks/51361
p57
sS'num'
p58
I51361
ssS'authors'
p59
(lp60
I50
asS'pages'
p61
I320
sS'isbn13'
p62
V9780143035305
p63
sS'language'
p64
VEnglish
p65
sS'release_date'
p66
S'2016-03-05T00:00:00'
p67
sS'author'
p68
I50
sS'content_cleaned'
p69
I01
sS'classes'
p70
(lp71
Vto-read
p72
aVmystery
p73
aVhistorical-fiction
p74
aVfiction
p75
aVcurrently-reading
p76
aVmysteries
p77
aVseries
p78
aVhistorical
p79
aVaudio
p80
aVhistorical-mystery
p81
aVaudiobook
p82
aVengland
p83
aVaudiobooks
p84
aVmaisie-dobbs
p85
aVbritish
p86
aVlibrary
p87
aVcrime
p88
aVmystery-thriller
p89
aVmystery-suspense
p90
aVjacqueline-winspear
p91
aVkindle
p92
aVfavorites
p93
aVadult
p94
aVcozy-mystery
p95
aVowned
p96
aVaudio-books
p97
aVwwi
p98
aVaudio-book
p99
aVdetective
p100
aVadult-fiction
p101
aVmystery-series
p102
aVebook
p103
aVmystery-historical
p104
aVhistory
p105
aVlibrary-book
p106
aVhistorical-mysteries
p107
aVcozy-mysteries
p108
aVaudible
p109
aVbooks-i-own
p110
aVread-in-2015
p111
aVworld-war-i
p112
aVwar
p113
aVmystery-detective
p114
aVown-it
p115
aVread-in-2012
p116
aVww1
p117
aVbook-club
p118
aVread-in-2013
p119
aVread-in-2011
p120
aVlondon
p121
aVbritish-mysteries
p122
aVbrit-lit
p123
aVfiction-historical
p124
aVbritish-mystery
p125
aVmaisie-dobbs-series
p126
aVread-in-2016
p127
aVread-2016
p128
aV1930s
p129
aV20th-century
p130
aVwinspear-jacqueline
p131
aVhistoricalfiction
p132
aVcozy
p133
aVread-2013
p134
aVwinspear
p135
aVdefault
p136
aVcrime-mystery
p137
aVlibrary-books
p138
aVnovels
p139
aVread-2017
p140
aVdetectives
p141
aVworld-war-1
p142
aVpart-of-a-series
p143
aVread-2015
p144
aVread-in-2014
p145
aVmystery-suspense-thriller
p146
aVagatha-award
p147
aVuk
p148
aVeurope
p149
aVcrime-fiction
p150
aV2014-reads
p151
aVabandoned
p152
aVmurder-mystery
p153
aVlistened-to
p154
aVmystery-crime
p155
aVe-book
p156
aVborrowed
p157
aVwomen
p158
aVfinished
p159
aVread-2012
p160
aVbritain
p161
aVmystery-thrillers
p162
aVfemale-author
p163
aVfavorite-authors
p164
aVmysteries-thrillers
p165
aVbritish-literature
p166
aVgeneral-fiction
p167
aVbritain-between-the-wars
p168
aVmysterious
p169
aVmurder
p170
aVsuspense-mystery
p171
asS'loc_class'
p172
S''
p173
sS'n_authors'
p174
I1
sb.