ccopy_reg
_reconstructor
p0
(cdataset.Book
Book
p1
c__builtin__
object
p2
Ntp3
Rp4
(dp5
S'content_name'
p6
V28644.txt.utf-8
p7
sS'isbn'
p8
NsS'year'
p9
I1954
sS'author_name'
p10
VPhilip K. Dick
p11
sS'images_urls'
p12
(lp13
Vhttp://www.gutenberg.org/files/28644/28644-h/images/001-1.jpg
p14
aVhttp://www.gutenberg.org/files/28644/28644-h/images/001-2.jpg
p15
asS'language_code'
p16
Veng
p17
sS'images'
p18
(lp19
sS'id'
p20
I14
sS'category'
p21
VText
p22
sS'plot'
p23
VLarry Thomas buys a cuckoo clock for his wife Doris, just like her mother had. He makes clear that he bought it wholesale and otherwise ruins the moment. Doris talks to the cuckoo and becomes convinced that the cuckoo likes her but does not like Larry. Larry is being cuckolded by antique-enthusiast Bob Chambers. When he is at the Thomas' house, and Doris is showing him the clock, Larry returns home unexpectedly and catches them; he throws both out but keeps the clock because he paid for it. Larry keeps winding the clock because he dislikes the empty, quiet house. The clock sometimes does not chime for Larry, who ends up arguing with the cuckoo for not coming out when he should. Eventually, he threatens the clock with a hammer. At this point the cuckoo comes out and catches him in the eye, causing him to fall off a chair and break his neck in the fall. His death is judged an accident by a doctor but Bob thinks "something else" might be the cause.
p24
sS'genres'
p25
(lp26
sS'copyright'
p27
VPublic domain in the USA.
p28
sS'title'
p29
VBeyond the Door
p30
sS'wikipedia'
p31
(dp32
S'url'
p33
Vhttps://en.wikipedia.org/wiki/Beyond_the_Door_(short_story)
p34
sS'found'
p35
I01
sS'year'
p36
I-1
ssS'published_in'
p37
NsS'average_rating'
p38
F3.04
sS'rating_count'
p39
I662
sS'content_available'
p40
I01
sS'goodreads'
p41
(dp42
g33
Vhttps://www.goodreads.com/book/show/6468230-beyond-the-door
p43
sg35
I01
sg36
I1954
ssS'similar_books'
p44
(lp45
VEven the Queen: & Other Short Stories
p46
aVSailing to Byzantium
p47
aVChristmas in the Trenches
p48
aVWith Morning Comes Mistfall
p49
aVDer Struwwelpeter
p50
aVClifford Gets a Job
p51
aVThe Traveler
p52
aVThe Snows of Kilimanjaro/The Short Happy Life of Francis Macomber
p53
aVFairy Tales of Oscar Wilde: The Devoted Friend/The Nightingale and the Rose
p54
aVPigs Is Pigs
p55
aVThe Elephant Vanishes: Free Short Story
p56
aVGod Sees the Truth, but Waits
p57
aVPress Enter
p58
aVThe Boy Who Cried Wolf
p59
aVThe U.S. Constitution: And Fascinating Facts about It
p60
aVThe Unveiling
p61
aVThe Children's Story
p62
aVThe Rover
p63
asS'description'
p64
NsS'gutenberg'
p65
(dp66
g33
Vhttp://www.gutenberg.org/ebooks/28644
p67
sS'num'
p68
I28644
ssS'authors'
p69
(lp70
I8
asS'isbn13'
p71
NsS'language'
p72
VEnglish
p73
sS'countries'
p74
(lp75
I2
asS'release_date'
p76
S'2009-04-30T00:00:00'
p77
sS'author'
p78
I8
sS'original_title'
p79
VBeyond the Door (short story)
p80
sS'summary'
p81
V"Beyond the Door" is a low fantasy short story by American writer Philip K. Dick, first published in the January 1954 issue of Fantastic Universe. The plot follows a cuckoo clock, which may or may not be intelligent, and a cuckolded husband.
p82
sS'content_cleaned'
p83
I01
sS'classes'
p84
(lp85
Vto-read
p86
aVshort-stories
p87
aVscience-fiction
p88
aVfiction
p89
aVsci-fi
p90
aVfantasy
p91
aVkindle
p92
aVcurrently-reading
p93
aVebooks
p94
aVhorror
p95
aVshort-story
p96
aVebook
p97
aVphilip-k-dick
p98
aVclassics
p99
aVe-book
p100
aVscifi
p101
aVe-books
p102
aVsf
p103
aVaudiobooks
p104
aV1950s
p105
aVown-kindle
p106
aVsci-fi-fantasy
p107
aVread-in-2016
p108
aVshortstories
p109
aVother
p110
aVbooks-i-own
p111
aVibooks
p112
aVfreebies
p113
aVowned-books
p114
aVamazon
p115
aVaudiobook
p116
aVread-2013
p117
aVshorts
p118
aVstories
p119
aVowned
p120
aVowned-to-read
p121
aVaudio-books
p122
aVnovels
p123
aVnook
p124
aVscifi-fantasy
p125
aVfavorites
p126
aVsci-fic
p127
aV2oth-century
p128
aVto-read-short-story
p129
aVweird-fiction
p130
aV20th-c-amer
p131
aV2017-read
p132
aVfg
p133
aVon-ebook
p134
aVread-in-2017
p135
aVebook-short-stories
p136
aVroman
p137
aVamerican
p138
aVi-own
p139
aVdick-philip
p140
aVficcao
p141
aV20th-century-literature
p142
aVowned-drm-free-ebook
p143
aV2016-reading-challenge
p144
aVsci-fi-and-fantasy-fiction
p145
aVfree-on-kindle
p146
aVunsorted-read
p147
aVon-librivox-web-site
p148
aVshort-fiction
p149
aVstand-alone
p150
aVdigital-copy
p151
aVplex-audiobooks
p152
aVaudio
p153
aVonline
p154
aVtbr
p155
aV_audiobooks
p156
aVclassic
p157
aVenglish-edition
p158
aVlistened-audiobooos
p159
aVread-short-stories
p160
aVaudiobook_2014
p161
aV2016-first-time-read
p162
aV4-stars
p163
aVg-authors
p164
aVon-kobo
p165
aVown-audiobook
p166
aVmoon-reader
p167
aVlr-english
p168
aV20th-century
p169
aVbooks
p170
aVz_fiction
p171
aVx_shortstory
p172
aVanthos-shorts
p173
aV2015-challenge-oldish
p174
aVp-k-d
p175
aVus
p176
aVmy-ebooks
p177
aVpkd-project
p178
aV2015-readings
p179
aVloc-kindle
p180
aVauthor-male
p181
aVwhy-havent-i-read-this-earlier
p182
aVw_us_modern
p183
aVone-nighter
p184
aVkindle-books-i-own
p185
asS'loc_class'
p186
VPS: Language and Literatures: American and Canadian literature
p187
sS'n_authors'
p188
I1
sb.