ccopy_reg
_reconstructor
p0
(cdataset.Book
Book
p1
c__builtin__
object
p2
Ntp3
Rp4
(dp5
S'similar_books'
p6
(lp7
sS'genres'
p8
(lp9
sS'author'
p10
I302
sS'countries'
p11
(lp12
I2
asS'year'
p13
I1974
sS'title'
p14
VGalaxy Magazine January 1974
p15
sS'cover'
p16
Vhttps://ia600208.us.archive.org/BookReader/BookReaderImages.php?zip=/3/items/Galaxy_v34n05_1974-01/Galaxy_v34n05_1974-01_jp2.zip&file=Galaxy_v34n05_1974-01_jp2/Galaxy_v34n05_1974-01_0000.jp2&scale=0&rotate=0
p17
sS'cover_art'
p18
S'http://www.isfdb.org/wiki/images/c/cb/GALJAN74.jpg'
p19
sS'author_name'
p20
VGalaxy Magazine
p21
sS'images_urls'
p22
(lp23
sS'authors'
p24
(lp25
I499
aI326
aI341
aI675
aI660
aI725
aI728
aI558
aI704
aI561
aI729
aI302
asS'images'
p26
(lp27
sS'id'
p28
I1168
sS'contents'
p29
(lp30
(dp31
g10
I499
sg14
VThe Only War We've Got
p32
sa(dp33
g10
I499
sg14
VPassages
p34
sa(dp35
g10
I326
sg14
VSurvival Course
p36
sa(dp37
g10
I499
sg14
VAnswer Came There None
p38
sa(dp39
g10
I499
sg14
VThe Girl with a Symphony in Her Fingers
p40
sa(dp41
g10
I499
sg14
VCalendars
p42
sa(dp43
g10
I499
sg14
VWaves
p44
sa(dp45
g10
I499
sg14
VInverted World (Part 2 of 4)
p46
sa(dp47
g10
I341
sg14
VGalaxy Bookshelf (Galaxy, January 1974)
p48
sa(dp49
g10
I675
sg14
VThe Girl with a Symphony in Her Fingers
p50
sa(dp51
g10
I660
sg14
VThe Only War We've Got
p52
sa(dp53
g10
I725
sg14
VInverted World (Part 2 of 4)
p54
sa(dp55
g10
I728
sg14
VPassages
p56
sa(dp57
g10
I558
sg14
VSurvival Course
p58
sa(dp59
g10
I704
sg14
VAnswer Came There None
p60
sa(dp61
g10
I561
sg14
VCalendars
p62
sa(dp63
g10
I729
sg14
VWaves
p64
sasb.