ccopy_reg
_reconstructor
p0
(cdataset.Book
Book
p1
c__builtin__
object
p2
Ntp3
Rp4
(dp5
S'similar_books'
p6
(lp7
sS'genres'
p8
(lp9
sS'author'
p10
I302
sS'countries'
p11
(lp12
I2
asS'year'
p13
I1960
sS'title'
p14
VGalaxy Magazine April 1960
p15
sS'cover'
p16
Vhttps://ia600203.us.archive.org/BookReader/BookReaderImages.php?zip=/21/items/Galaxy_v18n04_1960-04/Galaxy_v18n04_1960-04_jp2.zip&file=Galaxy_v18n04_1960-04_jp2/Galaxy_v18n04_1960-04_0000.jp2&scale=0&rotate=0
p17
sS'cover_art'
p18
S'http://www.isfdb.org/wiki/images/a/ad/GALAPR1960.jpg'
p19
sS'author_name'
p20
VGalaxy Magazine
p21
sS'images_urls'
p22
(lp23
sS'authors'
p24
(lp25
I519
aI551
aI506
aI552
aI419
aI305
aI326
aI339
aI483
aI198
aI479
aI258
aI95
aI56
aI423
aI211
aI58
aI302
asS'images'
p26
(lp27
sS'id'
p28
I1078
sS'contents'
p29
(lp30
(dp31
g10
I519
sg14
VSuccess Story
p32
sa(dp33
g10
I519
sg14
VSuccess Story [2]
p34
sa(dp35
g10
I519
sg14
VSuccess Story [3]
p36
sa(dp37
g10
I551
sg14
VCondition of Employment
p38
sa(dp39
g10
I519
sg14
VThe Airy Servitor
p40
sa(dp41
g10
I506
sg14
VThe Lady Who Sailed the Soul
p42
sa(dp43
g10
I506
sg14
VThe Lady Who Sailed the Soul [2]
p44
sa(dp45
g10
I506
sg14
VThe Lady Who Sailed the Soul [3]
p46
sa(dp47
g10
I552
sg14
VSolid Solution
p48
sa(dp49
g10
I552
sg14
VSolid Solution [2]
p50
sa(dp51
g10
I519
sg14
VDon't Look Now
p52
sa(dp53
g10
I519
sg14
VDon't Look Now [2]
p54
sa(dp55
g10
I519
sg14
VDon't Look Now [3]
p56
sa(dp57
g10
I419
sg14
VThe Troublemakers
p58
sa(dp59
g10
I419
sg14
VThe Troublemakers [2]
p60
sa(dp61
g10
I419
sg14
VThe Troublemakers [3]
p62
sa(dp63
g10
I305
sg14
VThe World of Tomorrow
p64
sa(dp65
g10
I326
sg14
VForecast (Galaxy, April 1960)
p66
sa(dp67
g10
I339
sg14
VFor Your Information: What's Only Money?
p68
sa(dp69
g10
I483
sg14
VGalaxy's 5 Star Shelf (Galaxy, April 1960)
p70
sa(dp71
g10
I198
sg14
VSuccess Story
p72
sa(dp73
g10
I479
sg14
VThe Lady Who Sailed the Soul
p74
sa(dp75
g10
I258
sg14
VDon't Look Now
p76
sa(dp77
g10
I95
sg14
VThe Troublemakers
p78
sa(dp79
g10
I56
sg14
VCondition of Employment
p80
sa(dp81
g10
I423
sg14
VThe Airy Servitor
p82
sa(dp83
g10
I211
sg14
VSolid Solution
p84
sa(dp85
g10
I58
sg14
VThe Power
p86
sasb.