ccopy_reg
_reconstructor
p0
(cdataset.Book
Book
p1
c__builtin__
object
p2
Ntp3
Rp4
(dp5
S'similar_books'
p6
(lp7
sS'genres'
p8
(lp9
sS'author'
p10
I918
sS'countries'
p11
(lp12
I2
asS'year'
p13
I1954
sS'title'
p14
VIF Magazine June 1954
p15
sS'cover'
p16
Vhttps://ia601309.us.archive.org/BookReader/BookReaderImages.php?zip=/32/items/1954-06_IF/1954-06_IF_jp2.zip&file=1954-06_IF_jp2/1954-06_IF_0000.jp2&scale=0&rotate=0
p17
sS'cover_art'
p18
S'http://www.philsp.com/visco/Magazines/WIF123/WIF1_0011.jpg'
p19
sS'author_name'
p20
VIF Magazine
p21
sS'images_urls'
p22
(lp23
sS'authors'
p24
(lp25
I951
aI956
aI412
aI363
aI969
aI948
aI326
aI32
aI952
aI129
aI935
aI356
aI467
aI609
aI441
aI376
aI918
asS'images'
p26
(lp27
sS'id'
p28
I1233
sS'contents'
p29
(lp30
(dp31
g10
I951
sg14
VSupply Train On the Moon
p32
sa(dp33
g10
I956
sg14
VThe Colonists
p34
sa(dp35
g10
I412
sg14
VNo Strings Attached
p36
sa(dp37
g10
I363
sg14
VThe First Day of Spring
p38
sa(dp39
g10
I363
sg14
VThe Valley
p40
sa(dp41
g10
I969
sg14
VThe Ordeal of Colonel Johns
p42
sa(dp43
g10
I969
sg14
VThe Link
p44
sa(dp45
g10
I412
sg14
VThe Holes and John Smith
p46
sa(dp47
g10
I951
sg14
VSolar Power Plants
p48
sa(dp49
g10
I948
sg14
VA Chat with the Editor (If, June 1954)
p50
sa(dp51
g10
I326
sg14
VWorth Citing (If, June 1954)
p52
sa(dp53
g10
I32
sg14
VSnaring the Human Mind
p54
sa(dp55
g10
I952
sg14
VPersonalities in Science: Newton
p56
sa(dp57
g10
I326
sg14
VWhat Is Your Science I. Q.? (If, June 1954)
p58
sa(dp59
g10
I326
sg14
VScience Briefs (If, June 1954)
p60
sa(dp61
g10
I129
sg14
VThe Colonists
p62
sa(dp63
g10
I935
sg14
VThe First Day of Spring
p64
sa(dp65
g10
I356
sg14
VNo Strings Attached
p66
sa(dp67
g10
I467
sg14
VThe Valley
p68
sa(dp69
g10
I609
sg14
VThe Ordeal of Colonel Johns
p70
sa(dp71
g10
I441
sg14
VThe Link
p72
sa(dp73
g10
I376
sg14
VThe Holes and John Smith
p74
sasb.