ccopy_reg
_reconstructor
p0
(cdataset.Book
Book
p1
c__builtin__
object
p2
Ntp3
Rp4
(dp5
S'similar_books'
p6
(lp7
sS'genres'
p8
(lp9
sS'author'
p10
I302
sS'countries'
p11
(lp12
I2
asS'year'
p13
I1956
sS'title'
p14
VGalaxy Magazine October 1956
p15
sS'cover'
p16
Vhttps://ia601305.us.archive.org/BookReader/BookReaderImages.php?zip=/32/items/Galaxy_v12n06_1956-10/Galaxy_v12n06_1956-10_jp2.zip&file=Galaxy_v12n06_1956-10_jp2/Galaxy_v12n06_1956-10_0000.jp2&scale=0&rotate=0
p17
sS'cover_art'
p18
S'http://www.isfdb.org/wiki/images/1/13/MLO4430.jpg'
p19
sS'author_name'
p20
VGalaxy Magazine
p21
sS'images_urls'
p22
(lp23
sS'authors'
p24
(lp25
I363
aI419
aI499
aI494
aI497
aI305
aI339
aI483
aI56
aI385
aI243
aI441
aI217
aI302
asS'images'
p26
(lp27
sS'id'
p28
I1044
sS'contents'
p29
(lp30
(dp31
S'title'
p32
VThe Stars My Destination (Part 1 of 4)
p33
sS'author'
p34
I363
sa(dp35
g32
VThe Stars My Destination (Part 1 of 4) [2]
p36
sg34
I363
sa(dp37
g32
VThe Stars My Destination (Part 1 of 4) [3]
p38
sg34
I363
sa(dp39
g32
VThe Stars My Destination (Part 1 of 4) [4]
p40
sg34
I363
sa(dp41
g32
VMan of Distinction
p42
sg34
I419
sa(dp43
g32
VProblem
p44
sg34
I499
sa(dp45
g32
VGeorge All the Way
p46
sg34
I494
sa(dp47
g32
VJackpot
p48
sg34
I497
sa(dp49
g32
VJackpot [2]
p50
sg34
I497
sa(dp51
g32
VJackpot [3]
p52
sg34
I497
sa(dp53
g32
VWhy, Back Home ...
p54
sg34
I305
sa(dp55
g32
VFor Your Information: The Animal in the Footnotes
p56
sg34
I339
sa(dp57
g32
VGalaxy's 5 Star Shelf (Galaxy, October 1956)
p58
sg34
I483
sa(dp59
g32
VJackpot
p60
sg34
I56
sa(dp61
g32
VThe Stars My Destination (Part 1 of 4)
p62
sg34
I385
sa(dp63
g32
VMan of Distinction
p64
sg34
I243
sa(dp65
g32
VProblem
p66
sg34
I441
sa(dp67
g32
VGeorge All the Way
p68
sg34
I217
sasb.