ccopy_reg
_reconstructor
p0
(cdataset.Book
Book
p1
c__builtin__
object
p2
Ntp3
Rp4
(dp5
S'similar_books'
p6
(lp7
sS'genres'
p8
(lp9
sS'author'
p10
I918
sS'countries'
p11
(lp12
I2
asS'year'
p13
I1966
sS'title'
p14
VIF Magazine October 1966
p15
sS'cover'
p16
Vhttps://ia601305.us.archive.org/BookReader/BookReaderImages.php?zip=/11/items/1966-10_IF/1966-10_IF_jp2.zip&file=1966-10_IF_jp2/1966-10_IF_0000.jp2&scale=0&rotate=0
p17
sS'cover_art'
p18
S'http://www.isfdb.org/wiki/images/0/06/WOFIFOCT1966.jpg'
p19
sS'author_name'
p20
VIF Magazine
p21
sS'images_urls'
p22
(lp23
sS'authors'
p24
(lp25
I611
aI499
aI545
aI497
aI1132
aI1125
aI40
aI604
aI622
aI384
aI630
aI1133
aI687
aI1134
aI315
aI918
asS'images'
p26
(lp27
sS'id'
p28
I1324
sS'contents'
p29
(lp30
(dp31
g10
I611
sg14
VNeutron Star
p32
sa(dp33
g10
I499
sg14
VSnow White and the Giants (Part 1 of 4)
p34
sa(dp35
g10
I545
sg14
VTunnel Warrior
p36
sa(dp37
g10
I497
sg14
VOn the Edge of the Galaxy
p38
sa(dp39
g10
I499
sg14
VEdge of Night (Part 2 of 2)
p40
sa(dp41
g10
I497
sg14
VIn the Bone
p42
sa(dp43
g10
I1132
sg14
VTv
p44
sa(dp45
g10
I1125
sg14
VHandy Phrase Book in Fannish
p46
sa(dp47
g10
I40
sg14
VHue and Cry (If, October 1966)
p48
sa(dp49
g10
I604
sg14
VNeutron Star
p50
sa(dp51
g10
I622
sg14
VTunnel Warrior
p52
sa(dp53
g10
I384
sg14
VSnow White and the Giants (Part 1 of 4)
p54
sa(dp55
g10
I630
sg14
VEdge of Night (Part 2 of 2)
p56
sa(dp57
g10
I1133
sg14
VYour Soldier Unto Death
p58
sa(dp59
g10
I687
sg14
VOn the Edge of the Galaxy
p60
sa(dp61
g10
I1134
sg14
VThe Spy Game
p62
sa(dp63
g10
I315
sg14
VIn the Bone
p64
sasb.