ccopy_reg
_reconstructor
p0
(cdataset.Book
Book
p1
c__builtin__
object
p2
Ntp3
Rp4
(dp5
S'content_name'
p6
V50818.txt.utf-8
p7
sS'isbn'
p8
V1597801429
p9
sS'year'
p10
I2001
sS'author_name'
p11
VJim Harmon
p12
sS'images_urls'
p13
(lp14
Vhttp://www.gutenberg.org/files/50818/50818-h/images/cover.jpg
p15
aVhttp://www.gutenberg.org/files/50818/50818-h/images/illus1.jpg
p16
aVhttp://www.gutenberg.org/files/50818/50818-h/images/illus2.jpg
p17
aVhttp://www.gutenberg.org/files/50818/50818-h/images/illus3.jpg
p18
asS'language_code'
p19
NsS'images'
p20
(lp21
sS'id'
p22
I676
sS'category'
p23
VText
p24
sS'genres'
p25
(lp26
sS'copyright'
p27
VPublic domain in the USA.
p28
sS'title'
p29
VHow to Make Friends
p30
sS'wikipedia'
p31
(dp32
S'found'
p33
I00
ssS'average_rating'
p34
F3.69
sS'rating_count'
p35
I352
sS'content_available'
p36
I01
sS'cover_art_url'
p37
S'http://www.gutenberg.org/cache/epub/50818/pg50818.cover.medium.jpg'
p38
sS'goodreads'
p39
(dp40
S'url'
p41
Vhttps://www.goodreads.com/book/show/4254923-how-to-make-friends-with-demons
p42
sg33
I01
sS'year'
p43
I2001
ssS'similar_books'
p44
(lp45
VDusk (Tales of Noreela, #1)
p46
aVThe Grin of the Dark
p47
aVOne
p48
aVSong of Time
p49
aVRandom Magic
p50
aVThe Ninth Circle
p51
aVThe Night of the Triffids
p52
aVWalking The Tree
p53
aVPerdido Street Station 1 (New Crobuzon #1.1)
p54
aVThe Suicide Collectors
p55
aVThe Hollow Lands (Dancers at the End of Time, #2)
p56
aVA Banquet for Hungry Ghosts: A Collection of Deliciously Frightening Tales
p57
aVTerraforming Earth
p58
aVSigns Of Life
p59
aVAd Eternum (New Amsterdam, #4)
p60
aVGalveston (Resurrection Man, #3)
p61
aVProdigal Blues
p62
aVThe Shadow Year
p63
asS'description'
p64
VWilliam Heaney is a man well acquainted with demons. Not his broken family \u2014 his wife has left him for a celebrity chef, his snobbish teenaged son despises him, and his daughter's new boyfriend resembles Nosferatu \u2014 nor his drinking problem, nor his unfulfilling government job, but real demons. For demons are real, and William has identified one thousand five hundred and sixty-seven smoky figures, dwelling on the shadowy fringes of human life, influencing our decisions with their sweet and poisoned voices.<br /> After a series of seemingly unconnected personal encounters \u2014 with a beautiful and captivating woman met in the company of an infuriating poet, a troubled and damaged veteran of Desert Storm with demons of his own, and an old school acquaintance with whom he shared a mystical occult ritual \u2014 William Heaney's life is thrown into a direction he does not fully comprehend. Past and present collide. Long-dormant choices and forgotten deceptions surface. Secrets threaten to become exposed. To weather the changes, William Heaney must learn one thing: how to make friends with demons.<br /><br />Skyhorse Publishing, under our Night Shade and Talos imprints, is proud to publish a broad range of titles for readers interested in science fiction (space opera, time travel, hard SF, alien invasion, near-future dystopia), fantasy (grimdark, sword and sorcery, contemporary urban fantasy, steampunk, alternative history), and horror (zombies, vampires, and the occult and supernatural), and much more. While not every title we publish becomes a <i>New York Times</i> bestseller, a national bestseller, or a Hugo or Nebula award-winner, we are committed to publishing quality books from a diverse group of authors.
p65
sS'format'
p66
VHardcover
p67
sS'gutenberg'
p68
(dp69
g41
Vhttp://www.gutenberg.org/ebooks/50818
p70
sS'num'
p71
I50818
ssS'authors'
p72
(lp73
I142
asS'pages'
p74
I298
sS'isbn13'
p75
V9781597801423
p76
sS'language'
p77
VEnglish
p78
sS'release_date'
p79
S'2016-01-01T00:00:00'
p80
sS'author'
p81
I142
sS'content_cleaned'
p82
I01
sS'classes'
p83
(lp84
Vfiction
p85
aVto-read
p86
aVhorror
p87
aVurban-fantasy
p88
aVowned
p89
aVbooks-i-own
p90
aVebook
p91
aVbooks
p92
aVmagical-realism
p93
aVto-buy
p94
aVbook-club
p95
aVcontemporary
p96
aVtbr
p97
aVdemons
p98
aVcontemporary-fiction
p99
aVengland
p100
aVcurrently-reading
p101
aVpal
p102
aVen-attente
p103
aVmystery
p104
aVnook
p105
aVgraham-joyce
p106
aVnext
p107
aVlibrary
p108
aVliterature
p109
aVsupernatural
p110
aVforgery
p111
aVsci-fi-fantasy
p112
aVsff
p113
aVspeculative-fiction
p114
aVparanormal
p115
aVdrama
p116
aVread-in-2017
p117
aVto-read-d
p118
aVon-calibre-to-read
p119
aVauteur
p120
aVfantasy
p121
aVcalibre-books
p122
aVbritish
p123
aV00-to-read-02
p124
aV2017-to-read
p125
aVon-shelf
p126
aVlife-is-life-nananana
p127
aVat-library
p128
aVfollow-up-reading
p129
aVto-borrow
p130
aVspotted-while-shelving
p131
aVbook-bingo
p132
aVgenre-fantasy
p133
aV1-own
p134
aVentertaining-but-limited
p135
aV3-star
p136
aVread-2016
p137
aVown-but-not-read-yet
p138
aVlisa
p139
aVhardcover-trade
p140
aVtbr_standalone
p141
aVlanguage-english
p142
aVin-sweden
p143
aVreaders
p144
aVen-ebook
p145
aVmy-bookshelf
p146
aV_garbage
p147
aVbiblioteca-de-casa
p148
aV02sftr
p149
aVbook-jar
p150
aValready-dl
p151
aVfantasy-to-read
p152
aVwhy-i-bought-this
p153
aVurban
p154
aVhorror-supernatural
p155
aVhomeless-shelter
p156
aVfamily-relationships
p157
aVdemons-literal-or-figurative
p158
aVmagic-realism
p159
aVhistorical-fiction
p160
aVenglish-language
p161
aVshelfari-wishlist
p162
aVinteresting
p163
aVown-to-read
p164
aVcould-read
p165
aVoccult-fiction
p166
aVfiction-and-other
p167
aVown-physical
p168
aVsupernatural-fantasy-scifi
p169
aV2015-reading
p170
aVstand-alone-books
p171
aV2015-to-read
p172
aVown-but-have-not-read
p173
aVsold-or-given-away
p174
aVread-before-2012
p175
aVfantasy-and-scifi-to-read
p176
aVlivros-2015
p177
aVmeus
p178
aVaquisi-es-2015
p179
aVread-before-goodreads
p180
aVown-book
p181
aVall-time-favourites
p182
aVreading-slowly
p183
aVestante-lidos
p184
asS'loc_class'
p185
S''
p186
sS'n_authors'
p187
I1
sb.