ccopy_reg
_reconstructor
p0
(cdataset.Book
Book
p1
c__builtin__
object
p2
Ntp3
Rp4
(dp5
S'isbn'
p6
NsS'year'
p7
I1926
sS'author_name'
p8
VRalph Milne Farley
p9
sS'images_urls'
p10
(lp11
Vhttp://www.gutenberg.org/files/52326/52326-h/images/cover.jpg
p12
aVhttp://www.gutenberg.org/files/52326/52326-h/images/p1.jpg
p13
asS'language_code'
p14
Veng
p15
sS'images'
p16
(lp17
sS'id'
p18
I333
sS'category'
p19
VText
p20
sS'genres'
p21
(lp22
sS'copyright'
p23
VPublic domain in the USA.
p24
sS'title'
p25
VThe Radio Planet
p26
sS'wikipedia'
p27
(dp28
S'url'
p29
Vhttps://en.wikipedia.org/wiki/The_Radio_Man
p30
sS'found'
p31
I01
sS'year'
p32
I-1
ssS'published_in'
p33
NsS'average_rating'
p34
F3.47
sS'rating_count'
p35
I27
sS'content_available'
p36
I00
sS'cover_art_url'
p37
S'http://www.gutenberg.org/cache/epub/52326/pg52326.cover.medium.jpg'
p38
sS'goodreads'
p39
(dp40
g29
Vhttps://www.goodreads.com/book/show/2258426.The_Radio_Planet
p41
sg31
I01
sg32
I1926
ssS'similar_books'
p42
(lp43
sS'description'
p44
VWhen Myles Cabot, inventor of radio transmission of matter, found himself alone on an unknown continent of the planet Venus, he realized that getting back to his old headquarters and his loved ones presented some impossible problems. <br />He'd have to settle a war between primitive natives and an unholy alliance of monsters, dinosaurs, and giant insects. He'd have to build an electronic device from raw rocks and untapped resources. And if he succeeded in all that, he'd still have to find his way home. A vintage novel of science and adventure from the Golden Years of Science Fiction!
p45
sS'format'
p46
VPaperback
p47
sS'gutenberg'
p48
(dp49
g29
Vhttp://www.gutenberg.org/ebooks/52326
p50
sS'num'
p51
I52326
ssS'authors'
p52
(lp53
I99
asS'pages'
p54
I224
sS'isbn13'
p55
NsS'language'
p56
VEnglish
p57
sS'country'
p58
I2
sS'release_date'
p59
S'2016-06-14T00:00:00'
p60
sS'author'
p61
I99
sS'original_title'
p62
VThe Radio Man
p63
sS'summary'
p64
VThe Radio Man is a science fiction novel by American writer Ralph Milne Farley. It is the first book in Farley's Radio Man series. It was first published in book form in 1948 by Fantasy Publishing Company, Inc. in an edition of 1,000 copies. The novel was originally serialized in the magazine Argosy.
p65
sS'classes'
p66
(lp67
Vto-read
p68
aVscience-fiction
p69
aVfiction
p70
aVsf
p71
aVfiction_speculative_sciencefiction
p72
aVfiction_speculative
p73
aVsci-fi-fantasy
p74
aVowned
p75
aVcurrently-reading
p76
aV20th-century-lit
p77
aVpulp
p78
aVplanetary-romance-space-opera
p79
aVfantasy
p80
aVcryptid-giant-bugs
p81
aVadventure
p82
aVseries
p83
aVtrillion-year-spree-recs
p84
aVscifi
p85
aVto-be-cataloged
p86
aVsci-fi-golden-age
p87
aVavailable
p88
aVdefault
p89
aVcollection
p90
aVe-books
p91
aVjohns-books
p92
aVsword-and-planet
p93
aVunfinished-abandoned-recycled
p94
aVpaperback
p95
aVbooks-owned
p96
aVpulp-fiction
p97
aVwish-list_all
p98
aVtub2
p99
aVscanning
p100
aVwish-list_sff
p101
aVread-prior-to-1987
p102
aVfavorite_characters
p103
aVseries_started
p104
aVseries-complete
p105
aVformat-deadtree
p106
aVborrowed
p107
aVsci-fi
p108
asS'loc_class'
p109
S''
p110
sS'n_authors'
p111
I1
sb.