ccopy_reg
_reconstructor
p0
(cdataset.Book
Book
p1
c__builtin__
object
p2
Ntp3
Rp4
(dp5
S'content_name'
p6
V30014.txt.utf-8
p7
sS'isbn'
p8
NsS'year'
p9
I1953
sS'author_name'
p10
VT. D. Hamm
p11
sS'images_urls'
p12
(lp13
Vhttp://www.gutenberg.org/files/30014/30014-h/images/001.png
p14
aVhttp://www.gutenberg.org/files/30014/30014-h/images/002-1.jpg
p15
aVhttp://www.gutenberg.org/files/30014/30014-h/images/002-2.jpg
p16
asS'language_code'
p17
Veng
p18
sS'id'
p19
I801
sS'category'
p20
VText
p21
sS'genres'
p22
(lp23
sS'copyright'
p24
VPublic domain in the USA.
p25
sS'title'
p26
VNative Son
p27
sS'wikipedia'
p28
(dp29
S'found'
p30
I00
ssS'average_rating'
p31
F3.96
sS'rating_count'
p32
I32
sS'content_available'
p33
I01
sS'goodreads'
p34
(dp35
S'url'
p36
S'https://www.goodreads.com/book/show/13007515-native-son'
p37
sS'found'
p38
I01
ssS'similar_books'
p39
(lp40
sS'description'
p41
VThis book was converted from its physical edition to the digital format by a community of volunteers. You may find it for free on the web. Purchase of the Kindle edition includes wireless delivery.
p42
sS'gutenberg'
p43
(dp44
S'url'
p45
Vhttp://www.gutenberg.org/ebooks/30014
p46
sS'num'
p47
I30014
ssS'authors'
p48
(lp49
I255
asS'pages'
p50
I7
sS'isbn13'
p51
NsS'language'
p52
VEnglish
p53
sS'countries'
p54
(lp55
I3
asS'release_date'
p56
S'2009-09-17T00:00:00'
p57
sS'author'
p58
I255
sS'content_cleaned'
p59
I01
sS'classes'
p60
(lp61
Vto-read
p62
aVcurrently-reading
p63
aVkindle
p64
aVclassics
p65
aVone-a-day-4
p66
aVone-book-a-day
p67
aVanthology
p68
aVfiction
p69
aVenglish
p70
aVebooks
p71
aVrh17-17-classic-by-author-of-color
p72
aV2017-read-hard
p73
aVauthor-of-color
p74
aVafrican-american
p75
aVliterary-classics
p76
aVsfbywomen
p77
aVsf
p78
aVshort-story
p79
aVdo-not-own
p80
aVqm
p81
aVfavs
p82
aVscience-fiction
p83
aVkindle-books
p84
aVsci-fi_short_stories
p85
aVown-to-read
p86
aVread-2012
p87
aVtype-short-story
p88
asS'loc_class'
p89
VPS: Language and Literatures: American and Canadian literature
p90
sS'n_authors'
p91
I1
sb.