ccopy_reg
_reconstructor
p0
(cdataset.Book
Book
p1
c__builtin__
object
p2
Ntp3
Rp4
(dp5
S'content_name'
p6
V51531.txt.utf-8
p7
sS'isbn'
p8
V0061996165
p9
sS'year'
p10
I2011
sS'author_name'
p11
VC. M. Kornbluth
p12
sS'images_urls'
p13
(lp14
Vhttp://www.gutenberg.org/files/51531/51531-h/images/cover.jpg
p15
aVhttp://www.gutenberg.org/files/51531/51531-h/images/illus1.jpg
p16
aVhttp://www.gutenberg.org/files/51531/51531-h/images/illus2.jpg
p17
asS'language_code'
p18
Ven-US
p19
sS'images'
p20
(lp21
sS'id'
p22
I540
sS'category'
p23
VText
p24
sS'genres'
p25
(lp26
sS'copyright'
p27
VPublic domain in the USA.
p28
sS'title'
p29
VWith These Hands
p30
sS'wikipedia'
p31
(dp32
S'url'
p33
Vhttps://en.wikipedia.org/wiki/The_Explorers_(collection)
p34
sS'found'
p35
I01
sS'year'
p36
I-1
ssS'published_in'
p37
NsS'average_rating'
p38
F4.06
sS'rating_count'
p39
I100093
sS'content_available'
p40
I01
sS'cover_art_url'
p41
S'http://www.gutenberg.org/cache/epub/51531/pg51531.cover.medium.jpg'
p42
sS'goodreads'
p43
(dp44
g33
Vhttps://www.goodreads.com/book/show/7488244-unearthly
p45
sg35
I01
sg36
I2011
ssS'similar_books'
p46
(lp47
VWings of the Wicked (Angelfire, #2)
p48
aVA Touch Mortal (A Touch Trilogy, #1)
p49
aVAngel (Angel, #1)
p50
aVShift (Shade, #2)
p51
aVSecrets and Shadows (13 to Life, #2)
p52
aVThe Body Finder (The Body Finder, #1)
p53
aVDark Kiss (Nightwatchers, #1)
p54
aVEnticed (The Violet Eden Chapters, #2)
p55
aVDemonglass (Hex Hall, #2)
p56
aVSupernaturally (Paranormalcy, #2)
p57
aVMercy (Mercy, #1)
p58
aVHourglass (Hourglass, #1)
p59
aVA Beautiful Dark (A Beautiful Dark, #1)
p60
aVHemlock (Hemlock, #1)
p61
aVDarkness Becomes Her (Gods & Monsters, #1)
p62
aVDie for Me (Revenants, #1)
p63
aVNevermore (Nevermore, #1)
p64
aVImmortal Beloved (Immortal Beloved, #1)
p65
asS'description'
p66
VIn the beginning, there's a boy standing in the trees...<br />Clara Gardner has recently learned that she's part angel. Having angel blood run through her veins not only makes her smarter, stronger, and faster than humans (a word, she realizes, that no longer applies to her), but it means she has a purpose, something she was put on this earth to do. Figuring out what that is, though, isn't easy.<br /><br />Her visions of a raging forest fire and an alluring stranger lead her to a new school in a new town. When she meets Christian, who turns out to be the boy of her dreams (literally), everything seems to fall into place and out of place at the same time. Because there's another guy, Tucker, who appeals to Clara's less angelic side.<br /><br />As Clara tries to find her way in a world she no longer understands, she encounters unseen dangers and choices she never thought she'd have to make between honesty and deceit, love and duty, good and evil. When the fire from her vision finally ignites, will Clara be ready to face her destiny?<br /><br />Unearthly is a moving tale of love and fate, and the struggle between following the rules and following your heart.
p67
sS'format'
p68
VHardcover
p69
sS'gutenberg'
p70
(dp71
g33
Vhttp://www.gutenberg.org/ebooks/51531
p72
sS'num'
p73
I51531
ssS'authors'
p74
(lp75
I51
asS'pages'
p76
I435
sS'isbn13'
p77
V9780061996160
p78
sS'language'
p79
VEnglish
p80
sS'countries'
p81
(lp82
I2
asS'release_date'
p83
S'2016-03-22T00:00:00'
p84
sS'author'
p85
I51
sS'original_title'
p86
VThe Explorers (collection)
p87
sS'summary'
p88
VThe Explorers is the first collection of stories by science fiction writer C. M. Kornbluth, originally published in paperback by Ballantine Books in 1954. Ballantine reissued the collection in 1963. While no further editions of the collection were published, six of its nine stories were included in Ballantine's 1977 The Best of C. M. Kornbluth, and all the stories are contained in NESFA's 1997 His Share of Glory: The Complete Short Science Fiction of C. M. Kornbluth.\u000a\u000a
p89
sS'content_cleaned'
p90
I01
sS'classes'
p91
(lp92
Vto-read
p93
aVfavorites
p94
aVyoung-adult
p95
aVangels
p96
aVfantasy
p97
aVparanormal
p98
aVya
p99
aVromance
p100
aVcurrently-reading
p101
aVbooks-i-own
p102
aVseries
p103
aVparanormal-romance
p104
aVsupernatural
p105
aVurban-fantasy
p106
aVowned
p107
aVto-buy
p108
aVlove-triangle
p109
aVfiction
p110
aVfavourites
p111
aVkindle
p112
aVlibrary
p113
aVangel
p114
aVunearthly
p115
aVangels-demons
p116
aVread-in-2011
p117
aVread-in-2012
p118
aVwish-list
p119
aVangels-and-demons
p120
aVebook
p121
aVya-fantasy
p122
aVowned-books
p123
aVmaybe
p124
aVi-own
p125
aVya-paranormal
p126
aVteen
p127
aVread-in-2013
p128
aVebooks
p129
aV5-stars
p130
aVreviewed
p131
aVfirst-in-series
p132
aVcynthia-hand
p133
aVwant-to-read
p134
aVmy-books
p135
aVya-fiction
p136
aVfavorite-books
p137
aV4-stars
p138
aVhigh-school
p139
aVlove-triangles
p140
aVbeautiful-covers
p141
aVfantasy-paranormal
p142
aVfavorite
p143
aVcontemporary
p144
aVread-2012
p145
aVpnr
p146
aVya-books
p147
aVmust-read
p148
aVread-2013
p149
aVtrilogy
p150
aVe-books
p151
aVread-in-2014
p152
aVfinished-series
p153
aVya-romance
p154
aVre-read
p155
aVown-it
p156
aVread-2011
p157
aVmagic
p158
aVe-book
p159
aVmythology
p160
aVparanormal-fantasy
p161
aVyoung-adult-fiction
p162
aVfavorite-series
p163
aVnephilim
p164
aVhave
p165
aVfallen-angels
p166
aVarc
p167
aVbook-boyfriends
p168
aVseries-to-start
p169
aVsigned
p170
aVcompleted-series
p171
aVdnf
p172
aVneed-to-buy
p173
aVcover-love
p174
aV2013-reads
p175
aVseries-to-read
p176
aV2011-reads
p177
aVbooks
p178
aVaudiobook
p179
aVdemons
p180
aVmy-favorites
p181
aVtbr
p182
aVmystery
p183
aVlove
p184
aVnook
p185
aVyoung-adult-fantasy
p186
aVwant
p187
aVlibrary-books
p188
aVunearthly-series
p189
aVto-read-series
p190
aVlove-the-cover
p191
aVfirst-in-a-series
p192
asS'loc_class'
p193
S''
p194
sS'n_authors'
p195
I1
sb.