ccopy_reg
_reconstructor
p0
(cdataset.Book
Book
p1
c__builtin__
object
p2
Ntp3
Rp4
(dp5
S'content_name'
p6
V51508.txt.utf-8
p7
sS'isbn'
p8
V0312590563
p9
sS'year'
p10
I2011
sS'author_name'
p11
VDaniel F. Galouye
p12
sS'images_urls'
p13
(lp14
Vhttp://www.gutenberg.org/files/51508/51508-h/images/cover.jpg
p15
aVhttp://www.gutenberg.org/files/51508/51508-h/images/illus1.jpg
p16
aVhttp://www.gutenberg.org/files/51508/51508-h/images/illus2.jpg
p17
asS'language_code'
p18
Ven-US
p19
sS'images'
p20
(lp21
sS'id'
p22
I787
sS'category'
p23
VText
p24
sS'genres'
p25
(lp26
sS'copyright'
p27
VPublic domain in the USA.
p28
sS'title'
p29
VThe Chasers
p30
sS'wikipedia'
p31
(dp32
S'found'
p33
I00
ssS'average_rating'
p34
F3.53
sS'rating_count'
p35
I11228
sS'content_available'
p36
I01
sS'cover_art_url'
p37
S'http://www.gutenberg.org/cache/epub/51508/pg51508.cover.medium.jpg'
p38
sS'goodreads'
p39
(dp40
S'url'
p41
Vhttps://www.goodreads.com/book/show/10174795-glow
p42
sg33
I01
sS'year'
p43
I2011
ssS'similar_books'
p44
(lp45
VNeva
p46
aVXVI (XVI, #1)
p47
aVScored
p48
aVThe Predicteds
p49
aVTankborn (Tankborn, #1)
p50
aVAfter the Snow (After the Snow, #1)
p51
aVMemento Nora (Memento Nora, #1)
p52
aVEarth Girl (Earth Girl, #1)
p53
aVThe Forsaken (The Forsaken, #1)
p54
aVBeta (Annex, #1)
p55
aVAshes of Twilight (Ashes Trilogy, #1)
p56
aVSolstice
p57
aVThe Pearl Wars (Skyship Academy, #1)
p58
aVA Long, Long Sleep
p59
aVHuman.4 (Point 4, #1)
p60
aVPossession (Possession, #1)
p61
aVCold Kiss (Cold Kiss, #1)
p62
aVRestoring Harmony
p63
asS'description'
p64
VWhat if you were bound for a new world, about to pledge your life to someone you'd been promised to since birth, and one unexpected violent attack made survival\u2014not love\u2014the issue?<br /><br />Out in the murky nebula lurks an unseen enemy: the New Horizon. On its way to populate a distant planet in the wake of Earth's collapse, the ship's crew has been unable to conceive a generation to continue its mission. They need young girls desperately, or their zealous leader's efforts will fail. Onboard their sister ship, the Empyrean, the unsuspecting families don't know an attack is being mounted that could claim the most important among them...<br /><br />Fifteen-year-old Waverly is part of the first generation to be successfully conceived in deep space; she was born on the Empyrean, and the large farming vessel is all she knows. Her concerns are those of any teenager\u2014until Kieran Alden proposes to her. The handsome captain-to-be has everything Waverly could ever want in a husband, and with the pressure to start having children, everyone is sure he's the best choice. Except for Waverly, who wants more from life than marriage\u2014and is secretly intrigued by the shy, darkly brilliant Seth.<br /><br />But when the Empyrean faces sudden attack by their assumed allies, they quickly find out that the enemies aren't all from the outside.
p65
sS'format'
p66
NsS'gutenberg'
p67
(dp68
g41
Vhttp://www.gutenberg.org/ebooks/51508
p69
sS'num'
p70
I51508
ssS'authors'
p71
(lp72
I220
asS'pages'
p73
I307
sS'isbn13'
p74
V9780312590567
p75
sS'language'
p76
VEnglish
p77
sS'country'
p78
I3
sS'release_date'
p79
S'2016-03-20T00:00:00'
p80
sS'author'
p81
I220
sS'content_cleaned'
p82
I01
sS'classes'
p83
(lp84
Vyoung-adult
p85
aVsci-fi
p86
aVscience-fiction
p87
aVdystopian
p88
aVya
p89
aVcurrently-reading
p90
aVdystopia
p91
aVbooks-i-own
p92
aVto-read
p93
aVromance
p94
aVseries
p95
aVfavorites
p96
aVfirst-reads
p97
aVfantasy
p98
aVarc
p99
aVfiction
p100
aVowned
p101
aVspace
p102
aVteen
p103
aVadventure
p104
aVlibrary
p105
aVscifi
p106
aVaudiobook
p107
aVfuturistic
p108
aVto-buy
p109
aVmaybe
p110
aVread-in-2011
p111
aVread-in-2012
p112
aVi-own
p113
aVwish-list
p114
aVdnf
p115
aVpost-apocalyptic
p116
aVya-fiction
p117
aVowned-books
p118
aVreviewed
p119
aVarcs
p120
aVdid-not-finish
p121
aVfirst-in-series
p122
aVya-sci-fi
p123
aVaction
p124
aVsurvival
p125
aVfor-review
p126
aVown-it
p127
aVfuture
p128
aVown-to-read
p129
aVabandoned
p130
aVlove-triangle
p131
aVebook
p132
aVsci-fi-fantasy
p133
aVsub
p134
aVtbr
p135
aVspace-travel
p136
aVaudio
p137
aVwon
p138
aVyoung-adult-fiction
p139
aVread-in-2014
p140
aVread-2012
p141
aVseries-to-read
p142
aVkindle
p143
aVwant-to-read
p144
aVread-in-2013
p145
aVbooks-i-have
p146
aVaudiobooks
p147
aVebooks
p148
aVnook
p149
aVsky-chasers
p150
aVhave
p151
aVya-dystopian
p152
aVya-lit
p153
aVdystopian-post-apocalyptic
p154
aV2011-release
p155
aV2011-reads
p156
aVmy-books
p157
aVlibrary-books
p158
aVto-read-series
p159
aVya-books
p160
aVfirst-in-a-series
p161
aVlost-interest
p162
aVtbr-pile
p163
aVread-2011
p164
aVon-my-shelf
p165
aVteen-fiction
p166
aVpaperback
p167
aVmaybe-to-read
p168
aVread-2013
p169
aVbooks-to-buy
p170
aVtrilogy
p171
aVfavourites
p172
aVya-dystopia
p173
aVdidn-t-finish
p174
aVmaybe-read
p175
aVneed-to-buy
p176
aVya-to-read
p177
aVdefault
p178
aVbookshelf
p179
aV2012-reads
p180
aVhardcover
p181
aVat-library
p182
aVaudio-books
p183
aVseries-to-start
p184
asS'loc_class'
p185
S''
p186
sS'n_authors'
p187
I1
sb.