ccopy_reg
_reconstructor
p0
(cdataset.Book
Book
p1
c__builtin__
object
p2
Ntp3
Rp4
(dp5
S'similar_books'
p6
(lp7
sS'genres'
p8
(lp9
sS'author'
p10
I302
sS'countries'
p11
(lp12
I2
asS'year'
p13
I1968
sS'title'
p14
VGalaxy Magazine February 1968
p15
sS'cover'
p16
Vhttps://ia600209.us.archive.org/BookReader/BookReaderImages.php?zip=/26/items/Galaxy_v26n03_1968-02_modified/Galaxy_v26n03_1968-02_modified_jp2.zip&file=Galaxy_v26n03_1968-02_modified_jp2/Galaxy_v26n03_1968-02_modified_0000.jp2&scale=0&rotate=0
p17
sS'cover_art'
p18
S'http://www.isfdb.org/wiki/images/f/f9/GALFEB68.jpg'
p19
sS'author_name'
p20
VGalaxy Magazine
p21
sS'images_urls'
p22
(lp23
sS'authors'
p24
(lp25
I545
aI326
aI499
aI615
aI519
aI40
aI339
aI91
aI23
aI592
aI67
aI30
aI621
aI32
aI45
aI74
aI302
asS'images'
p26
(lp27
sS'id'
p28
I1121
sS'contents'
p29
(lp30
(dp31
S'title'
p32
VA Tragedy of Errors
p33
sS'author'
p34
I545
sa(dp35
g32
VA Tragedy of Errors [2]
p36
sg34
I545
sa(dp37
g32
VA Tragedy of Errors [3]
p38
sg34
I545
sa(dp39
g32
VA Tragedy of Errors [4]
p40
sg34
I545
sa(dp41
g32
VThe Planet Slummers
p42
sg34
I326
sa(dp43
g32
VCrazy Annaoj
p44
sg34
I499
sa(dp45
g32
VStreet of Dreams, Feet of Clay
p46
sg34
I615
sa(dp47
g32
VStreet of Dreams, Feet of Clay [2]
p48
sg34
I615
sa(dp49
g32
VStreet of Dreams, Feet of Clay [3]
p50
sg34
I615
sa(dp51
g32
VSales of a Deathman
p52
sg34
I499
sa(dp53
g32
VTotal Environment
p54
sg34
I499
sa(dp55
g32
VTotal Environment [2]
p56
sg34
I499
sa(dp57
g32
VTotal Environment [3]
p58
sg34
I499
sa(dp59
g32
VTotal Environment [4]
p60
sg34
I499
sa(dp61
g32
VTotal Environment [5]
p62
sg34
I499
sa(dp63
g32
VGalaxy Bookshelf (Galaxy Magazine, February 1968)
p64
sg34
I499
sa(dp65
g32
VHow They Gave It Back
p66
sg34
I545
sa(dp67
g32
VThe Big Show
p68
sg34
I519
sa(dp69
g32
VThe Big Show [2]
p70
sg34
I519
sa(dp71
g32
VPlaying Games
p72
sg34
I40
sa(dp73
g32
VStatement of Ownership (Galaxy, February 1968) (Circulation:74,700)
p74
sg34
I326
sa(dp75
g32
VFor Your Information: Epitaph for a Lonely Olm
p76
sg34
I339
sa(dp77
g32
VGalaxy Bookshelf (Galaxy, February 1968)
p78
sg34
I91
sa(dp79
g32
VReview of the Nonfiction Work "This New Ocean"
p80
sg34
I91
sa(dp81
g32
VForecast (Galaxy, February 1968)
p82
sg34
I326
sa(dp83
g32
VStreet of Dreams, Feet of Clay
p84
sg34
I23
sa(dp85
g32
VTotal Environment
p86
sg34
I592
sa(dp87
g32
VThe Big Show
p88
sg34
I67
sa(dp89
g32
VA Tragedy of Errors
p90
sg34
I30
sa(dp91
g32
VThe Planet Slummers
p92
sg34
I621
sa(dp93
g32
VCrazy Annaoj
p94
sg34
I32
sa(dp95
g32
VSales of a Deathman
p96
sg34
I45
sa(dp97
g32
VHow They Gave It Back
p98
sg34
I74
sasb.