ccopy_reg
_reconstructor
p0
(cdataset.Book
Book
p1
c__builtin__
object
p2
Ntp3
Rp4
(dp5
S'content_name'
p6
V23669.txt.utf-8
p7
sS'isbn'
p8
V1496700988
p9
sS'year'
p10
I2016
sS'author_name'
p11
VMack Reynolds
p12
sS'images_urls'
p13
(lp14
Vhttp://www.gutenberg.org/files/23669/23669-h/images/image1.png
p15
aVhttp://www.gutenberg.org/files/23669/23699-page-images/p033-image.png
p16
aVhttp://www.gutenberg.org/files/23669/23699-page-images/p033.png
p17
aVhttp://www.gutenberg.org/files/23669/23699-page-images/p034.png
p18
aVhttp://www.gutenberg.org/files/23669/23699-page-images/p035.png
p19
aVhttp://www.gutenberg.org/files/23669/23699-page-images/p036.png
p20
aVhttp://www.gutenberg.org/files/23669/23699-page-images/p037.png
p21
asS'language_code'
p22
Veng
p23
sS'images'
p24
(lp25
sS'id'
p26
I904
sS'category'
p27
VText
p28
sS'genres'
p29
(lp30
sS'copyright'
p31
VPublic domain in the USA.
p32
sS'title'
p33
VSummit
p34
sS'wikipedia'
p35
(dp36
S'url'
p37
Vhttps://en.wikipedia.org/wiki/The_Executioner_(book_series)
p38
sS'found'
p39
I01
sS'year'
p40
I-1
ssS'published_in'
p41
NsS'average_rating'
p42
F3.95
sS'rating_count'
p43
I1354
sS'content_available'
p44
I01
sS'goodreads'
p45
(dp46
g37
Vhttps://www.goodreads.com/book/show/25489185-summit-lake
p47
sg39
I01
sg40
I2016
ssS'similar_books'
p48
(lp49
VDeadly Memories
p50
aVThe Last Clinic (Darla Cavannah Mysteries, #1)
p51
aVThe Beauty of the End
p52
aVThe Whispers (The Whispers, #1)
p53
aVThe Dead Student
p54
aVClose Reach
p55
aVThe Survivors
p56
aVSafer
p57
aVWith Love from the Inside
p58
aVThe Little Men
p59
aVThe Stepmother
p60
aVLast Vacation
p61
aVThe Other Widow
p62
aVNowhere Girl (Cate Austin, #4)
p63
aVIn Too Deep
p64
aVStrange Things Done
p65
aVAs Night Falls
p66
aVThe Good Mother
p67
asS'description'
p68
VSome places seem too beautiful to be touched by horror. Summit Lake, nestled in North Carolina s Blue Ridge Mountains, is that kind of place. But two weeks ago, Becca Eckersley, a first-year law student and daughter of a powerful attorney, was brutally murdered there. Now the town is reeling with grief, and the police are baffled. <br /><br />At first, investigative reporter Kelsey Castle thinks of the assignment as a fluff piece. But the savagery of the crime, and the efforts to keep it quiet, hint at something far more sinister than a random attack by a stranger. As Kelsey digs deeper, despite danger and warnings, she feels a growing connection to the dead girl. And the more she learns about Becca's friendships, her love life and her secrets the more convinced she becomes that walking in Becca's footsteps could lead her out of her own dark past.
p69
sS'format'
p70
VHardcover
p71
sS'gutenberg'
p72
(dp73
g37
Vhttp://www.gutenberg.org/ebooks/23669
p74
sS'num'
p75
I23669
ssS'authors'
p76
(lp77
I69
asS'pages'
p78
I320
sS'isbn13'
p79
V9781496700988
p80
sS'language'
p81
VEnglish
p82
sS'release_date'
p83
S'2007-12-01T00:00:00'
p84
sS'author'
p85
I69
sS'original_title'
p86
VThe Executioner (book series)
p87
sS'summary'
p88
VThe Executioner is a monthly men's action-adventure series following the exploits of the character Mack Bolan and his wars against organized crime and international terrorism. The series spans #453 installments (as of December 2017) and has sold more than 200 million copies since its debut installment, War Against the Mafia. The series was created and initially written by American author Don Pendleton, who penned 37 of the original 38 Bolan novels. In 1980, Pendleton licensed the rights to Gold Eagle and was succeeded by a collective of ghostwriters.\u000aSince its inception in 1969, The Executioner series has spawned several spin-off series including: Able Team, Phoenix Force, and Stony Man (the series into which Able Team and Phoenix Force were eventually merged). Every other month, the Executioner series is complimented by the release of a Super Bolan, whose titles are twice the length of a standard Executioner novel.
p89
sS'content_cleaned'
p90
I00
sS'classes'
p91
(lp92
Vto-read
p93
aVcurrently-reading
p94
aVmystery
p95
aVfiction
p96
aVnetgalley
p97
aVsuspense
p98
aVthriller
p99
aVaudible
p100
aVmystery-thriller
p101
aVcrime
p102
aVkindle
p103
aVthrillers
p104
aVebook
p105
aVfavorites
p106
aVmystery-suspense
p107
aVmysteries
p108
aVaudio-book
p109
aVread-2016
p110
aVto-buy
p111
aVfirst-reads
p112
aVlibrary
p113
aVgiveaways
p114
aVaudiobook
p115
aVowned
p116
aVebooks
p117
aVaudio-books
p118
aVbook-club
p119
aVread-in-2016
p120
aVmystery-crime
p121
aVdebut
p122
aVnet-galley
p123
aVread-in-2017
p124
aVaudio
p125
aVmurder-mystery
p126
aVadult-fiction
p127
aVnetgalley-arc
p128
aVcharlie-donlea
p129
aVto-read-need-to-buy
p130
aVkindle-books
p131
aVbooks-read-in-2017
p132
aVhorror
p133
aVhave
p134
aVwish-list-audible
p135
aVmystery-fiction
p136
aVlibrary-book
p137
aVown-on-kindle
p138
aVon-kindle
p139
aV2016-books
p140
aV2016-reads
p141
aVadult-mystery
p142
aVto-read-mystery
p143
aVcontemporary-fiction
p144
aVto-read-fiction
p145
aVi-own
p146
aVthriller-mystery
p147
aVpsychological-thrillers
p148
aVadult
p149
aVfriendship
p150
aVmystery-thrillers
p151
aVthriller-suspense
p152
aVpsychological-thriller
p153
aVpsychological-suspense
p154
aVnorth-carolina
p155
aVcrime-thriller
p156
aVsmall-town
p157
aVmurder
p158
aVread-in-2015
p159
aV2016-releases
p160
aVto-read-mysteries-thrillers
p161
aVpaperback
p162
aVown-unread
p163
aVown-kindle
p164
aVon-kobo-tbr
p165
aVlivros-e-biritas
p166
aVuse-prospector
p167
aVstandalone
p168
aVseason-summer
p169
aVreporter-journalist
p170
aVpia-s-around-the-year-in-52-books
p171
aVown-will-read-soon
p172
aVotsp-wish-list
p173
aVnetgalley-edelweiss
p174
aVmystery-murder
p175
aVmight-read
p176
aVlegimi-2016
p177
aVjournalists-etc
p178
aVhome-library
p179
aVgiveaway-wins
p180
aVfemale-lead
p181
aVearly-review-netgalley
p182
aVbooks-i-ve-won-home-library
p183
aVaudible-overdrive
p184
aV2016-rs-book-club
p185
aVthrillers-crime
p186
aVon-kobo
p187
aVaugust-2017
p188
aVrandoms
p189
aVstand-alone
p190
aVntp-sa
p191
aVzz-north-carolina
p192
asS'loc_class'
p193
VPS: Language and Literatures: American and Canadian literature
p194
sS'n_authors'
p195
I1
sb.