ccopy_reg
_reconstructor
p0
(cdataset.Book
Book
p1
c__builtin__
object
p2
Ntp3
Rp4
(dp5
S'content_name'
p6
V51519.txt.utf-8
p7
sS'isbn'
p8
V0743236017
p9
sS'year'
p10
I2003
sS'author_name'
p11
VC. C. MacApp
p12
sS'images_urls'
p13
(lp14
Vhttp://www.gutenberg.org/files/51519/51519-h/images/cover.jpg
p15
aVhttp://www.gutenberg.org/files/51519/51519-h/images/illus1.jpg
p16
aVhttp://www.gutenberg.org/files/51519/51519-h/images/illus2.jpg
p17
asS'language_code'
p18
Ven-US
p19
sS'images'
p20
(lp21
sS'id'
p22
I607
sS'category'
p23
VText
p24
sS'genres'
p25
(lp26
sS'copyright'
p27
VPublic domain in the USA.
p28
sS'title'
p29
VThe Drug
p30
sS'wikipedia'
p31
(dp32
S'found'
p33
I00
ssS'average_rating'
p34
F3.75
sS'rating_count'
p35
I56582
sS'content_available'
p36
I01
sS'cover_art_url'
p37
S'http://www.gutenberg.org/cache/epub/51519/pg51519.cover.medium.jpg'
p38
sS'goodreads'
p39
(dp40
S'url'
p41
Vhttps://www.goodreads.com/book/show/599.Sex_Drugs_and_Cocoa_Puffs
p42
sg33
I01
sS'year'
p43
I2003
ssS'similar_books'
p44
(lp45
VInventory: 16 Films Featuring Manic Pixie Dream Girls, 10 Great Songs Nearly Ruined by Saxophone, and 100 More Obsessively Specific Pop-Culture Lists
p46
aVHip: The History
p47
aVNothing Feels Good: Punk Rock, Teenagers, and EMO
p48
aVBack to Our Future: How the 1980s Explain the World We Live in Now--Our Culture, Our Politics, Our Everything
p49
aVLove Is a Mix Tape
p50
aVThe Disappointment Artist
p51
aVWilco: Learning How to Die
p52
aVConsider the Lobster and Other Essays
p53
aVPlanet Simpson: How a Cartoon Masterpiece Defined a Generation
p54
aVIn the Aeroplane Over the Sea
p55
aVThings I've Learned from Women Who've Dumped Me
p56
aV(Not that You Asked): Rants, Exploits, and Obsessions
p57
aVThe Dead Travel Fast: Stalking Vampires from Nosferatu to Count Chocula
p58
aVCan't Stop Won't Stop: A History of the Hip-Hop Generation
p59
aVThe Advanced Genius Theory: Are They Out of Their Minds or Ahead of Their Time?
p60
aVRock On: An Office Power Ballad
p61
aVLet It Blurt: The Life and Times of Lester Bangs, America's Greatest Rock Critic
p62
aVLet's Talk About Love: A Journey to the End of Taste
p63
asS'description'
p64
VCountless writers and artists have spoken for a generation, but no one has done it quite like Chuck Klosterman. With an exhaustive knowledge of popular culture and an almost effortless ability to spin brilliant prose out of unlikely subject matter, Klosterman attacks the entire spectrum of postmodern America: reality TV, Internet porn, Pamela Anderson, literary Jesus freaks, and the real difference between apples and oranges (of which there is none). And don't even get him started on his love life and the whole Harry-Met-Sally situation. <br /><br />Whether deconstructing <i>Saved by the Bell</i> episodes or the artistic legacy of Billy Joel, the symbolic importance of <i>The Empire Strikes Back</i> or the Celtics/Lakers rivalry, Chuck will make you think, he'll make you laugh, and he'll drive you insane -- usually all at once. <i>Sex, Drugs, and Cocoa Puffs</i> is ostensibly about art, entertainment, infotainment, sports, politics, and kittens, but -- really -- it's about us. All of us. As Klosterman realizes late at night, in the moment before he falls asleep, "In and of itself, nothing really matters. What matters is that nothing is ever 'in and of itself.'" Read to believe.
p65
sS'format'
p66
NsS'gutenberg'
p67
(dp68
g41
Vhttp://www.gutenberg.org/ebooks/51519
p69
sS'num'
p70
I51519
ssS'authors'
p71
(lp72
I111
asS'pages'
p73
I253
sS'isbn13'
p74
V9780743236010
p75
sS'language'
p76
VEnglish
p77
sS'country'
p78
I1
sS'release_date'
p79
S'2016-03-21T00:00:00'
p80
sS'author'
p81
I111
sS'content_cleaned'
p82
I01
sS'classes'
p83
(lp84
Vto-read
p85
aVcurrently-reading
p86
aVnon-fiction
p87
aVnonfiction
p88
aVessays
p89
aVfavorites
p90
aVhumor
p91
aVpop-culture
p92
aVmusic
p93
aVowned
p94
aVbooks-i-own
p95
aVculture
p96
aVmemoir
p97
aVsociology
p98
aVcomedy
p99
aVto-buy
p100
aVfunny
p101
aVfiction
p102
aVhumour
p103
aVcontemporary
p104
aVlibrary
p105
aVadult
p106
aVbook-club
p107
aVmemoirs
p108
aVabandoned
p109
aVowned-books
p110
aVphilosophy
p111
aVessay
p112
aVmy-library
p113
aVcultural-studies
p114
aVsocial-commentary
p115
aVdefault
p116
aVkindle
p117
aVunfinished
p118
aVpop
p119
aVjournalism
p120
aVchuck-klosterman
p121
aVshort-stories
p122
aVhistory
p123
aVaudiobook
p124
aVown-it
p125
aV2006
p126
aVpopculture
p127
aVamerican
p128
aVklosterman
p129
aVbookclub
p130
aVbiography
p131
aVsports
p132
aVborrowed
p133
aVi-own
p134
aVbooks
p135
aVread-in-2010
p136
aVfavourites
p137
aVnon-fic
p138
aVaudiobooks
p139
aVdidn-t-finish
p140
aVcouldn-t-finish
p141
aVhumorous
p142
aVcriticism
p143
aVnonfic
p144
aVshelfari-wishlist
p145
aVdid-not-finish
p146
aVsocial
p147
aVnon-fiction-to-read
p148
aVneed-to-buy
p149
aVentertainment
p150
aVaudio
p151
aVpsychology
p152
aVpopular-culture
p153
aVmy-books
p154
aVread-in-2011
p155
aVnon-fiction-humor
p156
aVcollection
p157
aVsociety
p158
aVmy-bookshelf
p159
aVnever-finished
p160
aVshelfari-favorites
p161
aVhome-library
p162
aVebook
p163
aVto-read-non-fiction
p164
aVsex
p165
aVsocial-science
p166
aV2000s
p167
aVother
p168
aVtelevision
p169
aVread-in-2009
p170
aV2005
p171
aVread-in-2008
p172
aVhigh-school
p173
aVpartially-read
p174
aVnf
p175
aVleisure
p176
aVfavorite
p177
aVamerica
p178
aVwish-list
p179
aVread-in-2014
p180
aVread-in-2013
p181
aVto-read-nonfiction
p182
aVbookshelf
p183
aVscience
p184
asS'loc_class'
p185
S''
p186
sS'n_authors'
p187
I1
sb.