ccopy_reg
_reconstructor
p0
(cdataset.Book
Book
p1
c__builtin__
object
p2
Ntp3
Rp4
(dp5
S'content_name'
p6
V19476.txt.utf-8
p7
sS'isbn'
p8
NsS'year'
p9
I1901
sS'author_name'
p10
VGeorge Chetwynd Griffith
p11
sS'images_urls'
p12
(lp13
Vhttp://www.gutenberg.org/files/19476/19476-h/images/i007.jpg
p14
aVhttp://www.gutenberg.org/files/19476/19476-h/images/i114.jpg
p15
aVhttp://www.gutenberg.org/files/19476/19476-h/images/i146.jpg
p16
aVhttp://www.gutenberg.org/files/19476/19476-h/images/i176.jpg
p17
aVhttp://www.gutenberg.org/files/19476/19476-h/images/i218.jpg
p18
aVhttp://www.gutenberg.org/files/19476/19476-h/images/i238.jpg
p19
aVhttp://www.gutenberg.org/files/19476/19476-h/images/i256.jpg
p20
aVhttp://www.gutenberg.org/files/19476/19476-h/images/i266.jpg
p21
asS'language_code'
p22
NsS'images'
p23
(lp24
sS'id'
p25
I763
sS'category'
p26
VText
p27
sS'genres'
p28
(lp29
sS'copyright'
p30
VPublic domain in the USA.
p31
sS'title'
p32
VA Honeymoon in Space
p33
sS'wikipedia'
p34
(dp35
S'found'
p36
I00
ssS'average_rating'
p37
F2.84
sS'rating_count'
p38
I20
sS'content_available'
p39
I01
sS'goodreads'
p40
(dp41
S'url'
p42
Vhttps://www.goodreads.com/book/show/25007654-a-honeymoon-in-space
p43
sg36
I01
sS'year'
p44
I1901
ssS'similar_books'
p45
(lp46
sS'description'
p47
VTheir host had just left the deck-saloon, taking the early coffee apparatus with him, and Miss Zaidie, in the first flush of her pride and re-found happiness, was taking a promenade of about twelve strides each way, while Mrs. Van Stuyler, after partially relieving her feelings as above, had seated herself stiffly in her wicker-chair, and was following her with eyes which were critical.
p48
sS'format'
p49
NsS'gutenberg'
p50
(dp51
g42
Vhttp://www.gutenberg.org/ebooks/19476
p52
sS'num'
p53
I19476
ssS'authors'
p54
(lp55
I246
asS'isbn13'
p56
NsS'language'
p57
VEnglish
p58
sS'release_date'
p59
S'2006-10-05T00:00:00'
p60
sS'author'
p61
I246
sS'content_cleaned'
p62
I00
sS'classes'
p63
(lp64
Vto-read
p65
aVcurrently-reading
p66
aVkindle
p67
aVscience-fiction
p68
aVe-book
p69
aVebook
p70
aVsci-fi
p71
aVebooks
p72
aVfiction
p73
aVto-read-kindle
p74
aVunread-on-kindle
p75
aVhave-but-not-read
p76
aVamazon-ebooks
p77
aVpublic-domain
p78
aVon-my-kindle
p79
aVfreebies-99-cents
p80
aVsf-fantasy
p81
aVscifi-steampunk
p82
aVliterature
p83
aVkindle-library
p84
aV20th-century-lit
p85
aVto-read-sci-fic-fantasy
p86
aVshelf-g-authors
p87
aVgenre-syfi-fan-horr
p88
aVfreeeeee
p89
aVown-to-read
p90
aVown-ebook
p91
aVkindle-freebies
p92
aVto-be-shelved
p93
aVa-owned
p94
aVa-ebook
p95
aVtrillion-year-spree-recs
p96
aVscifi
p97
aVread-in-2013
p98
aVfreebies
p99
aVclassic-sci-fi
p100
aVrecommendations
p101
aVp-d-books
p102
aVhave-but-need-to-read
p103
aVi-own-this
p104
aVsf
p105
aVnot-started
p106
aVon-kindle
p107
aVbooks-read-in-2016
p108
aV1900s
p109
aVamazon
p110
aVcontemporary-classics
p111
aVout-of-copyright
p112
aVsci-fi-classics
p113
aVebooks-own
p114
aVpulps
p115
aVbooks
p116
aVleague-of-extraordinary-gentlemen
p117
aVfree-reads-maybe-read
p118
aVebook-amazon-freebies-99c
p119
aV1901
p120
aVfeedbooks-com
p121
aVread-in-german
p122
aVlibrary
p123
aVowned
p124
aVthe-book-club
p125
aVkostenlos
p126
aVsci-fi-fantasy
p127
aV20th-century
p128
aVbooks-i-own
p129
asS'loc_class'
p130
VPR: Language and Literatures: English literature
p131
sS'n_authors'
p132
I1
sb.