ccopy_reg
_reconstructor
p0
(cdataset.Book
Book
p1
c__builtin__
object
p2
Ntp3
Rp4
(dp5
S'content_name'
p6
V51622.txt.utf-8
p7
sS'isbn'
p8
V1682997073
p9
sS'year'
p10
I-1
sS'author_name'
p11
VLaurence M. Janifer
p12
sS'images_urls'
p13
(lp14
Vhttp://www.gutenberg.org/files/51622/51622-h/images/cover.jpg
p15
aVhttp://www.gutenberg.org/files/51622/51622-h/images/illus1.jpg
p16
aVhttp://www.gutenberg.org/files/51622/51622-h/images/illus2.jpg
p17
aVhttp://www.gutenberg.org/files/51622/51622-h/images/illus3.jpg
p18
aVhttp://www.gutenberg.org/files/51622/51622-h/images/illus4.jpg
p19
aVhttp://www.gutenberg.org/files/51622/51622-h/images/illus5.jpg
p20
aVhttp://www.gutenberg.org/files/51622/51622-h/images/illus6.jpg
p21
aVhttp://www.gutenberg.org/files/51622/51622-h/images/illus7.jpg
p22
asS'language_code'
p23
NsS'images'
p24
(lp25
sS'id'
p26
I409
sS'category'
p27
VText
p28
sS'genres'
p29
(lp30
sS'copyright'
p31
VPublic domain in the USA.
p32
sS'title'
p33
VExtracts from the Galactick Almanack
p34
sS'wikipedia'
p35
(dp36
S'found'
p37
I00
ssS'average_rating'
p38
F3.0
sS'rating_count'
p39
I1
sS'content_available'
p40
I01
sS'cover_art_url'
p41
S'http://www.gutenberg.org/cache/epub/51622/pg51622.cover.medium.jpg'
p42
sS'goodreads'
p43
(dp44
S'url'
p45
Vhttps://www.goodreads.com/book/show/30086910-extracts-from-the-galactick-almanack
p46
sg37
I01
sS'year'
p47
I-1
ssS'similar_books'
p48
(lp49
sS'description'
p50
VDon't take your eye off music ... there is going to be a lot more to it than meets the ear!
p51
sS'format'
p52
Vebook
p53
sS'gutenberg'
p54
(dp55
g45
Vhttp://www.gutenberg.org/ebooks/51622
p56
sS'num'
p57
I51622
ssS'authors'
p58
(lp59
I64
asS'pages'
p60
I20
sS'isbn13'
p61
V9781682997079
p62
sS'language'
p63
VEnglish
p64
sS'countries'
p65
(lp66
I2
asS'release_date'
p67
S'2016-04-02T00:00:00'
p68
sS'author'
p69
I64
sS'content_cleaned'
p70
I01
sS'classes'
p71
(lp72
sS'loc_class'
p73
S''
p74
sS'n_authors'
p75
I1
sb.