ccopy_reg
_reconstructor
p0
(cdataset.Book
Book
p1
c__builtin__
object
p2
Ntp3
Rp4
(dp5
S'similar_books'
p6
(lp7
sS'genres'
p8
(lp9
sS'author'
p10
I302
sS'countries'
p11
(lp12
I2
asS'year'
p13
I1961
sS'title'
p14
VGalaxy Magazine April 1961
p15
sS'cover'
p16
Vhttps://ia600208.us.archive.org/BookReader/BookReaderImages.php?zip=/10/items/Galaxy_v19n04_1961-04/Galaxy_v19n04_1961-04_jp2.zip&file=Galaxy_v19n04_1961-04_jp2/Galaxy_v19n04_1961-04_0000.jp2&scale=0&rotate=0
p17
sS'cover_art'
p18
S'http://www.isfdb.org/wiki/images/8/83/GALAPR1961.jpg'
p19
sS'author_name'
p20
VGalaxy Magazine
p21
sS'images_urls'
p22
(lp23
sS'authors'
p24
(lp25
I497
aI419
aI559
aI499
aI562
aI305
aI339
aI483
aI326
aI561
aI384
aI341
aI32
aI211
aI220
aI74
aI400
aI302
asS'images'
p26
(lp27
sS'id'
p28
I1084
sS'contents'
p29
(lp30
(dp31
S'title'
p32
VPlaneteer
p33
sS'author'
p34
I497
sa(dp35
g32
VPlaneteer [2]
p36
sg34
I497
sa(dp37
g32
VPlaneteer [3]
p38
sg34
I497
sa(dp39
g32
VKreativity for Kats
p40
sg34
I419
sa(dp41
g32
VScent Makes a Difference
p42
sg34
I419
sa(dp43
g32
VScent Makes a Difference [2]
p44
sg34
I419
sa(dp45
g32
VI Can Do Anything
p46
sg34
I419
sa(dp47
g32
VI Can Do Anything [2]
p48
sg34
I419
sa(dp49
g32
VI Can Do Anything [3]
p50
sg34
I419
sa(dp51
g32
VHomey Atmosphere
p52
sg34
I559
sa(dp53
g32
VHomey Atmosphere [2]
p54
sg34
I559
sa(dp55
g32
VAll the People
p56
sg34
I499
sa(dp57
g32
VThe Feeling
p58
sg34
I499
sa(dp59
g32
VTandy's Story
p60
sg34
I562
sa(dp61
g32
VTandy's Story [2]
p62
sg34
I562
sa(dp63
g32
VPuzzles for Plotters
p64
sg34
I305
sa(dp65
g32
VFor Your Information: The Puzzle Called Gegenschein
p66
sg34
I339
sa(dp67
g32
VGalaxy's 5 Star Shelf (Galaxy, April 1961)
p68
sg34
I483
sa(dp69
g32
VForecast (Galaxy, April 1961)
p70
sg34
I326
sa(dp71
g32
VPlaneteer
p72
sg34
I561
sa(dp73
g32
VI Can Do Anything
p74
sg34
I384
sa(dp75
g32
VTandy's Story
p76
sg34
I341
sa(dp77
g32
VKreativity for Kats
p78
sg34
I32
sa(dp79
g32
VScent Makes a Difference
p80
sg34
I211
sa(dp81
g32
VHomey Atmosphere
p82
sg34
I220
sa(dp83
g32
VAll the People
p84
sg34
I74
sa(dp85
g32
VThe Feeling
p86
sg34
I400
sasb.