ccopy_reg
_reconstructor
p0
(cdataset.Book
Book
p1
c__builtin__
object
p2
Ntp3
Rp4
(dp5
S'similar_books'
p6
(lp7
sS'genres'
p8
(lp9
sS'author'
p10
I302
sS'countries'
p11
(lp12
I2
asS'year'
p13
I1953
sS'title'
p14
VGalaxy Magazine May 1953
p15
sS'cover'
p16
Vhttps://ia600200.us.archive.org/BookReader/BookReaderImages.php?zip=/10/items/Galaxy_v06n02_1953-05/Galaxy_v06n02_1953-05_jp2.zip&file=Galaxy_v06n02_1953-05_jp2/Galaxy_v06n02_1953-05_0000.jp2&scale=0&rotate=0
p17
sS'cover_art'
p18
S'http://www.isfdb.org/wiki/images/0/00/MLO4311.jpg'
p19
sS'author_name'
p20
VGalaxy Magazine
p21
sS'images_urls'
p22
(lp23
sS'authors'
p24
(lp25
I342
aI344
aI363
aI419
aI326
aI305
aI339
aI340
aI56
aI161
aI23
aI429
aI172
aI302
asS'images'
p26
(lp27
sS'id'
p28
I1004
sS'contents'
p29
(lp30
(dp31
S'title'
p32
VWherever You May Be
p33
sS'author'
p34
I342
sa(dp35
g32
VWherever You May Be [2]
p36
sg34
I342
sa(dp37
g32
VWherever You May Be [3]
p38
sg34
I342
sa(dp39
g32
VWherever You May Be [4]
p40
sg34
I342
sa(dp41
g32
VSpecialist
p42
sg34
I344
sa(dp43
g32
VA Gleeb for Earth
p44
sg34
I363
sa(dp45
g32
VNot Fit for Children
p46
sg34
I419
sa(dp47
g32
VJunkyard
p48
sg34
I342
sa(dp49
g32
VJunkyard [2]
p50
sg34
I342
sa(dp51
g32
VJunkyard [3]
p52
sg34
I342
sa(dp53
g32
VForecast (Galaxy, May 1953)
p54
sg34
I326
sa(dp55
g32
VGueffef On Progreff
p56
sg34
I305
sa(dp57
g32
VFor Your Information: The Birth of the Space Station (Ii)
p58
sg34
I339
sa(dp59
g32
VGalaxy's 5 Star Shelf (Galaxy, May 1953)
p60
sg34
I340
sa(dp61
g32
VJunkyard
p62
sg34
I56
sa(dp63
g32
VWherever You May Be
p64
sg34
I161
sa(dp65
g32
VSpecialist
p66
sg34
I23
sa(dp67
g32
VA Gleeb for Earth
p68
sg34
I429
sa(dp69
g32
VNot Fit for Children
p70
sg34
I172
sasb.