ccopy_reg
_reconstructor
p0
(cdataset.Book
Book
p1
c__builtin__
object
p2
Ntp3
Rp4
(dp5
S'content_name'
p6
V23845.txt.utf-8
p7
sS'isbn'
p8
V1606649825
p9
sS'year'
p10
I1962
sS'author_name'
p11
VMurray Leinster
p12
sS'images_urls'
p13
(lp14
Vhttp://www.gutenberg.org/files/23845/23845-h/images/001.jpg
p15
aVhttp://www.gutenberg.org/files/23845/23845-page-images/c001.jpg
p16
aVhttp://www.gutenberg.org/files/23845/23845-page-images/f001.png
p17
aVhttp://www.gutenberg.org/files/23845/23845-page-images/f002.png
p18
aVhttp://www.gutenberg.org/files/23845/23845-page-images/f003.png
p19
aVhttp://www.gutenberg.org/files/23845/23845-page-images/f004.png
p20
aVhttp://www.gutenberg.org/files/23845/23845-page-images/f005.png
p21
aVhttp://www.gutenberg.org/files/23845/23845-page-images/p007.png
p22
aVhttp://www.gutenberg.org/files/23845/23845-page-images/p008.png
p23
aVhttp://www.gutenberg.org/files/23845/23845-page-images/p009.png
p24
aVhttp://www.gutenberg.org/files/23845/23845-page-images/p010.png
p25
aVhttp://www.gutenberg.org/files/23845/23845-page-images/p011.png
p26
aVhttp://www.gutenberg.org/files/23845/23845-page-images/p012.png
p27
aVhttp://www.gutenberg.org/files/23845/23845-page-images/p013.png
p28
aVhttp://www.gutenberg.org/files/23845/23845-page-images/p014.png
p29
aVhttp://www.gutenberg.org/files/23845/23845-page-images/p015.png
p30
aVhttp://www.gutenberg.org/files/23845/23845-page-images/p016.png
p31
aVhttp://www.gutenberg.org/files/23845/23845-page-images/p017.png
p32
aVhttp://www.gutenberg.org/files/23845/23845-page-images/p018.png
p33
aVhttp://www.gutenberg.org/files/23845/23845-page-images/p019.png
p34
aVhttp://www.gutenberg.org/files/23845/23845-page-images/p020.png
p35
aVhttp://www.gutenberg.org/files/23845/23845-page-images/p021.png
p36
aVhttp://www.gutenberg.org/files/23845/23845-page-images/p022.png
p37
aVhttp://www.gutenberg.org/files/23845/23845-page-images/p023.png
p38
aVhttp://www.gutenberg.org/files/23845/23845-page-images/p024.png
p39
aVhttp://www.gutenberg.org/files/23845/23845-page-images/p025.png
p40
aVhttp://www.gutenberg.org/files/23845/23845-page-images/p026.png
p41
aVhttp://www.gutenberg.org/files/23845/23845-page-images/p027.png
p42
aVhttp://www.gutenberg.org/files/23845/23845-page-images/p028.png
p43
aVhttp://www.gutenberg.org/files/23845/23845-page-images/p029.png
p44
aVhttp://www.gutenberg.org/files/23845/23845-page-images/p030.png
p45
aVhttp://www.gutenberg.org/files/23845/23845-page-images/p031.png
p46
aVhttp://www.gutenberg.org/files/23845/23845-page-images/p032.png
p47
aVhttp://www.gutenberg.org/files/23845/23845-page-images/p033.png
p48
aVhttp://www.gutenberg.org/files/23845/23845-page-images/p034.png
p49
aVhttp://www.gutenberg.org/files/23845/23845-page-images/p035.png
p50
aVhttp://www.gutenberg.org/files/23845/23845-page-images/p036.png
p51
aVhttp://www.gutenberg.org/files/23845/23845-page-images/p037.png
p52
aVhttp://www.gutenberg.org/files/23845/23845-page-images/p038.png
p53
aVhttp://www.gutenberg.org/files/23845/23845-page-images/p039.png
p54
aVhttp://www.gutenberg.org/files/23845/23845-page-images/p040.png
p55
aVhttp://www.gutenberg.org/files/23845/23845-page-images/p041.png
p56
aVhttp://www.gutenberg.org/files/23845/23845-page-images/p042.png
p57
aVhttp://www.gutenberg.org/files/23845/23845-page-images/p043.png
p58
aVhttp://www.gutenberg.org/files/23845/23845-page-images/p044.png
p59
aVhttp://www.gutenberg.org/files/23845/23845-page-images/p045.png
p60
aVhttp://www.gutenberg.org/files/23845/23845-page-images/p046.png
p61
aVhttp://www.gutenberg.org/files/23845/23845-page-images/p047.png
p62
aVhttp://www.gutenberg.org/files/23845/23845-page-images/p048.png
p63
aVhttp://www.gutenberg.org/files/23845/23845-page-images/p049.png
p64
aVhttp://www.gutenberg.org/files/23845/23845-page-images/p050.png
p65
aVhttp://www.gutenberg.org/files/23845/23845-page-images/p051.png
p66
aVhttp://www.gutenberg.org/files/23845/23845-page-images/p052.png
p67
aVhttp://www.gutenberg.org/files/23845/23845-page-images/p053.png
p68
aVhttp://www.gutenberg.org/files/23845/23845-page-images/p054.png
p69
aVhttp://www.gutenberg.org/files/23845/23845-page-images/p055.png
p70
aVhttp://www.gutenberg.org/files/23845/23845-page-images/p056.png
p71
aVhttp://www.gutenberg.org/files/23845/23845-page-images/p057.png
p72
aVhttp://www.gutenberg.org/files/23845/23845-page-images/p058.png
p73
aVhttp://www.gutenberg.org/files/23845/23845-page-images/p059.png
p74
aVhttp://www.gutenberg.org/files/23845/23845-page-images/p060.png
p75
aVhttp://www.gutenberg.org/files/23845/23845-page-images/p061.png
p76
aVhttp://www.gutenberg.org/files/23845/23845-page-images/p062.png
p77
aVhttp://www.gutenberg.org/files/23845/23845-page-images/p063.png
p78
aVhttp://www.gutenberg.org/files/23845/23845-page-images/p064.png
p79
aVhttp://www.gutenberg.org/files/23845/23845-page-images/p065.png
p80
aVhttp://www.gutenberg.org/files/23845/23845-page-images/p066.png
p81
aVhttp://www.gutenberg.org/files/23845/23845-page-images/p067.png
p82
aVhttp://www.gutenberg.org/files/23845/23845-page-images/p068.png
p83
aVhttp://www.gutenberg.org/files/23845/23845-page-images/p069.png
p84
aVhttp://www.gutenberg.org/files/23845/23845-page-images/p070.png
p85
aVhttp://www.gutenberg.org/files/23845/23845-page-images/p071.png
p86
aVhttp://www.gutenberg.org/files/23845/23845-page-images/p072.png
p87
aVhttp://www.gutenberg.org/files/23845/23845-page-images/p073.png
p88
aVhttp://www.gutenberg.org/files/23845/23845-page-images/p074.png
p89
aVhttp://www.gutenberg.org/files/23845/23845-page-images/p075.png
p90
aVhttp://www.gutenberg.org/files/23845/23845-page-images/p076.png
p91
aVhttp://www.gutenberg.org/files/23845/23845-page-images/p077.png
p92
aVhttp://www.gutenberg.org/files/23845/23845-page-images/p078.png
p93
aVhttp://www.gutenberg.org/files/23845/23845-page-images/p079.png
p94
aVhttp://www.gutenberg.org/files/23845/23845-page-images/p080.png
p95
aVhttp://www.gutenberg.org/files/23845/23845-page-images/p081.png
p96
aVhttp://www.gutenberg.org/files/23845/23845-page-images/p082.png
p97
aVhttp://www.gutenberg.org/files/23845/23845-page-images/p083.png
p98
aVhttp://www.gutenberg.org/files/23845/23845-page-images/p084.png
p99
aVhttp://www.gutenberg.org/files/23845/23845-page-images/p085.png
p100
aVhttp://www.gutenberg.org/files/23845/23845-page-images/p086.png
p101
aVhttp://www.gutenberg.org/files/23845/23845-page-images/p087.png
p102
aVhttp://www.gutenberg.org/files/23845/23845-page-images/p088.png
p103
aVhttp://www.gutenberg.org/files/23845/23845-page-images/p089.png
p104
aVhttp://www.gutenberg.org/files/23845/23845-page-images/p090.png
p105
aVhttp://www.gutenberg.org/files/23845/23845-page-images/p091.png
p106
aVhttp://www.gutenberg.org/files/23845/23845-page-images/p092.png
p107
aVhttp://www.gutenberg.org/files/23845/23845-page-images/p093.png
p108
aVhttp://www.gutenberg.org/files/23845/23845-page-images/p094.png
p109
aVhttp://www.gutenberg.org/files/23845/23845-page-images/p095.png
p110
aVhttp://www.gutenberg.org/files/23845/23845-page-images/p096.png
p111
aVhttp://www.gutenberg.org/files/23845/23845-page-images/p097.png
p112
aVhttp://www.gutenberg.org/files/23845/23845-page-images/p098.png
p113
aVhttp://www.gutenberg.org/files/23845/23845-page-images/p099.png
p114
aVhttp://www.gutenberg.org/files/23845/23845-page-images/p100.png
p115
aVhttp://www.gutenberg.org/files/23845/23845-page-images/p101.png
p116
aVhttp://www.gutenberg.org/files/23845/23845-page-images/p102.png
p117
aVhttp://www.gutenberg.org/files/23845/23845-page-images/p103.png
p118
aVhttp://www.gutenberg.org/files/23845/23845-page-images/p104.png
p119
aVhttp://www.gutenberg.org/files/23845/23845-page-images/p105.png
p120
aVhttp://www.gutenberg.org/files/23845/23845-page-images/p106.png
p121
aVhttp://www.gutenberg.org/files/23845/23845-page-images/p107.png
p122
aVhttp://www.gutenberg.org/files/23845/23845-page-images/p108.png
p123
aVhttp://www.gutenberg.org/files/23845/23845-page-images/p109.png
p124
aVhttp://www.gutenberg.org/files/23845/23845-page-images/p110.png
p125
aVhttp://www.gutenberg.org/files/23845/23845-page-images/p111.png
p126
aVhttp://www.gutenberg.org/files/23845/23845-page-images/p112.png
p127
aVhttp://www.gutenberg.org/files/23845/23845-page-images/p113.png
p128
aVhttp://www.gutenberg.org/files/23845/23845-page-images/p114.png
p129
aVhttp://www.gutenberg.org/files/23845/23845-page-images/p115.png
p130
aVhttp://www.gutenberg.org/files/23845/23845-page-images/p116.png
p131
aVhttp://www.gutenberg.org/files/23845/23845-page-images/p117.png
p132
aVhttp://www.gutenberg.org/files/23845/23845-page-images/p118.png
p133
aVhttp://www.gutenberg.org/files/23845/23845-page-images/p119.png
p134
aVhttp://www.gutenberg.org/files/23845/23845-page-images/p120.png
p135
aVhttp://www.gutenberg.org/files/23845/23845-page-images/p121.png
p136
aVhttp://www.gutenberg.org/files/23845/23845-page-images/p122.png
p137
aVhttp://www.gutenberg.org/files/23845/23845-page-images/p123.png
p138
aVhttp://www.gutenberg.org/files/23845/23845-page-images/p124.png
p139
aVhttp://www.gutenberg.org/files/23845/23845-page-images/p125.png
p140
aVhttp://www.gutenberg.org/files/23845/23845-page-images/p126.png
p141
aVhttp://www.gutenberg.org/files/23845/23845-page-images/p127.png
p142
aVhttp://www.gutenberg.org/files/23845/23845-page-images/p128.png
p143
aVhttp://www.gutenberg.org/files/23845/23845-page-images/p129.png
p144
aVhttp://www.gutenberg.org/files/23845/23845-page-images/p130.png
p145
aVhttp://www.gutenberg.org/files/23845/23845-page-images/p131.png
p146
aVhttp://www.gutenberg.org/files/23845/23845-page-images/p132.png
p147
aVhttp://www.gutenberg.org/files/23845/23845-page-images/p133.png
p148
aVhttp://www.gutenberg.org/files/23845/23845-page-images/p134.png
p149
aVhttp://www.gutenberg.org/files/23845/23845-page-images/p135.png
p150
aVhttp://www.gutenberg.org/files/23845/23845-page-images/p136.png
p151
aVhttp://www.gutenberg.org/files/23845/23845-page-images/p137.png
p152
aVhttp://www.gutenberg.org/files/23845/23845-page-images/p138.png
p153
aVhttp://www.gutenberg.org/files/23845/23845-page-images/p139.png
p154
aVhttp://www.gutenberg.org/files/23845/23845-page-images/p140.png
p155
aVhttp://www.gutenberg.org/files/23845/23845-page-images/p141.png
p156
aVhttp://www.gutenberg.org/files/23845/23845-page-images/p142.png
p157
aVhttp://www.gutenberg.org/files/23845/23845-page-images/p143.png
p158
aVhttp://www.gutenberg.org/files/23845/23845-page-images/p144.png
p159
aVhttp://www.gutenberg.org/files/23845/23845-page-images/p145.png
p160
aVhttp://www.gutenberg.org/files/23845/23845-page-images/p146.png
p161
aVhttp://www.gutenberg.org/files/23845/23845-page-images/p147.png
p162
aVhttp://www.gutenberg.org/files/23845/23845-page-images/p148.png
p163
aVhttp://www.gutenberg.org/files/23845/23845-page-images/p149.png
p164
aVhttp://www.gutenberg.org/files/23845/23845-page-images/p150.png
p165
aVhttp://www.gutenberg.org/files/23845/23845-page-images/p151.png
p166
aVhttp://www.gutenberg.org/files/23845/23845-page-images/p152.png
p167
aVhttp://www.gutenberg.org/files/23845/23845-page-images/p153.png
p168
aVhttp://www.gutenberg.org/files/23845/23845-page-images/p154.png
p169
aVhttp://www.gutenberg.org/files/23845/23845-page-images/p155.png
p170
aVhttp://www.gutenberg.org/files/23845/23845-page-images/p156.png
p171
aVhttp://www.gutenberg.org/files/23845/23845-page-images/p157.png
p172
aVhttp://www.gutenberg.org/files/23845/23845-page-images/p158.png
p173
aVhttp://www.gutenberg.org/files/23845/23845-page-images/p159.png
p174
aVhttp://www.gutenberg.org/files/23845/23845-page-images/p160.png
p175
aVhttp://www.gutenberg.org/files/23845/23845-page-images/p161.png
p176
asS'language_code'
p177
NsS'images'
p178
(lp179
sS'id'
p180
I651
sS'category'
p181
VText
p182
sS'genres'
p183
(lp184
sS'copyright'
p185
VPublic domain in the USA.
p186
sS'title'
p187
VTalents, Incorporated
p188
sS'wikipedia'
p189
(dp190
S'found'
p191
I00
ssS'average_rating'
p192
F3.61
sS'rating_count'
p193
I52
sS'content_available'
p194
I01
sS'goodreads'
p195
(dp196
S'url'
p197
Vhttps://www.goodreads.com/book/show/3784576-talents-incorporated
p198
sg191
I01
sS'year'
p199
I1962
ssS'similar_books'
p200
(lp201
sS'description'
p202
VCharlatans or Prophets? At best, the tiny Kandarian Air Fleet would fight until its last ship was blown into infinity. At worst, it would be annihilated without a chance. To young Captain Bors, either course was unthinkable.<br /><br />The ruthless Dictator of Mekin had already subjugated twenty-two helpless planets. Now he wanted Kandar's unconditional surrender, or his vastly superior forces would blast it out of existence.<br /><br />It took a lot of guts, and the hope that is frequently born of despair, for a military man like Bors to throw in his lot with "Talents, Incorporated, " an untried, unscientific organization. Through peculiar gifts of extra-sensory perception, its personnel could, their leader insisted, out-think and out-guess even the most deadly dictator in the history of mankind. Could it? It just might.<br /><br />And it just might not. . . . But there was absolutely nothing to lose, and a free world (and a beautiful girl) to win. Captain Bors made his decision, and the loaded die was cast!<br /><br />*<br /><br />Aficionados of science fiction recognize and respect Murray Leinster as a writer of rare talent. His ingenuity of plot, his technical know-how and flight of imagination in "Talents, Incorporated" will go far to increase his stature and popularity as an exciting and thought-provoking storyteller.
p203
sS'format'
p204
VHardcover
p205
sS'gutenberg'
p206
(dp207
g197
Vhttp://www.gutenberg.org/ebooks/23845
p208
sS'num'
p209
I23845
ssS'authors'
p210
(lp211
I61
asS'pages'
p212
I132
sS'isbn13'
p213
V9781606649824
p214
sS'language'
p215
VEnglish
p216
sS'country'
p217
I2
sS'release_date'
p218
S'2007-12-13T00:00:00'
p219
sS'author'
p220
I61
sS'content_cleaned'
p221
I01
sS'classes'
p222
(lp223
Vto-read
p224
aVscience-fiction
p225
aVcurrently-reading
p226
aVowned
p227
aVsf
p228
aVaudiobooks
p229
aVfiction
p230
aVscifi
p231
aVsci-fi
p232
aVlibrary
p233
aVaudio-books-read
p234
aV3-stars
p235
aVscifi-new-wave-1960-1979
p236
aVold-skool
p237
aVpodcast
p238
aVaudiobook
p239
aVread2016
p240
aVforgotten-classics-podcast
p241
aVforgotten-classics
p242
aVlistened
p243
aVlistened-on-podcast
p244
aVowned-pending-kindle-free-ebook
p245
aVgutenberg
p246
aVfree-from-amazon
p247
aVhumor-and-comedy
p248
aVcollection
p249
aVscifi-fantasy
p250
aVfeedbooks-com
p251
aVhave-audio
p252
aVscience-fiction-times
p253
aVhd
p254
aVearlier
p255
aVhumor
p256
aVfantasy-science-fiction
p257
aVpre-1982-read
p258
aVpdfs
p259
aVscat_1
p260
aVlem_5
p261
aVcosmo_argento
p262
asS'loc_class'
p263
VPS: Language and Literatures: American and Canadian literature
p264
sS'n_authors'
p265
I1
sb.