ccopy_reg
_reconstructor
p0
(cdataset.Book
Book
p1
c__builtin__
object
p2
Ntp3
Rp4
(dp5
S'content_name'
p6
V51609.txt.utf-8
p7
sS'isbn'
p8
V1441769684
p9
sS'year'
p10
I1960
sS'author_name'
p11
VStanley R. Lee
p12
sS'images_urls'
p13
(lp14
Vhttp://www.gutenberg.org/files/51609/51609-h/images/cover.jpg
p15
aVhttp://www.gutenberg.org/files/51609/51609-h/images/illus.jpg
p16
asS'language_code'
p17
NsS'images'
p18
(lp19
sS'id'
p20
I789
sS'category'
p21
VText
p22
sS'genres'
p23
(lp24
sS'copyright'
p25
VPublic domain in the USA.
p26
sS'title'
p27
VA Fall of Glass
p28
sS'wikipedia'
p29
(dp30
S'url'
p31
Vhttps://en.wikipedia.org/wiki/Throne_of_Glass
p32
sS'found'
p33
I01
sS'year'
p34
I-1
ssS'published_in'
p35
NsS'average_rating'
p36
F3.83
sS'rating_count'
p37
I930
sS'content_available'
p38
I01
sS'cover_art_url'
p39
S'http://www.gutenberg.org/cache/epub/51609/pg51609.cover.medium.jpg'
p40
sS'goodreads'
p41
(dp42
g31
Vhttps://www.goodreads.com/book/show/10474504-falling-glass
p43
sg33
I01
sg34
I2011
ssS'similar_books'
p44
(lp45
VCollusion (Jack Lennon Investigations #2)
p46
aVBleed a River Deep (Inspector Devlin, #3)
p47
aVThe Color of Blood (Ed Loy, #2)
p48
aVHeadstone (Jack Taylor, #9)
p49
aVDark Times in the City
p50
aVWinterland
p51
aVThe Damned Season
p52
aVBlack Wattle Creek (Charlie Berlin, #2)
p53
aVAsh & Bone (Frank Elder, #2)
p54
aVEmpty Ever After (Moe Prager, #5)
p55
aVBeams Falling
p56
asS'description'
p57
VRichard Coulter is a man who has everything. His beautiful new wife is pregnant, his upstart airline is undercutting the competition and moving from strength to strength, his diversification into the casino business in Macau has been successful, and his fabulous Art Deco house on an Irish cliff top has just been featured in Architectural Digest. But then, for some reason, his ex-wife Rachel doesn't keep her side of the custody agreement and vanishes off the face of the earth with Richard's two daughters. Richard hires Killian, a formidable ex-enforcer for the IRA, to track her down before Rachel, a recovering drug addict, harms herself or the girls. As Killian follows Rachel's trail, he begins to see that there is a lot more to this case than first meets the eye and that a thirty-year-old secret is going to put all of them in terrible danger. McKinty is at his continent-hopping, well-paced, evocative best in this thriller, moving between his native Ireland and distant cities within a skin-of-his-teeth timeframe.
p58
sS'format'
p59
VAudio CD
p60
sS'gutenberg'
p61
(dp62
g31
Vhttp://www.gutenberg.org/ebooks/51609
p63
sS'num'
p64
I51609
ssS'authors'
p65
(lp66
I251
asS'pages'
p67
I10
sS'isbn13'
p68
V9781441769688
p69
sS'language'
p70
VEnglish
p71
sS'countries'
p72
(lp73
I3
asS'release_date'
p74
S'2016-03-31T00:00:00'
p75
sS'author'
p76
I251
sS'original_title'
p77
VThrone of Glass
p78
sS'summary'
p79
VThrone of Glass is a young adult high fantasy novel series by American author Sarah J. Maas, beginning with the inaugural entry of the same name. The story follows the journey of Celaena Sardothien, a teenage assassin in a corrupted kingdom with a tyrannical ruler. As the tale progresses, Celaena forms unexpected bonds and uncovers a conspiracy amidst her adventures. The series has appeared on the New York Times Best Seller list. It has been optioned for a TV series by Mark Gordon and will premiere on Hulu.\u000a\u000a
p80
sS'content_cleaned'
p81
I01
sS'classes'
p82
(lp83
Vto-read
p84
aVmystery
p85
aVaudiobooks
p86
aVaudible
p87
aVcrime
p88
aVaudio
p89
aVaudiobook
p90
aVcurrently-reading
p91
aVthriller
p92
aVireland
p93
aVfiction
p94
aVaudio-book
p95
aVmystery-thriller
p96
aVmysteries
p97
aVirish
p98
aVcrime-fiction
p99
aVfavorites
p100
aVnorthern-ireland
p101
aVaudio-books
p102
aVmystery-crime
p103
aVbooks
p104
aVmystery-suspense
p105
aVthrillers
p106
aVsuspense
p107
aVlibrary
p108
aVnoir
p109
aVadult
p110
aVdetective
p111
aVto-buy
p112
aVaudible-books
p113
aVmckinty
p114
aVowned
p115
aVaustralian
p116
aVread-in-2014-audiobook
p117
aVread-2014
p118
aVhoopla
p119
aVaudible-com
p120
aVunited-kingdom
p121
aVaction
p122
aVaudible-to-read
p123
aVread-2012
p124
aVcrime-thriller
p125
aVkindle
p126
aVcrime-noir
p127
aVitunes-to-read
p128
aVbpl
p129
aV0
p130
aV_owned-to-read
p131
aVmystery-detective-series
p132
aVchpl-audiobook
p133
aVprosa
p134
aV6-star-reads
p135
aVrevenge
p136
aVmade-me-think
p137
aVmade-me-laugh
p138
aVhistorical-fiction
p139
aVfavourite-author
p140
aVerin-go-bragh
p141
aVnon-romance
p142
aVthriller-suspense
p143
aVrecommended
p144
aVnot-a-romance
p145
aVlisten-next
p146
aVcriminal-mc
p147
aVcontemporary
p148
aVbritain
p149
aVassassin-mc
p150
aV300-to-400-pgs
p151
aVread-2017
p152
aVmy-books-to-read
p153
aVowl-s-audible-audio-book-own-new
p154
aVstand-alone
p155
aVmystery-suspense-thriller
p156
aVirish-author-setting
p157
aVdrama-suspense-family-life
p158
aVaward-winning-book-series-author
p159
aVaussie-author-setting
p160
aVlibraryloan
p161
aVown-it
p162
aVdomestic-fiction
p163
aVbpl-to-read
p164
aVdeckare
p165
aVverified
p166
aVbook-club
p167
aV2017-new-achive
p168
aVepub
p169
aVirish-author
p170
aVh
p171
aVavailable-at-sunnyvale-library
p172
aV1-get-book
p173
aV2016-read
p174
aVwant-to-listen
p175
aVdecent-crime
p176
aVholding
p177
aVtbr-thriller
p178
aVpolice-procedural
p179
aVjust-couldnt-finish
p180
aVlibrarylink
p181
aVaudible-library
p182
aV1-mckinty-adrian
p183
asS'loc_class'
p184
S''
p185
sS'n_authors'
p186
I1
sb.