ccopy_reg
_reconstructor
p0
(cdataset.Book
Book
p1
c__builtin__
object
p2
Ntp3
Rp4
(dp5
S'similar_books'
p6
(lp7
sS'genres'
p8
(lp9
sS'author'
p10
I302
sS'countries'
p11
(lp12
I2
asS'year'
p13
I1971
sS'title'
p14
VGalaxy Magazine November 1971
p15
sS'cover'
p16
Vhttps://ia600200.us.archive.org/BookReader/BookReaderImages.php?zip=/31/items/Galaxy_v32n03_1971-11/Galaxy_v32n03_1971-11_jp2.zip&file=Galaxy_v32n03_1971-11_jp2/Galaxy_v32n03_1971-11_0000.jp2&scale=0&rotate=0
p17
sS'cover_art'
p18
S'http://www.isfdb.org/wiki/images/2/27/GALNOVDEC71.jpg'
p19
sS'author_name'
p20
VGalaxy Magazine
p21
sS'images_urls'
p22
(lp23
sS'authors'
p24
(lp25
I499
aI326
aI699
aI91
aI478
aI604
aI700
aI86
aI701
aI702
aI74
aI302
asS'images'
p26
(lp27
sS'id'
p28
I1154
sS'contents'
p29
(lp30
(dp31
S'title'
p32
VBirds Fly South in Winter
p33
sS'author'
p34
I499
sa(dp35
g32
VAutumntime
p36
sg34
I499
sa(dp37
g32
VRammer
p38
sg34
I326
sa(dp39
g32
VI'll Be Judge, I'll Be Jury
p40
sg34
I326
sa(dp41
g32
VStarcult
p42
sg34
I699
sa(dp43
g32
VStarcult [2]
p44
sg34
I699
sa(dp45
g32
VBubbles When They Burst
p46
sg34
I499
sa(dp47
g32
VThe Moon Children (Part 3 of 3)
p48
sg34
I499
sa(dp49
g32
VGalaxy Stars (Galaxy, November-December 1971)
p50
sg34
I326
sa(dp51
g32
VGalaxy Book Shelf (Galaxy, November-December 1971)
p52
sg34
I91
sa(dp53
g32
VJohn W. Campbell: June 8, 1910-July11, 1971 (Obituary)
p54
sg34
I326
sa(dp55
g32
VBirds Fly South in Winter
p56
sg34
I478
sa(dp57
g32
VRammer
p58
sg34
I604
sa(dp59
g32
VStarcult
p60
sg34
I700
sa(dp61
g32
VThe Moon Children (Part 3 of 3)
p62
sg34
I86
sa(dp63
g32
VAutumntime
p64
sg34
I701
sa(dp65
g32
VI'll Be Judge, I'll Be Jury
p66
sg34
I702
sa(dp67
g32
VBubbles When They Burst
p68
sg34
I74
sasb.