ccopy_reg
_reconstructor
p0
(cdataset.Book
Book
p1
c__builtin__
object
p2
Ntp3
Rp4
(dp5
S'content_name'
p6
V40953.txt.utf-8
p7
sS'isbn'
p8
NsS'year'
p9
I1953
sS'author_name'
p10
VAugust Derleth
p11
sS'images_urls'
p12
(lp13
Vhttp://www.gutenberg.org/files/40953/40953-h/images/cover.jpg
p14
aVhttp://www.gutenberg.org/files/40953/40953-h/images/illus.jpg
p15
asS'language_code'
p16
NsS'id'
p17
I123
sS'category'
p18
VText
p19
sS'genres'
p20
(lp21
sS'copyright'
p22
VPublic domain in the USA.
p23
sS'title'
p24
VA Traveler in Time
p25
sS'wikipedia'
p26
(dp27
S'found'
p28
I00
ssS'average_rating'
p29
F3.95
sS'rating_count'
p30
I42
sS'content_available'
p31
I01
sS'cover_art_url'
p32
S'http://www.gutenberg.org/cache/epub/40953/pg40953.cover.medium.jpg'
p33
sS'goodreads'
p34
(dp35
S'url'
p36
S'https://www.goodreads.com/book/show/19228497-a-traveler-in-time'
p37
sS'found'
p38
I01
ssS'similar_books'
p39
(lp40
sS'description'
p41
NsS'gutenberg'
p42
(dp43
S'url'
p44
Vhttp://www.gutenberg.org/ebooks/40953
p45
sS'num'
p46
I40953
ssS'authors'
p47
(lp48
I43
asS'isbn13'
p49
NsS'language'
p50
VEnglish
p51
sS'countries'
p52
(lp53
I2
asS'release_date'
p54
S'2012-10-06T00:00:00'
p55
sS'author'
p56
I43
sS'cover'
p57
Vhttps://s.gr-assets.com/assets/nophoto/book/111x148-bcc042a9c91a29c1d680899eff700a03.png
p58
sS'content_cleaned'
p59
I01
sS'classes'
p60
(lp61
Vto-read
p62
aVscience-fiction
p63
aVshort-stories
p64
aVsci-fi
p65
aVaudio
p66
aV2017-09-sep
p67
aV2017-reads
p68
aV20th-century-lit
p69
aVshelf-d-authors
p70
aVgenre-syfi-fan-horr
p71
aVfree-from-amazon
p72
aVnovella
p73
aVkindle
p74
aVz_fiction
p75
aVx_shortstory
p76
aVwo_scifi
p77
aVw_us_federal
p78
aVscience-fiction-time-travel
p79
aVprotagonist-male
p80
aVstandalone
p81
aVnovella-novelette
p82
aVfree-books
p83
aVauthor-gender-male
p84
aVadult
p85
aVpublished-2010s
p86
aV15
p87
aVtime-travel
p88
aVread-in-2015
p89
aVformat-ebook
p90
aVfiction
p91
aVamerican-author
p92
aVstorytell
p93
aVfantasy-scifi
p94
aVtime-traveling
p95
aVshort-story
p96
aVfeatures-time-travel
p97
aVauthor-male
p98
aVauthor-america
p99
aVshort-stories-anthologies
p100
asS'loc_class'
p101
VPS: Language and Literatures: American and Canadian literature
p102
sS'n_authors'
p103
I1
sb.