ccopy_reg
_reconstructor
p0
(cdataset.Book
Book
p1
c__builtin__
object
p2
Ntp3
Rp4
(dp5
S'content_name'
p6
V22540.txt.utf-8
p7
sS'isbn'
p8
NsS'year'
p9
I1960
sS'author_name'
p10
VHarry Harrison
p11
sS'images_urls'
p12
(lp13
Vhttp://www.gutenberg.org/files/22540/22540-h/images/001.png
p14
aVhttp://www.gutenberg.org/files/22540/22540-h/images/002.png
p15
aVhttp://www.gutenberg.org/files/22540/22540-h/images/003.png
p16
aVhttp://www.gutenberg.org/files/22540/22540-h/images/004.png
p17
aVhttp://www.gutenberg.org/files/22540/22540-page-images/p037-image.png
p18
aVhttp://www.gutenberg.org/files/22540/22540-page-images/p037.png
p19
aVhttp://www.gutenberg.org/files/22540/22540-page-images/p038.png
p20
aVhttp://www.gutenberg.org/files/22540/22540-page-images/p039.png
p21
aVhttp://www.gutenberg.org/files/22540/22540-page-images/p040.png
p22
aVhttp://www.gutenberg.org/files/22540/22540-page-images/p041.png
p23
aVhttp://www.gutenberg.org/files/22540/22540-page-images/p042.png
p24
aVhttp://www.gutenberg.org/files/22540/22540-page-images/p043.png
p25
aVhttp://www.gutenberg.org/files/22540/22540-page-images/p044-image.png
p26
aVhttp://www.gutenberg.org/files/22540/22540-page-images/p044.png
p27
aVhttp://www.gutenberg.org/files/22540/22540-page-images/p045.png
p28
aVhttp://www.gutenberg.org/files/22540/22540-page-images/p046.png
p29
aVhttp://www.gutenberg.org/files/22540/22540-page-images/p047.png
p30
aVhttp://www.gutenberg.org/files/22540/22540-page-images/p048.png
p31
aVhttp://www.gutenberg.org/files/22540/22540-page-images/p049.png
p32
aVhttp://www.gutenberg.org/files/22540/22540-page-images/p050.png
p33
aVhttp://www.gutenberg.org/files/22540/22540-page-images/p051-image.png
p34
aVhttp://www.gutenberg.org/files/22540/22540-page-images/p051.png
p35
aVhttp://www.gutenberg.org/files/22540/22540-page-images/p052.png
p36
aVhttp://www.gutenberg.org/files/22540/22540-page-images/p053.png
p37
aVhttp://www.gutenberg.org/files/22540/22540-page-images/p054.png
p38
aVhttp://www.gutenberg.org/files/22540/22540-page-images/p055.png
p39
aVhttp://www.gutenberg.org/files/22540/22540-page-images/p056.png
p40
aVhttp://www.gutenberg.org/files/22540/22540-page-images/p057.png
p41
aVhttp://www.gutenberg.org/files/22540/22540-page-images/p058.png
p42
asS'language_code'
p43
NsS'images'
p44
(lp45
sS'id'
p46
I259
sS'category'
p47
VText
p48
sS'genres'
p49
(lp50
sS'copyright'
p51
VPublic domain in the USA.
p52
sS'title'
p53
VThe K-Factor
p54
sS'wikipedia'
p55
(dp56
S'found'
p57
I00
ssS'average_rating'
p58
F4.44
sS'rating_count'
p59
I3
sS'content_available'
p60
I01
sS'goodreads'
p61
(dp62
S'url'
p63
S'https://www.goodreads.com/book/show/29059058-the-k-factor'
p64
sS'found'
p65
I01
ssS'similar_books'
p66
(lp67
sS'description'
p68
NsS'gutenberg'
p69
(dp70
S'url'
p71
Vhttp://www.gutenberg.org/ebooks/22540
p72
sS'num'
p73
I22540
ssS'authors'
p74
(lp75
I16
asS'isbn13'
p76
NsS'language'
p77
VEnglish
p78
sS'countries'
p79
(lp80
I2
asS'release_date'
p81
S'2007-09-08T00:00:00'
p82
sS'author'
p83
I16
sS'cover'
p84
Vhttps://s.gr-assets.com/assets/nophoto/book/111x148-bcc042a9c91a29c1d680899eff700a03.png
p85
sS'content_cleaned'
p86
I01
sS'classes'
p87
(lp88
Vowned-pending-kindle-free-ebook
p89
aVto-read
p90
aVhow-kindle
p91
asS'loc_class'
p92
VPS: Language and Literatures: American and Canadian literature
p93
sS'n_authors'
p94
I1
sb.