ccopy_reg
_reconstructor
p0
(cdataset.Book
Book
p1
c__builtin__
object
p2
Ntp3
Rp4
(dp5
S'content_name'
p6
V30251.txt.utf-8
p7
sS'isbn'
p8
NsS'year'
p9
I1954
sS'author_name'
p10
VCharles L. Fontenay
p11
sS'images_urls'
p12
(lp13
Vhttp://www.gutenberg.org/files/30251/30251-h/images/001.png
p14
aVhttp://www.gutenberg.org/files/30251/30251-h/images/002-1.jpg
p15
aVhttp://www.gutenberg.org/files/30251/30251-h/images/002-2.jpg
p16
asS'language_code'
p17
Veng
p18
sS'id'
p19
I826
sS'category'
p20
VText
p21
sS'genres'
p22
(lp23
sS'copyright'
p24
VPublic domain in the USA.
p25
sS'title'
p26
VDisqualified
p27
sS'wikipedia'
p28
(dp29
S'found'
p30
I00
ssS'average_rating'
p31
F2.75
sS'rating_count'
p32
I4
sS'content_available'
p33
I01
sS'goodreads'
p34
(dp35
S'url'
p36
Vhttps://www.goodreads.com/book/show/22846620-disqualified
p37
sS'found'
p38
I01
sS'year'
p39
I2011
ssS'similar_books'
p40
(lp41
sS'description'
p42
NsS'format'
p43
Vebook
p44
sS'gutenberg'
p45
(dp46
g36
Vhttp://www.gutenberg.org/ebooks/30251
p47
sS'num'
p48
I30251
ssS'authors'
p49
(lp50
I144
asS'isbn13'
p51
NsS'language'
p52
VEnglish
p53
sS'countries'
p54
(lp55
I2
asS'release_date'
p56
S'2009-10-14T00:00:00'
p57
sS'author'
p58
I144
sS'content_cleaned'
p59
I01
sS'classes'
p60
(lp61
Vsci-fi
p62
aVshort-story
p63
aVtype-short-story
p64
asS'loc_class'
p65
VPS: Language and Literatures: American and Canadian literature
p66
sS'n_authors'
p67
I1
sb.