ccopy_reg
_reconstructor
p0
(cdataset.Author
Author
p1
c__builtin__
object
p2
Ntp3
Rp4
(dp5
S'bio'
p6
VAfter leaving Ziff-Davis, the magazines' publisher, he focused on writing his own work, often under different names. He ghost-wrote several juveniles, such as The Runaway Robot (1965), based on outlines by Lester del Rey, whose name appeared on the books. He also wrote the Sherlock Holmes part of Ellery Queen's A Study In Terror (1966), in which Ellery finds a previously unknown Sherlock Holmes manuscript.
p7
sS'name'
p8
VPaul W. Fairman
p9
sS'countries'
p10
(lp11
I2
asS'gender'
p12
S'm'
p13
sS'wikipedia'
p14
(dp15
S'url'
p16
Vhttps://en.wikipedia.org/wiki/Paul_W._Fairman
p17
sS'found'
p18
I01
ssS'n_books'
p19
I3
sS'summary'
p20
VPaul Warren Fairman (1916\u20131977) was an editor and writer in a variety of genres under his own name and under pseudonyms. His detective story "Late Rain" was published in the February 1947 issue of Mammoth Detective. He published his story "No Teeth for the Tiger" in the February 1950 issue of Amazing Stories. Two years later, he was the founding editor of If, but only edited four issues. In 1955, he became the editor of Amazing Stories and Fantastic. He held that dual position until 1958. His science fiction short stories "Deadly City" and "The Cosmic Frame" were made into motion pictures.
p21
sS'books'
p22
(lp23
I669
aI893
aI912
aI1218
aI1219
aI1220
aI1221
aI1222
aI1224
asS'id'
p24
I221
sb.