ccopy_reg
_reconstructor
p0
(cdataset.Author
Author
p1
c__builtin__
object
p2
Ntp3
Rp4
(dp5
S'name'
p6
VEd Earl Repp
p7
sS'country'
p8
I1
sS'wikipedia'
p9
(dp10
S'url'
p11
Vhttps://en.wikipedia.org/wiki/Ed_Earl_Repp
p12
sS'found'
p13
I01
ssS'n_books'
p14
I1
sS'summary'
p15
VEd Earl Repp (1901\u20131979) was an American writer, screenwriter and novelist. His stories appeared in several of the early pulp magazines including Air Wonder Stories, Science Wonder Stories and Amazing Stories. After World War II, he began working as a screenwriter for several western movies
p16
sS'born'
p17
cdatetime
datetime
p18
(S'\x07m\x05\x16\x00\x00\x00\x00\x00\x00'
p19
tp20
Rp21
sS'books'
p22
(lp23
I351
asS'id'
p24
I113
sS'died'
p25
g18
(S'\x07\xbb\x02\x0e\x00\x00\x00\x00\x00\x00'
p26
tp27
Rp28
sb.