ccopy_reg
_reconstructor
p0
(cdataset.Author
Author
p1
c__builtin__
object
p2
Ntp3
Rp4
(dp5
S'gender'
p6
S''
p7
sS'books'
p8
(lp9
I1007
aI1012
aI1013
aI1014
aI1015
aI1017
aI1019
aI1020
aI1021
aI1024
aI1025
aI1026
aI1027
aI1029
aI1030
aI1031
aI1032
asS'id'
p10
I433
sS'name'
p11
VSanford Kossin
p12
sS'countries'
p13
(lp14
sb.