ccopy_reg
_reconstructor
p0
(cdataset.Author
Author
p1
c__builtin__
object
p2
Ntp3
Rp4
(dp5
S'name'
p6
VRockwood, Roy
p7
sS'countries'
p8
(lp9
I3
asS'wikipedia'
p10
(dp11
S'url'
p12
S'https://en.wikipedia.org/wiki/Roy_Rockwood'
p13
sS'found'
p14
I01
ssS'n_books'
p15
I1
sS'summary'
p16
VRoy Rockwood was a house pseudonym used by the Stratemeyer Syndicate for boy's adventure books. The name is most well-remembered for the Bomba the Jungle Boy and Great Marvel series.
p17
sS'books'
p18
(lp19
I455
asS'id'
p20
I155
sb.