ccopy_reg
_reconstructor
p0
(cdataset.Author
Author
p1
c__builtin__
object
p2
Ntp3
Rp4
(dp5
S'gender'
p6
S''
p7
sS'books'
p8
(lp9
I1033
aI1041
aI1118
aI1284
aI1329
asS'id'
p10
I476
sS'name'
p11
VSmith
p12
sS'countries'
p13
(lp14
sb.