ccopy_reg
_reconstructor
p0
(cdataset.Author
Author
p1
c__builtin__
object
p2
Ntp3
Rp4
(dp5
S'id'
p6
I626
sS'gender'
p7
S''
p8
sS'books'
p9
(lp10
I1123
aI1124
aI1125
aI1127
aI1130
aI1141
asS'name'
p11
VBrock
p12
sS'countries'
p13
(lp14
sb.