ccopy_reg
_reconstructor
p0
(cdataset.Author
Author
p1
c__builtin__
object
p2
Ntp3
Rp4
(dp5
S'gender'
p6
S''
p7
sS'books'
p8
(lp9
I1088
aI1094
aI1129
aI1266
aI1267
aI1285
asS'id'
p10
I569
sS'name'
p11
VTheodore L. Thomas
p12
sS'countries'
p13
(lp14
sb.