ccopy_reg
_reconstructor
p0
(cdataset.Author
Author
p1
c__builtin__
object
p2
Ntp3
Rp4
(dp5
S'name'
p6
VFrank Banta
p7
sS'country'
p8
I2
sS'wikipedia'
p9
(dp10
S'url'
p11
Vhttps://en.wikipedia.org/wiki/Frank_Wead
p12
sS'found'
p13
I01
ssS'n_books'
p14
I2
sS'summary'
p15
VFrank Wilbur "Spig" Wead (24 October 1895 \u2013 15 November 1947) was a U.S. Navy aviator who helped promote United States Naval aviation from its inception through World War II. Commander Wead was a recognized authority on early aviation. Following a crippling spinal injury in 1926, Wead was placed on the retired list. In the 1930s, he became a screenwriter, becoming involved in over 30 movies. He also published several books, short stories and magazine articles. During World War II, he returned to active duty. He initially worked in a planning role, but later undertook sea duty in the Pacific, where he saw action against the Japanese in 1943\u201344 before being placed on the retired list in mid-1945.
p16
sS'born'
p17
cdatetime
datetime
p18
(S'\x07g\n\x18\x00\x00\x00\x00\x00\x00'
p19
tp20
Rp21
sS'books'
p22
(lp23
I697
aI739
asS'id'
p24
I229
sS'died'
p25
g18
(S'\x07\x9b\x0b\x0f\x00\x00\x00\x00\x00\x00'
p26
tp27
Rp28
sb.