ccopy_reg
_reconstructor
p0
(cdataset.Author
Author
p1
c__builtin__
object
p2
Ntp3
Rp4
(dp5
S'name'
p6
VLeonard Rubin
p7
sS'wikipedia'
p8
(dp9
S'url'
p10
Vhttps://en.wikipedia.org/wiki/Daphne_Rubin-Vega
p11
sS'found'
p12
I01
ssS'n_books'
p13
I1
sS'summary'
p14
VDaphne Rubin-Vega (born November 18, 1969) is a Panamanian-American dancer, singer-songwriter, and actress. She is best known for originating the roles of Mimi Marquez in the Broadway musical Rent and Lucy in the Off-Broadway play Jack Goes Boating.\u000aIn 2012, Daphne also appeared as Bombshell publicist Agnes in the second season of the NBC TV series Smash.
p15
sS'born'
p16
cdatetime
datetime
p17
(S'\x07\xb1\x0b\x12\x00\x00\x00\x00\x00\x00'
p18
tp19
Rp20
sS'books'
p21
(lp22
I813
asS'id'
p23
I258
sb.