ccopy_reg
_reconstructor
p0
(cdataset.Author
Author
p1
c__builtin__
object
p2
Ntp3
Rp4
(dp5
S'id'
p6
I948
sS'gender'
p7
S''
p8
sS'books'
p9
(lp10
I1223
aI1224
aI1225
aI1226
aI1231
aI1232
aI1233
aI1234
aI1236
aI1237
aI1238
aI1239
aI1240
aI1241
aI1242
aI1243
aI1244
aI1245
aI1251
aI1252
aI1253
aI1254
aI1255
aI1256
aI1257
aI1258
aI1262
aI1263
asS'name'
p11
VJames L. Quinn
p12
sS'countries'
p13
(lp14
sb.