ccopy_reg
_reconstructor
p0
(cdataset.Author
Author
p1
c__builtin__
object
p2
Ntp3
Rp4
(dp5
S'name'
p6
VCharles L. Fontenay
p7
sS'countries'
p8
(lp9
I2
asS'wikipedia'
p10
(dp11
S'url'
p12
Vhttps://en.wikipedia.org/wiki/Charles_L._Fontenay
p13
sS'found'
p14
I01
ssS'n_books'
p15
I7
sS'summary'
p16
VCharles Louis Fontenay (March 17, 1917 \u2013 January 27, 2007) was an American journalist and science fiction writer. He wrote science fiction novels and short stories. His non-fiction includes the biography of the prominent New Deal era politician Estes Kefauver.\u000aFontenay was editor of the Nashville Tennessean, among other newspapers, worked with the Associated Press and Gannett News Service. He retired to St. Petersburg, Florida, where he continued to write science fiction until shortly before his death.\u000aHe held a third-degree black belt in tae kwon do.
p17
sS'born'
p18
cdatetime
datetime
p19
(S'\x07}\x03\x11\x00\x00\x00\x00\x00\x00'
p20
tp21
Rp22
sS'books'
p23
(lp24
I431
aI537
aI555
aI619
aI753
aI755
aI826
asS'id'
p25
I144
sS'died'
p26
g19
(S'\x07\xd7\x01\x1b\x00\x00\x00\x00\x00\x00'
p27
tp28
Rp29
sb.