ccopy_reg
_reconstructor
p0
(cdataset.Author
Author
p1
c__builtin__
object
p2
Ntp3
Rp4
(dp5
S'gender'
p6
S''
p7
sS'books'
p8
(lp9
I1162
aI1207
aI1209
asS'id'
p10
I714
sS'name'
p11
VWilliam Walling
p12
sS'countries'
p13
(lp14
sb.