ccopy_reg
_reconstructor
p0
(cdataset.Author
Author
p1
c__builtin__
object
p2
Ntp3
Rp4
(dp5
S'id'
p6
I1074
sS'gender'
p7
S''
p8
sS'books'
p9
(lp10
I1282
aI1283
aI1297
aI1308
aI1309
aI1310
aI1311
aI1312
asS'name'
p11
VEdward E. Smith
p12
sS'countries'
p13
(lp14
sb.