ccopy_reg
_reconstructor
p0
(cdataset.Author
Author
p1
c__builtin__
object
p2
Ntp3
Rp4
(dp5
S'id'
p6
I629
sS'gender'
p7
S''
p8
sS'books'
p9
(lp10
I1123
aI1124
asS'name'
p11
VBurt K. Filer
p12
sS'countries'
p13
(lp14
sb.