ccopy_reg
_reconstructor
p0
(cdataset.Author
Author
p1
c__builtin__
object
p2
Ntp3
Rp4
(dp5
S'name'
p6
VKeith Laumer
p7
sS'countries'
p8
(lp9
I2
asS'gender'
p10
S'm'
p11
sS'wikipedia'
p12
(dp13
S'url'
p14
Vhttps://en.wikipedia.org/wiki/Keith_Laumer
p15
sS'found'
p16
I01
ssS'n_books'
p17
I9
sS'summary'
p18
VJohn Keith Laumer ((1925-06-09)June 9, 1925 \u2013 January 23, 1993(1993-01-23)) was an American science fiction author. Prior to becoming a full-time writer, he was an officer in the United States Air Force and a diplomat in the United States Foreign Service. His older brother March Laumer was also a writer, known for his adult reinterpretations of the Land of Oz (also mentioned in Laumer's The Other Side of Time). Frank Laumer, their youngest brother, is a historian and writer.
p19
sS'born'
p20
cdatetime
datetime
p21
(S'\x07\x85\x06\t\x00\x00\x00\x00\x00\x00'
p22
tp23
Rp24
sS'books'
p25
(lp26
I207
aI244
aI250
aI261
aI265
aI278
aI461
aI476
aI522
aI1083
aI1086
aI1095
aI1099
aI1106
aI1113
aI1117
aI1121
aI1129
aI1131
aI1132
aI1133
aI1146
aI1281
aI1282
aI1283
aI1284
aI1285
aI1286
aI1287
aI1288
aI1290
aI1292
aI1294
aI1296
aI1299
aI1300
aI1301
aI1302
aI1303
aI1310
aI1311
aI1312
aI1313
aI1314
aI1317
aI1318
aI1319
aI1320
aI1321
aI1325
aI1328
aI1330
aI1331
aI1332
aI1333
aI1334
aI1354
aI1356
aI1358
aI1359
aI1360
aI1365
aI1367
aI1369
aI1370
aI1371
aI1373
asS'id'
p27
I67
sS'died'
p28
g21
(S'\x07\xc9\x01\x17\x00\x00\x00\x00\x00\x00'
p29
tp30
Rp31
sb.