ccopy_reg
_reconstructor
p0
(cdataset.Author
Author
p1
c__builtin__
object
p2
Ntp3
Rp4
(dp5
S'id'
p6
I764
sS'gender'
p7
S''
p8
sS'books'
p9
(lp10
I1180
aI1182
aI1186
aI1188
aI1191
aI1197
aI1203
aI1205
asS'name'
p11
VJim Baen
p12
sS'countries'
p13
(lp14
sb.