ccopy_reg
_reconstructor
p0
(cdataset.Author
Author
p1
c__builtin__
object
p2
Ntp3
Rp4
(dp5
S'name'
p6
VRichard Wilson
p7
sS'country'
p8
I2
sS'wikipedia'
p9
(dp10
S'url'
p11
Vhttps://en.wikipedia.org/wiki/Richard_Wilson_(director)
p12
sS'found'
p13
I01
ssS'n_books'
p14
I1
sS'summary'
p15
VRichard Wilson (December 25, 1915 \u2013 August 21, 1991) was an American director, actor, writer and producer closely associated with Orson Welles and the Mercury Theatre.
p16
sS'born'
p17
cdatetime
datetime
p18
(S'\x07{\x0c\x19\x00\x00\x00\x00\x00\x00'
p19
tp20
Rp21
sS'books'
p22
(lp23
I663
asS'id'
p24
I217
sS'died'
p25
g18
(S'\x07\xc7\x08\x15\x00\x00\x00\x00\x00\x00'
p26
tp27
Rp28
sb.