ccopy_reg
_reconstructor
p0
(cdataset.Author
Author
p1
c__builtin__
object
p2
Ntp3
Rp4
(dp5
S'id'
p6
I918
sS'gender'
p7
S''
p8
sS'books'
p9
(lp10
I1218
aI1219
aI1220
aI1221
aI1222
aI1223
aI1224
aI1225
aI1226
aI1227
aI1228
aI1229
aI1230
aI1231
aI1232
aI1233
aI1234
aI1235
aI1236
aI1237
aI1238
aI1239
aI1240
aI1241
aI1242
aI1243
aI1244
aI1245
aI1246
aI1247
aI1248
aI1249
aI1250
aI1251
aI1252
aI1253
aI1254
aI1255
aI1256
aI1257
aI1258
aI1259
aI1260
aI1261
aI1262
aI1263
aI1264
aI1265
aI1266
aI1267
aI1268
aI1269
aI1270
aI1271
aI1272
aI1273
aI1274
aI1275
aI1276
aI1277
aI1278
aI1279
aI1280
aI1281
aI1282
aI1283
aI1284
aI1285
aI1286
aI1287
aI1288
aI1289
aI1290
aI1291
aI1292
aI1293
aI1294
aI1295
aI1296
aI1297
aI1298
aI1299
aI1300
aI1301
aI1302
aI1303
aI1304
aI1305
aI1306
aI1307
aI1308
aI1309
aI1310
aI1311
aI1312
aI1313
aI1314
aI1315
aI1316
aI1317
aI1318
aI1319
aI1320
aI1321
aI1322
aI1323
aI1324
aI1325
aI1326
aI1327
aI1328
aI1329
aI1330
aI1331
aI1332
aI1333
aI1334
aI1335
aI1336
aI1337
aI1338
aI1339
aI1340
aI1341
aI1342
aI1343
aI1344
aI1345
aI1346
aI1347
aI1348
aI1349
aI1350
aI1351
aI1352
aI1353
aI1354
aI1355
aI1356
aI1357
aI1358
aI1359
aI1360
aI1361
aI1362
aI1363
aI1364
aI1365
aI1366
aI1367
aI1368
aI1369
aI1370
aI1371
aI1372
aI1373
aI1374
aI1375
aI1376
aI1377
aI1378
aI1379
aI1380
aI1381
aI1382
aI1383
aI1384
aI1385
aI1386
aI1387
aI1388
aI1389
aI1390
aI1391
aI1392
aI1393
asS'name'
p11
VIF Magazine
p12
sS'countries'
p13
(lp14
sb.