ccopy_reg
_reconstructor
p0
(cdataset.Author
Author
p1
c__builtin__
object
p2
Ntp3
Rp4
(dp5
S'name'
p6
VStanton A. Coblentz
p7
sS'countries'
p8
(lp9
I2
asS'wikipedia'
p10
(dp11
S'url'
p12
Vhttps://en.wikipedia.org/wiki/Coblentz
p13
sS'found'
p14
I01
ssS'n_books'
p15
I1
sS'summary'
p16
VCoblentz is a surname. Notable people with the surname include:\u000aLaban Coblentz (b. 1961), American writer and communications specialist\u000aWilliam Coblentz (1873\u20131962), American scientist\u000aWilliam Coblentz (1922\u20132010), California attorney and power broker\u000aCatherine Cate Coblentz, Writer of children's books\u000aStanton A. Coblentz, American author and poet
p17
sS'books'
p18
(lp19
I706
asS'id'
p20
I233
sb.