ccopy_reg
_reconstructor
p0
(cdataset.Author
Author
p1
c__builtin__
object
p2
Ntp3
Rp4
(dp5
S'books'
p6
(lp7
I489
aI566
aI632
aI672
aI712
aI713
aI768
aI775
aI803
aI861
aI878
aI892
asS'wikipedia'
p8
(dp9
S'found'
p10
I00
ssS'name'
p11
VRoger D. Aycock
p12
sS'n_books'
p13
I12
sS'id'
p14
I162
sb.