ccopy_reg
_reconstructor
p0
(cdataset.Author
Author
p1
c__builtin__
object
p2
Ntp3
Rp4
(dp5
S'bio'
p6
VNowlan was born on November 13, 1888. While attending the University of Pennsylvania, Nowlan was a member of The Mask and Wig Club, holding significant roles in the annual productions between 1907 and 1909. After graduating from the University of Pennsylvania he worked as a newspaper columnist. Nowlan was married to Theresa Junker. They had ten children: Philip, Mary, Helen, Louise, Theresa, Mike, Larry, Pat, John, and Joe.\u000aHe moved to the Philadelphia suburb of Bala Cynwyd and created and wrote the Buck Rogers comic strip, illustrated by Dick Calkins. He remained a writer on the strip until 1939. The character Buck Rogers first appeared in Nowlan's 1928 novella Armageddon 2419 A.D. as Anthony Rogers. The comic strip ran for over forty years and spun off a radio series, a 1939 movie serial, and two television series.\u000aNowlan also wrote several other novellas for the science fiction magazines as well as the posthumously published mystery, The Girl from Nowhere. Nowlan was born on November 13, 1888. While attending the University of Pennsylvania, Nowlan was a member of The Mask and Wig Club, holding significant roles in the annual productions between 1907 and 1909. After graduating from the University of Pennsylvania he worked as a newspaper columnist. Nowlan was married to Theresa Junker. They had ten children: Philip, Mary, Helen, Louise, Theresa, Mike, Larry, Pat, John, and Joe.\u000aHe moved to the Philadelphia suburb of Bala Cynwyd and created and wrote the Buck Rogers comic strip, illustrated by Dick Calkins. He remained a writer on the strip until 1939. The character Buck Rogers first appeared in Nowlan's 1928 novella Armageddon 2419 A.D. as Anthony Rogers. The comic strip ran for over forty years and spun off a radio series, a 1939 movie serial, and two television series.\u000aNowlan also wrote several other novellas for the science fiction magazines as well as the posthumously published mystery, The Girl from Nowhere. Nowlan was born on November 13, 1888. While attending the University of Pennsylvania, Nowlan was a member of The Mask and Wig Club, holding significant roles in the annual productions between 1907 and 1909. After graduating from the University of Pennsylvania he worked as a newspaper columnist. Nowlan was married to Theresa Junker. They had ten children: Philip, Mary, Helen, Louise, Theresa, Mike, Larry, Pat, John, and Joe.\u000aHe moved to the Philadelphia suburb of Bala Cynwyd and created and wrote the Buck Rogers comic strip, illustrated by Dick Calkins. He remained a writer on the strip until 1939. The character Buck Rogers first appeared in Nowlan's 1928 novella Armageddon 2419 A.D. as Anthony Rogers. The comic strip ran for over forty years and spun off a radio series, a 1939 movie serial, and two television series.\u000aNowlan also wrote several other novellas for the science fiction magazines as well as the posthumously published mystery, The Girl from Nowhere.
p7
sS'name'
p8
VPhilip Francis Nowlan
p9
sS'countries'
p10
(lp11
I2
asS'wikipedia'
p12
(dp13
S'url'
p14
S'https://en.wikipedia.org/wiki/Philip_Francis_Nowlan'
p15
sS'found'
p16
I01
ssS'n_books'
p17
I2
sS'summary'
p18
VPhilip Francis Nowlan (November 13, 1888 \u2013 February 1, 1940) was an American science fiction author, best known as the creator of Buck Rogers.
p19
sS'born'
p20
cdatetime
datetime
p21
(S'\x07`\n\x11\x00\x00\x00\x00\x00\x00'
p22
tp23
Rp24
sS'books'
p25
(lp26
I53
aI160
asS'id'
p27
I20
sS'died'
p28
g21
(S'\x07\x94\x02\x01\x00\x00\x00\x00\x00\x00'
p29
tp30
Rp31
sb.