ccopy_reg
_reconstructor
p0
(cdataset.Author
Author
p1
c__builtin__
object
p2
Ntp3
Rp4
(dp5
S'gender'
p6
S''
p7
sS'books'
p8
(lp9
I975
aI989
aI1030
aI1037
aI1221
aI1329
aI1333
aI1373
asS'id'
p10
I345
sS'name'
p11
VL. Sprague de Camp
p12
sS'countries'
p13
(lp14
sb.