ccopy_reg
_reconstructor
p0
(cdataset.Author
Author
p1
c__builtin__
object
p2
Ntp3
Rp4
(dp5
S'bio'
p6
V Pohl went to the hospital in respiratory distress on the morning of September 2, 2013, and died that afternoon at the age of 93.
p7
sS'name'
p8
VFrederik Pohl
p9
sS'countries'
p10
(lp11
I2
asS'wikipedia'
p12
(dp13
S'url'
p14
Vhttps://en.wikipedia.org/wiki/Frederik_Pohl
p15
sS'found'
p16
I01
ssS'n_books'
p17
I10
sS'summary'
p18
VFrederik George Pohl Jr. (; November 26, 1919 \u2013 September 2, 2013) was an American science fiction writer, editor and fan, with a career spanning more than seventy-five years\u2014from his first published work, the 1937 poem "Elegy to a Dead Satellite: Luna", to the 2011 novel All the Lives He Led and articles and essays published in 2012.\u000aFrom about 1959 until 1969, Pohl edited Galaxy and its sister magazine If; the latter won three successive annual Hugo Awards as the year's best professional magazine. His 1977 novel Gateway won four "year's best novel" awards: the Hugo voted by convention participants, the Locus voted by magazine subscribers, the Nebula voted by American science fiction writers, and the juried academic John W. Campbell Memorial Award. He won the Campbell Memorial Award again for the 1984 collection of novellas Years of the City, one of two repeat winners during the first forty years. For his 1979 novel Jem, Pohl won a U.S. National Book Award in the one-year category Science Fiction. It was a finalist for three other years' best novel awards. He won four Hugo and three Nebula Awards.\u000aThe Science Fiction Writers of America named Pohl its 12th recipient of the Damon Knight Memorial Grand Master Award in 1993 and he was inducted by the Science Fiction and Fantasy Hall of Fame in 1998, its third class of two dead and two living writers.\u000aPohl won the Hugo Award for Best Fan Writer in 2010, for his blog, "The Way the Future Blogs".
p19
sS'born'
p20
cdatetime
datetime
p21
(S'\x07\x7f\x0b\x1a\x00\x00\x00\x00\x00\x00'
p22
tp23
Rp24
sS'books'
p25
(lp26
I106
aI142
aI165
aI171
aI211
aI282
aI326
aI383
aI488
aI497
asS'id'
p27
I40
sS'died'
p28
g21
(S'\x07\xdd\t\x02\x00\x00\x00\x00\x00\x00'
p29
tp30
Rp31
sb.