ccopy_reg
_reconstructor
p0
(cdataset.Author
Author
p1
c__builtin__
object
p2
Ntp3
Rp4
(dp5
S'gender'
p6
S''
p7
sS'books'
p8
(lp9
I988
aI991
aI1003
aI1005
aI1007
aI1013
aI1021
aI1023
aI1025
aI1057
aI1066
aI1072
aI1073
aI1082
aI1084
aI1086
aI1099
aI1105
aI1114
aI1214
aI1270
aI1274
aI1277
aI1279
aI1280
aI1290
aI1302
aI1324
aI1325
aI1326
aI1327
aI1351
aI1352
aI1374
asS'id'
p10
I384
sS'name'
p11
VJ. T. McIntosh
p12
sS'countries'
p13
(lp14
sb.