ccopy_reg
_reconstructor
p0
(cdataset.Author
Author
p1
c__builtin__
object
p2
Ntp3
Rp4
(dp5
S'name'
p6
VEverett B. Cole
p7
sS'countries'
p8
(lp9
I2
asS'gender'
p10
S'm'
p11
sS'wikipedia'
p12
(dp13
S'url'
p14
Vhttps://en.wikipedia.org/wiki/Everett_B._Cole
p15
sS'found'
p16
I01
ssS'n_books'
p17
I6
sS'summary'
p18
VEverett B. Cole was an American writer of science fiction short stories and a professional soldier. He fought at Omaha Beach during World War II and worked as a signal maintenance and property officer at Fort Douglas, Utah, retiring in 1960. He got a bachelor's degree in Math and Physics and became a Math, Physics, and Chemistry teacher at Yorktown High School in Texas. His first science fiction story, "Philosophical Corps" was published in the magazine Astounding in 1951. His fix-up of that story and two others, The Philosophical Corps, was published by Gnome Press in 1962. A second novel, The Best Made Plans, was serialized in Astounding in 1959, but never published in book form. He also co-authored historical books about the south Texas region.
p19
sS'born'
p20
cdatetime
datetime
p21
(S'\x07v\x04\x11\x00\x00\x00\x00\x00\x00'
p22
tp23
Rp24
sS'books'
p25
(lp26
I683
aI794
aI830
aI875
aI903
aI917
asS'id'
p27
I224
sS'died'
p28
g21
(S'\x07\xd1\x08\x15\x00\x00\x00\x00\x00\x00'
p29
tp30
Rp31
sb.