ccopy_reg
_reconstructor
p0
(cdataset.Author
Author
p1
c__builtin__
object
p2
Ntp3
Rp4
(dp5
S'id'
p6
I498
sS'gender'
p7
S''
p8
sS'books'
p9
(lp10
I1041
aI1052
aI1060
aI1061
aI1063
aI1067
asS'name'
p11
VLloyd Biggle, Jr.
p12
sS'countries'
p13
(lp14
sb.