ccopy_reg
_reconstructor
p0
(cdataset.Author
Author
p1
c__builtin__
object
p2
Ntp3
Rp4
(dp5
S'name'
p6
VJim Harmon
p7
sS'country'
p8
I2
sS'wikipedia'
p9
(dp10
S'found'
p11
I00
ssS'n_books'
p12
I11
sS'books'
p13
(lp14
I427
aI460
aI631
aI676
aI684
aI756
aI809
aI825
aI833
aI837
aI886
asS'id'
p15
I142
sb.