ccopy_reg
_reconstructor
p0
(cdataset.Author
Author
p1
c__builtin__
object
p2
Ntp3
Rp4
(dp5
S'name'
p6
VRockwood, Roy
p7
sS'countries'
p8
(lp9
I3
asS'gender'
p10
S''
p11
sS'wikipedia'
p12
(dp13
S'url'
p14
S'https://en.wikipedia.org/wiki/Roy_Rockwood'
p15
sS'found'
p16
I01
ssS'n_books'
p17
I1
sS'summary'
p18
VRoy Rockwood was a house pseudonym used by the Stratemeyer Syndicate for boy's adventure books. The name is most well-remembered for the Bomba the Jungle Boy and Great Marvel series.
p19
sS'books'
p20
(lp21
I455
asS'id'
p22
I155
sb.