ccopy_reg
_reconstructor
p0
(cdataset.Author
Author
p1
c__builtin__
object
p2
Ntp3
Rp4
(dp5
S'name'
p6
VArthur Leo Zagat
p7
sS'countries'
p8
(lp9
I2
asS'gender'
p10
S'm'
p11
sS'wikipedia'
p12
(dp13
S'url'
p14
Vhttps://en.wikipedia.org/wiki/Arthur_Leo_Zagat
p15
sS'found'
p16
I01
ssS'n_books'
p17
I2
sS'summary'
p18
VArthur Leo Zagat (1896\u20131949) was an American lawyer and writer of pulp fiction and science fiction. Trained in the law, he gave it up to write professionally. Zagat is noted for his collaborations with fellow lawyer Nat Schachner. During the last two decades of his life, Zagat wrote short stories prolifically. About 500 pieces appeared in a variety of pulp magazines, including Thrilling Wonder Stories, Argosy, Dime Mystery Magazine, Horror Stories, Operator No. 5 and Astounding. Zagat also wrote the "Doc Turner" stories that regularly appeared in The Spider pulp magazine throughout the 1930s, and wrote for Spicy Mystery Stories as "Morgan LaFay". A novel, Seven Out of Time, was published by Fantasy Press in 1949, the year he died.\u000aZagat was a graduate of City College who served in the US military in Europe during World War I. After the war, he studied at Bordeaux University, then graduated from Fordham Law School. He taught writing at New York University. In 1941, he was elected to the first national executive committee for the Authors League pulp writers' section. During World War II, he held an executive position in the Office of War Information. After that war, Zagat was active in organizing writers' workshops and other assistance for hospitalized veterans.\u000aZagat was married to Ruth Zagat; the couple had one daughter, Hermine. He died of a heart attack on April 3, 1949, at his home in the Bronx.
p19
sS'born'
p20
cdatetime
datetime
p21
(S'\x07h\x02\x0f\x00\x00\x00\x00\x00\x00'
p22
tp23
Rp24
sS'books'
p25
(lp26
I592
aI605
asS'id'
p27
I197
sS'died'
p28
g21
(S'\x07\x9d\x04\x03\x00\x00\x00\x00\x00\x00'
p29
tp30
Rp31
sb.