ccopy_reg
_reconstructor
p0
(cdataset.Author
Author
p1
c__builtin__
object
p2
Ntp3
Rp4
(dp5
S'name'
p6
VF. L. Wallace
p7
sS'countries'
p8
(lp9
I2
asS'wikipedia'
p10
(dp11
S'url'
p12
Vhttps://en.wikipedia.org/wiki/F._L._Wallace
p13
sS'found'
p14
I01
ssS'n_books'
p15
I5
sS'summary'
p16
VF. L. Wallace (February 16, 1915 \u2013 November 26, 2004), sometimes credited as Floyd Wallace, was a noted science fiction and mystery writer. He was born in Rock Island, Illinois, in 1915, and died in Tustin, California, in 2004. Wallace spent most of his life in California as a writer and mechanical engineer after attending the University of Iowa. He also attended UCLA.\u000aHis first published story, "Hideaway," appeared in the magazine Astounding. Galaxy Science Fiction and other science fiction magazines published subsequent stories of his including "Student Body", "Delay in Transit", "Bolden's Pets", and "Tangle Hold". His mystery works include "Driving Lesson," a second-prize winner in the twelfth annual short story contest held by Ellery Queen's Mystery Magazine. His novel, Address: Centauri, was published by Gnome Press in 1955. His works have been translated into numerous languages and his stories are available today around the world in anthologies.
p17
sS'books'
p18
(lp19
I424
aI748
aI831
aI868
aI900
asS'id'
p20
I138
sb.