ccopy_reg
_reconstructor
p0
(cdataset.Author
Author
p1
c__builtin__
object
p2
Ntp3
Rp4
(dp5
S'name'
p6
VKeith Laumer
p7
sS'wikipedia'
p8
(dp9
S'url'
p10
Vhttps://en.wikipedia.org/wiki/Keith_Laumer
p11
sS'found'
p12
I01
ssS'n_books'
p13
I9
sS'summary'
p14
VJohn Keith Laumer ((1925-06-09)June 9, 1925 \u2013 January 23, 1993(1993-01-23)) was an American science fiction author. Prior to becoming a full-time writer, he was an officer in the United States Air Force and a diplomat in the United States Foreign Service. His older brother March Laumer was also a writer, known for his adult reinterpretations of the Land of Oz (also mentioned in Laumer's The Other Side of Time). Frank Laumer, their youngest brother, is a historian and writer.
p15
sS'born'
p16
cdatetime
datetime
p17
(S'\x07\x85\x06\t\x00\x00\x00\x00\x00\x00'
p18
tp19
Rp20
sS'books'
p21
(lp22
I207
aI244
aI250
aI261
aI265
aI278
aI461
aI476
aI522
asS'id'
p23
I67
sS'died'
p24
g17
(S'\x07\xc9\x01\x17\x00\x00\x00\x00\x00\x00'
p25
tp26
Rp27
sb.