ccopy_reg
_reconstructor
p0
(cdataset.Author
Author
p1
c__builtin__
object
p2
Ntp3
Rp4
(dp5
S'name'
p6
VLester Del Rey
p7
sS'countries'
p8
(lp9
I2
asS'wikipedia'
p10
(dp11
S'url'
p12
Vhttps://en.wikipedia.org/wiki/Winston_Science_Fiction
p13
sS'found'
p14
I01
ssS'n_books'
p15
I12
sS'summary'
p16
VWinston Science Fiction was a series of 37 American juvenile science fiction books published by the John C. Winston Company of Philadelphia from 1952 to 1960 and by its successor Holt, Rinehart & Winston in 1960 and 1961. It included 35 novels by various writers, including many who became famous in the SF field, such as Poul Anderson, Arthur C. Clarke, Ben Bova, and Lester del Rey. There was also one anthology, The Year After Tomorrow, edited by del Rey and others. There was one non-fiction book Rockets through Space: The Story of Man's Preparations to Explore the Universe by del Rey which details the factual science and technology of rocket flight. Many of the dust jackets became science fiction classics; the artists included Hugo Award winners Ed Emshwiller and Virgil Finlay along with Hugo nominees such as Mel Hunter and Alex Schomburg.
p17
sS'books'
p18
(lp19
I225
aI232
aI240
aI270
aI327
aI329
aI334
aI338
aI358
aI416
aI420
aI526
asS'id'
p20
I73
sb.