ccopy_reg
_reconstructor
p0
(cdataset.Author
Author
p1
c__builtin__
object
p2
Ntp3
Rp4
(dp5
S'name'
p6
VKris Neville
p7
sS'wikipedia'
p8
(dp9
S'url'
p10
Vhttps://en.wikipedia.org/wiki/Kris_Ottman_Neville
p11
sS'found'
p12
I01
ssS'n_books'
p13
I5
sS'summary'
p14
VKris Ottman Neville (May 9, 1925 \u2013 December 23, 1980) was an American science fiction writer from California.\u000aHe was born in St. Louis. His first science fiction work was published in 1949. His most famous work, the novella Bettyann, is considered a classic of science fiction.
p15
sS'born'
p16
cdatetime
datetime
p17
(S'\x07\x85\x08\x1a\x00\x00\x00\x00\x00\x00'
p18
tp19
Rp20
sS'books'
p21
(lp22
I580
aI620
aI839
aI916
aI941
asS'id'
p23
I194
sS'died'
p24
g17
(S'\x07\xbc\x0c\x17\x00\x00\x00\x00\x00\x00'
p25
tp26
Rp27
sb.