ccopy_reg
_reconstructor
p0
(cdataset.Author
Author
p1
c__builtin__
object
p2
Ntp3
Rp4
(dp5
S'gender'
p6
S''
p7
sS'books'
p8
(lp9
I1117
aI1225
aI1226
aI1227
aI1228
aI1230
aI1236
aI1248
aI1330
asS'id'
p10
I616
sS'name'
p11
VJames McKimmey, Jr.
p12
sS'countries'
p13
(lp14
sb.