ccopy_reg
_reconstructor
p0
(cdataset.Author
Author
p1
c__builtin__
object
p2
Ntp3
Rp4
(dp5
S'name'
p6
S'Seaton McKettrig'
p7
sS'countries'
p8
(lp9
sS'gender'
p10
S'm'
p11
sS'summary'
p12
VRandall Garrett (December 16, 1927 \u2013 December 31, 1987) was an American science fiction and fantasy author. He was a prolific contributor to Astounding and other science fiction magazines of the 1950s and 1960s. He instructed Robert Silverberg in the techniques of selling large quantities of action-adventure science fiction, and collaborated with him on two novels about Earth bringing civilization to an alien planet.
p13
sS'born'
p14
cdatetime
datetime
p15
(S'\x07\x87\x0c\x10\x00\x00\x00\x00\x00\x00'
p16
tp17
Rp18
sS'books'
p19
(lp20
I449
asS'id'
p21
I300
sS'died'
p22
g15
(S'\x07\xc3\x0c\x1f\x00\x00\x00\x00\x00\x00'
p23
tp24
Rp25
sb.