ccopy_reg
_reconstructor
p0
(cdataset.Author
Author
p1
c__builtin__
object
p2
Ntp3
Rp4
(dp5
S'id'
p6
I384
sS'gender'
p7
S''
p8
sS'books'
p9
(lp10
I988
aI991
aI1003
aI1005
aI1007
aI1013
aI1021
aI1023
aI1025
aI1057
aI1066
aI1072
aI1073
aI1082
aI1084
aI1086
aI1099
aI1105
aI1114
aI1214
asS'name'
p11
VJ. T. McIntosh
p12
sS'countries'
p13
(lp14
sb.