ccopy_reg
_reconstructor
p0
(cdataset.Author
Author
p1
c__builtin__
object
p2
Ntp3
Rp4
(dp5
S'bio'
p6
VClayton Hartley Matthews was born on 24 October 1918. He started writing short stories in the late 1950s. He began contributing to the Mike Shayne Mystery Magazine and then turned to writing paperback novels, mostly in the erotic genre, in the early 1960s.\u000aIn a California's local writers' group, he met the also writer Patty Brisco. After his divorce, they married on 3 November 1972, and lived near San Diego. In the late 1970s, his agent Jay Garon, suggested to him and his wife to write romance novels. In the 1980s and 1990s Matthews and his wife collaborated on romance and mystery novels. Matthews died on 25 March 2004.
p7
sS'name'
p8
VJames McKimmey
p9
sS'countries'
p10
(lp11
I2
asS'wikipedia'
p12
(dp13
S'url'
p14
Vhttps://en.wikipedia.org/wiki/Clayton_Matthews
p15
sS'found'
p16
I01
ssS'n_books'
p17
I1
sS'summary'
p18
VClayton Hartley Matthews (24 October 1918 \u2013 25 March 2004) was a United States writer of mystery, erotic and romance novels, with more than 35 books and many short stories as Clayton Matthews. He often collaborated with his wife, the also writer Patricia Matthews (Patty Brisco); and they were called "the hottest couple in paperbacks.".\u000a\u000a
p19
sS'born'
p20
cdatetime
datetime
p21
(S'\x07~\n\x18\x00\x00\x00\x00\x00\x00'
p22
tp23
Rp24
sS'books'
p25
(lp26
I802
asS'id'
p27
I256
sS'died'
p28
g21
(S'\x07\xd4\x03\x19\x00\x00\x00\x00\x00\x00'
p29
tp30
Rp31
sb.