ccopy_reg
_reconstructor
p0
(cdataset.Author
Author
p1
c__builtin__
object
p2
Ntp3
Rp4
(dp5
S'gender'
p6
S''
p7
sS'books'
p8
(lp9
I1176
aI1177
aI1182
aI1183
aI1184
aI1185
aI1189
aI1191
aI1203
aI1391
aI1392
asS'id'
p10
I748
sS'name'
p11
VArsen Darnay
p12
sS'countries'
p13
(lp14
sb.