ccopy_reg
_reconstructor
p0
(cdataset.Author
Author
p1
c__builtin__
object
p2
Ntp3
Rp4
(dp5
S'name'
p6
VH. Beam Piper
p7
sS'country'
p8
I2
sS'wikipedia'
p9
(dp10
S'url'
p11
Vhttps://en.wikipedia.org/wiki/Empire_(H._Beam_Piper_book)
p12
sS'found'
p13
I01
ssS'n_books'
p14
I30
sS'summary'
p15
VEmpire is a collection of short stories by American writer H. Beam Piper, edited by John F. Carr. The book was published in 1981 by Ace Books, and again in 1986. Most of these stories take place in his Terro-Human Future History, with the sole exception being "The Return".
p16
sS'books'
p17
(lp18
I44
aI61
aI68
aI110
aI138
aI145
aI157
aI178
aI189
aI193
aI202
aI214
aI215
aI223
aI260
aI273
aI276
aI284
aI289
aI292
aI298
aI319
aI336
aI339
aI345
aI359
aI393
aI467
aI627
aI769
asS'id'
p19
I19
sb.