ccopy_reg
_reconstructor
p0
(cdataset.Author
Author
p1
c__builtin__
object
p2
Ntp3
Rp4
(dp5
S'gender'
p6
S''
p7
sS'books'
p8
(lp9
I979
aI1002
aI1177
aI1237
aI1238
asS'id'
p10
I359
sS'name'
p11
VJohn Christopher
p12
sS'countries'
p13
(lp14
sb.