ccopy_reg
_reconstructor
p0
(cdataset.Author
Author
p1
c__builtin__
object
p2
Ntp3
Rp4
(dp5
S'gender'
p6
S''
p7
sS'books'
p8
(lp9
I982
aI984
aI1218
aI1219
aI1220
aI1237
aI1239
asS'id'
p10
I365
sS'name'
p11
VMilton Lesser
p12
sS'countries'
p13
(lp14
sb.