ccopy_reg
_reconstructor
p0
(cdataset.Author
Author
p1
c__builtin__
object
p2
Ntp3
Rp4
(dp5
S'name'
p6
VCory Doctorow
p7
sS'countries'
p8
(lp9
I8
aI1
asS'wikipedia'
p10
(dp11
S'found'
p12
I00
ssS'n_books'
p13
I10
sS'books'
p14
(lp15
I87
aI349
aI380
aI392
aI483
aI623
aI725
aI749
aI798
aI836
asS'id'
p16
I33
sb.