ccopy_reg
_reconstructor
p0
(cdataset.Author
Author
p1
c__builtin__
object
p2
Ntp3
Rp4
(dp5
S'gender'
p6
S''
p7
sS'books'
p8
(lp9
I1114
aI1131
aI1143
aI1353
aI1357
aI1386
asS'id'
p10
I613
sS'name'
p11
VAnne McCaffrey
p12
sS'countries'
p13
(lp14
sb.