ccopy_reg
_reconstructor
p0
(cdataset.Author
Author
p1
c__builtin__
object
p2
Ntp3
Rp4
(dp5
S'id'
p6
I744
sS'gender'
p7
S''
p8
sS'books'
p9
(lp10
I1176
aI1177
aI1178
aI1180
aI1181
aI1182
aI1184
aI1185
aI1186
aI1187
aI1188
aI1189
aI1190
aI1191
aI1193
aI1194
aI1200
aI1214
asS'name'
p11
VFreff
p12
sS'countries'
p13
(lp14
sb.