ccopy_reg
_reconstructor
p0
(cdataset.Author
Author
p1
c__builtin__
object
p2
Ntp3
Rp4
(dp5
S'name'
p6
VFredric Brown
p7
sS'countries'
p8
(lp9
I2
asS'gender'
p10
S'm'
p11
sS'wikipedia'
p12
(dp13
S'url'
p14
Vhttps://en.wikipedia.org/wiki/Fredric_Brown
p15
sS'found'
p16
I01
ssS'n_books'
p17
I5
sS'summary'
p18
VFredric Brown (October 29, 1906 \u2013 March 11, 1972) was an American science fiction and mystery writer.  He is known for his use of humor and for his mastery of the "short short" form\u2014stories of 1 to 3 pages, often with ingenious plotting devices and surprise endings, such as the masterpiece "Sentry". Humor and a somewhat postmodern outlook carried over into his novels as well. One of his stories, "Arena", is officially credited for an adaptation as an episode of the American television series Star Trek.
p19
sS'born'
p20
cdatetime
datetime
p21
(S'\x07r\n\x1d\x00\x00\x00\x00\x00\x00'
p22
tp23
Rp24
sS'books'
p25
(lp26
I167
aI217
aI226
aI271
aI290
asS'id'
p27
I58
sS'died'
p28
g21
(S'\x07\xb4\x03\x0b\x00\x00\x00\x00\x00\x00'
p29
tp30
Rp31
sb.