ccopy_reg
_reconstructor
p0
(cdataset.Author
Author
p1
c__builtin__
object
p2
Ntp3
Rp4
(dp5
S'name'
p6
VTeddy Keller
p7
sS'country'
p8
I3
sS'wikipedia'
p9
(dp10
S'url'
p11
Vhttps://en.wikipedia.org/wiki/Upfront_%26_Down_Low
p12
sS'found'
p13
I01
ssS'n_books'
p14
I1
sS'summary'
p15
VUpfront & Down Low is the self-produced, third studio album by singer-songwriter Teddy Thompson, released under Verve Forecast Records on July 17, 2007. The album features covers of some of his favorite country songs, along with one original track ("Down Low"). Six songs on the album include string arrangements by Robert Kirby, while "My Blue Tears" features a string arrangement by friend and fellow singer-songwriter Rufus Wainwright.
p16
sS'books'
p17
(lp18
I966
asS'id'
p19
I297
sb.