ccopy_reg
_reconstructor
p0
(cdataset.Author
Author
p1
c__builtin__
object
p2
Ntp3
Rp4
(dp5
S'name'
p6
VCharles L. Harness
p7
sS'countries'
p8
(lp9
I2
asS'gender'
p10
S'm'
p11
sS'wikipedia'
p12
(dp13
S'url'
p14
Vhttps://en.wikipedia.org/wiki/Charles_L._Harness
p15
sS'found'
p16
I01
ssS'n_books'
p17
I1
sS'summary'
p18
VCharles Leonard Harness (December 29, 1915 \u2013 September 20, 2005) was an American science fiction writer. He was born in Colorado City, Texas and grew up just outside it, then later in Fort Worth. He earned degrees in chemistry and law from George Washington University and worked as a patent attorney in Connecticut & Washington, DC from 1947 to 1981. Several of Harness' works draw on his background as a lawyer.\u000a\u000a
p19
sS'born'
p20
cdatetime
datetime
p21
(S'\x07\xf6\x01\x01\x00\x00\x00\x00\x00\x00'
p22
tp23
Rp24
sS'books'
p25
(lp26
I492
asS'id'
p27
I163
sS'died'
p28
g21
(S'\x07\xd5\t\x14\x00\x00\x00\x00\x00\x00'
p29
tp30
Rp31
sb.