ccopy_reg
_reconstructor
p0
(cdataset.Author
Author
p1
c__builtin__
object
p2
Ntp3
Rp4
(dp5
S'gender'
p6
S''
p7
sS'books'
p8
(lp9
I1136
aI1137
aI1139
aI1143
aI1144
aI1311
aI1316
aI1321
aI1363
asS'id'
p10
I662
sS'name'
p11
VDannie Plachta
p12
sS'countries'
p13
(lp14
sb.