ccopy_reg
_reconstructor
p0
(cdataset.Author
Author
p1
c__builtin__
object
p2
Ntp3
Rp4
(dp5
S'name'
p6
VEvelyn E. Smith
p7
sS'wikipedia'
p8
(dp9
S'url'
p10
Vhttps://en.wikipedia.org/wiki/Evelyn_E._Smith
p11
sS'found'
p12
I01
ssS'n_books'
p13
I11
sS'summary'
p14
VEvelyn E. Smith (25 July 1922 \u2013 4 July 2000) was an American writer of science fiction and mysteries, as well as a compiler of crossword puzzles.
p15
sS'born'
p16
cdatetime
datetime
p17
(S'\x07\x82\x07\x19\x00\x00\x00\x00\x00\x00'
p18
tp19
Rp20
sS'books'
p21
(lp22
I514
aI516
aI521
aI576
aI653
aI770
aI782
aI898
aI899
aI913
aI914
asS'id'
p23
I172
sS'died'
p24
g17
(S'\x07\xd0\x07\x04\x00\x00\x00\x00\x00\x00'
p25
tp26
Rp27
sb.