ccopy_reg
_reconstructor
p0
(cdataset.Author
Author
p1
c__builtin__
object
p2
Ntp3
Rp4
(dp5
S'id'
p6
I338
sS'gender'
p7
S''
p8
sS'books'
p9
(lp10
I974
aI975
aI976
asS'name'
p11
VPaul Pierre
p12
sS'countries'
p13
(lp14
sb.