ccopy_reg
_reconstructor
p0
(cdataset.Author
Author
p1
c__builtin__
object
p2
Ntp3
Rp4
(dp5
S'name'
p6
VDonald Keith
p7
sS'country'
p8
I3
sS'wikipedia'
p9
(dp10
S'url'
p11
Vhttps://en.wikipedia.org/wiki/Keith_Monroe
p12
sS'found'
p13
I01
ssS'n_books'
p14
I1
sS'summary'
p15
VKeith Monroe (22 August 1915 \u2013 30 August 2003) was an American author of children's science fiction and of books and magazine articles about Boy Scouting.\u000aMonroe attended Stanford University and UCLA. He worked as a reporter for the New York Herald Tribune, for advertising and public relations firms, and for North American Rockwell. At times, he was a full-time freelance writer.\u000aHis work appeared in such magazines as Saturday Evening Post, New Yorker, Harper's, Blue Book, Galaxy, Argosy, Boys' Life, and Scouting. His pseudonyms included Donald Keith, Rice E. Cochran, and Dale Colombo.
p16
sS'born'
p17
cdatetime
datetime
p18
(S'\x07{\x08\x16\x00\x00\x00\x00\x00\x00'
p19
tp20
Rp21
sS'books'
p22
(lp23
I931
asS'id'
p24
I281
sS'died'
p25
g18
(S'\x07\xd3\x08\x1e\x00\x00\x00\x00\x00\x00'
p26
tp27
Rp28
sb.