ccopy_reg
_reconstructor
p0
(cdataset.Author
Author
p1
c__builtin__
object
p2
Ntp3
Rp4
(dp5
S'gender'
p6
S''
p7
sS'books'
p8
(lp9
I997
aI1012
aI1228
aI1237
aI1241
aI1248
aI1296
aI1298
asS'id'
p10
I414
sS'name'
p11
VJerome Bix
p12
sS'countries'
p13
(lp14
sb.