ccopy_reg
_reconstructor
p0
(cdataset.Author
Author
p1
c__builtin__
object
p2
Ntp3
Rp4
(dp5
S'id'
p6
I1008
sS'gender'
p7
S''
p8
sS'books'
p9
(lp10
I1242
aI1245
aI1250
aI1252
aI1255
aI1260
aI1262
asS'name'
p11
VFrank Riley
p12
sS'countries'
p13
(lp14
sb.