ccopy_reg
_reconstructor
p0
(cdataset.Author
Author
p1
c__builtin__
object
p2
Ntp3
Rp4
(dp5
S'name'
p6
VNathan Schachner
p7
sS'country'
p8
I2
sS'wikipedia'
p9
(dp10
S'found'
p11
I00
ssS'n_books'
p12
I2
sS'books'
p13
(lp14
I759
aI786
asS'id'
p15
I244
sb.