ccopy_reg
_reconstructor
p0
(cdataset.Author
Author
p1
c__builtin__
object
p2
Ntp3
Rp4
(dp5
S'name'
p6
VRobert Shea
p7
sS'countries'
p8
(lp9
I2
asS'wikipedia'
p10
(dp11
S'url'
p12
Vhttps://en.wikipedia.org/wiki/Robert_Shea
p13
sS'found'
p14
I01
ssS'n_books'
p15
I6
sS'summary'
p16
VRobert Joseph Shea (February 14, 1933 - March 10, 1994) was an American novelist and former journalist best known as co-author with Robert Anton Wilson of the science fantasy trilogy Illuminatus!. It became a cult success and was later turned into a marathon-length stage show put on at the British National Theatre and elsewhere. In 1986 it won the Prometheus Hall of Fame Award. Shea went on to write several action novels based in exotic historical settings.
p17
sS'born'
p18
cdatetime
datetime
p19
(S'\x07\x8d\x02\x0e\x00\x00\x00\x00\x00\x00'
p20
tp21
Rp22
sS'books'
p23
(lp24
I454
aI547
aI685
aI715
aI853
aI857
asS'id'
p25
I154
sS'died'
p26
g19
(S'\x07\xca\x03\n\x00\x00\x00\x00\x00\x00'
p27
tp28
Rp29
sb.