ccopy_reg
_reconstructor
p0
(cdataset.Author
Author
p1
c__builtin__
object
p2
Ntp3
Rp4
(dp5
S'name'
p6
VFletcher Pratt
p7
sS'countries'
p8
(lp9
I2
asS'wikipedia'
p10
(dp11
S'url'
p12
Vhttps://en.wikipedia.org/wiki/Fletcher_Pratt
p13
sS'found'
p14
I01
ssS'n_books'
p15
I1
sS'summary'
p16
VMurray Fletcher Pratt (25 April 1897 \u2013 10 June 1956) was an American writer of science fiction, fantasy and history. He is best known for his works on naval history and on the American Civil War and for fiction written with L. Sprague de Camp.
p17
sS'born'
p18
cdatetime
datetime
p19
(S'\x07i\x04\x19\x00\x00\x00\x00\x00\x00'
p20
tp21
Rp22
sS'books'
p23
(lp24
I309
asS'id'
p25
I101
sS'died'
p26
g19
(S'\x07\xa4\x06\n\x00\x00\x00\x00\x00\x00'
p27
tp28
Rp29
sb.