ccopy_reg
_reconstructor
p0
(cdataset.Author
Author
p1
c__builtin__
object
p2
Ntp3
Rp4
(dp5
S'name'
p6
VFletcher Pratt
p7
sS'country'
p8
I2
sS'wikipedia'
p9
(dp10
S'url'
p11
Vhttps://en.wikipedia.org/wiki/Fletcher_Pratt
p12
sS'found'
p13
I01
ssS'n_books'
p14
I1
sS'summary'
p15
VMurray Fletcher Pratt (25 April 1897 \u2013 10 June 1956) was an American writer of science fiction, fantasy and history. He is best known for his works on naval history and on the American Civil War and for fiction written with L. Sprague de Camp.
p16
sS'born'
p17
cdatetime
datetime
p18
(S'\x07i\x04\x19\x00\x00\x00\x00\x00\x00'
p19
tp20
Rp21
sS'books'
p22
(lp23
I309
asS'id'
p24
I101
sS'died'
p25
g18
(S'\x07\xa4\x06\n\x00\x00\x00\x00\x00\x00'
p26
tp27
Rp28
sb.