ccopy_reg
_reconstructor
p0
(cdataset.Author
Author
p1
c__builtin__
object
p2
Ntp3
Rp4
(dp5
S'name'
p6
VTherese Windser
p7
sS'country'
p8
I3
sS'wikipedia'
p9
(dp10
S'found'
p11
I00
ssS'n_books'
p12
I1
sS'books'
p13
(lp14
I642
asS'id'
p15
I210
sb.