ccopy_reg
_reconstructor
p0
(cdataset.Author
Author
p1
c__builtin__
object
p2
Ntp3
Rp4
(dp5
S'name'
p6
VFletcher Pratt
p7
sS'wikipedia'
p8
(dp9
S'url'
p10
Vhttps://en.wikipedia.org/wiki/Fletcher_Pratt
p11
sS'found'
p12
I01
ssS'n_books'
p13
I1
sS'summary'
p14
VMurray Fletcher Pratt (25 April 1897 \u2013 10 June 1956) was an American writer of science fiction, fantasy and history. He is best known for his works on naval history and on the American Civil War and for fiction written with L. Sprague de Camp.
p15
sS'born'
p16
cdatetime
datetime
p17
(S'\x07i\x04\x19\x00\x00\x00\x00\x00\x00'
p18
tp19
Rp20
sS'books'
p21
(lp22
I309
asS'id'
p23
I101
sS'died'
p24
g17
(S'\x07\xa4\x06\n\x00\x00\x00\x00\x00\x00'
p25
tp26
Rp27
sb.