ccopy_reg
_reconstructor
p0
(cdataset.Author
Author
p1
c__builtin__
object
p2
Ntp3
Rp4
(dp5
S'name'
p6
VStanton A. Coblentz
p7
sS'country'
p8
I2
sS'wikipedia'
p9
(dp10
S'url'
p11
Vhttps://en.wikipedia.org/wiki/Coblentz
p12
sS'found'
p13
I01
ssS'n_books'
p14
I1
sS'summary'
p15
VCoblentz is a surname. Notable people with the surname include:\u000aLaban Coblentz (b. 1961), American writer and communications specialist\u000aWilliam Coblentz (1873\u20131962), American scientist\u000aWilliam Coblentz (1922\u20132010), California attorney and power broker\u000aCatherine Cate Coblentz, Writer of children's books\u000aStanton A. Coblentz, American author and poet
p16
sS'books'
p17
(lp18
I706
asS'id'
p19
I233
sb.