ccopy_reg
_reconstructor
p0
(cdataset.Author
Author
p1
c__builtin__
object
p2
Ntp3
Rp4
(dp5
S'gender'
p6
S''
p7
sS'books'
p8
(lp9
I994
aI1003
aI1009
aI1011
aI1027
aI1050
aI1081
aI1090
aI1278
aI1285
aI1382
asS'id'
p10
I401
sS'name'
p11
VEdward Wellen
p12
sS'countries'
p13
(lp14
sb.