ccopy_reg
_reconstructor
p0
(cdataset.Author
Author
p1
c__builtin__
object
p2
Ntp3
Rp4
(dp5
S'name'
p6
VCharles L. Harness
p7
sS'wikipedia'
p8
(dp9
S'url'
p10
Vhttps://en.wikipedia.org/wiki/Charles_L._Harness
p11
sS'found'
p12
I01
ssS'n_books'
p13
I1
sS'summary'
p14
VCharles Leonard Harness (December 29, 1915 \u2013 September 20, 2005) was an American science fiction writer. He was born in Colorado City, Texas and grew up just outside it, then later in Fort Worth. He earned degrees in chemistry and law from George Washington University and worked as a patent attorney in Connecticut & Washington, DC from 1947 to 1981. Several of Harness' works draw on his background as a lawyer.\u000a\u000a
p15
sS'born'
p16
cdatetime
datetime
p17
(S'\x07\xf6\x01\x01\x00\x00\x00\x00\x00\x00'
p18
tp19
Rp20
sS'books'
p21
(lp22
I492
asS'id'
p23
I163
sS'died'
p24
g17
(S'\x07\xd5\t\x14\x00\x00\x00\x00\x00\x00'
p25
tp26
Rp27
sb.