ccopy_reg
_reconstructor
p0
(cdataset.Author
Author
p1
c__builtin__
object
p2
Ntp3
Rp4
(dp5
S'gender'
p6
S''
p7
sS'books'
p8
(lp9
I1133
aI1135
aI1292
aI1310
aI1328
aI1356
aI1357
asS'id'
p10
I654
sS'name'
p11
VBruce McAllister
p12
sS'countries'
p13
(lp14
sb.