ccopy_reg
_reconstructor
p0
(cdataset.Author
Author
p1
c__builtin__
object
p2
Ntp3
Rp4
(dp5
S'bio'
p6
VBorn in Youngstown, Ohio, he was raised there and in nearby New Castle, Pennsylvania. Something of a child prodigy, he graduated from high school and entered Westminster College in New Wilmington, Pennsylvania at the age of 14, but washed out at 17.
p7
sS'name'
p8
VEdmond Hamilton
p9
sS'countries'
p10
(lp11
I2
asS'gender'
p12
S'm'
p13
sS'wikipedia'
p14
(dp15
S'url'
p16
Vhttps://en.wikipedia.org/wiki/Edmond_Hamilton
p17
sS'found'
p18
I01
ssS'n_books'
p19
I6
sS'summary'
p20
VEdmond Moore Hamilton (October 21, 1904 \u2013 February 1, 1977) was an American writer of science fiction during the mid-twentieth century.
p21
sS'born'
p22
cdatetime
datetime
p23
(S'\x07p\n\x15\x00\x00\x00\x00\x00\x00'
p24
tp25
Rp26
sS'books'
p27
(lp28
I249
aI251
aI293
aI411
aI465
aI664
asS'id'
p29
I83
sS'died'
p30
g23
(S'\x07\xb9\x02\x01\x00\x00\x00\x00\x00\x00'
p31
tp32
Rp33
sb.