ccopy_reg
_reconstructor
p0
(cdataset.Author
Author
p1
c__builtin__
object
p2
Ntp3
Rp4
(dp5
S'books'
p6
(lp7
I235
aI299
aI406
aI598
aI639
asS'wikipedia'
p8
(dp9
S'found'
p10
I00
ssS'name'
p11
VJohn Berryman
p12
sS'n_books'
p13
I5
sS'id'
p14
I78
sb.