ccopy_reg
_reconstructor
p0
(cdataset.Author
Author
p1
c__builtin__
object
p2
Ntp3
Rp4
(dp5
S'id'
p6
I367
sS'gender'
p7
S''
p8
sS'books'
p9
(lp10
I983
aI984
aI985
aI986
aI987
aI988
asS'name'
p11
VThorne
p12
sS'countries'
p13
(lp14
sb.