ccopy_reg
_reconstructor
p0
(cdataset.Author
Author
p1
c__builtin__
object
p2
Ntp3
Rp4
(dp5
S'name'
p6
VCory Doctorow
p7
sS'countries'
p8
(lp9
I8
aI1
asS'wikipedia'
p10
(dp11
S'url'
p12
S'https://en.wikipedia.org/wiki/Cory_Doctorow'
p13
sS'found'
p14
I01
ssS'n_books'
p15
I10
sS'summary'
p16
VCory Efram Doctorow (; born July 17, 1971) is a Canadian-British blogger, journalist, and science fiction author who serves as co-editor of the blog Boing Boing. He is an activist in favour of liberalising copyright laws and a proponent of the Creative Commons organization, using some of their licenses for his books. Some common themes of his work include digital rights management, file sharing, and post-scarcity economics.
p17
sS'born'
p18
cdatetime
datetime
p19
(S'\x07\xb3\x07\x11\x00\x00\x00\x00\x00\x00'
p20
tp21
Rp22
sS'books'
p23
(lp24
I87
aI349
aI380
aI392
aI483
aI623
aI725
aI749
aI798
aI836
asS'id'
p25
I33
sb.