ccopy_reg
_reconstructor
p0
(cdataset.Author
Author
p1
c__builtin__
object
p2
Ntp3
Rp4
(dp5
S'id'
p6
I604
sS'gender'
p7
S''
p8
sS'books'
p9
(lp10
I1106
aI1107
aI1110
aI1114
aI1115
aI1118
aI1120
aI1122
aI1123
aI1126
aI1129
aI1131
aI1154
aI1185
aI1186
aI1187
aI1188
aI1189
aI1190
aI1194
aI1195
aI1196
asS'name'
p11
VLarry Niven
p12
sS'countries'
p13
(lp14
sb.