ccopy_reg
_reconstructor
p0
(cdataset.Author
Author
p1
c__builtin__
object
p2
Ntp3
Rp4
(dp5
S'gender'
p6
S''
p7
sS'books'
p8
(lp9
I1177
aI1178
aI1186
aI1188
asS'id'
p10
I755
sS'name'
p11
VDavid Drake
p12
sS'countries'
p13
(lp14
sb.