ccopy_reg
_reconstructor
p0
(cdataset.Author
Author
p1
c__builtin__
object
p2
Ntp3
Rp4
(dp5
S'name'
p6
VMarion Zimmer Bradley
p7
sS'countries'
p8
(lp9
I2
asS'wikipedia'
p10
(dp11
S'url'
p12
Vhttps://en.wikipedia.org/wiki/Marion_Zimmer_Bradley%27s_Fantasy_Magazine
p13
sS'found'
p14
I01
ssS'n_books'
p15
I5
sS'summary'
p16
VMarion Zimmer Bradley's Fantasy Magazine was a quarterly fantasy magazine founded and initially edited by fantasy and science fiction author Marion Zimmer Bradley. Fifty issues appeared from summer 1988 through December 2000. It was published by MZB Enterprises from 1988-1989, Marion Zimmer Bradley Ltd. from 1990-1993, and the Marion Zimmer Bradley Living Trust from 1994-2000, all based in Berkeley, California. The Trust continued publication for a short time after Bradley's death in 1999; the magazine went out of business at the end of 2000.\u000aThe magazine featured "short, often humorous stories, many by female writers." Interviews with distinguished fantasy authors also appeared in the magazine.
p17
sS'books'
p18
(lp19
I65
aI80
aI154
aI169
aI196
asS'id'
p20
I25
sb.