ccopy_reg
_reconstructor
p0
(cdataset.Author
Author
p1
c__builtin__
object
p2
Ntp3
Rp4
(dp5
S'name'
p6
VRaymond F. Jones
p7
sS'countries'
p8
(lp9
I2
asS'wikipedia'
p10
(dp11
S'found'
p12
I00
ssS'n_books'
p13
I5
sS'books'
p14
(lp15
I400
aI680
aI772
aI793
aI834
asS'id'
p16
I129
sb.