ccopy_reg
_reconstructor
p0
(cdataset.Author
Author
p1
c__builtin__
object
p2
Ntp3
Rp4
(dp5
S'id'
p6
I499
sS'gender'
p7
S''
p8
sS'books'
p9
(lp10
I1042
aI1043
aI1044
aI1046
aI1047
aI1048
aI1049
aI1050
aI1051
aI1054
aI1057
aI1059
aI1083
aI1084
aI1085
aI1088
aI1090
aI1091
aI1093
aI1098
aI1100
aI1101
aI1102
aI1103
aI1105
aI1106
aI1107
aI1109
aI1110
aI1111
aI1112
aI1113
aI1114
aI1115
aI1116
aI1117
aI1118
aI1119
aI1120
aI1121
aI1122
aI1123
aI1124
aI1125
aI1126
aI1127
aI1128
aI1129
aI1130
aI1131
aI1132
aI1133
aI1134
aI1135
aI1136
aI1137
aI1138
aI1139
aI1140
aI1141
aI1142
aI1143
aI1144
aI1147
aI1148
aI1149
aI1150
aI1151
aI1152
aI1153
aI1154
aI1155
aI1156
aI1157
aI1158
aI1159
aI1160
aI1161
aI1162
aI1163
aI1164
aI1165
aI1166
aI1167
aI1168
aI1169
aI1170
aI1172
aI1173
aI1174
aI1175
aI1176
aI1177
aI1178
aI1179
aI1180
aI1181
aI1182
aI1183
aI1184
aI1185
aI1186
aI1192
aI1193
aI1195
aI1196
aI1197
aI1198
aI1199
asS'name'
p11
VJack Gaughan
p12
sS'countries'
p13
(lp14
sb.