ccopy_reg
_reconstructor
p0
(cdataset.Author
Author
p1
c__builtin__
object
p2
Ntp3
Rp4
(dp5
S'name'
p6
VHarold L. Goodwin
p7
sS'country'
p8
I2
sS'wikipedia'
p9
(dp10
S'url'
p11
Vhttps://en.wikipedia.org/wiki/Harold_L._Goodwin
p12
sS'found'
p13
I01
ssS'n_books'
p14
I2
sS'summary'
p15
VHarold Leland Goodwin (November 20, 1914 \u2013 February 18, 1990) was an American writer.
p16
sS'books'
p17
(lp18
I660
aI925
asS'id'
p19
I216
sb.