ccopy_reg
_reconstructor
p0
(cdataset.Author
Author
p1
c__builtin__
object
p2
Ntp3
Rp4
(dp5
S'name'
p6
VKris Neville
p7
sS'country'
p8
I2
sS'wikipedia'
p9
(dp10
S'url'
p11
Vhttps://en.wikipedia.org/wiki/Kris_Ottman_Neville
p12
sS'found'
p13
I01
ssS'n_books'
p14
I5
sS'summary'
p15
VKris Ottman Neville (May 9, 1925 \u2013 December 23, 1980) was an American science fiction writer from California.\u000aHe was born in St. Louis. His first science fiction work was published in 1949. His most famous work, the novella Bettyann, is considered a classic of science fiction.
p16
sS'born'
p17
cdatetime
datetime
p18
(S'\x07\x85\x08\x1a\x00\x00\x00\x00\x00\x00'
p19
tp20
Rp21
sS'books'
p22
(lp23
I580
aI620
aI839
aI916
aI941
asS'id'
p24
I194
sS'died'
p25
g18
(S'\x07\xbc\x0c\x17\x00\x00\x00\x00\x00\x00'
p26
tp27
Rp28
sb.