ccopy_reg
_reconstructor
p0
(cdataset.Author
Author
p1
c__builtin__
object
p2
Ntp3
Rp4
(dp5
S'bio'
p6
VMeek received his Associate degree from University of Chicago in 1914 and his Bachelor's degree in Metallurgical Engineering from University of Alabama in 1915. He continued his education at University of Wisconsin\u2013Madison (1916) and MIT (1921\u20131923). He married in 1927 and had one son.\u000aWhen the United States entered World War I in 1917, Meek joined the military as a chemist and ordnance expert. He served as Chief, Small Arms Ammunition Research, in 1923-1926, and Chief Publications Officer, Ordnance Dept., in 1941-1945. He retired a colonel in 1947, at which point he became a full-time writer. Meek received his Associate degree from University of Chicago in 1914 and his Bachelor's degree in Metallurgical Engineering from University of Alabama in 1915. He continued his education at University of Wisconsin\u2013Madison (1916) and MIT (1921\u20131923). He married in 1927 and had one son.\u000aWhen the United States entered World War I in 1917, Meek joined the military as a chemist and ordnance expert. He served as Chief, Small Arms Ammunition Research, in 1923-1926, and Chief Publications Officer, Ordnance Dept., in 1941-1945. He retired a colonel in 1947, at which point he became a full-time writer. Meek received his Associate degree from University of Chicago in 1914 and his Bachelor's degree in Metallurgical Engineering from University of Alabama in 1915. He continued his education at University of Wisconsin\u2013Madison (1916) and MIT (1921\u20131923). He married in 1927 and had one son.\u000aWhen the United States entered World War I in 1917, Meek joined the military as a chemist and ordnance expert. He served as Chief, Small Arms Ammunition Research, in 1923-1926, and Chief Publications Officer, Ordnance Dept., in 1941-1945. He retired a colonel in 1947, at which point he became a full-time writer.
p7
sS'name'
p8
VS. P. Meek
p9
sS'countries'
p10
(lp11
I2
asS'gender'
p12
S'm'
p13
sS'wikipedia'
p14
(dp15
S'url'
p16
S'https://en.wikipedia.org/wiki/S._P._Meek'
p17
sS'found'
p18
I01
ssS'n_books'
p19
I5
sS'summary'
p20
VSterner St. Paul Meek (April 8, 1894 in Chicago, Illinois \u2013 June 10, 1972) was an American military chemist, early science fiction author, and children's author. He published much of his work first as Capt. S.P. Meek, then, briefly, as Major S.P. Meek and, after 1933, as Col. S. P. Meek. He also published one story as Sterner St. Paul.
p21
sS'born'
p22
cdatetime
datetime
p23
(S'\x07f\n\x11\x00\x00\x00\x00\x00\x00'
p24
tp25
Rp26
sS'books'
p27
(lp28
I425
aI641
aI662
aI738
aI761
asS'id'
p29
I139
sS'died'
p30
g23
(S'\x07\xb4\n\x11\x00\x00\x00\x00\x00\x00'
p31
tp32
Rp33
sb.