ccopy_reg
_reconstructor
p0
(cdataset.Author
Author
p1
c__builtin__
object
p2
Ntp3
Rp4
(dp5
S'gender'
p6
S''
p7
sS'books'
p8
(lp9
I1194
aI1195
aI1196
aI1197
aI1198
aI1199
aI1393
asS'id'
p10
I806
sS'name'
p11
VVincent Di Fate
p12
sS'countries'
p13
(lp14
sb.