ccopy_reg
_reconstructor
p0
(cdataset.Author
Author
p1
c__builtin__
object
p2
Ntp3
Rp4
(dp5
S'name'
p6
VDaniel F. Galouye
p7
sS'country'
p8
I2
sS'wikipedia'
p9
(dp10
S'url'
p11
Vhttps://en.wikipedia.org/wiki/Daniel_F._Galouye
p12
sS'found'
p13
I01
ssS'n_books'
p14
I3
sS'summary'
p15
VDaniel Francis Galouye (11 February 1920 \u2013 7 September 1976) was an American science fiction writer. During the 1950s and 1960s, he contributed novelettes and short stories to various digest size science fiction magazines, sometimes writing under the pseudonym Louis G. Daniels.\u000aBorn in New Orleans, Galouye (pronounced Gah-lou-ey) graduated from Louisiana State University (B.A.) and then worked as a reporter for several newspapers. During World War II, he served in the US Navy as an instructor and test pilot, receiving injuries that led to later health problems. On December 26, 1945, he married Carmel Barbara Jordan. From the 1940s until his retirement in 1967, he was on the staff of The States-Item. He lived in New Orleans but also had a summer home across Lake Ponchartrain at St. Tammany Parish in Covington, Louisiana.
p16
sS'born'
p17
cdatetime
datetime
p18
(S'\x07\x80\x02\x0b\x00\x00\x00\x00\x00\x00'
p19
tp20
Rp21
sS'books'
p22
(lp23
I668
aI688
aI787
asS'id'
p24
I220
sS'died'
p25
g18
(S'\x07\xb8\t\x07\x00\x00\x00\x00\x00\x00'
p26
tp27
Rp28
sb.