ccopy_reg
_reconstructor
p0
(cdataset.Author
Author
p1
c__builtin__
object
p2
Ntp3
Rp4
(dp5
S'id'
p6
I608
sS'gender'
p7
S''
p8
sS'books'
p9
(lp10
I1110
aI1116
asS'name'
p11
VThomas M. Disch
p12
sS'countries'
p13
(lp14
sb.