ccopy_reg
_reconstructor
p0
(cdataset.Author
Author
p1
c__builtin__
object
p2
Ntp3
Rp4
(dp5
S'id'
p6
I336
sS'gender'
p7
S''
p8
sS'books'
p9
(lp10
I974
aI975
aI976
aI978
aI980
aI981
aI983
aI985
aI986
aI987
aI988
aI989
aI991
aI994
aI997
aI998
aI1003
aI1009
aI1011
aI1013
aI1024
aI1027
aI1028
asS'name'
p11
VDavid Stone
p12
sS'countries'
p13
(lp14
sb.