ccopy_reg
_reconstructor
p0
(cdataset.Author
Author
p1
c__builtin__
object
p2
Ntp3
Rp4
(dp5
S'name'
p6
VRog Phillips
p7
sS'country'
p8
I2
sS'wikipedia'
p9
(dp10
S'url'
p11
Vhttps://en.wikipedia.org/wiki/Rog_Phillips
p12
sS'found'
p13
I01
ssS'n_books'
p14
I2
sS'summary'
p15
V.\u000a\u000aRoger Phillips Graham (1909-1966), born in Spokane, Washington, was an American science fiction writer who was published most often using the name Rog Phillips, but also used other names. Of his other pseudonyms, only Craig Browning is notable in the genre. He is associated most with Amazing Stories and is known best for short fiction. He was nominated for the Hugo Award for Best Novelette during 1959.
p16
sS'books'
p17
(lp18
I628
aI859
asS'id'
p19
I208
sb.