ccopy_reg
_reconstructor
p0
(cdataset.Author
Author
p1
c__builtin__
object
p2
Ntp3
Rp4
(dp5
S'gender'
p6
S''
p7
sS'books'
p8
(lp9
I1137
aI1144
aI1147
aI1149
aI1150
aI1159
aI1160
aI1161
aI1164
aI1166
aI1194
aI1366
asS'id'
p10
I663
sS'name'
p11
VErnest Taves
p12
sS'countries'
p13
(lp14
sb.