ccopy_reg
_reconstructor
p0
(cdataset.Author
Author
p1
c__builtin__
object
p2
Ntp3
Rp4
(dp5
S'gender'
p6
S''
p7
sS'books'
p8
(lp9
I1080
aI1081
aI1085
aI1168
aI1326
aI1359
aI1366
asS'id'
p10
I558
sS'name'
p11
VNeal Barrett, Jr.
p12
sS'countries'
p13
(lp14
sb.