ccopy_reg
_reconstructor
p0
(cdataset.Author
Author
p1
c__builtin__
object
p2
Ntp3
Rp4
(dp5
S'name'
p6
VDonald Colvin
p7
sS'countries'
p8
(lp9
I3
asS'wikipedia'
p10
(dp11
S'url'
p12
Vhttps://en.wikipedia.org/wiki/American_Jerusalem
p13
sS'found'
p14
I01
ssS'n_books'
p15
I2
sS'summary'
p16
V"American Jerusalem" is a song written by singer-songwriter and guitarist Rod MacDonald in 1978. Considered his "signature tune", the nearly-six-minute long song first appeared on MacDonald\u2019s 1983 debut album No Commercial Traffic (originally on Cinemagic Records, reissued by Blue Flute Music).\u000aMacDonald re-recorded the song for his 2009 CD After the War, with Gary Burke (drums), Pete Levin (keyboards), Mark Dann (bass), JP Bowersock (guitar) and Tracy Grammer (harmony vocals).\u000aThe publishing rights to "American Jerusalem" were acquired in 1985 by Dick James Music, which later sold its entire catalogue to PolyGram International; it is currently the property of Universal Music. MacDonald is a longtime member of ASCAP.
p17
sS'books'
p18
(lp19
I864
aI890
asS'id'
p20
I268
sb.