ccopy_reg
_reconstructor
p0
(cdataset.Author
Author
p1
c__builtin__
object
p2
Ntp3
Rp4
(dp5
S'gender'
p6
S''
p7
sS'books'
p8
(lp9
I1122
aI1127
aI1147
aI1317
aI1321
aI1331
aI1344
asS'id'
p10
I623
sS'name'
p11
VH. H. Hollis
p12
sS'countries'
p13
(lp14
sb.