ccopy_reg
_reconstructor
p0
(cdataset.Author
Author
p1
c__builtin__
object
p2
Ntp3
Rp4
(dp5
S'gender'
p6
S''
p7
sS'books'
p8
(lp9
I1042
aI1043
aI1044
aI1046
aI1047
aI1048
aI1049
aI1050
aI1051
aI1054
aI1057
aI1059
aI1083
aI1084
aI1085
aI1088
aI1090
aI1091
aI1093
aI1098
aI1100
aI1101
aI1102
aI1103
aI1105
aI1106
aI1107
aI1109
aI1110
aI1111
aI1112
aI1113
aI1114
aI1115
aI1116
aI1117
aI1118
aI1119
aI1120
aI1121
aI1122
aI1123
aI1124
aI1125
aI1126
aI1127
aI1128
aI1129
aI1130
aI1131
aI1132
aI1133
aI1134
aI1135
aI1136
aI1137
aI1138
aI1139
aI1140
aI1141
aI1142
aI1143
aI1144
aI1147
aI1148
aI1149
aI1150
aI1151
aI1152
aI1153
aI1154
aI1155
aI1156
aI1157
aI1158
aI1159
aI1160
aI1161
aI1162
aI1163
aI1164
aI1165
aI1166
aI1167
aI1168
aI1169
aI1170
aI1172
aI1173
aI1174
aI1175
aI1176
aI1177
aI1178
aI1179
aI1180
aI1181
aI1182
aI1183
aI1184
aI1185
aI1186
aI1192
aI1193
aI1195
aI1196
aI1197
aI1198
aI1199
aI1274
aI1275
aI1276
aI1278
aI1279
aI1282
aI1283
aI1285
aI1286
aI1287
aI1288
aI1292
aI1294
aI1296
aI1298
aI1299
aI1300
aI1303
aI1304
aI1305
aI1306
aI1308
aI1309
aI1310
aI1311
aI1312
aI1313
aI1314
aI1315
aI1317
aI1318
aI1319
aI1320
aI1321
aI1322
aI1323
aI1324
aI1325
aI1326
aI1327
aI1328
aI1329
aI1330
aI1331
aI1332
aI1333
aI1334
aI1335
aI1336
aI1337
aI1338
aI1339
aI1340
aI1341
aI1342
aI1343
aI1344
aI1345
aI1346
aI1347
aI1348
aI1349
aI1350
aI1351
aI1352
aI1353
aI1354
aI1355
aI1356
aI1357
aI1358
aI1359
aI1360
aI1361
aI1362
aI1363
aI1364
aI1365
aI1366
aI1367
aI1368
aI1370
aI1371
aI1372
aI1373
aI1374
aI1375
aI1376
aI1377
aI1378
aI1379
aI1380
aI1381
aI1382
aI1383
aI1384
aI1385
aI1386
aI1387
aI1389
aI1390
aI1392
asS'id'
p10
I499
sS'name'
p11
VJack Gaughan
p12
sS'countries'
p13
(lp14
sb.