ccopy_reg
_reconstructor
p0
(cdataset.Author
Author
p1
c__builtin__
object
p2
Ntp3
Rp4
(dp5
S'name'
p6
VMiles John Breuer
p7
sS'countries'
p8
(lp9
I2
asS'gender'
p10
S'm'
p11
sS'wikipedia'
p12
(dp13
S'url'
p14
Vhttps://en.wikipedia.org/wiki/Miles_J._Breuer
p15
sS'found'
p16
I01
ssS'n_books'
p17
I1
sS'summary'
p18
VMiles John Breuer (January 3, 1889 \u2013 October 14, 1945) was an American physician and science fiction writer. He was part of the first generation of writers to appear regularly in the pulp science fiction magazines, publishing his first story, "The Man with the Strange Head", in the January 1927 issue of Amazing Stories. His best known works are "The Gostak and the Doshes" (1930) and two stories written jointly with Jack Williamson, "The Girl from Mars" (1929) and The Birth of a New Republic (1931).
p19
sS'books'
p20
(lp21
I395
asS'id'
p22
I127
sb.