ccopy_reg
_reconstructor
p0
(cdataset.Author
Author
p1
c__builtin__
object
p2
Ntp3
Rp4
(dp5
S'bio'
p6
V  
p7
sS'name'
p8
VEdward Bellamy
p9
sS'countries'
p10
(lp11
I2
asS'wikipedia'
p12
(dp13
S'url'
p14
S'https://en.wikipedia.org/wiki/Edward_Bellamy'
p15
sS'found'
p16
I01
ssS'n_books'
p17
I2
sS'summary'
p18
VEdward Bellamy (March 26, 1850 \u2013 May 22, 1898) was an American author and socialist, most famous for his utopian novel, Looking Backward, a tale set in the distant future of the year 2000. Bellamy's vision of a harmonious future world inspired the formation of at least 165 "Nationalist Clubs" dedicated to the propagation of Bellamy's political ideas and working to make them a practical reality.
p19
sS'born'
p20
cdatetime
datetime
p21
(S'\x07:\x03\x1a\x00\x00\x00\x00\x00\x00'
p22
tp23
Rp24
sS'books'
p25
(lp26
I54
aI484
asS'id'
p27
I21
sS'died'
p28
g21
(S'\x07j\x05\x16\x00\x00\x00\x00\x00\x00'
p29
tp30
Rp31
sb.