ccopy_reg
_reconstructor
p0
(cdataset.Author
Author
p1
c__builtin__
object
p2
Ntp3
Rp4
(dp5
S'name'
p6
VAlfred Coppel
p7
sS'countries'
p8
(lp9
I2
asS'gender'
p10
S'm'
p11
sS'wikipedia'
p12
(dp13
S'url'
p14
Vhttps://en.wikipedia.org/wiki/Alfred_Coppel
p15
sS'found'
p16
I01
ssS'n_books'
p17
I4
sS'summary'
p18
VAlfred Coppel, Alfredo Jose de Arana-Marini Coppel (November 9, 1921 \u2013 May 30, 2004) was an American author. Born in Oakland, California, he served as a fighter pilot in the United States Army Air Forces during World War II. After his discharge, he started his career as a writer. He became one of the most prolific pulp authors of the 1950s and 1960s, adopting the pseudonyms Robert Cham Gilman and A.C. Marin and writing for a variety of pulp magazines and later "slick" publishers. Though writing in a variety of genres, including action thrillers, he is known for his science fiction stories which comprise both short stories and novels.
p19
sS'books'
p20
(lp21
I498
aI797
aI858
aI923
aI989
aI1081
aI1223
aI1228
aI1239
aI1359
asS'id'
p22
I166
sb.