ccopy_reg
_reconstructor
p0
(cdataset.Author
Author
p1
c__builtin__
object
p2
Ntp3
Rp4
(dp5
S'id'
p6
I651
sS'gender'
p7
S''
p8
sS'books'
p9
(lp10
I1133
aI1147
aI1151
aI1152
aI1157
aI1159
aI1172
aI1173
asS'name'
p11
VLarry Eisenberg
p12
sS'countries'
p13
(lp14
sb.