ccopy_reg
_reconstructor
p0
(cdataset.Author
Author
p1
c__builtin__
object
p2
Ntp3
Rp4
(dp5
S'bio'
p6
VWylie married Sally Ondek, and had one child, Karen. After divorcing his first wife, he married Frederica Ballard, who was born and raised in Rushford, New York; they are both buried in Rushford.\u000aWylie's daughter, Karen, is an author who became the inventor of animal "clicker" training; she was the wife of Taylor Alderdyce Pryor, a Marine helicopter pilot who became a Hawaii state senator and a co-founder of Sea Life Park and Oceanic Institute in Hawaii, of which his wife served as director. She later married Jon Lindbergh, Charles Lindbergh's son.\u000aWylie's niece Janice Wylie, the daughter of his brother Max Wylie, was murdered, along with her roommate Emily Hoffert, in New York in August 1963 in what became known as the "Career Girls murders" case. Wylie died from a heart attack on October 25, 1971, in Miami. Some of his papers, writings, and other possessions are in the Department of Rare Books and Special Collections at Princeton University Library. Wylie married Sally Ondek, and had one child, Karen. After divorcing his first wife, he married Frederica Ballard, who was born and raised in Rushford, New York; they are both buried in Rushford.\u000aWylie's daughter, Karen, is an author who became the inventor of animal "clicker" training; she was the wife of Taylor Alderdyce Pryor, a Marine helicopter pilot who became a Hawaii state senator and a co-founder of Sea Life Park and Oceanic Institute in Hawaii, of which his wife served as director. She later married Jon Lindbergh, Charles Lindbergh's son.\u000aWylie's niece Janice Wylie, the daughter of his brother Max Wylie, was murdered, along with her roommate Emily Hoffert, in New York in August 1963 in what became known as the "Career Girls murders" case. Wylie died from a heart attack on October 25, 1971, in Miami. Some of his papers, writings, and other possessions are in the Department of Rare Books and Special Collections at Princeton University Library. Wylie married Sally Ondek, and had one child, Karen. After divorcing his first wife, he married Frederica Ballard, who was born and raised in Rushford, New York; they are both buried in Rushford.\u000aWylie's daughter, Karen, is an author who became the inventor of animal "clicker" training; she was the wife of Taylor Alderdyce Pryor, a Marine helicopter pilot who became a Hawaii state senator and a co-founder of Sea Life Park and Oceanic Institute in Hawaii, of which his wife served as director. She later married Jon Lindbergh, Charles Lindbergh's son.\u000aWylie's niece Janice Wylie, the daughter of his brother Max Wylie, was murdered, along with her roommate Emily Hoffert, in New York in August 1963 in what became known as the "Career Girls murders" case. Wylie died from a heart attack on October 25, 1971, in Miami. Some of his papers, writings, and other possessions are in the Department of Rare Books and Special Collections at Princeton University Library.
p7
sS'name'
p8
VPhilip Wylie
p9
sS'countries'
p10
(lp11
I2
asS'gender'
p12
S'm'
p13
sS'wikipedia'
p14
(dp15
S'url'
p16
S'https://en.wikipedia.org/wiki/Philip_Wylie'
p17
sS'found'
p18
I01
ssS'n_books'
p19
I1
sS'summary'
p20
VPhilip Gordon Wylie (May 12, 1902 \u2013 October 25, 1971) was an American author of works ranging from pulp science fiction, mysteries, social diatribes and satire, to ecology and the threat of nuclear holocaust.
p21
sS'born'
p22
cdatetime
datetime
p23
(S'\x07n\x05\x0c\x00\x00\x00\x00\x00\x00'
p24
tp25
Rp26
sS'books'
p27
(lp28
I197
asS'id'
p29
I65
sS'died'
p30
g23
(S'\x07\xb3\n\x19\x00\x00\x00\x00\x00\x00'
p31
tp32
Rp33
sb.