ccopy_reg
_reconstructor
p0
(cdataset.Author
Author
p1
c__builtin__
object
p2
Ntp3
Rp4
(dp5
S'name'
p6
VRobert Shea
p7
sS'wikipedia'
p8
(dp9
S'url'
p10
Vhttps://en.wikipedia.org/wiki/Robert_Shea
p11
sS'found'
p12
I01
ssS'n_books'
p13
I6
sS'summary'
p14
VRobert Joseph Shea (February 14, 1933 - March 10, 1994) was an American novelist and former journalist best known as co-author with Robert Anton Wilson of the science fantasy trilogy Illuminatus!. It became a cult success and was later turned into a marathon-length stage show put on at the British National Theatre and elsewhere. In 1986 it won the Prometheus Hall of Fame Award. Shea went on to write several action novels based in exotic historical settings.
p15
sS'born'
p16
cdatetime
datetime
p17
(S'\x07\x8d\x02\x0e\x00\x00\x00\x00\x00\x00'
p18
tp19
Rp20
sS'books'
p21
(lp22
I454
aI547
aI685
aI715
aI853
aI857
asS'id'
p23
I154
sS'died'
p24
g17
(S'\x07\xca\x03\n\x00\x00\x00\x00\x00\x00'
p25
tp26
Rp27
sb.