ccopy_reg
_reconstructor
p0
(cdataset.Author
Author
p1
c__builtin__
object
p2
Ntp3
Rp4
(dp5
S'bio'
p6
VC. C. Beck was born on June 8, 1910 in Zumbrota, Minnesota. Beck's father was a Lutheran minister. Beck's mother was a schoolteacher. He studied at the Chicago Academy of Fine Arts and the University of Minnesota, and also took an art correspondence course.  C. C. Beck was born on June 8, 1910 in Zumbrota, Minnesota. Beck's father was a Lutheran minister. Beck's mother was a schoolteacher. He studied at the Chicago Academy of Fine Arts and the University of Minnesota, and also took an art correspondence course.  C. C. Beck was born on June 8, 1910 in Zumbrota, Minnesota. Beck's father was a Lutheran minister. Beck's mother was a schoolteacher. He studied at the Chicago Academy of Fine Arts and the University of Minnesota, and also took an art correspondence course. 
p7
sS'name'
p8
VC. C. Beck
p9
sS'countries'
p10
(lp11
I2
asS'wikipedia'
p12
(dp13
S'url'
p14
S'https://en.wikipedia.org/wiki/C._C._Beck'
p15
sS'found'
p16
I01
ssS'n_books'
p17
I1
sS'summary'
p18
VCharles Clarence Beck (June 8, 1910 \u2013 November 22, 1989), usually cited as C. C. Beck, was an American cartoonist and comic book artist, best known for his work on Captain Marvel at Fawcett Comics and DC Comics.\u000aHe was inducted into the comic book industry's Will Eisner Comic Book Hall of Fame in 1993 and the Jack Kirby Hall of Fame in 1997.
p19
sS'born'
p20
cdatetime
datetime
p21
(S'\x07v\x06\x08\x00\x00\x00\x00\x00\x00'
p22
tp23
Rp24
sS'books'
p25
(lp26
I569
asS'id'
p27
I189
sS'died'
p28
g21
(S'\x07\xc5\x0b\x16\x00\x00\x00\x00\x00\x00'
p29
tp30
Rp31
sb.