ccopy_reg
_reconstructor
p0
(cdataset.Author
Author
p1
c__builtin__
object
p2
Ntp3
Rp4
(dp5
S'id'
p6
I401
sS'gender'
p7
S''
p8
sS'books'
p9
(lp10
I994
aI1003
aI1009
aI1011
aI1027
aI1050
aI1081
aI1090
asS'name'
p11
VEdward Wellen
p12
sS'countries'
p13
(lp14
sb.