ccopy_reg
_reconstructor
p0
(cdataset.Author
Author
p1
c__builtin__
object
p2
Ntp3
Rp4
(dp5
S'bio'
p6
VClifton worked for many years as a personnel manager and interviewed "over 200,000" people according to a personal letter he wrote to Judith Merril, quoted in The Science Fiction of Mark Clifton. This experience formed much of Clifton's attitude about the delusions people have of themselves, but also the greatness of which they are capable.
p7
sS'name'
p8
VMark Clifton
p9
sS'wikipedia'
p10
(dp11
S'url'
p12
Vhttps://en.wikipedia.org/wiki/Mark_Clifton
p13
sS'found'
p14
I01
ssS'n_books'
p15
I6
sS'summary'
p16
VMark Clifton (1906\u20131963) was an American science fiction writer, the co-winner of the second Hugo Award for best novel. He began publishing in May 1952 with the widely anthologized story "What Have I Done?".
p17
sS'born'
p18
cdatetime
datetime
p19
(S'\x07r\x08\x1a\x00\x00\x00\x00\x00\x00'
p20
tp21
Rp22
sS'books'
p23
(lp24
I728
aI735
aI736
aI790
aI940
aI942
asS'id'
p25
I236
sS'died'
p26
g19
(S'\x07\xab\x08\x1a\x00\x00\x00\x00\x00\x00'
p27
tp28
Rp29
sb.