ccopy_reg
_reconstructor
p0
(cdataset.Author
Author
p1
c__builtin__
object
p2
Ntp3
Rp4
(dp5
S'bio'
p6
VDuring World War I, Leinster served with the Committee of Public Information and the United States Army (1917\u20131918). In 1921, he married Mary Mandola, who was born in New York to Italian parents. The two had four daughters.
p7
sS'name'
p8
VMurray Leinster
p9
sS'wikipedia'
p10
(dp11
S'url'
p12
Vhttps://en.wikipedia.org/wiki/Murray_Leinster
p13
sS'found'
p14
I01
ssS'n_books'
p15
I33
sS'summary'
p16
VMurray Leinster (June 16, 1896 \u2013 June 8, 1975) was a nom de plume of William Fitzgerald Jenkins, an award-winning American writer of science fiction and alternate history literature. He wrote and published more than 1,500 short stories and articles, 14 movie scripts, and hundreds of radio scripts and television plays.
p17
sS'born'
p18
cdatetime
datetime
p19
(S'\x07h\x06\x10\x00\x00\x00\x00\x00\x00'
p20
tp21
Rp22
sS'books'
p23
(lp24
I179
aI180
aI195
aI212
aI246
aI269
aI295
aI313
aI324
aI330
aI332
aI378
aI385
aI394
aI408
aI428
aI441
aI462
aI463
aI472
aI490
aI493
aI515
aI520
aI543
aI550
aI552
aI590
aI602
aI638
aI651
aI689
aI959
asS'id'
p25
I61
sS'died'
p26
g19
(S'\x07\xb7\x06\x08\x00\x00\x00\x00\x00\x00'
p27
tp28
Rp29
sb.