ccopy_reg
_reconstructor
p0
(cdataset.Author
Author
p1
c__builtin__
object
p2
Ntp3
Rp4
(dp5
S'gender'
p6
S''
p7
sS'books'
p8
(lp9
I999
aI1173
aI1174
aI1343
asS'id'
p10
I418
sS'name'
p11
VHoward L. Myers
p12
sS'countries'
p13
(lp14
sb.