ccopy_reg
_reconstructor
p0
(cdataset.Author
Author
p1
c__builtin__
object
p2
Ntp3
Rp4
(dp5
S'gender'
p6
S''
p7
sS'books'
p8
(lp9
I1003
aI1010
aI1023
aI1024
aI1025
aI1026
aI1027
aI1028
aI1029
aI1030
aI1032
aI1033
aI1035
aI1228
aI1248
aI1249
aI1250
aI1251
aI1252
aI1253
aI1257
asS'id'
p10
I427
sS'name'
p11
VMel Hunter
p12
sS'countries'
p13
(lp14
sb.