ccopy_reg
_reconstructor
p0
(cdataset.Author
Author
p1
c__builtin__
object
p2
Ntp3
Rp4
(dp5
S'id'
p6
I519
sS'gender'
p7
S''
p8
sS'books'
p9
(lp10
I1055
aI1056
aI1057
aI1058
aI1060
aI1061
aI1062
aI1063
aI1064
aI1065
aI1066
aI1067
aI1068
aI1069
aI1070
aI1071
aI1072
aI1073
aI1074
aI1076
aI1077
aI1078
aI1079
aI1080
aI1081
aI1082
aI1085
aI1088
aI1093
aI1095
aI1096
aI1097
aI1109
aI1110
aI1111
aI1121
asS'name'
p11
VWallace Wood
p12
sS'countries'
p13
(lp14
sb.