ccopy_reg
_reconstructor
p0
(cdataset.Author
Author
p1
c__builtin__
object
p2
Ntp3
Rp4
(dp5
S'id'
p6
I767
sS'gender'
p7
S''
p8
sS'books'
p9
(lp10
I1181
aI1183
aI1186
aI1188
aI1190
aI1191
aI1192
aI1194
aI1195
aI1198
aI1200
aI1203
aI1207
aI1209
aI1211
aI1212
aI1214
aI1215
asS'name'
p11
VRichard E. Geis
p12
sS'countries'
p13
(lp14
sb.