ccopy_reg
_reconstructor
p0
(cdataset.Author
Author
p1
c__builtin__
object
p2
Ntp3
Rp4
(dp5
S'name'
p6
VC. M. Kornbluth
p7
sS'countries'
p8
(lp9
I2
asS'wikipedia'
p10
(dp11
S'url'
p12
Vhttps://en.wikipedia.org/wiki/The_Explorers_(collection)
p13
sS'found'
p14
I01
ssS'n_books'
p15
I8
sS'summary'
p16
VThe Explorers is the first collection of stories by science fiction writer C. M. Kornbluth, originally published in paperback by Ballantine Books in 1954. Ballantine reissued the collection in 1963. While no further editions of the collection were published, six of its nine stories were included in Ballantine's 1977 The Best of C. M. Kornbluth, and all the stories are contained in NESFA's 1997 His Share of Glory: The Complete Short Science Fiction of C. M. Kornbluth.\u000a\u000a
p17
sS'books'
p18
(lp19
I142
aI171
aI361
aI447
aI485
aI540
aI596
aI829
asS'id'
p20
I51
sb.