ccopy_reg
_reconstructor
p0
(cdataset.Author
Author
p1
c__builtin__
object
p2
Ntp3
Rp4
(dp5
S'gender'
p6
S''
p7
sS'books'
p8
(lp9
I1214
asS'id'
p10
I882
sS'name'
p11
VChip Fabian
p12
sS'countries'
p13
(lp14
sb.