ccopy_reg
_reconstructor
p0
(cdataset.Author
Author
p1
c__builtin__
object
p2
Ntp3
Rp4
(dp5
S'name'
p6
VMilo Hastings
p7
sS'countries'
p8
(lp9
I2
asS'wikipedia'
p10
(dp11
S'url'
p12
S'https://en.wikipedia.org/wiki/Milo_Hastings'
p13
sS'found'
p14
I01
ssS'n_books'
p15
I1
sS'summary'
p16
VMilo Milton Hastings (June 28, 1884 \u2013 February 25, 1957) was an American inventor, author, and nutritionist. He invented the forced-draft chicken incubator and Weeniwinks, a health-food snack. He wrote about chickens, science fiction, and health, among other things. Some of his writing is available in book form and on Project Gutenberg. Hastings was married twice and had three children.
p17
sS'books'
p18
(lp19
I633
asS'id'
p20
I209
sb.