ccopy_reg
_reconstructor
p0
(cdataset.Author
Author
p1
c__builtin__
object
p2
Ntp3
Rp4
(dp5
S'bio'
p6
VC. C. Beck was born on June 8, 1910 in Zumbrota, Minnesota. Beck's father was a Lutheran minister. Beck's mother was a schoolteacher. He studied at the Chicago Academy of Fine Arts and the University of Minnesota, and also took an art correspondence course.  C. C. Beck was born on June 8, 1910 in Zumbrota, Minnesota. Beck's father was a Lutheran minister. Beck's mother was a schoolteacher. He studied at the Chicago Academy of Fine Arts and the University of Minnesota, and also took an art correspondence course.  C. C. Beck was born on June 8, 1910 in Zumbrota, Minnesota. Beck's father was a Lutheran minister. Beck's mother was a schoolteacher. He studied at the Chicago Academy of Fine Arts and the University of Minnesota, and also took an art correspondence course. 
p7
sS'name'
p8
VC. C. Beck
p9
sS'countries'
p10
(lp11
I2
asS'gender'
p12
S'm'
p13
sS'wikipedia'
p14
(dp15
S'url'
p16
S'https://en.wikipedia.org/wiki/C._C._Beck'
p17
sS'found'
p18
I01
ssS'n_books'
p19
I1
sS'summary'
p20
VCharles Clarence Beck (June 8, 1910 \u2013 November 22, 1989), usually cited as C. C. Beck, was an American cartoonist and comic book artist, best known for his work on Captain Marvel at Fawcett Comics and DC Comics.\u000aHe was inducted into the comic book industry's Will Eisner Comic Book Hall of Fame in 1993 and the Jack Kirby Hall of Fame in 1997.
p21
sS'born'
p22
cdatetime
datetime
p23
(S'\x07v\x06\x08\x00\x00\x00\x00\x00\x00'
p24
tp25
Rp26
sS'books'
p27
(lp28
I569
asS'id'
p29
I189
sS'died'
p30
g23
(S'\x07\xc5\x0b\x16\x00\x00\x00\x00\x00\x00'
p31
tp32
Rp33
sb.