ccopy_reg
_reconstructor
p0
(cdataset.Author
Author
p1
c__builtin__
object
p2
Ntp3
Rp4
(dp5
S'name'
p6
VPauline Ashwell
p7
sS'countries'
p8
(lp9
I1
asS'wikipedia'
p10
(dp11
S'url'
p12
Vhttps://en.wikipedia.org/wiki/Paul_Ash
p13
sS'found'
p14
I01
ssS'n_books'
p15
I1
sS'summary'
p16
VFor the science fiction writer who wrote under the name "Paul Ash", see Pauline Ashwell\u000a In progress\u000a\u000aPaul Robert Ash (February 11, 1891, Germany \u2014 July 13, 1958, Manhattan, New York) was an American orchestra leader, composer, vaudeville personality, and recording artist.\u000aHe recorded several hit songs: "Rememb'ring" (Brunswick, 1924), with his Granada Orchestra, "My Pet" (Columbia, 1928) and "Shadows on the Swanee" (Columbia, 1933). He also penned Kay Kyser's theme "Thinking of You."
p17
sS'books'
p18
(lp19
I321
asS'id'
p20
I106
sb.