ccopy_reg
_reconstructor
p0
(cdataset.Author
Author
p1
c__builtin__
object
p2
Ntp3
Rp4
(dp5
S'bio'
p6
V  
p7
sS'name'
p8
VEdward Bellamy
p9
sS'countries'
p10
(lp11
I2
asS'gender'
p12
S'm'
p13
sS'wikipedia'
p14
(dp15
S'url'
p16
S'https://en.wikipedia.org/wiki/Edward_Bellamy'
p17
sS'found'
p18
I01
ssS'n_books'
p19
I2
sS'summary'
p20
VEdward Bellamy (March 26, 1850 \u2013 May 22, 1898) was an American author and socialist, most famous for his utopian novel, Looking Backward, a tale set in the distant future of the year 2000. Bellamy's vision of a harmonious future world inspired the formation of at least 165 "Nationalist Clubs" dedicated to the propagation of Bellamy's political ideas and working to make them a practical reality.
p21
sS'born'
p22
cdatetime
datetime
p23
(S'\x07:\x03\x1a\x00\x00\x00\x00\x00\x00'
p24
tp25
Rp26
sS'books'
p27
(lp28
I54
aI484
asS'id'
p29
I21
sS'died'
p30
g23
(S'\x07j\x05\x16\x00\x00\x00\x00\x00\x00'
p31
tp32
Rp33
sb.