ccopy_reg
_reconstructor
p0
(cdataset.Author
Author
p1
c__builtin__
object
p2
Ntp3
Rp4
(dp5
S'bio'
p6
VLeigh Brackett was born December 7, 1915 in Los Angeles, California and grew up there. On December 31, 1946, at age 31, she married Edmond Hamilton in San Gabriel, California, and moved with him to Kinsman, Ohio. She died of cancer in 1978 in Lancaster, California. 
p7
sS'name'
p8
VLeigh Douglass Brackett
p9
sS'country'
p10
I2
sS'wikipedia'
p11
(dp12
S'url'
p13
Vhttps://en.wikipedia.org/wiki/Leigh_Brackett
p14
sS'found'
p15
I01
ssS'n_books'
p16
I2
sS'summary'
p17
VLeigh Douglass Brackett (December 7, 1915 \u2013 March 18, 1978) was an American writer, particularly of science fiction, and has been referred to as the Queen of Space Opera. She was also a screenwriter, known for her work on such films as The Big Sleep (1946), Rio Bravo (1959), The Long Goodbye (1973) and The Empire Strikes Back (1980).
p18
sS'born'
p19
cdatetime
datetime
p20
(S'\x07{\x0c\x07\x00\x00\x00\x00\x00\x00'
p21
tp22
Rp23
sS'books'
p24
(lp25
I147
aI205
asS'id'
p26
I52
sS'died'
p27
g20
(S'\x07\xba\x03\x12\x00\x00\x00\x00\x00\x00'
p28
tp29
Rp30
sb.