ccopy_reg
_reconstructor
p0
(cdataset.Author
Author
p1
c__builtin__
object
p2
Ntp3
Rp4
(dp5
S'bio'
p6
VDuring World War I, Leinster served with the Committee of Public Information and the United States Army (1917\u20131918). In 1921, he married Mary Mandola, who was born in New York to Italian parents. The two had four daughters.
p7
sS'name'
p8
VMurray Leinster
p9
sS'countries'
p10
(lp11
I2
asS'gender'
p12
S'm'
p13
sS'wikipedia'
p14
(dp15
S'url'
p16
Vhttps://en.wikipedia.org/wiki/Murray_Leinster
p17
sS'found'
p18
I01
ssS'n_books'
p19
I33
sS'summary'
p20
VMurray Leinster (June 16, 1896 \u2013 June 8, 1975) was a nom de plume of William Fitzgerald Jenkins, an award-winning American writer of science fiction and alternate history literature. He wrote and published more than 1,500 short stories and articles, 14 movie scripts, and hundreds of radio scripts and television plays.
p21
sS'born'
p22
cdatetime
datetime
p23
(S'\x07h\x06\x10\x00\x00\x00\x00\x00\x00'
p24
tp25
Rp26
sS'books'
p27
(lp28
I179
aI180
aI195
aI212
aI246
aI269
aI295
aI313
aI324
aI330
aI332
aI378
aI385
aI394
aI408
aI428
aI441
aI462
aI463
aI472
aI490
aI493
aI515
aI520
aI543
aI550
aI552
aI590
aI602
aI638
aI651
aI689
aI959
aI979
aI984
aI1003
aI1028
aI1083
aI1097
aI1293
aI1315
asS'id'
p29
I61
sS'died'
p30
g23
(S'\x07\xb7\x06\x08\x00\x00\x00\x00\x00\x00'
p31
tp32
Rp33
sb.