ccopy_reg
_reconstructor
p0
(cdataset.Author
Author
p1
c__builtin__
object
p2
Ntp3
Rp4
(dp5
S'name'
p6
VRog Phillips
p7
sS'wikipedia'
p8
(dp9
S'url'
p10
Vhttps://en.wikipedia.org/wiki/Rog_Phillips
p11
sS'found'
p12
I01
ssS'n_books'
p13
I2
sS'summary'
p14
V.\u000a\u000aRoger Phillips Graham (1909-1966), born in Spokane, Washington, was an American science fiction writer who was published most often using the name Rog Phillips, but also used other names. Of his other pseudonyms, only Craig Browning is notable in the genre. He is associated most with Amazing Stories and is known best for short fiction. He was nominated for the Hugo Award for Best Novelette during 1959.
p15
sS'books'
p16
(lp17
I628
aI859
asS'id'
p18
I208
sb.