ccopy_reg
_reconstructor
p0
(cdataset.Author
Author
p1
c__builtin__
object
p2
Ntp3
Rp4
(dp5
S'gender'
p6
S''
p7
sS'books'
p8
(lp9
I1095
aI1096
aI1097
aI1098
aI1100
aI1101
aI1102
aI1106
aI1107
aI1113
aI1114
aI1292
aI1293
aI1294
aI1295
aI1297
aI1298
aI1299
aI1302
aI1303
aI1304
aI1306
aI1307
aI1308
aI1310
aI1316
aI1318
aI1320
aI1327
asS'id'
p10
I581
sS'name'
p11
VNodel
p12
sS'countries'
p13
(lp14
sb.