ccopy_reg
_reconstructor
p0
(cdataset.Author
Author
p1
c__builtin__
object
p2
Ntp3
Rp4
(dp5
S'name'
p6
VJohn Jacob Astor
p7
sS'wikipedia'
p8
(dp9
S'url'
p10
Vhttps://en.wikipedia.org/wiki/John_Jacob_Astor_IV
p11
sS'found'
p12
I01
ssS'n_books'
p13
I1
sS'summary'
p14
VJohn Jacob "Jack" Astor IV (July 13, 1864 \u2013 April 15, 1912) was an American businessman, real estate builder, investor, inventor, writer, lieutenant colonel in the Spanish\u2013American War, and a prominent member of the Astor family.\u000aAstor died in the sinking of the RMS Titanic during the early hours of April 15, 1912. He was among the 1,514 people on board who did not survive. He was the richest passenger aboard the Titanic and was thought to be among the richest people in the world at that time, with a net worth of nearly $87 million when he died (equivalent to $2.16 billion in 2016).
p15
sS'born'
p16
cdatetime
datetime
p17
(S'\x07H\x08\x19\x00\x00\x00\x00\x00\x00'
p18
tp19
Rp20
sS'books'
p21
(lp22
I199
asS'id'
p23
I66
sS'died'
p24
g17
(S'\x07x\x08\x19\x00\x00\x00\x00\x00\x00'
p25
tp26
Rp27
sb.