ccopy_reg
_reconstructor
p0
(cdataset.Author
Author
p1
c__builtin__
object
p2
Ntp3
Rp4
(dp5
S'name'
p6
VTom Purdom
p7
sS'countries'
p8
(lp9
I2
asS'wikipedia'
p10
(dp11
S'url'
p12
Vhttps://en.wikipedia.org/wiki/Tom_Purdom
p13
sS'found'
p14
I01
ssS'n_books'
p15
I1
sS'summary'
p16
VThomas Edward Purdom (born 1936) is an American writer best known for science fiction and nonfiction. His story Fossil Games was a nominee for the Hugo Award for Best Novelette in 2000. He has also done music criticism since 1988. His works have been translated into German, Chinese, Burmese, Russian, and Czech. He lives in Philadelphia.
p17
sS'born'
p18
cdatetime
datetime
p19
(S'\x07\x90\x08\x1a\x00\x00\x00\x00\x00\x00'
p20
tp21
Rp22
sS'books'
p23
(lp24
I776
asS'id'
p25
I248
sb.