ccopy_reg
_reconstructor
p0
(cdataset.Author
Author
p1
c__builtin__
object
p2
Ntp3
Rp4
(dp5
S'name'
p6
VDonald Colvin
p7
sS'wikipedia'
p8
(dp9
S'url'
p10
Vhttps://en.wikipedia.org/wiki/American_Jerusalem
p11
sS'found'
p12
I01
ssS'n_books'
p13
I2
sS'summary'
p14
V"American Jerusalem" is a song written by singer-songwriter and guitarist Rod MacDonald in 1978. Considered his "signature tune", the nearly-six-minute long song first appeared on MacDonald\u2019s 1983 debut album No Commercial Traffic (originally on Cinemagic Records, reissued by Blue Flute Music).\u000aMacDonald re-recorded the song for his 2009 CD After the War, with Gary Burke (drums), Pete Levin (keyboards), Mark Dann (bass), JP Bowersock (guitar) and Tracy Grammer (harmony vocals).\u000aThe publishing rights to "American Jerusalem" were acquired in 1985 by Dick James Music, which later sold its entire catalogue to PolyGram International; it is currently the property of Universal Music. MacDonald is a longtime member of ASCAP.
p15
sS'books'
p16
(lp17
I864
aI890
asS'id'
p18
I268
sb.