ccopy_reg
_reconstructor
p0
(cdataset.Author
Author
p1
c__builtin__
object
p2
Ntp3
Rp4
(dp5
S'gender'
p6
S''
p7
sS'books'
p8
(lp9
I994
aI996
aI1008
aI1010
aI1013
aI1023
aI1060
aI1084
aI1223
asS'id'
p10
I400
sS'name'
p11
VRoger Dee
p12
sS'countries'
p13
(lp14
sb.