ccopy_reg
_reconstructor
p0
(cdataset.Author
Author
p1
c__builtin__
object
p2
Ntp3
Rp4
(dp5
S'gender'
p6
S''
p7
sS'books'
p8
(lp9
I1206
aI1207
aI1208
aI1209
aI1210
aI1211
aI1212
aI1213
aI1214
asS'id'
p10
I843
sS'name'
p11
VPaul Walker
p12
sS'countries'
p13
(lp14
sb.