ccopy_reg
_reconstructor
p0
(cdataset.Author
Author
p1
c__builtin__
object
p2
Ntp3
Rp4
(dp5
S'gender'
p6
S''
p7
sS'books'
p8
(lp9
I1155
aI1156
aI1166
aI1167
aI1168
aI1338
aI1339
aI1340
asS'id'
p10
I704
sS'name'
p11
VJames White
p12
sS'countries'
p13
(lp14
sb.