ccopy_reg
_reconstructor
p0
(cdataset.Author
Author
p1
c__builtin__
object
p2
Ntp3
Rp4
(dp5
S'gender'
p6
S''
p7
sS'books'
p8
(lp9
I1033
aI1140
aI1146
aI1148
aI1154
aI1197
aI1379
aI1384
aI1385
asS'id'
p10
I478
sS'name'
p11
VStephen Tall
p12
sS'countries'
p13
(lp14
sb.