ccopy_reg
_reconstructor
p0
(cdataset.Author
Author
p1
c__builtin__
object
p2
Ntp3
Rp4
(dp5
S'name'
p6
VEvelyn E. Smith
p7
sS'countries'
p8
(lp9
I2
asS'wikipedia'
p10
(dp11
S'url'
p12
Vhttps://en.wikipedia.org/wiki/Evelyn_E._Smith
p13
sS'found'
p14
I01
ssS'n_books'
p15
I11
sS'summary'
p16
VEvelyn E. Smith (25 July 1922 \u2013 4 July 2000) was an American writer of science fiction and mysteries, as well as a compiler of crossword puzzles.
p17
sS'born'
p18
cdatetime
datetime
p19
(S'\x07\x82\x07\x19\x00\x00\x00\x00\x00\x00'
p20
tp21
Rp22
sS'books'
p23
(lp24
I514
aI516
aI521
aI576
aI653
aI770
aI782
aI898
aI899
aI913
aI914
asS'id'
p25
I172
sS'died'
p26
g19
(S'\x07\xd0\x07\x04\x00\x00\x00\x00\x00\x00'
p27
tp28
Rp29
sb.