ccopy_reg
_reconstructor
p0
(cdataset.Author
Author
p1
c__builtin__
object
p2
Ntp3
Rp4
(dp5
S'gender'
p6
S''
p7
sS'books'
p8
(lp9
I995
aI996
aI997
aI998
aI999
aI1000
aI1001
aI1002
aI1003
aI1006
aI1007
aI1011
aI1014
aI1015
aI1016
aI1017
aI1019
aI1020
aI1026
aI1027
aI1029
aI1030
aI1031
aI1032
aI1034
aI1035
aI1037
aI1050
asS'id'
p10
I402
sS'name'
p11
VAshman
p12
sS'countries'
p13
(lp14
sb.