ccopy_reg
_reconstructor
p0
(cdataset.Author
Author
p1
c__builtin__
object
p2
Ntp3
Rp4
(dp5
S'bio'
p6
VHe was born in Colrain, Franklin County, Massachusetts, April 18, 1807. He graduated from Union College in 1827. Ordained as a Congregationalist minister at Auburn Theological Seminary, September 20, 1831.
p7
sS'name'
p8
VBetsy Curtis
p9
sS'wikipedia'
p10
(dp11
S'url'
p12
Vhttps://en.wikipedia.org/wiki/Lorenzo_Lyons
p13
sS'found'
p14
I01
ssS'n_books'
p15
I1
sS'summary'
p16
VLorenzo Lyons or "Makua Laiana" (April 18, 1807 \u2013 October 6, 1886) was an early missionary to the Kingdom of Hawaii. He was a songwriter who composed "Hawai\u02bbi Aloha", which was inducted into the Hawaiian Music Hall of Fame in 1998. Lyons spent the last 28 years of his life as postmaster in the district surrounding Waimea, Hawaii County, Hawaii.
p17
sS'born'
p18
cdatetime
datetime
p19
(S'\x07\x0f\x04\x12\x00\x00\x00\x00\x00\x00'
p20
tp21
Rp22
sS'books'
p23
(lp24
I773
asS'id'
p25
I247
sS'died'
p26
g19
(S'\x07^\n\x06\x00\x00\x00\x00\x00\x00'
p27
tp28
Rp29
sb.