ccopy_reg
_reconstructor
p0
(cdataset.Author
Author
p1
c__builtin__
object
p2
Ntp3
Rp4
(dp5
S'name'
p6
VChristopher Anvil
p7
sS'country'
p8
I2
sS'wikipedia'
p9
(dp10
S'url'
p11
Vhttps://en.wikipedia.org/wiki/Christopher_Anvil_bibliography
p12
sS'found'
p13
I01
ssS'n_books'
p14
I1
sS'summary'
p15
VThis is complete works by American science fiction writer Christopher Anvil, a pseudonym used by Harry Christopher Crosby.
p16
sS'books'
p17
(lp18
I245
asS'id'
p19
I81
sb.