ccopy_reg
_reconstructor
p0
(cdataset.Author
Author
p1
c__builtin__
object
p2
Ntp3
Rp4
(dp5
S'gender'
p6
S''
p7
sS'books'
p8
(lp9
I1079
aI1080
aI1088
aI1089
aI1276
aI1279
aI1280
asS'id'
p10
I554
sS'name'
p11
VWilliam W. Stuart
p12
sS'countries'
p13
(lp14
sb.