ccopy_reg
_reconstructor
p0
(cdataset.Author
Author
p1
c__builtin__
object
p2
Ntp3
Rp4
(dp5
S'name'
p6
VTom Purdom
p7
sS'wikipedia'
p8
(dp9
S'url'
p10
Vhttps://en.wikipedia.org/wiki/Tom_Purdom
p11
sS'found'
p12
I01
ssS'n_books'
p13
I1
sS'summary'
p14
VThomas Edward Purdom (born 1936) is an American writer best known for science fiction and nonfiction. His story Fossil Games was a nominee for the Hugo Award for Best Novelette in 2000. He has also done music criticism since 1988. His works have been translated into German, Chinese, Burmese, Russian, and Czech. He lives in Philadelphia.
p15
sS'born'
p16
cdatetime
datetime
p17
(S'\x07\x90\x08\x1a\x00\x00\x00\x00\x00\x00'
p18
tp19
Rp20
sS'books'
p21
(lp22
I776
asS'id'
p23
I248
sb.