ccopy_reg
_reconstructor
p0
(cdataset.Author
Author
p1
c__builtin__
object
p2
Ntp3
Rp4
(dp5
S'name'
p6
VHarl Vincent
p7
sS'countries'
p8
(lp9
I2
asS'gender'
p10
S'm'
p11
sS'wikipedia'
p12
(dp13
S'url'
p14
S'https://en.wikipedia.org/wiki/Harl_Vincent'
p15
sS'found'
p16
I01
ssS'n_books'
p17
I2
sS'summary'
p18
VHarl Vincent (October 19, 1893 \u2013 May 5, 1968) was the publication name of Harold Vincent Schoepflin, an American mechanical engineer and science fiction author. He was published regularly in science fiction "pulp" magazines.
p19
sS'born'
p20
cdatetime
datetime
p21
(S'\x07e\n\x13\x00\x00\x00\x00\x00\x00'
p22
tp23
Rp24
sS'books'
p25
(lp26
I865
aI885
asS'id'
p27
I269
sS'died'
p28
g21
(S'\x07\xb0\x05\x05\x00\x00\x00\x00\x00\x00'
p29
tp30
Rp31
sb.