ccopy_reg
_reconstructor
p0
(cdataset.Author
Author
p1
c__builtin__
object
p2
Ntp3
Rp4
(dp5
S'gender'
p6
S''
p7
sS'books'
p8
(lp9
I1103
aI1115
aI1328
aI1329
aI1330
aI1331
aI1332
aI1333
aI1336
aI1337
aI1338
asS'id'
p10
I593
sS'name'
p11
VCastellon
p12
sS'countries'
p13
(lp14
sb.