ccopy_reg
_reconstructor
p0
(cdataset.Author
Author
p1
c__builtin__
object
p2
Ntp3
Rp4
(dp5
S'gender'
p6
S''
p7
sS'books'
p8
(lp9
I1123
aI1134
aI1135
aI1137
aI1139
aI1140
aI1147
aI1149
aI1153
aI1160
aI1162
aI1163
aI1186
aI1256
aI1262
aI1263
aI1264
aI1265
aI1323
aI1324
aI1330
aI1331
aI1342
aI1344
aI1346
aI1350
asS'id'
p10
I630
sS'name'
p11
VA. Bertram Chandler
p12
sS'countries'
p13
(lp14
sb.