ccopy_reg
_reconstructor
p0
(cdataset.Author
Author
p1
c__builtin__
object
p2
Ntp3
Rp4
(dp5
S'gender'
p6
S''
p7
sS'books'
p8
(lp9
I973
aI974
aI975
aI976
aI977
aI979
aI981
aI983
aI987
aI990
aI992
aI993
aI994
aI996
aI997
aI998
aI999
aI1000
aI1001
aI1002
aI1003
aI1004
aI1005
aI1006
aI1007
aI1008
aI1009
aI1010
aI1011
aI1012
aI1013
aI1014
aI1016
aI1017
aI1018
aI1019
aI1020
aI1021
aI1022
aI1023
aI1024
aI1025
aI1026
aI1027
aI1028
aI1029
aI1030
aI1031
aI1032
aI1033
aI1034
aI1035
aI1036
aI1037
aI1038
aI1040
aI1041
aI1042
aI1043
aI1045
aI1046
aI1047
aI1048
aI1049
aI1050
aI1051
aI1052
aI1053
aI1056
aI1057
aI1058
aI1059
aI1061
aI1063
aI1064
aI1065
aI1066
aI1067
aI1068
aI1069
aI1070
aI1071
aI1072
aI1073
aI1074
aI1075
aI1076
aI1077
aI1078
aI1079
aI1080
aI1081
aI1082
aI1083
aI1084
aI1085
aI1086
aI1087
aI1088
aI1089
aI1090
aI1091
aI1092
aI1093
aI1094
aI1095
aI1096
aI1097
aI1098
aI1099
aI1100
aI1101
aI1102
aI1103
aI1104
aI1105
aI1106
aI1107
aI1108
aI1109
aI1110
aI1111
aI1112
aI1113
aI1114
aI1115
aI1116
aI1117
aI1118
aI1119
aI1120
aI1121
aI1122
aI1123
aI1124
aI1125
aI1126
aI1127
aI1128
aI1129
aI1130
aI1131
aI1132
aI1133
aI1134
aI1135
aI1136
aI1137
aI1138
aI1139
aI1140
aI1141
aI1142
aI1143
aI1144
aI1145
aI1146
aI1147
aI1148
aI1149
aI1150
aI1151
aI1152
aI1153
aI1154
aI1155
aI1156
aI1157
aI1158
aI1159
aI1160
aI1161
aI1162
aI1163
aI1164
aI1165
aI1166
aI1167
aI1168
aI1169
aI1170
aI1171
aI1172
aI1173
aI1174
aI1175
aI1176
aI1178
aI1179
aI1180
aI1181
aI1182
aI1183
aI1184
aI1185
aI1186
aI1187
aI1188
aI1189
aI1190
aI1191
aI1192
aI1193
aI1194
aI1195
aI1196
aI1198
aI1199
aI1200
aI1201
aI1202
aI1203
aI1205
aI1206
aI1207
aI1209
aI1211
aI1212
aI1214
aI1215
aI1216
aI1217
aI1218
aI1219
aI1220
aI1221
aI1222
aI1223
aI1224
aI1225
aI1226
aI1227
aI1228
aI1229
aI1230
aI1231
aI1232
aI1233
aI1234
aI1235
aI1236
aI1237
aI1238
aI1239
aI1240
aI1241
aI1242
aI1243
aI1244
aI1245
aI1246
aI1247
aI1248
aI1249
aI1250
aI1251
aI1252
aI1253
aI1254
aI1255
aI1256
aI1257
aI1258
aI1259
aI1260
aI1261
aI1262
aI1263
aI1264
aI1265
aI1266
aI1267
aI1268
aI1269
aI1270
aI1271
aI1272
aI1273
aI1279
aI1280
aI1281
aI1282
aI1283
aI1284
aI1285
aI1287
aI1308
aI1312
aI1339
aI1340
aI1341
aI1342
aI1343
aI1344
aI1345
aI1346
aI1347
aI1348
aI1349
aI1350
aI1351
aI1352
aI1353
aI1354
aI1355
aI1356
aI1357
aI1358
aI1359
aI1360
aI1361
aI1362
aI1363
aI1364
aI1365
aI1366
aI1367
aI1368
aI1369
aI1370
aI1371
aI1372
aI1373
aI1374
aI1375
aI1376
aI1377
aI1378
aI1379
aI1380
aI1381
aI1382
aI1383
aI1384
aI1385
aI1386
aI1388
aI1389
aI1390
aI1391
aI1392
asS'id'
p10
I326
sS'name'
p11
Vuncredited
p12
sS'countries'
p13
(lp14
sb.