ccopy_reg
_reconstructor
p0
(cdataset.Author
Author
p1
c__builtin__
object
p2
Ntp3
Rp4
(dp5
S'id'
p6
I385
sS'gender'
p7
S''
p8
sS'books'
p9
(lp10
I988
aI989
aI990
aI1044
aI1045
aI1046
aI1047
asS'name'
p11
VAlfred Bester
p12
sS'countries'
p13
(lp14
sb.