ccopy_reg
_reconstructor
p0
(cdataset.Author
Author
p1
c__builtin__
object
p2
Ntp3
Rp4
(dp5
S'name'
p6
S'Stanley Weinbaum'
p7
sS'countries'
p8
(lp9
I2
asS'gender'
p10
S'm'
p11
sS'wikipedia'
p12
(dp13
S'url'
p14
Vhttps://en.wikipedia.org/wiki/Stanley_G._Weinbaum
p15
sS'found'
p16
I01
ssS'n_books'
p17
I4
sS'summary'
p18
VStanley Grauman Weinbaum (April 4, 1902 \u2013 December 14, 1935) was an American science fiction writer. His career in science fiction was short but influential. His first story, "A Martian Odyssey", was published to great (and enduring) acclaim in July 1934, but he succumbed to lung cancer less than a year and a half later.
p19
sS'born'
p20
cdatetime
datetime
p21
(S'\x07n\x04\x04\x00\x00\x00\x00\x00\x00'
p22
tp23
Rp24
sS'books'
p25
(lp26
I184
aI305
aI556
aI791
asS'id'
p27
I62
sS'died'
p28
g21
(S'\x07\x8f\x0c\x0e\x00\x00\x00\x00\x00\x00'
p29
tp30
Rp31
sb.