ccopy_reg
_reconstructor
p0
(cdataset.Author
Author
p1
c__builtin__
object
p2
Ntp3
Rp4
(dp5
S'bio'
p6
V Pohl went to the hospital in respiratory distress on the morning of September 2, 2013, and died that afternoon at the age of 93.
p7
sS'name'
p8
VFrederik Pohl
p9
sS'countries'
p10
(lp11
I2
asS'gender'
p12
S'm'
p13
sS'wikipedia'
p14
(dp15
S'url'
p16
Vhttps://en.wikipedia.org/wiki/Frederik_Pohl
p17
sS'found'
p18
I01
ssS'n_books'
p19
I10
sS'summary'
p20
VFrederik George Pohl Jr. (; November 26, 1919 \u2013 September 2, 2013) was an American science fiction writer, editor and fan, with a career spanning more than seventy-five years\u2014from his first published work, the 1937 poem "Elegy to a Dead Satellite: Luna", to the 2011 novel All the Lives He Led and articles and essays published in 2012.\u000aFrom about 1959 until 1969, Pohl edited Galaxy and its sister magazine If; the latter won three successive annual Hugo Awards as the year's best professional magazine. His 1977 novel Gateway won four "year's best novel" awards: the Hugo voted by convention participants, the Locus voted by magazine subscribers, the Nebula voted by American science fiction writers, and the juried academic John W. Campbell Memorial Award. He won the Campbell Memorial Award again for the 1984 collection of novellas Years of the City, one of two repeat winners during the first forty years. For his 1979 novel Jem, Pohl won a U.S. National Book Award in the one-year category Science Fiction. It was a finalist for three other years' best novel awards. He won four Hugo and three Nebula Awards.\u000aThe Science Fiction Writers of America named Pohl its 12th recipient of the Damon Knight Memorial Grand Master Award in 1993 and he was inducted by the Science Fiction and Fantasy Hall of Fame in 1998, its third class of two dead and two living writers.\u000aPohl won the Hugo Award for Best Fan Writer in 2010, for his blog, "The Way the Future Blogs".
p21
sS'born'
p22
cdatetime
datetime
p23
(S'\x07\x7f\x0b\x1a\x00\x00\x00\x00\x00\x00'
p24
tp25
Rp26
sS'books'
p27
(lp28
I106
aI142
aI165
aI171
aI211
aI282
aI326
aI383
aI488
aI497
aI971
aI993
aI994
aI995
aI1015
aI1017
aI1018
aI1019
aI1024
aI1025
aI1026
aI1027
aI1028
aI1029
aI1030
aI1031
aI1032
aI1034
aI1037
aI1038
aI1039
aI1045
aI1047
aI1048
aI1051
aI1056
aI1057
aI1059
aI1064
aI1065
aI1066
aI1068
aI1070
aI1071
aI1072
aI1073
aI1074
aI1075
aI1076
aI1077
aI1079
aI1080
aI1085
aI1087
aI1090
aI1091
aI1092
aI1093
aI1094
aI1095
aI1096
aI1097
aI1098
aI1099
aI1100
aI1101
aI1102
aI1103
aI1104
aI1105
aI1106
aI1107
aI1108
aI1109
aI1110
aI1111
aI1112
aI1113
aI1114
aI1115
aI1116
aI1117
aI1118
aI1119
aI1120
aI1121
aI1122
aI1123
aI1124
aI1125
aI1126
aI1127
aI1128
aI1129
aI1130
aI1131
aI1132
aI1133
aI1134
aI1136
aI1137
aI1141
aI1166
aI1171
aI1178
aI1183
aI1196
aI1197
aI1198
aI1203
aI1213
aI1214
aI1215
aI1216
aI1217
aI1268
aI1269
aI1270
aI1271
aI1272
aI1273
aI1274
aI1275
aI1276
aI1277
aI1283
aI1284
aI1285
aI1286
aI1287
aI1288
aI1289
aI1290
aI1291
aI1292
aI1293
aI1294
aI1295
aI1296
aI1297
aI1298
aI1299
aI1301
aI1302
aI1303
aI1304
aI1305
aI1306
aI1307
aI1308
aI1309
aI1310
aI1311
aI1312
aI1313
aI1314
aI1315
aI1316
aI1317
aI1318
aI1319
aI1320
aI1321
aI1322
aI1323
aI1324
aI1325
aI1326
aI1327
aI1328
aI1329
aI1330
aI1331
aI1332
aI1333
aI1334
aI1335
aI1336
aI1337
aI1338
aI1339
aI1340
aI1341
aI1342
aI1343
aI1344
aI1345
aI1346
aI1347
aI1348
aI1349
aI1350
aI1351
aI1352
aI1353
aI1354
aI1355
aI1356
aI1358
aI1378
aI1382
aI1389
asS'id'
p29
I40
sS'died'
p30
g23
(S'\x07\xdd\t\x02\x00\x00\x00\x00\x00\x00'
p31
tp32
Rp33
sb.