ccopy_reg
_reconstructor
p0
(cdataset.Author
Author
p1
c__builtin__
object
p2
Ntp3
Rp4
(dp5
S'gender'
p6
S''
p7
sS'books'
p8
(lp9
I1174
aI1175
aI1179
aI1183
aI1187
aI1189
aI1192
aI1193
aI1195
aI1199
aI1217
asS'id'
p10
I741
sS'name'
p11
VSteven Utley
p12
sS'countries'
p13
(lp14
sb.