ccopy_reg
_reconstructor
p0
(cdataset.Author
Author
p1
c__builtin__
object
p2
Ntp3
Rp4
(dp5
S'books'
p6
(lp7
I427
aI460
aI631
aI676
aI684
aI756
aI809
aI825
aI833
aI837
aI886
asS'wikipedia'
p8
(dp9
S'found'
p10
I00
ssS'name'
p11
VJim Harmon
p12
sS'n_books'
p13
I11
sS'id'
p14
I142
sb.