ccopy_reg
_reconstructor
p0
(cdataset.Author
Author
p1
c__builtin__
object
p2
Ntp3
Rp4
(dp5
S'name'
p6
VVarious
p7
sS'countries'
p8
(lp9
I3
asS'gender'
p10
S''
p11
sS'wikipedia'
p12
(dp13
S'found'
p14
I00
ssS'n_books'
p15
I20
sS'books'
p16
(lp17
I40
aI71
aI73
aI81
aI84
aI97
aI98
aI100
aI101
aI104
aI105
aI114
aI131
aI133
aI158
aI163
aI168
aI185
aI222
aI896
asS'id'
p18
I17
sb.