ccopy_reg
_reconstructor
p0
(cdataset.Author
Author
p1
c__builtin__
object
p2
Ntp3
Rp4
(dp5
S'bio'
p6
VMcCartney was born on April 9, 1987, in Ardsley, Westchester, New York, the son of Ginger (Sarber) and Scott McCartney. He began performing in local community musicals at the age of seven, before joining the national tour of The King and I at age ten along with Phil of the Future star Ricky Ullman. There he played the character of Louis. In 1998, he sang with the group Sugar Beats and can be heard on their 1998, 1999, and 2000 CD releases.
p7
sS'name'
p8
VJesse F. Bone
p9
sS'countries'
p10
(lp11
I2
asS'wikipedia'
p12
(dp13
S'url'
p14
Vhttps://en.wikipedia.org/wiki/Jesse_McCartney
p15
sS'found'
p16
I01
ssS'n_books'
p17
I11
sS'summary'
p18
VJesse McCartney (born April 9, 1987) is an American singer, songwriter, and actor. McCartney achieved fame in the late 1990s on the daytime drama All My Children as JR Chandler. He later joined boy band Dream Street, and eventually branched out into a solo musical career. Additionally, McCartney has appeared on shows such as Law & Order: SVU, Summerland, and Greek. McCartney also is known for lending his voice as Theodore in Alvin and the Chipmunks and its sequels, as well as voicing Robin/Nightwing in Young Justice and Roxas and Ventus in the video game series Kingdom Hearts developed by Square Enix.\u000a\u000a
p19
sS'born'
p20
cdatetime
datetime
p21
(S'\x07\xc3\x04\t\x00\x00\x00\x00\x00\x00'
p22
tp23
Rp24
sS'books'
p25
(lp26
I213
aI352
aI368
aI468
aI479
aI517
aI530
aI532
aI579
aI658
aI919
asS'id'
p27
I68
sb.