ccopy_reg
_reconstructor
p0
(cdataset.Author
Author
p1
c__builtin__
object
p2
Ntp3
Rp4
(dp5
S'gender'
p6
S''
p7
sS'books'
p8
(lp9
I1129
aI1131
aI1132
aI1149
aI1192
aI1344
aI1348
aI1359
aI1365
aI1390
asS'id'
p10
I645
sS'name'
p11
VJames Tiptree, Jr.
p12
sS'countries'
p13
(lp14
sb.