ccopy_reg
_reconstructor
p0
(cdataset.Author
Author
p1
c__builtin__
object
p2
Ntp3
Rp4
(dp5
S'id'
p6
I844
sS'gender'
p7
S''
p8
sS'books'
p9
(lp10
I1206
aI1207
aI1208
aI1209
aI1211
aI1212
aI1213
aI1214
asS'name'
p11
VJohn J. Pierce
p12
sS'countries'
p13
(lp14
sb.