ccopy_reg
_reconstructor
p0
(cdataset.Author
Author
p1
c__builtin__
object
p2
Ntp3
Rp4
(dp5
S'id'
p6
I393
sS'gender'
p7
S''
p8
sS'books'
p9
(lp10
I991
aI996
aI1002
aI1005
aI1017
aI1019
aI1020
aI1022
aI1032
aI1033
aI1040
asS'name'
p11
VF. L. Wallace
p12
sS'countries'
p13
(lp14
sb.