ccopy_reg
_reconstructor
p0
(cdataset.Author
Author
p1
c__builtin__
object
p2
Ntp3
Rp4
(dp5
S'gender'
p6
S''
p7
sS'books'
p8
(lp9
I1093
aI1098
aI1099
aI1100
aI1101
aI1104
aI1108
aI1288
aI1289
aI1291
aI1293
aI1297
aI1307
aI1308
aI1309
aI1310
aI1311
aI1312
aI1315
asS'id'
p10
I578
sS'name'
p11
VJohn Giunta
p12
sS'countries'
p13
(lp14
sb.