ccopy_reg
_reconstructor
p0
(cdataset.Author
Author
p1
c__builtin__
object
p2
Ntp3
Rp4
(dp5
S'name'
p6
S'Stanley Weinbaum'
p7
sS'countries'
p8
(lp9
I2
asS'wikipedia'
p10
(dp11
S'url'
p12
Vhttps://en.wikipedia.org/wiki/Stanley_G._Weinbaum
p13
sS'found'
p14
I01
ssS'n_books'
p15
I4
sS'summary'
p16
VStanley Grauman Weinbaum (April 4, 1902 \u2013 December 14, 1935) was an American science fiction writer. His career in science fiction was short but influential. His first story, "A Martian Odyssey", was published to great (and enduring) acclaim in July 1934, but he succumbed to lung cancer less than a year and a half later.
p17
sS'born'
p18
cdatetime
datetime
p19
(S'\x07n\x04\x04\x00\x00\x00\x00\x00\x00'
p20
tp21
Rp22
sS'books'
p23
(lp24
I184
aI305
aI556
aI791
asS'id'
p25
I62
sS'died'
p26
g19
(S'\x07\x8f\x0c\x0e\x00\x00\x00\x00\x00\x00'
p27
tp28
Rp29
sb.