ccopy_reg
_reconstructor
p0
(cdataset.Author
Author
p1
c__builtin__
object
p2
Ntp3
Rp4
(dp5
S'name'
p6
VRobert Moore Williams
p7
sS'countries'
p8
(lp9
I2
asS'wikipedia'
p10
(dp11
S'url'
p12
Vhttps://en.wikipedia.org/wiki/Robert_Moore_Williams
p13
sS'found'
p14
I01
ssS'n_books'
p15
I6
sS'summary'
p16
VRobert Moore Williams (June 19, 1907 \u2013 May 12, 1977) was an American writer, primarily of science fiction. Pseudonyms included John S Browning, H. H. Harmon, Russell Storm and E. K. Jarvis (a house name).\u000aWilliams was born in Farmington, Missouri. He graduated from the Missouri School of Journalism in 1931. His first published story was "Zero as a Limit", which appeared in Astounding Science Fiction in 1937, under the pseudonym of "Robert Moore". He was a prolific author throughout his career, his last novel appearing in 1972. His "Jongor" series was originally published in Fantastic Adventures in the 1940s and 1950s, and appeared in book form in 1970. By the 1960s he had published over 150 stories.\u000a\u000a
p17
sS'born'
p18
cdatetime
datetime
p19
(S'\x07s\x08\x1a\x00\x00\x00\x00\x00\x00'
p20
tp21
Rp22
sS'books'
p23
(lp24
I414
aI584
aI612
aI691
aI779
aI911
asS'id'
p25
I135
sS'died'
p26
g19
(S'\x07\xb9\x05\x0c\x00\x00\x00\x00\x00\x00'
p27
tp28
Rp29
sb.