ccopy_reg
_reconstructor
p0
(cdataset.Author
Author
p1
c__builtin__
object
p2
Ntp3
Rp4
(dp5
S'id'
p6
I1023
sS'gender'
p7
S''
p8
sS'books'
p9
(lp10
I1250
aI1258
aI1264
aI1329
aI1341
aI1345
aI1350
aI1353
asS'name'
p11
VHarlan Ellison
p12
sS'countries'
p13
(lp14
sb.