ccopy_reg
_reconstructor
p0
(cdataset.Author
Author
p1
c__builtin__
object
p2
Ntp3
Rp4
(dp5
S'name'
p6
VEverett B. Cole
p7
sS'country'
p8
I2
sS'wikipedia'
p9
(dp10
S'url'
p11
Vhttps://en.wikipedia.org/wiki/Everett_B._Cole
p12
sS'found'
p13
I01
ssS'n_books'
p14
I6
sS'summary'
p15
VEverett B. Cole was an American writer of science fiction short stories and a professional soldier. He fought at Omaha Beach during World War II and worked as a signal maintenance and property officer at Fort Douglas, Utah, retiring in 1960. He got a bachelor's degree in Math and Physics and became a Math, Physics, and Chemistry teacher at Yorktown High School in Texas. His first science fiction story, "Philosophical Corps" was published in the magazine Astounding in 1951. His fix-up of that story and two others, The Philosophical Corps, was published by Gnome Press in 1962. A second novel, The Best Made Plans, was serialized in Astounding in 1959, but never published in book form. He also co-authored historical books about the south Texas region.
p16
sS'born'
p17
cdatetime
datetime
p18
(S'\x07v\x04\x11\x00\x00\x00\x00\x00\x00'
p19
tp20
Rp21
sS'books'
p22
(lp23
I683
aI794
aI830
aI875
aI903
aI917
asS'id'
p24
I224
sS'died'
p25
g18
(S'\x07\xd1\x08\x15\x00\x00\x00\x00\x00\x00'
p26
tp27
Rp28
sb.