ccopy_reg
_reconstructor
p0
(cdataset.Author
Author
p1
c__builtin__
object
p2
Ntp3
Rp4
(dp5
S'id'
p6
I341
sS'gender'
p7
S''
p8
sS'books'
p9
(lp10
I974
aI977
aI1001
aI1008
aI1011
aI1014
aI1016
aI1024
aI1026
aI1027
aI1031
aI1041
aI1042
aI1043
aI1049
aI1055
aI1066
aI1084
aI1096
aI1098
aI1139
aI1149
aI1150
aI1151
aI1153
aI1155
aI1156
aI1157
aI1158
aI1159
aI1160
aI1161
aI1162
aI1163
aI1164
aI1165
aI1166
aI1167
aI1168
aI1169
aI1170
aI1171
aI1172
aI1173
aI1175
aI1176
aI1177
aI1178
aI1179
aI1182
asS'name'
p11
VTheodore Sturgeon
p12
sS'countries'
p13
(lp14
sb.