ccopy_reg
_reconstructor
p0
(cdataset.Author
Author
p1
c__builtin__
object
p2
Ntp3
Rp4
(dp5
S'name'
p6
VJesse F. Bone
p7
sS'countries'
p8
(lp9
I2
asS'wikipedia'
p10
(dp11
S'found'
p12
I00
ssS'n_books'
p13
I11
sS'books'
p14
(lp15
I213
aI352
aI368
aI468
aI479
aI517
aI530
aI532
aI579
aI658
aI919
asS'id'
p16
I68
sb.