ccopy_reg
_reconstructor
p0
(cdataset.Author
Author
p1
c__builtin__
object
p2
Ntp3
Rp4
(dp5
S'bio'
p6
V
p7
sS'name'
p8
VWalter S. Tevis
p9
sS'country'
p10
I6
sS'wikipedia'
p11
(dp12
S'url'
p13
Vhttps://en.wikipedia.org/wiki/Walter_Tevis
p14
sS'found'
p15
I01
ssS'n_books'
p16
I1
sS'summary'
p17
VWalter Stone Tevis (February 28, 1928 \u2013 August 8, 1984) was an American novelist and short story writer. Three of his six novels were adapted into major films: The Hustler, The Color of Money and The Man Who Fell to Earth. His books have been translated into at least 18 languages.
p18
sS'born'
p19
cdatetime
datetime
p20
(S'\x07\x88\x08\x1a\x00\x00\x00\x00\x00\x00'
p21
tp22
Rp23
sS'books'
p24
(lp25
I670
asS'id'
p26
I222
sS'died'
p27
g20
(S'\x07\xc0\x08\x08\x00\x00\x00\x00\x00\x00'
p28
tp29
Rp30
sb.