ccopy_reg
_reconstructor
p0
(cdataset.Author
Author
p1
c__builtin__
object
p2
Ntp3
Rp4
(dp5
S'gender'
p6
S''
p7
sS'books'
p8
(lp9
I1128
aI1129
aI1130
aI1131
aI1132
aI1133
aI1134
aI1351
aI1354
aI1355
aI1356
asS'id'
p10
I640
sS'name'
p11
VReese
p12
sS'countries'
p13
(lp14
sb.