ccopy_reg
_reconstructor
p0
(cdataset.Author
Author
p1
c__builtin__
object
p2
Ntp3
Rp4
(dp5
S'books'
p6
(lp7
I400
aI680
aI772
aI793
aI834
asS'wikipedia'
p8
(dp9
S'found'
p10
I00
ssS'name'
p11
VRaymond F. Jones
p12
sS'n_books'
p13
I5
sS'id'
p14
I129
sb.