ccopy_reg
_reconstructor
p0
(cdataset.Author
Author
p1
c__builtin__
object
p2
Ntp3
Rp4
(dp5
S'name'
p6
VPauline Ashwell
p7
sS'wikipedia'
p8
(dp9
S'url'
p10
Vhttps://en.wikipedia.org/wiki/Paul_Ash
p11
sS'found'
p12
I01
ssS'n_books'
p13
I1
sS'summary'
p14
VFor the science fiction writer who wrote under the name "Paul Ash", see Pauline Ashwell\u000a In progress\u000a\u000aPaul Robert Ash (February 11, 1891, Germany \u2014 July 13, 1958, Manhattan, New York) was an American orchestra leader, composer, vaudeville personality, and recording artist.\u000aHe recorded several hit songs: "Rememb'ring" (Brunswick, 1924), with his Granada Orchestra, "My Pet" (Columbia, 1928) and "Shadows on the Swanee" (Columbia, 1933). He also penned Kay Kyser's theme "Thinking of You."
p15
sS'books'
p16
(lp17
I321
asS'id'
p18
I106
sb.