ccopy_reg
_reconstructor
p0
(cdataset.Author
Author
p1
c__builtin__
object
p2
Ntp3
Rp4
(dp5
S'bio'
p6
VNowlan was born on November 13, 1888. While attending the University of Pennsylvania, Nowlan was a member of The Mask and Wig Club, holding significant roles in the annual productions between 1907 and 1909. After graduating from the University of Pennsylvania he worked as a newspaper columnist. Nowlan was married to Theresa Junker. They had ten children: Philip, Mary, Helen, Louise, Theresa, Mike, Larry, Pat, John, and Joe.\u000aHe moved to the Philadelphia suburb of Bala Cynwyd and created and wrote the Buck Rogers comic strip, illustrated by Dick Calkins. He remained a writer on the strip until 1939. The character Buck Rogers first appeared in Nowlan's 1928 novella Armageddon 2419 A.D. as Anthony Rogers. The comic strip ran for over forty years and spun off a radio series, a 1939 movie serial, and two television series.\u000aNowlan also wrote several other novellas for the science fiction magazines as well as the posthumously published mystery, The Girl from Nowhere. Nowlan was born on November 13, 1888. While attending the University of Pennsylvania, Nowlan was a member of The Mask and Wig Club, holding significant roles in the annual productions between 1907 and 1909. After graduating from the University of Pennsylvania he worked as a newspaper columnist. Nowlan was married to Theresa Junker. They had ten children: Philip, Mary, Helen, Louise, Theresa, Mike, Larry, Pat, John, and Joe.\u000aHe moved to the Philadelphia suburb of Bala Cynwyd and created and wrote the Buck Rogers comic strip, illustrated by Dick Calkins. He remained a writer on the strip until 1939. The character Buck Rogers first appeared in Nowlan's 1928 novella Armageddon 2419 A.D. as Anthony Rogers. The comic strip ran for over forty years and spun off a radio series, a 1939 movie serial, and two television series.\u000aNowlan also wrote several other novellas for the science fiction magazines as well as the posthumously published mystery, The Girl from Nowhere. Nowlan was born on November 13, 1888. While attending the University of Pennsylvania, Nowlan was a member of The Mask and Wig Club, holding significant roles in the annual productions between 1907 and 1909. After graduating from the University of Pennsylvania he worked as a newspaper columnist. Nowlan was married to Theresa Junker. They had ten children: Philip, Mary, Helen, Louise, Theresa, Mike, Larry, Pat, John, and Joe.\u000aHe moved to the Philadelphia suburb of Bala Cynwyd and created and wrote the Buck Rogers comic strip, illustrated by Dick Calkins. He remained a writer on the strip until 1939. The character Buck Rogers first appeared in Nowlan's 1928 novella Armageddon 2419 A.D. as Anthony Rogers. The comic strip ran for over forty years and spun off a radio series, a 1939 movie serial, and two television series.\u000aNowlan also wrote several other novellas for the science fiction magazines as well as the posthumously published mystery, The Girl from Nowhere.
p7
sS'name'
p8
VPhilip Francis Nowlan
p9
sS'countries'
p10
(lp11
I2
asS'gender'
p12
S'm'
p13
sS'wikipedia'
p14
(dp15
S'url'
p16
S'https://en.wikipedia.org/wiki/Philip_Francis_Nowlan'
p17
sS'found'
p18
I01
ssS'n_books'
p19
I2
sS'summary'
p20
VPhilip Francis Nowlan (November 13, 1888 \u2013 February 1, 1940) was an American science fiction author, best known as the creator of Buck Rogers.
p21
sS'born'
p22
cdatetime
datetime
p23
(S'\x07`\n\x11\x00\x00\x00\x00\x00\x00'
p24
tp25
Rp26
sS'books'
p27
(lp28
I53
aI160
asS'id'
p29
I20
sS'died'
p30
g23
(S'\x07\x94\x02\x01\x00\x00\x00\x00\x00\x00'
p31
tp32
Rp33
sb.