ccopy_reg
_reconstructor
p0
(cdataset.Author
Author
p1
c__builtin__
object
p2
Ntp3
Rp4
(dp5
S'name'
p6
VRobert Zacks
p7
sS'countries'
p8
(lp9
I3
asS'gender'
p10
S'm'
p11
sS'wikipedia'
p12
(dp13
S'found'
p14
I00
ssS'n_books'
p15
I2
sS'books'
p16
(lp17
I578
aI636
asS'id'
p18
I193
sb.