ccopy_reg
_reconstructor
p0
(cdataset.Author
Author
p1
c__builtin__
object
p2
Ntp3
Rp4
(dp5
S'id'
p6
I630
sS'gender'
p7
S''
p8
sS'books'
p9
(lp10
I1123
aI1134
aI1135
aI1137
aI1139
aI1140
aI1147
aI1149
aI1153
aI1160
aI1162
aI1163
aI1186
asS'name'
p11
VA. Bertram Chandler
p12
sS'countries'
p13
(lp14
sb.