ccopy_reg
_reconstructor
p0
(cdataset.Author
Author
p1
c__builtin__
object
p2
Ntp3
Rp4
(dp5
S'books'
p6
(lp7
I614
aI722
aI777
aI827
aI869
aI943
aI952
asS'wikipedia'
p8
(dp9
S'found'
p10
I00
ssS'name'
p11
VJack Sharkey
p12
sS'n_books'
p13
I7
sS'id'
p14
I205
sb.