ccopy_reg
_reconstructor
p0
(cdataset.Author
Author
p1
c__builtin__
object
p2
Ntp3
Rp4
(dp5
S'name'
p6
VRandall Garrett
p7
sS'countries'
p8
(lp9
I2
asS'gender'
p10
S'm'
p11
sS'wikipedia'
p12
(dp13
S'url'
p14
S'https://en.wikipedia.org/wiki/Randall_Garrett'
p15
sS'found'
p16
I01
ssS'n_books'
p17
I44
sS'summary'
p18
VRandall Garrett (December 16, 1927 \u2013 December 31, 1987) was an American science fiction and fantasy author. He was a prolific contributor to Astounding and other science fiction magazines of the 1950s and 1960s. He instructed Robert Silverberg in the techniques of selling large quantities of action-adventure science fiction, and collaborated with him on two novels about Earth bringing civilization to an alien planet.
p19
sS'born'
p20
cdatetime
datetime
p21
(S'\x07\x87\x0c\x10\x00\x00\x00\x00\x00\x00'
p22
tp23
Rp24
sS'books'
p25
(lp26
I141
aI161
aI194
aI216
aI236
aI281
aI300
aI317
aI342
aI343
aI353
aI363
aI369
aI370
aI371
aI386
aI397
aI399
aI401
aI402
aI415
aI436
aI437
aI438
aI450
aI452
aI453
aI470
aI471
aI480
aI481
aI494
aI507
aI529
aI533
aI560
aI562
aI581
aI625
aI647
aI700
aI708
aI854
aI879
asS'id'
p27
I49
sS'died'
p28
g21
(S'\x07\xc3\x0c\x1f\x00\x00\x00\x00\x00\x00'
p29
tp30
Rp31
sb.