ccopy_reg
_reconstructor
p0
(cdataset.Author
Author
p1
c__builtin__
object
p2
Ntp3
Rp4
(dp5
S'id'
p6
I817
sS'gender'
p7
S''
p8
sS'books'
p9
(lp10
I1199
aI1200
aI1201
aI1202
aI1203
aI1205
aI1206
aI1209
aI1212
asS'name'
p11
VCharles Sheffield
p12
sS'countries'
p13
(lp14
sb.