ccopy_reg
_reconstructor
p0
(cdataset.Author
Author
p1
c__builtin__
object
p2
Ntp3
Rp4
(dp5
S'name'
p6
VDonald Keith
p7
sS'countries'
p8
(lp9
I2
asS'wikipedia'
p10
(dp11
S'url'
p12
Vhttps://en.wikipedia.org/wiki/Keith_Monroe
p13
sS'found'
p14
I01
ssS'n_books'
p15
I1
sS'summary'
p16
VKeith Monroe (22 August 1915 \u2013 30 August 2003) was an American author of children's science fiction and of books and magazine articles about Boy Scouting.\u000aMonroe attended Stanford University and UCLA. He worked as a reporter for the New York Herald Tribune, for advertising and public relations firms, and for North American Rockwell. At times, he was a full-time freelance writer.\u000aHis work appeared in such magazines as Saturday Evening Post, New Yorker, Harper's, Blue Book, Galaxy, Argosy, Boys' Life, and Scouting. His pseudonyms included Donald Keith, Rice E. Cochran, and Dale Colombo.
p17
sS'born'
p18
cdatetime
datetime
p19
(S'\x07{\x08\x16\x00\x00\x00\x00\x00\x00'
p20
tp21
Rp22
sS'books'
p23
(lp24
I931
asS'id'
p25
I281
sS'died'
p26
g19
(S'\x07\xd3\x08\x1e\x00\x00\x00\x00\x00\x00'
p27
tp28
Rp29
sb.