ccopy_reg
_reconstructor
p0
(cdataset.Author
Author
p1
c__builtin__
object
p2
Ntp3
Rp4
(dp5
S'gender'
p6
S''
p7
sS'books'
p8
(lp9
I1102
aI1113
aI1121
aI1123
aI1125
aI1127
aI1131
aI1292
asS'id'
p10
I592
sS'name'
p11
VBrian W. Aldiss
p12
sS'countries'
p13
(lp14
sb.