ccopy_reg
_reconstructor
p0
(cdataset.Author
Author
p1
c__builtin__
object
p2
Ntp3
Rp4
(dp5
S'gender'
p6
S''
p7
sS'books'
p8
(lp9
I1058
aI1065
aI1066
aI1068
aI1070
aI1072
aI1083
aI1274
asS'id'
p10
I523
sS'name'
p11
VMartinez
p12
sS'countries'
p13
(lp14
sb.