ccopy_reg
_reconstructor
p0
(cdataset.Author
Author
p1
c__builtin__
object
p2
Ntp3
Rp4
(dp5
S'id'
p6
I640
sS'gender'
p7
S''
p8
sS'books'
p9
(lp10
I1128
aI1129
aI1130
aI1131
aI1132
aI1133
aI1134
asS'name'
p11
VReese
p12
sS'countries'
p13
(lp14
sb.