ccopy_reg
_reconstructor
p0
(cdataset.Author
Author
p1
c__builtin__
object
p2
Ntp3
Rp4
(dp5
S'id'
p6
I577
sS'gender'
p7
S''
p8
sS'books'
p9
(lp10
I1092
aI1100
aI1126
aI1133
aI1160
aI1167
aI1169
aI1171
asS'name'
p11
VSydney J. Van Scyoc
p12
sS'countries'
p13
(lp14
sb.