ccopy_reg
_reconstructor
p0
(cdataset.Author
Author
p1
c__builtin__
object
p2
Ntp3
Rp4
(dp5
S'books'
p6
(lp7
I719
aI726
asS'wikipedia'
p8
(dp9
S'found'
p10
I00
ssS'name'
p11
VHerbert D. Kastle
p12
sS'n_books'
p13
I2
sS'id'
p14
I234
sb.