ccopy_reg
_reconstructor
p0
(cdataset.Author
Author
p1
c__builtin__
object
p2
Ntp3
Rp4
(dp5
S'name'
p6
VFletcher Pratt
p7
sS'countries'
p8
(lp9
I2
asS'gender'
p10
S'm'
p11
sS'wikipedia'
p12
(dp13
S'url'
p14
Vhttps://en.wikipedia.org/wiki/Fletcher_Pratt
p15
sS'found'
p16
I01
ssS'n_books'
p17
I1
sS'summary'
p18
VMurray Fletcher Pratt (25 April 1897 \u2013 10 June 1956) was an American writer of science fiction, fantasy and history. He is best known for his works on naval history and on the American Civil War and for fiction written with L. Sprague de Camp.
p19
sS'born'
p20
cdatetime
datetime
p21
(S'\x07i\x04\x19\x00\x00\x00\x00\x00\x00'
p22
tp23
Rp24
sS'books'
p25
(lp26
I309
asS'id'
p27
I101
sS'died'
p28
g21
(S'\x07\xa4\x06\n\x00\x00\x00\x00\x00\x00'
p29
tp30
Rp31
sb.