ccopy_reg
_reconstructor
p0
(cdataset.Author
Author
p1
c__builtin__
object
p2
Ntp3
Rp4
(dp5
S'name'
p6
VNathaniel Gordon
p7
sS'countries'
p8
(lp9
I3
asS'gender'
p10
S''
p11
sS'wikipedia'
p12
(dp13
S'url'
p14
S'd'
p15
sS'found'
p16
I01
ssS'n_books'
p17
I1
sS'books'
p18
(lp19
I951
asS'id'
p20
I290
sb.