ccopy_reg
_reconstructor
p0
(cdataset.Author
Author
p1
c__builtin__
object
p2
Ntp3
Rp4
(dp5
S'name'
p6
VC. C. MacApp
p7
sS'countries'
p8
(lp9
I2
asS'gender'
p10
S'm'
p11
sS'wikipedia'
p12
(dp13
S'url'
p14
S'https://en.wikipedia.org/wiki/C._C._MacApp'
p15
sS'found'
p16
I01
ssS'n_books'
p17
I2
sS'summary'
p18
VC. C. MacApp, pseudonym of Carroll Mather Capps (27 November 1917 \u2013 15 January 1971) was an American science fiction author. He was also a long-time benefactor of San Francisco chess. He was a former president of the San Francisco Bay Area Chess League, and won the Northern California and San Francisco chess championship several times.
p19
sS'books'
p20
(lp21
I346
aI607
aI1083
aI1098
aI1105
aI1106
aI1118
asS'id'
p22
I111
sb.