ccopy_reg
_reconstructor
p0
(cdataset.Author
Author
p1
c__builtin__
object
p2
Ntp3
Rp4
(dp5
S'gender'
p6
S''
p7
sS'books'
p8
(lp9
I1090
aI1284
aI1285
aI1287
asS'id'
p10
I573
sS'name'
p11
VDyas
p12
sS'countries'
p13
(lp14
sb.