ccopy_reg
_reconstructor
p0
(cdataset.Author
Author
p1
c__builtin__
object
p2
Ntp3
Rp4
(dp5
S'gender'
p6
S''
p7
sS'books'
p8
(lp9
I1123
aI1124
aI1126
aI1343
aI1344
aI1345
aI1346
aI1347
asS'id'
p10
I624
sS'name'
p11
VJoe Wehrle, Jr.
p12
sS'countries'
p13
(lp14
sb.