ccopy_reg
_reconstructor
p0
(cdataset.Author
Author
p1
c__builtin__
object
p2
Ntp3
Rp4
(dp5
S'name'
p6
VEverett B. Cole
p7
sS'wikipedia'
p8
(dp9
S'url'
p10
Vhttps://en.wikipedia.org/wiki/Everett_B._Cole
p11
sS'found'
p12
I01
ssS'n_books'
p13
I6
sS'summary'
p14
VEverett B. Cole was an American writer of science fiction short stories and a professional soldier. He fought at Omaha Beach during World War II and worked as a signal maintenance and property officer at Fort Douglas, Utah, retiring in 1960. He got a bachelor's degree in Math and Physics and became a Math, Physics, and Chemistry teacher at Yorktown High School in Texas. His first science fiction story, "Philosophical Corps" was published in the magazine Astounding in 1951. His fix-up of that story and two others, The Philosophical Corps, was published by Gnome Press in 1962. A second novel, The Best Made Plans, was serialized in Astounding in 1959, but never published in book form. He also co-authored historical books about the south Texas region.
p15
sS'born'
p16
cdatetime
datetime
p17
(S'\x07v\x04\x11\x00\x00\x00\x00\x00\x00'
p18
tp19
Rp20
sS'books'
p21
(lp22
I683
aI794
aI830
aI875
aI903
aI917
asS'id'
p23
I224
sS'died'
p24
g17
(S'\x07\xd1\x08\x15\x00\x00\x00\x00\x00\x00'
p25
tp26
Rp27
sb.