ccopy_reg
_reconstructor
p0
(cdataset.Author
Author
p1
c__builtin__
object
p2
Ntp3
Rp4
(dp5
S'name'
p6
VAlgis Budrys
p7
sS'country'
p8
I2
sS'wikipedia'
p9
(dp10
S'url'
p11
Vhttps://en.wikipedia.org/wiki/Budrys
p12
sS'found'
p13
I01
ssS'n_books'
p14
I7
sS'summary'
p15
VBudrys is a Lithuanian surname. Notable people with the surname include:\u000aAlgirdas Budrys (born 1939), Lithuanian musician\u000aAlgis Budrys (1931\u20132008), Lithuanian-American writer\u000aEugenijus Mindaugas Budrys (1925\u20132007), Lithuanian painter\u000aIgnas Budrys (1933\u20131999), Lithuanian painter\u000aPovilas Budrys (born 1962), Lithuanian actor and artist
p16
sS'books'
p17
(lp18
I279
aI307
aI314
aI432
aI593
aI716
aI842
asS'id'
p19
I91
sb.