ccopy_reg
_reconstructor
p0
(cdataset.Author
Author
p1
c__builtin__
object
p2
Ntp3
Rp4
(dp5
S'bio'
p6
VRobert Barr died from heart disease on 21 October 1912, at his home in Woldingham, a small village to the southeast of London.
p7
sS'name'
p8
VRobert Barr
p9
sS'countries'
p10
(lp11
I8
aI1
asS'gender'
p12
S'm'
p13
sS'wikipedia'
p14
(dp15
S'url'
p16
Vhttps://en.wikipedia.org/wiki/Robert_Barr_(writer)
p17
sS'found'
p18
I01
ssS'n_books'
p19
I1
sS'summary'
p20
VRobert Barr (16 September 1849 \u2013 21 October 1912) was a Scottish-Canadian short story writer and novelist, born in Glasgow, Scotland.\u000a\u000a
p21
sS'born'
p22
cdatetime
datetime
p23
(S'\x079\t\x10\x00\x00\x00\x00\x00\x00'
p24
tp25
Rp26
sS'books'
p27
(lp28
I229
asS'id'
p29
I75
sS'died'
p30
g23
(S'\x07x\n\x15\x00\x00\x00\x00\x00\x00'
p31
tp32
Rp33
sb.