ccopy_reg
_reconstructor
p0
(cdataset.Author
Author
p1
c__builtin__
object
p2
Ntp3
Rp4
(dp5
S'name'
p6
VBoyd Ellanby
p7
sS'country'
p8
I3
sS'wikipedia'
p9
(dp10
S'found'
p11
I00
ssS'n_books'
p12
I4
sS'books'
p13
(lp14
I442
aI694
aI924
aI947
asS'id'
p15
I149
sb.