ccopy_reg
_reconstructor
p0
(cdataset.Author
Author
p1
c__builtin__
object
p2
Ntp3
Rp4
(dp5
S'bio'
p6
V
p7
sS'name'
p8
VWalter S. Tevis
p9
sS'countries'
p10
(lp11
I2
asS'wikipedia'
p12
(dp13
S'url'
p14
Vhttps://en.wikipedia.org/wiki/Walter_Tevis
p15
sS'found'
p16
I01
ssS'n_books'
p17
I1
sS'summary'
p18
VWalter Stone Tevis (February 28, 1928 \u2013 August 8, 1984) was an American novelist and short story writer. Three of his six novels were adapted into major films: The Hustler, The Color of Money and The Man Who Fell to Earth. His books have been translated into at least 18 languages.
p19
sS'born'
p20
cdatetime
datetime
p21
(S'\x07\x88\x08\x1a\x00\x00\x00\x00\x00\x00'
p22
tp23
Rp24
sS'books'
p25
(lp26
I670
asS'id'
p27
I222
sS'died'
p28
g21
(S'\x07\xc0\x08\x08\x00\x00\x00\x00\x00\x00'
p29
tp30
Rp31
sb.